ARM GAS  C:\Users\Abude\AppData\Local\Temp\cc5Jkl0f.s 			page 1


   1              		.syntax unified
   2              		.cpu cortex-m3
   3              		.fpu softvfp
   4              		.eabi_attribute 20, 1
   5              		.eabi_attribute 21, 1
   6              		.eabi_attribute 23, 3
   7              		.eabi_attribute 24, 1
   8              		.eabi_attribute 25, 1
   9              		.eabi_attribute 26, 1
  10              		.eabi_attribute 30, 1
  11              		.eabi_attribute 34, 1
  12              		.eabi_attribute 18, 4
  13              		.thumb
  14              		.syntax unified
  15              		.file	"main.c"
  16              		.text
  17              	.Ltext0:
  18              		.cfi_sections	.debug_frame
  19              		.section	.text.main,"ax",%progbits
  20              		.align	2
  21              		.global	main
  22              		.thumb
  23              		.thumb_func
  24              		.type	main, %function
  25              	main:
  26              	.LFB63:
  27              		.file 1 "main.c"
   1:main.c        **** /* ========================================
   2:main.c        ****  *
   3:main.c        ****  * Copyright YOUR COMPANY, THE YEAR
   4:main.c        ****  * All Rights Reserved
   5:main.c        ****  * UNPUBLISHED, LICENSED SOFTWARE.
   6:main.c        ****  *
   7:main.c        ****  * CONFIDENTIAL AND PROPRIETARY INFORMATION
   8:main.c        ****  * WHICH IS THE PROPERTY OF your company.
   9:main.c        ****  *
  10:main.c        ****  * ========================================
  11:main.c        **** */
  12:main.c        **** #include "project.h"
  13:main.c        **** 
  14:main.c        **** #define SECONDS(i)  (CyDelay(i * 1000)) 
  15:main.c        **** 
  16:main.c        **** int main(void)
  17:main.c        **** {
  28              		.loc 1 17 0
  29              		.cfi_startproc
  30              		@ Volatile: function does not return.
  31              		@ args = 0, pretend = 0, frame = 0
  32              		@ frame_needed = 0, uses_anonymous_args = 0
  33 0000 08B5     		push	{r3, lr}
  34              		.cfi_def_cfa_offset 8
  35              		.cfi_offset 3, -8
  36              		.cfi_offset 14, -4
  18:main.c        ****     CyGlobalIntEnable; /* Enable global interrupts. */
  37              		.loc 1 18 0
  38              		.syntax unified
  39              	@ 18 "main.c" 1
ARM GAS  C:\Users\Abude\AppData\Local\Temp\cc5Jkl0f.s 			page 2


  40 0002 62B6     		CPSIE   i
  41              	@ 0 "" 2
  19:main.c        **** 
  20:main.c        ****     /* Place your initialization/startup code here (e.g. MyInst_Start()) */
  21:main.c        ****     PWM_MOTOR_SPEED_Start();
  42              		.loc 1 21 0
  43              		.thumb
  44              		.syntax unified
  45 0004 FFF7FEFF 		bl	PWM_MOTOR_SPEED_Start
  46              	.LVL0:
  47              	.L2:
  22:main.c        **** 
  23:main.c        ****     for(;;)
  24:main.c        ****     {
  25:main.c        ****         PWM_MOTOR_SPEED_WriteCompare(8000);
  48              		.loc 1 25 0 discriminator 1
  49 0008 4FF4FA50 		mov	r0, #8000
  50 000c FFF7FEFF 		bl	PWM_MOTOR_SPEED_WriteCompare
  51              	.LVL1:
  26:main.c        ****         SECONDS(2);
  52              		.loc 1 26 0 discriminator 1
  53 0010 4FF4FA60 		mov	r0, #2000
  54 0014 FFF7FEFF 		bl	CyDelay
  55              	.LVL2:
  27:main.c        ****         PWM_MOTOR_SPEED_WriteCompare(4500);
  56              		.loc 1 27 0 discriminator 1
  57 0018 41F29410 		movw	r0, #4500
  58 001c FFF7FEFF 		bl	PWM_MOTOR_SPEED_WriteCompare
  59              	.LVL3:
  28:main.c        ****         SECONDS(2);
  60              		.loc 1 28 0 discriminator 1
  61 0020 4FF4FA60 		mov	r0, #2000
  62 0024 FFF7FEFF 		bl	CyDelay
  63              	.LVL4:
  29:main.c        ****         PWM_MOTOR_SPEED_WriteCompare(1000);
  64              		.loc 1 29 0 discriminator 1
  65 0028 4FF47A70 		mov	r0, #1000
  66 002c FFF7FEFF 		bl	PWM_MOTOR_SPEED_WriteCompare
  67              	.LVL5:
  30:main.c        ****         SECONDS(2);
  68              		.loc 1 30 0 discriminator 1
  69 0030 4FF4FA60 		mov	r0, #2000
  70 0034 FFF7FEFF 		bl	CyDelay
  71              	.LVL6:
  31:main.c        ****         PWM_MOTOR_SPEED_WriteCompare(0);
  72              		.loc 1 31 0 discriminator 1
  73 0038 0020     		movs	r0, #0
  74 003a FFF7FEFF 		bl	PWM_MOTOR_SPEED_WriteCompare
  75              	.LVL7:
  32:main.c        ****         SECONDS(2);
  76              		.loc 1 32 0 discriminator 1
  77 003e 4FF4FA60 		mov	r0, #2000
  78 0042 FFF7FEFF 		bl	CyDelay
  79              	.LVL8:
  80 0046 DFE7     		b	.L2
  81              		.cfi_endproc
  82              	.LFE63:
ARM GAS  C:\Users\Abude\AppData\Local\Temp\cc5Jkl0f.s 			page 3


  83              		.size	main, .-main
  84              		.section	.text.Pump,"ax",%progbits
  85              		.align	2
  86              		.global	Pump
  87              		.thumb
  88              		.thumb_func
  89              		.type	Pump, %function
  90              	Pump:
  91              	.LFB64:
  33:main.c        ****     }
  34:main.c        **** }
  35:main.c        **** 
  36:main.c        **** void Pump(){
  92              		.loc 1 36 0
  93              		.cfi_startproc
  94              		@ args = 0, pretend = 0, frame = 0
  95              		@ frame_needed = 0, uses_anonymous_args = 0
  96 0000 08B5     		push	{r3, lr}
  97              		.cfi_def_cfa_offset 8
  98              		.cfi_offset 3, -8
  99              		.cfi_offset 14, -4
  37:main.c        ****     DIRECTION_Write(0);
 100              		.loc 1 37 0
 101 0002 0020     		movs	r0, #0
 102 0004 FFF7FEFF 		bl	DIRECTION_Write
 103              	.LVL9:
  38:main.c        ****     PWM_MOTOR_SPEED_WriteCompare(8000);
 104              		.loc 1 38 0
 105 0008 4FF4FA50 		mov	r0, #8000
 106 000c FFF7FEFF 		bl	PWM_MOTOR_SPEED_WriteCompare
 107              	.LVL10:
  39:main.c        ****     SECONDS(4);
 108              		.loc 1 39 0
 109 0010 4FF47A60 		mov	r0, #4000
 110 0014 FFF7FEFF 		bl	CyDelay
 111              	.LVL11:
  40:main.c        ****     PWM_MOTOR_SPEED_WriteCompare(0);
 112              		.loc 1 40 0
 113 0018 0020     		movs	r0, #0
 114 001a FFF7FEFF 		bl	PWM_MOTOR_SPEED_WriteCompare
 115              	.LVL12:
  41:main.c        ****     SECONDS(1);
 116              		.loc 1 41 0
 117 001e 4FF47A70 		mov	r0, #1000
 118 0022 FFF7FEFF 		bl	CyDelay
 119              	.LVL13:
 120 0026 08BD     		pop	{r3, pc}
 121              		.cfi_endproc
 122              	.LFE64:
 123              		.size	Pump, .-Pump
 124              		.section	.text.Wash,"ax",%progbits
 125              		.align	2
 126              		.global	Wash
 127              		.thumb
 128              		.thumb_func
 129              		.type	Wash, %function
 130              	Wash:
ARM GAS  C:\Users\Abude\AppData\Local\Temp\cc5Jkl0f.s 			page 4


 131              	.LFB65:
  42:main.c        **** }
  43:main.c        **** 
  44:main.c        **** void Wash(int rotateTime, int repetitions){
 132              		.loc 1 44 0
 133              		.cfi_startproc
 134              		@ args = 0, pretend = 0, frame = 0
 135              		@ frame_needed = 0, uses_anonymous_args = 0
 136              	.LVL14:
 137 0000 2DE9F041 		push	{r4, r5, r6, r7, r8, lr}
 138              		.cfi_def_cfa_offset 24
 139              		.cfi_offset 4, -24
 140              		.cfi_offset 5, -20
 141              		.cfi_offset 6, -16
 142              		.cfi_offset 7, -12
 143              		.cfi_offset 8, -8
 144              		.cfi_offset 14, -4
 145 0004 8046     		mov	r8, r0
 146 0006 0F46     		mov	r7, r1
 147              	.LVL15:
 148              	.LBB2:
  45:main.c        ****     
  46:main.c        ****     for(int i = 0; i < repetitions; i++){
 149              		.loc 1 46 0
 150 0008 0025     		movs	r5, #0
 151 000a 23E0     		b	.L7
 152              	.LVL16:
 153              	.L8:
  47:main.c        ****         DIRECTION_Write(0);
 154              		.loc 1 47 0 discriminator 3
 155 000c 0020     		movs	r0, #0
 156 000e FFF7FEFF 		bl	DIRECTION_Write
 157              	.LVL17:
  48:main.c        ****         PWM_MOTOR_SPEED_WriteCompare(1000);
 158              		.loc 1 48 0 discriminator 3
 159 0012 4FF47A70 		mov	r0, #1000
 160 0016 FFF7FEFF 		bl	PWM_MOTOR_SPEED_WriteCompare
 161              	.LVL18:
  49:main.c        ****         SECONDS(rotateTime);
 162              		.loc 1 49 0 discriminator 3
 163 001a 4FF47A74 		mov	r4, #1000
 164 001e 04FB08F6 		mul	r6, r4, r8
 165 0022 3046     		mov	r0, r6
 166 0024 FFF7FEFF 		bl	CyDelay
 167              	.LVL19:
  50:main.c        ****         PWM_MOTOR_SPEED_WriteCompare(0);
 168              		.loc 1 50 0 discriminator 3
 169 0028 0020     		movs	r0, #0
 170 002a FFF7FEFF 		bl	PWM_MOTOR_SPEED_WriteCompare
 171              	.LVL20:
  51:main.c        ****         SECONDS(1);
 172              		.loc 1 51 0 discriminator 3
 173 002e 2046     		mov	r0, r4
 174 0030 FFF7FEFF 		bl	CyDelay
 175              	.LVL21:
  52:main.c        ****         DIRECTION_Write(1);
 176              		.loc 1 52 0 discriminator 3
ARM GAS  C:\Users\Abude\AppData\Local\Temp\cc5Jkl0f.s 			page 5


 177 0034 0120     		movs	r0, #1
 178 0036 FFF7FEFF 		bl	DIRECTION_Write
 179              	.LVL22:
  53:main.c        ****         PWM_MOTOR_SPEED_WriteCompare(1000);
 180              		.loc 1 53 0 discriminator 3
 181 003a 2046     		mov	r0, r4
 182 003c FFF7FEFF 		bl	PWM_MOTOR_SPEED_WriteCompare
 183              	.LVL23:
  54:main.c        ****         SECONDS(rotateTime);
 184              		.loc 1 54 0 discriminator 3
 185 0040 3046     		mov	r0, r6
 186 0042 FFF7FEFF 		bl	CyDelay
 187              	.LVL24:
  55:main.c        ****         PWM_MOTOR_SPEED_WriteCompare(0);
 188              		.loc 1 55 0 discriminator 3
 189 0046 0020     		movs	r0, #0
 190 0048 FFF7FEFF 		bl	PWM_MOTOR_SPEED_WriteCompare
 191              	.LVL25:
  56:main.c        ****         SECONDS(1);
 192              		.loc 1 56 0 discriminator 3
 193 004c 2046     		mov	r0, r4
 194 004e FFF7FEFF 		bl	CyDelay
 195              	.LVL26:
  46:main.c        ****         DIRECTION_Write(0);
 196              		.loc 1 46 0 discriminator 3
 197 0052 0135     		adds	r5, r5, #1
 198              	.LVL27:
 199              	.L7:
  46:main.c        ****         DIRECTION_Write(0);
 200              		.loc 1 46 0 is_stmt 0 discriminator 1
 201 0054 BD42     		cmp	r5, r7
 202 0056 D9DB     		blt	.L8
 203              	.LBE2:
  57:main.c        ****     }
  58:main.c        **** }
 204              		.loc 1 58 0 is_stmt 1
 205 0058 BDE8F081 		pop	{r4, r5, r6, r7, r8, pc}
 206              		.cfi_endproc
 207              	.LFE65:
 208              		.size	Wash, .-Wash
 209              		.section	.text.Spin,"ax",%progbits
 210              		.align	2
 211              		.global	Spin
 212              		.thumb
 213              		.thumb_func
 214              		.type	Spin, %function
 215              	Spin:
 216              	.LFB66:
  59:main.c        **** 
  60:main.c        **** void Spin(){
 217              		.loc 1 60 0
 218              		.cfi_startproc
 219              		@ args = 0, pretend = 0, frame = 0
 220              		@ frame_needed = 0, uses_anonymous_args = 0
 221 0000 08B5     		push	{r3, lr}
 222              		.cfi_def_cfa_offset 8
 223              		.cfi_offset 3, -8
ARM GAS  C:\Users\Abude\AppData\Local\Temp\cc5Jkl0f.s 			page 6


 224              		.cfi_offset 14, -4
  61:main.c        ****     DIRECTION_Write(0);
 225              		.loc 1 61 0
 226 0002 0020     		movs	r0, #0
 227 0004 FFF7FEFF 		bl	DIRECTION_Write
 228              	.LVL28:
  62:main.c        ****     PWM_MOTOR_SPEED_WriteCompare(1000);
 229              		.loc 1 62 0
 230 0008 4FF47A70 		mov	r0, #1000
 231 000c FFF7FEFF 		bl	PWM_MOTOR_SPEED_WriteCompare
 232              	.LVL29:
  63:main.c        ****     SECONDS(3);
 233              		.loc 1 63 0
 234 0010 40F6B830 		movw	r0, #3000
 235 0014 FFF7FEFF 		bl	CyDelay
 236              	.LVL30:
  64:main.c        ****     PWM_MOTOR_SPEED_WriteCompare(0);
 237              		.loc 1 64 0
 238 0018 0020     		movs	r0, #0
 239 001a FFF7FEFF 		bl	PWM_MOTOR_SPEED_WriteCompare
 240              	.LVL31:
  65:main.c        ****     SECONDS(1);
 241              		.loc 1 65 0
 242 001e 4FF47A70 		mov	r0, #1000
 243 0022 FFF7FEFF 		bl	CyDelay
 244              	.LVL32:
  66:main.c        ****     PWM_MOTOR_SPEED_WriteCompare(4500);
 245              		.loc 1 66 0
 246 0026 41F29410 		movw	r0, #4500
 247 002a FFF7FEFF 		bl	PWM_MOTOR_SPEED_WriteCompare
 248              	.LVL33:
  67:main.c        ****     SECONDS(3);
 249              		.loc 1 67 0
 250 002e 40F6B830 		movw	r0, #3000
 251 0032 FFF7FEFF 		bl	CyDelay
 252              	.LVL34:
  68:main.c        ****     PWM_MOTOR_SPEED_WriteCompare(0);
 253              		.loc 1 68 0
 254 0036 0020     		movs	r0, #0
 255 0038 FFF7FEFF 		bl	PWM_MOTOR_SPEED_WriteCompare
 256              	.LVL35:
  69:main.c        ****     SECONDS(1);
 257              		.loc 1 69 0
 258 003c 4FF47A70 		mov	r0, #1000
 259 0040 FFF7FEFF 		bl	CyDelay
 260              	.LVL36:
  70:main.c        ****     DIRECTION_Write(1);
 261              		.loc 1 70 0
 262 0044 0120     		movs	r0, #1
 263 0046 FFF7FEFF 		bl	DIRECTION_Write
 264              	.LVL37:
  71:main.c        ****     PWM_MOTOR_SPEED_WriteCompare(8000);
 265              		.loc 1 71 0
 266 004a 4FF4FA50 		mov	r0, #8000
 267 004e FFF7FEFF 		bl	PWM_MOTOR_SPEED_WriteCompare
 268              	.LVL38:
  72:main.c        ****     SECONDS(3);
ARM GAS  C:\Users\Abude\AppData\Local\Temp\cc5Jkl0f.s 			page 7


 269              		.loc 1 72 0
 270 0052 40F6B830 		movw	r0, #3000
 271 0056 FFF7FEFF 		bl	CyDelay
 272              	.LVL39:
  73:main.c        ****     PWM_MOTOR_SPEED_WriteCompare(0);
 273              		.loc 1 73 0
 274 005a 0020     		movs	r0, #0
 275 005c FFF7FEFF 		bl	PWM_MOTOR_SPEED_WriteCompare
 276              	.LVL40:
  74:main.c        ****     SECONDS(1);
 277              		.loc 1 74 0
 278 0060 4FF47A70 		mov	r0, #1000
 279 0064 FFF7FEFF 		bl	CyDelay
 280              	.LVL41:
 281 0068 08BD     		pop	{r3, pc}
 282              		.cfi_endproc
 283              	.LFE66:
 284              		.size	Spin, .-Spin
 285 006a 00BF     		.text
 286              	.Letext0:
 287              		.file 2 "c:\\program files (x86)\\cypress\\psoc creator\\4.4\\psoc creator\\import\\gnu\\arm\\5.4.
 288              		.file 3 "c:\\program files (x86)\\cypress\\psoc creator\\4.4\\psoc creator\\import\\gnu\\arm\\5.4.
 289              		.file 4 "Generated_Source\\PSoC5/PWM_MOTOR_SPEED.h"
 290              		.file 5 "Generated_Source\\PSoC5/CyLib.h"
 291              		.file 6 "Generated_Source\\PSoC5/DIRECTION.h"
 292              		.file 7 "Generated_Source\\PSoC5/core_cm3.h"