ARM GAS  C:\Users\Abude\AppData\Local\Temp\ccwBzbZN.s 			page 1


   1              		.syntax unified
   2              		.cpu cortex-m3
   3              		.fpu softvfp
   4              		.eabi_attribute 20, 1
   5              		.eabi_attribute 21, 1
   6              		.eabi_attribute 23, 3
   7              		.eabi_attribute 24, 1
   8              		.eabi_attribute 25, 1
   9              		.eabi_attribute 26, 1
  10              		.eabi_attribute 30, 1
  11              		.eabi_attribute 34, 1
  12              		.eabi_attribute 18, 4
  13              		.thumb
  14              		.syntax unified
  15              		.file	"main.c"
  16              		.text
  17              	.Ltext0:
  18              		.cfi_sections	.debug_frame
  19              		.section	.text.PWM_TACHO_InterruptHandler,"ax",%progbits
  20              		.align	2
  21              		.global	PWM_TACHO_InterruptHandler
  22              		.thumb
  23              		.thumb_func
  24              		.type	PWM_TACHO_InterruptHandler, %function
  25              	PWM_TACHO_InterruptHandler:
  26              	.LFB64:
  27              		.file 1 "main.c"
   1:main.c        **** /* ========================================
   2:main.c        ****  *
   3:main.c        ****  * Copyright YOUR COMPANY, THE YEAR
   4:main.c        ****  * All Rights Reserved
   5:main.c        ****  * UNPUBLISHED, LICENSED SOFTWARE.
   6:main.c        ****  *
   7:main.c        ****  * CONFIDENTIAL AND PROPRIETARY INFORMATION
   8:main.c        ****  * WHICH IS THE PROPERTY OF your company.
   9:main.c        ****  *
  10:main.c        ****  * ========================================
  11:main.c        **** */
  12:main.c        **** /*#include "project.h"
  13:main.c        **** 
  14:main.c        **** int main(void)
  15:main.c        **** {
  16:main.c        ****     CyGlobalIntEnable; 
  17:main.c        **** 
  18:main.c        ****     
  19:main.c        ****     UART_RX_Start();
  20:main.c        ****     UART_TX_Start();
  21:main.c        ****     
  22:main.c        ****     char buffer;
  23:main.c        ****     
  24:main.c        ****     for(;;)
  25:main.c        ****     {
  26:main.c        ****        buffer = UART_TX_GetChar();
  27:main.c        ****        UART_RX_PutChar(buffer);
  28:main.c        ****     }
  29:main.c        **** }*/
  30:main.c        ****    
ARM GAS  C:\Users\Abude\AppData\Local\Temp\ccwBzbZN.s 			page 2


  31:main.c        **** #include <project.h>
  32:main.c        **** #include <stdio.h>
  33:main.c        **** #include <stdlib.h>
  34:main.c        **** #include <u8x8.h>
  35:main.c        **** 
  36:main.c        **** #define SECONDS(i)  (CyDelay(i * 1000)) 
  37:main.c        **** #define PWM_FREQ 100
  38:main.c        **** #define NO_OF_MSEC 1000
  39:main.c        **** 
  40:main.c        **** uint8_t psoc_gpio_and_delay_callback(u8x8_t *u8x8, uint8_t msg,
  41:main.c        **** uint8_t arg_int, void *arg_ptr);
  42:main.c        **** uint8_t u8x8_byte_hw_i2c(u8x8_t *u8x8, uint8_t msg,
  43:main.c        **** uint8_t arg_int, void *arg_ptr);
  44:main.c        **** uint8 compare_occured = 0;
  45:main.c        **** 
  46:main.c        **** CY_ISR(PWM_TACHO_InterruptHandler){
  28              		.loc 1 46 0
  29              		.cfi_startproc
  30              		@ args = 0, pretend = 0, frame = 0
  31              		@ frame_needed = 0, uses_anonymous_args = 0
  32 0000 08B5     		push	{r3, lr}
  33              		.cfi_def_cfa_offset 8
  34              		.cfi_offset 3, -8
  35              		.cfi_offset 14, -4
  47:main.c        ****     PWM_TACHO_ReadStatusRegister();
  36              		.loc 1 47 0
  37 0002 FFF7FEFF 		bl	PWM_TACHO_ReadStatusRegister
  38              	.LVL0:
  48:main.c        ****     compare_occured = 1;
  39              		.loc 1 48 0
  40 0006 0122     		movs	r2, #1
  41 0008 014B     		ldr	r3, .L3
  42 000a 1A70     		strb	r2, [r3]
  43 000c 08BD     		pop	{r3, pc}
  44              	.L4:
  45 000e 00BF     		.align	2
  46              	.L3:
  47 0010 00000000 		.word	.LANCHOR0
  48              		.cfi_endproc
  49              	.LFE64:
  50              		.size	PWM_TACHO_InterruptHandler, .-PWM_TACHO_InterruptHandler
  51              		.section	.text.psoc_gpio_and_delay_callback,"ax",%progbits
  52              		.align	2
  53              		.global	psoc_gpio_and_delay_callback
  54              		.thumb
  55              		.thumb_func
  56              		.type	psoc_gpio_and_delay_callback, %function
  57              	psoc_gpio_and_delay_callback:
  58              	.LFB70:
  49:main.c        **** }
  50:main.c        **** 
  51:main.c        **** 
  52:main.c        **** 
  53:main.c        **** void Pump(){
  54:main.c        ****     DIRECTION_Write(0);
  55:main.c        ****     PWM_MOTOR_SPEED_WriteCompare(8000);
  56:main.c        ****     SECONDS(4);
ARM GAS  C:\Users\Abude\AppData\Local\Temp\ccwBzbZN.s 			page 3


  57:main.c        ****     PWM_MOTOR_SPEED_WriteCompare(0);
  58:main.c        ****     SECONDS(1);
  59:main.c        **** }
  60:main.c        **** 
  61:main.c        **** void Wash(int rotateTime, int repetitions){
  62:main.c        ****     
  63:main.c        ****     for(int i = 0; i < repetitions; i++){
  64:main.c        ****         DIRECTION_Write(0);
  65:main.c        ****         PWM_MOTOR_SPEED_WriteCompare(200);
  66:main.c        ****         SECONDS(rotateTime);
  67:main.c        ****         PWM_MOTOR_SPEED_WriteCompare(0);
  68:main.c        ****         SECONDS(1);
  69:main.c        ****         DIRECTION_Write(1);
  70:main.c        ****         PWM_MOTOR_SPEED_WriteCompare(200);
  71:main.c        ****         SECONDS(rotateTime);
  72:main.c        ****         PWM_MOTOR_SPEED_WriteCompare(0);
  73:main.c        ****         SECONDS(1);
  74:main.c        ****     }
  75:main.c        **** }
  76:main.c        **** 
  77:main.c        **** void Spin(){
  78:main.c        ****     DIRECTION_Write(0);
  79:main.c        ****     PWM_MOTOR_SPEED_WriteCompare(200);
  80:main.c        ****     SECONDS(3);
  81:main.c        ****     PWM_MOTOR_SPEED_WriteCompare(0);
  82:main.c        ****     SECONDS(1);
  83:main.c        ****     PWM_MOTOR_SPEED_WriteCompare(500);
  84:main.c        ****     SECONDS(3);
  85:main.c        ****     PWM_MOTOR_SPEED_WriteCompare(0);
  86:main.c        ****     SECONDS(1);
  87:main.c        ****     DIRECTION_Write(1);
  88:main.c        ****     PWM_MOTOR_SPEED_WriteCompare(1000);
  89:main.c        ****     SECONDS(3);
  90:main.c        ****     PWM_MOTOR_SPEED_WriteCompare(0);
  91:main.c        ****     SECONDS(1);
  92:main.c        **** }
  93:main.c        **** 
  94:main.c        **** void Notify(){
  95:main.c        ****     PWM_MOTOR_SPEED_Stop();
  96:main.c        ****     BUZZER_Start();
  97:main.c        ****     BUZZER_WriteCompare(999);
  98:main.c        ****     SECONDS(10);
  99:main.c        ****     BUZZER_Stop();
 100:main.c        **** }
 101:main.c        **** 
 102:main.c        **** 
 103:main.c        **** int main(void) {
 104:main.c        **** static uint16 pwm_window_period = 0;
 105:main.c        **** static uint32 tacho_count = 0;    
 106:main.c        **** volatile uint32 input_freq = 0;    
 107:main.c        **** volatile uint32 rpm = 0;    
 108:main.c        **** char buffer [32];
 109:main.c        **** char freq [32];
 110:main.c        ****     
 111:main.c        **** IRQ_TACHO_StartEx(PWM_TACHO_InterruptHandler);
 112:main.c        **** PWM_TACHO_Start();    
 113:main.c        **** PWM_MOTOR_SPEED_Start();
ARM GAS  C:\Users\Abude\AppData\Local\Temp\ccwBzbZN.s 			page 4


 114:main.c        **** Counter_TACHO_Start(); 
 115:main.c        **** UART_Start();
 116:main.c        **** PWM_MOTOR_SPEED_WriteCompare(50);
 117:main.c        **** 
 118:main.c        **** pwm_window_period = 0;
 119:main.c        **** pwm_window_period = PWM_TACHO_ReadPeriod() / PWM_FREQ;
 120:main.c        **** 
 121:main.c        **** u8x8_t EM2Display;
 122:main.c        **** CyGlobalIntEnable;
 123:main.c        **** I2C_DISPLAY_Start();
 124:main.c        **** u8x8_Setup(&EM2Display, u8x8_d_ssd1306_128x64_noname, u8x8_cad_ssd13xx_i2c,
 125:main.c        **** u8x8_byte_hw_i2c, psoc_gpio_and_delay_callback);
 126:main.c        **** u8x8_InitDisplay(&EM2Display);
 127:main.c        **** u8x8_SetPowerSave(&EM2Display, 0);
 128:main.c        **** u8x8_ClearDisplay(&EM2Display);
 129:main.c        **** u8x8_SetFont(&EM2Display, u8x8_font_amstrad_cpc_extended_f);
 130:main.c        **** //u8x8_DrawString(&EM2Display, 1, 1, "HvA HBO-ICT");
 131:main.c        **** //u8x8_DrawString(&EM2Display, 1, 3, "TI EM2");
 132:main.c        **** //u8x8_DrawString(&EM2Display, 1, 5, "Ready to run." );
 133:main.c        **** //u8x8_DrawString(&EM2Display, 1, 1, "Washing Machine");
 134:main.c        **** //u8x8_DrawString(&EM2Display, 1, 4, "      ON");
 135:main.c        **** 
 136:main.c        **** 
 137:main.c        **** for(;;) {
 138:main.c        ****     
 139:main.c        ****     
 140:main.c        ****     
 141:main.c        ****     
 142:main.c        ****     if (compare_occured == 1) {
 143:main.c        ****         tacho_count = Counter_TACHO_ReadCapture();
 144:main.c        ****         input_freq = ((tacho_count *NO_OF_MSEC) / pwm_window_period);
 145:main.c        ****         rpm = (60 * input_freq);
 146:main.c        ****         itoa(rpm,buffer,10);
 147:main.c        ****         itoa(input_freq,freq,10);
 148:main.c        ****         UART_PutString(buffer);
 149:main.c        ****         u8x8_DrawString(&EM2Display, 1, 1, "RPM: ");
 150:main.c        ****         u8x8_DrawString(&EM2Display, 1, 2, buffer);
 151:main.c        ****         u8x8_DrawString(&EM2Display, 1, 3, "input freq ");
 152:main.c        ****         u8x8_DrawString(&EM2Display, 1, 4, freq);
 153:main.c        ****         compare_occured = 0;
 154:main.c        ****         
 155:main.c        ****     }
 156:main.c        ****     
 157:main.c        **** }
 158:main.c        **** 
 159:main.c        **** /*Pump();
 160:main.c        ****     Wash(2,6);
 161:main.c        ****     Spin();
 162:main.c        ****     Pump();
 163:main.c        ****     Wash(1,3);
 164:main.c        ****     Spin();
 165:main.c        ****     Notify(); */
 166:main.c        **** }
 167:main.c        **** 
 168:main.c        **** uint8_t psoc_gpio_and_delay_callback(u8x8_t *u8x8, uint8_t msg, uint8_t arg_int, void *arg_ptr) {
  59              		.loc 1 168 0
  60              		.cfi_startproc
ARM GAS  C:\Users\Abude\AppData\Local\Temp\ccwBzbZN.s 			page 5


  61              		@ args = 0, pretend = 0, frame = 0
  62              		@ frame_needed = 0, uses_anonymous_args = 0
  63              	.LVL1:
  64 0000 08B5     		push	{r3, lr}
  65              		.cfi_def_cfa_offset 8
  66              		.cfi_offset 3, -8
  67              		.cfi_offset 14, -4
 169:main.c        **** (void) u8x8;
 170:main.c        **** (void) arg_ptr;
 171:main.c        **** switch(msg) {
  68              		.loc 1 171 0
  69 0002 2A29     		cmp	r1, #42
  70 0004 07D0     		beq	.L7
  71 0006 2B29     		cmp	r1, #43
  72 0008 09D0     		beq	.L8
  73 000a 2929     		cmp	r1, #41
  74 000c 0AD1     		bne	.L6
 172:main.c        ****     case U8X8_MSG_GPIO_AND_DELAY_INIT:
 173:main.c        ****         break;
 174:main.c        ****     case U8X8_MSG_DELAY_MILLI:
 175:main.c        ****     CyDelay(arg_int);
  75              		.loc 1 175 0
  76 000e 1046     		mov	r0, r2
  77              	.LVL2:
  78 0010 FFF7FEFF 		bl	CyDelay
  79              	.LVL3:
 176:main.c        ****         break;
  80              		.loc 1 176 0
  81 0014 06E0     		b	.L6
  82              	.LVL4:
  83              	.L7:
 177:main.c        ****     case U8X8_MSG_DELAY_10MICRO:
 178:main.c        ****     CyDelayUs(10);
  84              		.loc 1 178 0
  85 0016 0A20     		movs	r0, #10
  86              	.LVL5:
  87 0018 FFF7FEFF 		bl	CyDelayUs
  88              	.LVL6:
 179:main.c        ****         break;
  89              		.loc 1 179 0
  90 001c 02E0     		b	.L6
  91              	.LVL7:
  92              	.L8:
 180:main.c        ****     case U8X8_MSG_DELAY_100NANO:
 181:main.c        ****     CyDelayCycles(100);
  93              		.loc 1 181 0
  94 001e 6420     		movs	r0, #100
  95              	.LVL8:
  96 0020 FFF7FEFF 		bl	CyDelayCycles
  97              	.LVL9:
  98              	.L6:
 182:main.c        ****         break;
 183:main.c        ****     }
 184:main.c        ****     return 1;
 185:main.c        **** }
  99              		.loc 1 185 0
 100 0024 0120     		movs	r0, #1
ARM GAS  C:\Users\Abude\AppData\Local\Temp\ccwBzbZN.s 			page 6


 101 0026 08BD     		pop	{r3, pc}
 102              		.cfi_endproc
 103              	.LFE70:
 104              		.size	psoc_gpio_and_delay_callback, .-psoc_gpio_and_delay_callback
 105              		.section	.text.u8x8_byte_hw_i2c,"ax",%progbits
 106              		.align	2
 107              		.global	u8x8_byte_hw_i2c
 108              		.thumb
 109              		.thumb_func
 110              		.type	u8x8_byte_hw_i2c, %function
 111              	u8x8_byte_hw_i2c:
 112              	.LFB71:
 186:main.c        **** /*
 187:main.c        **** PSoC I2C Hardware Interface for U8X8
 188:main.c        **** */
 189:main.c        **** uint8_t u8x8_byte_hw_i2c(u8x8_t *u8x8, uint8_t msg, uint8_t arg_int, void *arg_ptr) {
 113              		.loc 1 189 0
 114              		.cfi_startproc
 115              		@ args = 0, pretend = 0, frame = 0
 116              		@ frame_needed = 0, uses_anonymous_args = 0
 117              	.LVL10:
 118 0000 38B5     		push	{r3, r4, r5, lr}
 119              		.cfi_def_cfa_offset 16
 120              		.cfi_offset 3, -16
 121              		.cfi_offset 4, -12
 122              		.cfi_offset 5, -8
 123              		.cfi_offset 14, -4
 124 0002 1446     		mov	r4, r2
 125 0004 1D46     		mov	r5, r3
 190:main.c        **** uint8_t *data;
 191:main.c        **** switch(msg) {
 126              		.loc 1 191 0
 127 0006 1439     		subs	r1, r1, #20
 128              	.LVL11:
 129 0008 0C29     		cmp	r1, #12
 130 000a 08D8     		bhi	.L12
 131 000c DFE801F0 		tbb	[pc, r1]
 132              	.LVL12:
 133              	.L14:
 134 0010 1F       		.byte	(.L19-.L14)/2
 135 0011 07       		.byte	(.L12-.L14)/2
 136 0012 07       		.byte	(.L12-.L14)/2
 137 0013 0F       		.byte	(.L15-.L14)/2
 138 0014 13       		.byte	(.L16-.L14)/2
 139 0015 1B       		.byte	(.L17-.L14)/2
 140 0016 07       		.byte	(.L12-.L14)/2
 141 0017 07       		.byte	(.L12-.L14)/2
 142 0018 07       		.byte	(.L12-.L14)/2
 143 0019 07       		.byte	(.L12-.L14)/2
 144 001a 07       		.byte	(.L12-.L14)/2
 145 001b 07       		.byte	(.L12-.L14)/2
 146 001c 1F       		.byte	(.L19-.L14)/2
 147 001d 00       		.p2align 1
 148              	.L12:
 192:main.c        ****     case U8X8_MSG_BYTE_SEND:
 193:main.c        ****     data = (uint8_t *)arg_ptr;
 194:main.c        ****     while(arg_int > 0) {
ARM GAS  C:\Users\Abude\AppData\Local\Temp\ccwBzbZN.s 			page 7


 195:main.c        ****     (void)I2C_DISPLAY_MasterWriteByte(*data);
 196:main.c        ****     data++;
 197:main.c        ****     arg_int--;
 198:main.c        ****     }
 199:main.c        ****         break;
 200:main.c        ****     case U8X8_MSG_BYTE_INIT:
 201:main.c        ****         break;
 202:main.c        ****     case U8X8_MSG_BYTE_SET_DC:
 203:main.c        ****         break;
 204:main.c        ****     case U8X8_MSG_BYTE_START_TRANSFER:
 205:main.c        ****     (void)I2C_DISPLAY_MasterSendStart(u8x8_GetI2CAddress(u8x8) >> 1,
 206:main.c        ****     I2C_DISPLAY_WRITE_XFER_MODE);
 207:main.c        ****         break;
 208:main.c        ****     case U8X8_MSG_BYTE_END_TRANSFER:
 209:main.c        ****     (void)I2C_DISPLAY_MasterSendStop();
 210:main.c        ****         break;
 211:main.c        ****     default:
 212:main.c        ****     return 0;
 149              		.loc 1 212 0
 150 001e 0020     		movs	r0, #0
 151              	.LVL13:
 152 0020 38BD     		pop	{r3, r4, r5, pc}
 153              	.LVL14:
 154              	.L18:
 195:main.c        ****     data++;
 155              		.loc 1 195 0
 156 0022 15F8010B 		ldrb	r0, [r5], #1	@ zero_extendqisi2
 157              	.LVL15:
 158 0026 FFF7FEFF 		bl	I2C_DISPLAY_MasterWriteByte
 159              	.LVL16:
 197:main.c        ****     }
 160              		.loc 1 197 0
 161 002a 013C     		subs	r4, r4, #1
 162              	.LVL17:
 163 002c E4B2     		uxtb	r4, r4
 164              	.LVL18:
 165              	.L15:
 194:main.c        ****     (void)I2C_DISPLAY_MasterWriteByte(*data);
 166              		.loc 1 194 0
 167 002e 002C     		cmp	r4, #0
 168 0030 F7D1     		bne	.L18
 213:main.c        ****     }
 214:main.c        ****     return 1;
 169              		.loc 1 214 0
 170 0032 0120     		movs	r0, #1
 171 0034 38BD     		pop	{r3, r4, r5, pc}
 172              	.LVL19:
 173              	.L16:
 205:main.c        ****     I2C_DISPLAY_WRITE_XFER_MODE);
 174              		.loc 1 205 0
 175 0036 90F82400 		ldrb	r0, [r0, #36]	@ zero_extendqisi2
 176              	.LVL20:
 177 003a 0021     		movs	r1, #0
 178 003c 4008     		lsrs	r0, r0, #1
 179 003e FFF7FEFF 		bl	I2C_DISPLAY_MasterSendStart
 180              	.LVL21:
 181              		.loc 1 214 0
ARM GAS  C:\Users\Abude\AppData\Local\Temp\ccwBzbZN.s 			page 8


 182 0042 0120     		movs	r0, #1
 207:main.c        ****     case U8X8_MSG_BYTE_END_TRANSFER:
 183              		.loc 1 207 0
 184 0044 38BD     		pop	{r3, r4, r5, pc}
 185              	.LVL22:
 186              	.L17:
 209:main.c        ****         break;
 187              		.loc 1 209 0
 188 0046 FFF7FEFF 		bl	I2C_DISPLAY_MasterSendStop
 189              	.LVL23:
 190              		.loc 1 214 0
 191 004a 0120     		movs	r0, #1
 210:main.c        ****     default:
 192              		.loc 1 210 0
 193 004c 38BD     		pop	{r3, r4, r5, pc}
 194              	.LVL24:
 195              	.L19:
 196              		.loc 1 214 0
 197 004e 0120     		movs	r0, #1
 198              	.LVL25:
 215:main.c        **** }
 199              		.loc 1 215 0
 200 0050 38BD     		pop	{r3, r4, r5, pc}
 201              		.cfi_endproc
 202              	.LFE71:
 203              		.size	u8x8_byte_hw_i2c, .-u8x8_byte_hw_i2c
 204 0052 00BF     		.section	.text.Pump,"ax",%progbits
 205              		.align	2
 206              		.global	Pump
 207              		.thumb
 208              		.thumb_func
 209              		.type	Pump, %function
 210              	Pump:
 211              	.LFB65:
  53:main.c        ****     DIRECTION_Write(0);
 212              		.loc 1 53 0
 213              		.cfi_startproc
 214              		@ args = 0, pretend = 0, frame = 0
 215              		@ frame_needed = 0, uses_anonymous_args = 0
 216 0000 08B5     		push	{r3, lr}
 217              		.cfi_def_cfa_offset 8
 218              		.cfi_offset 3, -8
 219              		.cfi_offset 14, -4
  54:main.c        ****     PWM_MOTOR_SPEED_WriteCompare(8000);
 220              		.loc 1 54 0
 221 0002 0020     		movs	r0, #0
 222 0004 FFF7FEFF 		bl	DIRECTION_Write
 223              	.LVL26:
  55:main.c        ****     SECONDS(4);
 224              		.loc 1 55 0
 225 0008 4FF4FA50 		mov	r0, #8000
 226 000c FFF7FEFF 		bl	PWM_MOTOR_SPEED_WriteCompare
 227              	.LVL27:
  56:main.c        ****     PWM_MOTOR_SPEED_WriteCompare(0);
 228              		.loc 1 56 0
 229 0010 4FF47A60 		mov	r0, #4000
 230 0014 FFF7FEFF 		bl	CyDelay
ARM GAS  C:\Users\Abude\AppData\Local\Temp\ccwBzbZN.s 			page 9


 231              	.LVL28:
  57:main.c        ****     SECONDS(1);
 232              		.loc 1 57 0
 233 0018 0020     		movs	r0, #0
 234 001a FFF7FEFF 		bl	PWM_MOTOR_SPEED_WriteCompare
 235              	.LVL29:
  58:main.c        **** }
 236              		.loc 1 58 0
 237 001e 4FF47A70 		mov	r0, #1000
 238 0022 FFF7FEFF 		bl	CyDelay
 239              	.LVL30:
 240 0026 08BD     		pop	{r3, pc}
 241              		.cfi_endproc
 242              	.LFE65:
 243              		.size	Pump, .-Pump
 244              		.section	.text.Wash,"ax",%progbits
 245              		.align	2
 246              		.global	Wash
 247              		.thumb
 248              		.thumb_func
 249              		.type	Wash, %function
 250              	Wash:
 251              	.LFB66:
  61:main.c        ****     
 252              		.loc 1 61 0
 253              		.cfi_startproc
 254              		@ args = 0, pretend = 0, frame = 0
 255              		@ frame_needed = 0, uses_anonymous_args = 0
 256              	.LVL31:
 257 0000 2DE9F041 		push	{r4, r5, r6, r7, r8, lr}
 258              		.cfi_def_cfa_offset 24
 259              		.cfi_offset 4, -24
 260              		.cfi_offset 5, -20
 261              		.cfi_offset 6, -16
 262              		.cfi_offset 7, -12
 263              		.cfi_offset 8, -8
 264              		.cfi_offset 14, -4
 265 0004 8046     		mov	r8, r0
 266 0006 0F46     		mov	r7, r1
 267              	.LVL32:
 268              	.LBB2:
  63:main.c        ****         DIRECTION_Write(0);
 269              		.loc 1 63 0
 270 0008 0025     		movs	r5, #0
 271 000a 22E0     		b	.L24
 272              	.LVL33:
 273              	.L25:
  64:main.c        ****         PWM_MOTOR_SPEED_WriteCompare(200);
 274              		.loc 1 64 0 discriminator 3
 275 000c 0020     		movs	r0, #0
 276 000e FFF7FEFF 		bl	DIRECTION_Write
 277              	.LVL34:
  65:main.c        ****         SECONDS(rotateTime);
 278              		.loc 1 65 0 discriminator 3
 279 0012 C820     		movs	r0, #200
 280 0014 FFF7FEFF 		bl	PWM_MOTOR_SPEED_WriteCompare
 281              	.LVL35:
ARM GAS  C:\Users\Abude\AppData\Local\Temp\ccwBzbZN.s 			page 10


  66:main.c        ****         PWM_MOTOR_SPEED_WriteCompare(0);
 282              		.loc 1 66 0 discriminator 3
 283 0018 4FF47A74 		mov	r4, #1000
 284 001c 04FB08F6 		mul	r6, r4, r8
 285 0020 3046     		mov	r0, r6
 286 0022 FFF7FEFF 		bl	CyDelay
 287              	.LVL36:
  67:main.c        ****         SECONDS(1);
 288              		.loc 1 67 0 discriminator 3
 289 0026 0020     		movs	r0, #0
 290 0028 FFF7FEFF 		bl	PWM_MOTOR_SPEED_WriteCompare
 291              	.LVL37:
  68:main.c        ****         DIRECTION_Write(1);
 292              		.loc 1 68 0 discriminator 3
 293 002c 2046     		mov	r0, r4
 294 002e FFF7FEFF 		bl	CyDelay
 295              	.LVL38:
  69:main.c        ****         PWM_MOTOR_SPEED_WriteCompare(200);
 296              		.loc 1 69 0 discriminator 3
 297 0032 0120     		movs	r0, #1
 298 0034 FFF7FEFF 		bl	DIRECTION_Write
 299              	.LVL39:
  70:main.c        ****         SECONDS(rotateTime);
 300              		.loc 1 70 0 discriminator 3
 301 0038 C820     		movs	r0, #200
 302 003a FFF7FEFF 		bl	PWM_MOTOR_SPEED_WriteCompare
 303              	.LVL40:
  71:main.c        ****         PWM_MOTOR_SPEED_WriteCompare(0);
 304              		.loc 1 71 0 discriminator 3
 305 003e 3046     		mov	r0, r6
 306 0040 FFF7FEFF 		bl	CyDelay
 307              	.LVL41:
  72:main.c        ****         SECONDS(1);
 308              		.loc 1 72 0 discriminator 3
 309 0044 0020     		movs	r0, #0
 310 0046 FFF7FEFF 		bl	PWM_MOTOR_SPEED_WriteCompare
 311              	.LVL42:
  73:main.c        ****     }
 312              		.loc 1 73 0 discriminator 3
 313 004a 2046     		mov	r0, r4
 314 004c FFF7FEFF 		bl	CyDelay
 315              	.LVL43:
  63:main.c        ****         DIRECTION_Write(0);
 316              		.loc 1 63 0 discriminator 3
 317 0050 0135     		adds	r5, r5, #1
 318              	.LVL44:
 319              	.L24:
  63:main.c        ****         DIRECTION_Write(0);
 320              		.loc 1 63 0 is_stmt 0 discriminator 1
 321 0052 BD42     		cmp	r5, r7
 322 0054 DADB     		blt	.L25
 323              	.LBE2:
  75:main.c        **** 
 324              		.loc 1 75 0 is_stmt 1
 325 0056 BDE8F081 		pop	{r4, r5, r6, r7, r8, pc}
 326              		.cfi_endproc
 327              	.LFE66:
ARM GAS  C:\Users\Abude\AppData\Local\Temp\ccwBzbZN.s 			page 11


 328              		.size	Wash, .-Wash
 329 005a 00BF     		.section	.text.Spin,"ax",%progbits
 330              		.align	2
 331              		.global	Spin
 332              		.thumb
 333              		.thumb_func
 334              		.type	Spin, %function
 335              	Spin:
 336              	.LFB67:
  77:main.c        ****     DIRECTION_Write(0);
 337              		.loc 1 77 0
 338              		.cfi_startproc
 339              		@ args = 0, pretend = 0, frame = 0
 340              		@ frame_needed = 0, uses_anonymous_args = 0
 341 0000 08B5     		push	{r3, lr}
 342              		.cfi_def_cfa_offset 8
 343              		.cfi_offset 3, -8
 344              		.cfi_offset 14, -4
  78:main.c        ****     PWM_MOTOR_SPEED_WriteCompare(200);
 345              		.loc 1 78 0
 346 0002 0020     		movs	r0, #0
 347 0004 FFF7FEFF 		bl	DIRECTION_Write
 348              	.LVL45:
  79:main.c        ****     SECONDS(3);
 349              		.loc 1 79 0
 350 0008 C820     		movs	r0, #200
 351 000a FFF7FEFF 		bl	PWM_MOTOR_SPEED_WriteCompare
 352              	.LVL46:
  80:main.c        ****     PWM_MOTOR_SPEED_WriteCompare(0);
 353              		.loc 1 80 0
 354 000e 40F6B830 		movw	r0, #3000
 355 0012 FFF7FEFF 		bl	CyDelay
 356              	.LVL47:
  81:main.c        ****     SECONDS(1);
 357              		.loc 1 81 0
 358 0016 0020     		movs	r0, #0
 359 0018 FFF7FEFF 		bl	PWM_MOTOR_SPEED_WriteCompare
 360              	.LVL48:
  82:main.c        ****     PWM_MOTOR_SPEED_WriteCompare(500);
 361              		.loc 1 82 0
 362 001c 4FF47A70 		mov	r0, #1000
 363 0020 FFF7FEFF 		bl	CyDelay
 364              	.LVL49:
  83:main.c        ****     SECONDS(3);
 365              		.loc 1 83 0
 366 0024 4FF4FA70 		mov	r0, #500
 367 0028 FFF7FEFF 		bl	PWM_MOTOR_SPEED_WriteCompare
 368              	.LVL50:
  84:main.c        ****     PWM_MOTOR_SPEED_WriteCompare(0);
 369              		.loc 1 84 0
 370 002c 40F6B830 		movw	r0, #3000
 371 0030 FFF7FEFF 		bl	CyDelay
 372              	.LVL51:
  85:main.c        ****     SECONDS(1);
 373              		.loc 1 85 0
 374 0034 0020     		movs	r0, #0
 375 0036 FFF7FEFF 		bl	PWM_MOTOR_SPEED_WriteCompare
ARM GAS  C:\Users\Abude\AppData\Local\Temp\ccwBzbZN.s 			page 12


 376              	.LVL52:
  86:main.c        ****     DIRECTION_Write(1);
 377              		.loc 1 86 0
 378 003a 4FF47A70 		mov	r0, #1000
 379 003e FFF7FEFF 		bl	CyDelay
 380              	.LVL53:
  87:main.c        ****     PWM_MOTOR_SPEED_WriteCompare(1000);
 381              		.loc 1 87 0
 382 0042 0120     		movs	r0, #1
 383 0044 FFF7FEFF 		bl	DIRECTION_Write
 384              	.LVL54:
  88:main.c        ****     SECONDS(3);
 385              		.loc 1 88 0
 386 0048 4FF47A70 		mov	r0, #1000
 387 004c FFF7FEFF 		bl	PWM_MOTOR_SPEED_WriteCompare
 388              	.LVL55:
  89:main.c        ****     PWM_MOTOR_SPEED_WriteCompare(0);
 389              		.loc 1 89 0
 390 0050 40F6B830 		movw	r0, #3000
 391 0054 FFF7FEFF 		bl	CyDelay
 392              	.LVL56:
  90:main.c        ****     SECONDS(1);
 393              		.loc 1 90 0
 394 0058 0020     		movs	r0, #0
 395 005a FFF7FEFF 		bl	PWM_MOTOR_SPEED_WriteCompare
 396              	.LVL57:
  91:main.c        **** }
 397              		.loc 1 91 0
 398 005e 4FF47A70 		mov	r0, #1000
 399 0062 FFF7FEFF 		bl	CyDelay
 400              	.LVL58:
 401 0066 08BD     		pop	{r3, pc}
 402              		.cfi_endproc
 403              	.LFE67:
 404              		.size	Spin, .-Spin
 405              		.section	.text.Notify,"ax",%progbits
 406              		.align	2
 407              		.global	Notify
 408              		.thumb
 409              		.thumb_func
 410              		.type	Notify, %function
 411              	Notify:
 412              	.LFB68:
  94:main.c        ****     PWM_MOTOR_SPEED_Stop();
 413              		.loc 1 94 0
 414              		.cfi_startproc
 415              		@ args = 0, pretend = 0, frame = 0
 416              		@ frame_needed = 0, uses_anonymous_args = 0
 417 0000 08B5     		push	{r3, lr}
 418              		.cfi_def_cfa_offset 8
 419              		.cfi_offset 3, -8
 420              		.cfi_offset 14, -4
  95:main.c        ****     BUZZER_Start();
 421              		.loc 1 95 0
 422 0002 FFF7FEFF 		bl	PWM_MOTOR_SPEED_Stop
 423              	.LVL59:
  96:main.c        ****     BUZZER_WriteCompare(999);
ARM GAS  C:\Users\Abude\AppData\Local\Temp\ccwBzbZN.s 			page 13


 424              		.loc 1 96 0
 425 0006 FFF7FEFF 		bl	BUZZER_Start
 426              	.LVL60:
  97:main.c        ****     SECONDS(10);
 427              		.loc 1 97 0
 428 000a 40F2E730 		movw	r0, #999
 429 000e FFF7FEFF 		bl	BUZZER_WriteCompare
 430              	.LVL61:
  98:main.c        ****     BUZZER_Stop();
 431              		.loc 1 98 0
 432 0012 42F21070 		movw	r0, #10000
 433 0016 FFF7FEFF 		bl	CyDelay
 434              	.LVL62:
  99:main.c        **** }
 435              		.loc 1 99 0
 436 001a FFF7FEFF 		bl	BUZZER_Stop
 437              	.LVL63:
 438 001e 08BD     		pop	{r3, pc}
 439              		.cfi_endproc
 440              	.LFE68:
 441              		.size	Notify, .-Notify
 442              		.section	.text.main,"ax",%progbits
 443              		.align	2
 444              		.global	main
 445              		.thumb
 446              		.thumb_func
 447              		.type	main, %function
 448              	main:
 449              	.LFB69:
 103:main.c        **** static uint16 pwm_window_period = 0;
 450              		.loc 1 103 0
 451              		.cfi_startproc
 452              		@ args = 0, pretend = 0, frame = 120
 453              		@ frame_needed = 0, uses_anonymous_args = 0
 454 0000 30B5     		push	{r4, r5, lr}
 455              		.cfi_def_cfa_offset 12
 456              		.cfi_offset 4, -12
 457              		.cfi_offset 5, -8
 458              		.cfi_offset 14, -4
 459 0002 A1B0     		sub	sp, sp, #132
 460              		.cfi_def_cfa_offset 144
 106:main.c        **** volatile uint32 rpm = 0;    
 461              		.loc 1 106 0
 462 0004 0024     		movs	r4, #0
 463 0006 1F94     		str	r4, [sp, #124]
 107:main.c        **** char buffer [32];
 464              		.loc 1 107 0
 465 0008 1E94     		str	r4, [sp, #120]
 111:main.c        **** PWM_TACHO_Start();    
 466              		.loc 1 111 0
 467 000a 3648     		ldr	r0, .L35
 468 000c FFF7FEFF 		bl	IRQ_TACHO_StartEx
 469              	.LVL64:
 112:main.c        **** PWM_MOTOR_SPEED_Start();
 470              		.loc 1 112 0
 471 0010 FFF7FEFF 		bl	PWM_TACHO_Start
 472              	.LVL65:
ARM GAS  C:\Users\Abude\AppData\Local\Temp\ccwBzbZN.s 			page 14


 113:main.c        **** Counter_TACHO_Start(); 
 473              		.loc 1 113 0
 474 0014 FFF7FEFF 		bl	PWM_MOTOR_SPEED_Start
 475              	.LVL66:
 114:main.c        **** UART_Start();
 476              		.loc 1 114 0
 477 0018 FFF7FEFF 		bl	Counter_TACHO_Start
 478              	.LVL67:
 115:main.c        **** PWM_MOTOR_SPEED_WriteCompare(50);
 479              		.loc 1 115 0
 480 001c FFF7FEFF 		bl	UART_Start
 481              	.LVL68:
 116:main.c        **** 
 482              		.loc 1 116 0
 483 0020 3220     		movs	r0, #50
 484 0022 FFF7FEFF 		bl	PWM_MOTOR_SPEED_WriteCompare
 485              	.LVL69:
 118:main.c        **** pwm_window_period = PWM_TACHO_ReadPeriod() / PWM_FREQ;
 486              		.loc 1 118 0
 487 0026 304D     		ldr	r5, .L35+4
 488 0028 6C80     		strh	r4, [r5, #2]	@ movhi
 119:main.c        **** 
 489              		.loc 1 119 0
 490 002a FFF7FEFF 		bl	PWM_TACHO_ReadPeriod
 491              	.LVL70:
 492 002e 2F4B     		ldr	r3, .L35+8
 493 0030 A3FB0023 		umull	r2, r3, r3, r0
 494 0034 5B09     		lsrs	r3, r3, #5
 495 0036 6B80     		strh	r3, [r5, #2]	@ movhi
 122:main.c        **** I2C_DISPLAY_Start();
 496              		.loc 1 122 0
 497              		.syntax unified
 498              	@ 122 "main.c" 1
 499 0038 62B6     		CPSIE   i
 500              	@ 0 "" 2
 123:main.c        **** u8x8_Setup(&EM2Display, u8x8_d_ssd1306_128x64_noname, u8x8_cad_ssd13xx_i2c,
 501              		.loc 1 123 0
 502              		.thumb
 503              		.syntax unified
 504 003a FFF7FEFF 		bl	I2C_DISPLAY_Start
 505              	.LVL71:
 124:main.c        **** u8x8_byte_hw_i2c, psoc_gpio_and_delay_callback);
 506              		.loc 1 124 0
 507 003e 2C4B     		ldr	r3, .L35+12
 508 0040 0093     		str	r3, [sp]
 509 0042 2C4B     		ldr	r3, .L35+16
 510 0044 2C4A     		ldr	r2, .L35+20
 511 0046 2D49     		ldr	r1, .L35+24
 512 0048 03A8     		add	r0, sp, #12
 513 004a FFF7FEFF 		bl	u8x8_Setup
 514              	.LVL72:
 126:main.c        **** u8x8_SetPowerSave(&EM2Display, 0);
 515              		.loc 1 126 0
 516 004e 03A8     		add	r0, sp, #12
 517 0050 FFF7FEFF 		bl	u8x8_InitDisplay
 518              	.LVL73:
 127:main.c        **** u8x8_ClearDisplay(&EM2Display);
ARM GAS  C:\Users\Abude\AppData\Local\Temp\ccwBzbZN.s 			page 15


 519              		.loc 1 127 0
 520 0054 2146     		mov	r1, r4
 521 0056 03A8     		add	r0, sp, #12
 522 0058 FFF7FEFF 		bl	u8x8_SetPowerSave
 523              	.LVL74:
 128:main.c        **** u8x8_SetFont(&EM2Display, u8x8_font_amstrad_cpc_extended_f);
 524              		.loc 1 128 0
 525 005c 03A8     		add	r0, sp, #12
 526 005e FFF7FEFF 		bl	u8x8_ClearDisplay
 527              	.LVL75:
 129:main.c        **** //u8x8_DrawString(&EM2Display, 1, 1, "HvA HBO-ICT");
 528              		.loc 1 129 0
 529 0062 2749     		ldr	r1, .L35+28
 530 0064 03A8     		add	r0, sp, #12
 531 0066 FFF7FEFF 		bl	u8x8_SetFont
 532              	.LVL76:
 533              	.L32:
 142:main.c        ****         tacho_count = Counter_TACHO_ReadCapture();
 534              		.loc 1 142 0
 535 006a 1F4B     		ldr	r3, .L35+4
 536 006c 1B78     		ldrb	r3, [r3]	@ zero_extendqisi2
 537 006e 012B     		cmp	r3, #1
 538 0070 FBD1     		bne	.L32
 143:main.c        ****         input_freq = ((tacho_count *NO_OF_MSEC) / pwm_window_period);
 539              		.loc 1 143 0
 540 0072 FFF7FEFF 		bl	Counter_TACHO_ReadCapture
 541              	.LVL77:
 144:main.c        ****         rpm = (60 * input_freq);
 542              		.loc 1 144 0
 543 0076 4FF47A73 		mov	r3, #1000
 544 007a 03FB00F0 		mul	r0, r3, r0
 545 007e 1A4C     		ldr	r4, .L35+4
 546 0080 6388     		ldrh	r3, [r4, #2]
 547 0082 B0FBF3F0 		udiv	r0, r0, r3
 548 0086 1F90     		str	r0, [sp, #124]
 145:main.c        ****         itoa(rpm,buffer,10);
 549              		.loc 1 145 0
 550 0088 1F9B     		ldr	r3, [sp, #124]
 551 008a C3EB0313 		rsb	r3, r3, r3, lsl #4
 552 008e 9A00     		lsls	r2, r3, #2
 553 0090 1E92     		str	r2, [sp, #120]
 146:main.c        ****         itoa(input_freq,freq,10);
 554              		.loc 1 146 0
 555 0092 1E98     		ldr	r0, [sp, #120]
 556 0094 0A22     		movs	r2, #10
 557 0096 16A9     		add	r1, sp, #88
 558 0098 FFF7FEFF 		bl	itoa
 559              	.LVL78:
 147:main.c        ****         UART_PutString(buffer);
 560              		.loc 1 147 0
 561 009c 1F98     		ldr	r0, [sp, #124]
 562 009e 0A22     		movs	r2, #10
 563 00a0 0EA9     		add	r1, sp, #56
 564 00a2 FFF7FEFF 		bl	itoa
 565              	.LVL79:
 148:main.c        ****         u8x8_DrawString(&EM2Display, 1, 1, "RPM: ");
 566              		.loc 1 148 0
ARM GAS  C:\Users\Abude\AppData\Local\Temp\ccwBzbZN.s 			page 16


 567 00a6 16A8     		add	r0, sp, #88
 568 00a8 FFF7FEFF 		bl	UART_PutString
 569              	.LVL80:
 149:main.c        ****         u8x8_DrawString(&EM2Display, 1, 2, buffer);
 570              		.loc 1 149 0
 571 00ac 154B     		ldr	r3, .L35+32
 572 00ae 0122     		movs	r2, #1
 573 00b0 1146     		mov	r1, r2
 574 00b2 03A8     		add	r0, sp, #12
 575 00b4 FFF7FEFF 		bl	u8x8_DrawString
 576              	.LVL81:
 150:main.c        ****         u8x8_DrawString(&EM2Display, 1, 3, "input freq ");
 577              		.loc 1 150 0
 578 00b8 16AB     		add	r3, sp, #88
 579 00ba 0222     		movs	r2, #2
 580 00bc 0121     		movs	r1, #1
 581 00be 03A8     		add	r0, sp, #12
 582 00c0 FFF7FEFF 		bl	u8x8_DrawString
 583              	.LVL82:
 151:main.c        ****         u8x8_DrawString(&EM2Display, 1, 4, freq);
 584              		.loc 1 151 0
 585 00c4 104B     		ldr	r3, .L35+36
 586 00c6 0322     		movs	r2, #3
 587 00c8 0121     		movs	r1, #1
 588 00ca 03A8     		add	r0, sp, #12
 589 00cc FFF7FEFF 		bl	u8x8_DrawString
 590              	.LVL83:
 152:main.c        ****         compare_occured = 0;
 591              		.loc 1 152 0
 592 00d0 0EAB     		add	r3, sp, #56
 593 00d2 0422     		movs	r2, #4
 594 00d4 0121     		movs	r1, #1
 595 00d6 03A8     		add	r0, sp, #12
 596 00d8 FFF7FEFF 		bl	u8x8_DrawString
 597              	.LVL84:
 153:main.c        ****         
 598              		.loc 1 153 0
 599 00dc 0023     		movs	r3, #0
 600 00de 2370     		strb	r3, [r4]
 601 00e0 C3E7     		b	.L32
 602              	.L36:
 603 00e2 00BF     		.align	2
 604              	.L35:
 605 00e4 00000000 		.word	PWM_TACHO_InterruptHandler
 606 00e8 00000000 		.word	.LANCHOR0
 607 00ec 1F85EB51 		.word	1374389535
 608 00f0 00000000 		.word	psoc_gpio_and_delay_callback
 609 00f4 00000000 		.word	u8x8_byte_hw_i2c
 610 00f8 00000000 		.word	u8x8_cad_ssd13xx_i2c
 611 00fc 00000000 		.word	u8x8_d_ssd1306_128x64_noname
 612 0100 00000000 		.word	u8x8_font_amstrad_cpc_extended_f
 613 0104 00000000 		.word	.LC0
 614 0108 08000000 		.word	.LC1
 615              		.cfi_endproc
 616              	.LFE69:
 617              		.size	main, .-main
 618              		.global	compare_occured
ARM GAS  C:\Users\Abude\AppData\Local\Temp\ccwBzbZN.s 			page 17


 619              		.section	.rodata.str1.4,"aMS",%progbits,1
 620              		.align	2
 621              	.LC0:
 622 0000 52504D3A 		.ascii	"RPM: \000"
 622      2000
 623 0006 0000     		.space	2
 624              	.LC1:
 625 0008 696E7075 		.ascii	"input freq \000"
 625      74206672 
 625      65712000 
 626              		.bss
 627              		.align	1
 628              		.set	.LANCHOR0,. + 0
 629              		.type	compare_occured, %object
 630              		.size	compare_occured, 1
 631              	compare_occured:
 632 0000 00       		.space	1
 633 0001 00       		.space	1
 634              		.type	pwm_window_period.8941, %object
 635              		.size	pwm_window_period.8941, 2
 636              	pwm_window_period.8941:
 637 0002 0000     		.space	2
 638              		.text
 639              	.Letext0:
 640              		.file 2 "c:\\program files (x86)\\cypress\\psoc creator\\4.4\\psoc creator\\import\\gnu\\arm\\5.4.
 641              		.file 3 "c:\\program files (x86)\\cypress\\psoc creator\\4.4\\psoc creator\\import\\gnu\\arm\\5.4.
 642              		.file 4 "Generated_Source\\PSoC5/cytypes.h"
 643              		.file 5 "C:\\Dev\\Library embedded l2c display\\u8g2\\csrc/u8x8.h"
 644              		.file 6 "Generated_Source\\PSoC5/core_cm3.h"
 645              		.file 7 "Generated_Source\\PSoC5/PWM_TACHO.h"
 646              		.file 8 "Generated_Source\\PSoC5/CyLib.h"
 647              		.file 9 "Generated_Source\\PSoC5/I2C_DISPLAY.h"
 648              		.file 10 "Generated_Source\\PSoC5/DIRECTION.h"
 649              		.file 11 "Generated_Source\\PSoC5/PWM_MOTOR_SPEED.h"
 650              		.file 12 "Generated_Source\\PSoC5/BUZZER.h"
 651              		.file 13 "Generated_Source\\PSoC5/IRQ_TACHO.h"
 652              		.file 14 "Generated_Source\\PSoC5/Counter_TACHO.h"
 653              		.file 15 "Generated_Source\\PSoC5/UART.h"
 654              		.file 16 "c:\\program files (x86)\\cypress\\psoc creator\\4.4\\psoc creator\\import\\gnu\\arm\\5.4