ARM GAS  C:\Users\Abude\AppData\Local\Temp\ccwX1mpx.s 			page 1


   1              		.syntax unified
   2              		.cpu cortex-m3
   3              		.fpu softvfp
   4              		.eabi_attribute 20, 1
   5              		.eabi_attribute 21, 1
   6              		.eabi_attribute 23, 3
   7              		.eabi_attribute 24, 1
   8              		.eabi_attribute 25, 1
   9              		.eabi_attribute 26, 1
  10              		.eabi_attribute 30, 1
  11              		.eabi_attribute 34, 1
  12              		.eabi_attribute 18, 4
  13              		.thumb
  14              		.syntax unified
  15              		.file	"u8g2_box.c"
  16              		.text
  17              	.Ltext0:
  18              		.cfi_sections	.debug_frame
  19              		.section	.text.u8g2_DrawBox,"ax",%progbits
  20              		.align	2
  21              		.global	u8g2_DrawBox
  22              		.thumb
  23              		.thumb_func
  24              		.type	u8g2_DrawBox, %function
  25              	u8g2_DrawBox:
  26              	.LFB0:
  27              		.file 1 "..\\..\\..\\..\\..\\..\\Dev\\Library embedded l2c display\\u8g2\\csrc\\u8g2_box.c"
   1:..\..\..\..\..\..\Dev\Library embedded l2c display\u8g2\csrc/u8g2_box.c **** /*
   2:..\..\..\..\..\..\Dev\Library embedded l2c display\u8g2\csrc/u8g2_box.c **** 
   3:..\..\..\..\..\..\Dev\Library embedded l2c display\u8g2\csrc/u8g2_box.c ****   u8g2_box.c
   4:..\..\..\..\..\..\Dev\Library embedded l2c display\u8g2\csrc/u8g2_box.c **** 
   5:..\..\..\..\..\..\Dev\Library embedded l2c display\u8g2\csrc/u8g2_box.c ****   Universal 8bit Graphics Library (https://github.com/olikraus/u8g2/)
   6:..\..\..\..\..\..\Dev\Library embedded l2c display\u8g2\csrc/u8g2_box.c **** 
   7:..\..\..\..\..\..\Dev\Library embedded l2c display\u8g2\csrc/u8g2_box.c ****   Copyright (c) 2016, olikraus@gmail.com
   8:..\..\..\..\..\..\Dev\Library embedded l2c display\u8g2\csrc/u8g2_box.c ****   All rights reserved.
   9:..\..\..\..\..\..\Dev\Library embedded l2c display\u8g2\csrc/u8g2_box.c **** 
  10:..\..\..\..\..\..\Dev\Library embedded l2c display\u8g2\csrc/u8g2_box.c ****   Redistribution and use in source and binary forms, with or without modification, 
  11:..\..\..\..\..\..\Dev\Library embedded l2c display\u8g2\csrc/u8g2_box.c ****   are permitted provided that the following conditions are met:
  12:..\..\..\..\..\..\Dev\Library embedded l2c display\u8g2\csrc/u8g2_box.c **** 
  13:..\..\..\..\..\..\Dev\Library embedded l2c display\u8g2\csrc/u8g2_box.c ****   * Redistributions of source code must retain the above copyright notice, this list 
  14:..\..\..\..\..\..\Dev\Library embedded l2c display\u8g2\csrc/u8g2_box.c ****     of conditions and the following disclaimer.
  15:..\..\..\..\..\..\Dev\Library embedded l2c display\u8g2\csrc/u8g2_box.c ****     
  16:..\..\..\..\..\..\Dev\Library embedded l2c display\u8g2\csrc/u8g2_box.c ****   * Redistributions in binary form must reproduce the above copyright notice, this 
  17:..\..\..\..\..\..\Dev\Library embedded l2c display\u8g2\csrc/u8g2_box.c ****     list of conditions and the following disclaimer in the documentation and/or other 
  18:..\..\..\..\..\..\Dev\Library embedded l2c display\u8g2\csrc/u8g2_box.c ****     materials provided with the distribution.
  19:..\..\..\..\..\..\Dev\Library embedded l2c display\u8g2\csrc/u8g2_box.c **** 
  20:..\..\..\..\..\..\Dev\Library embedded l2c display\u8g2\csrc/u8g2_box.c ****   THIS SOFTWARE IS PROVIDED BY THE COPYRIGHT HOLDERS AND 
  21:..\..\..\..\..\..\Dev\Library embedded l2c display\u8g2\csrc/u8g2_box.c ****   CONTRIBUTORS "AS IS" AND ANY EXPRESS OR IMPLIED WARRANTIES, 
  22:..\..\..\..\..\..\Dev\Library embedded l2c display\u8g2\csrc/u8g2_box.c ****   INCLUDING, BUT NOT LIMITED TO, THE IMPLIED WARRANTIES OF 
  23:..\..\..\..\..\..\Dev\Library embedded l2c display\u8g2\csrc/u8g2_box.c ****   MERCHANTABILITY AND FITNESS FOR A PARTICULAR PURPOSE ARE 
  24:..\..\..\..\..\..\Dev\Library embedded l2c display\u8g2\csrc/u8g2_box.c ****   DISCLAIMED. IN NO EVENT SHALL THE COPYRIGHT HOLDER OR 
  25:..\..\..\..\..\..\Dev\Library embedded l2c display\u8g2\csrc/u8g2_box.c ****   CONTRIBUTORS BE LIABLE FOR ANY DIRECT, INDIRECT, INCIDENTAL, 
  26:..\..\..\..\..\..\Dev\Library embedded l2c display\u8g2\csrc/u8g2_box.c ****   SPECIAL, EXEMPLARY, OR CONSEQUENTIAL DAMAGES (INCLUDING, BUT 
  27:..\..\..\..\..\..\Dev\Library embedded l2c display\u8g2\csrc/u8g2_box.c ****   NOT LIMITED TO, PROCUREMENT OF SUBSTITUTE GOODS OR SERVICES; 
  28:..\..\..\..\..\..\Dev\Library embedded l2c display\u8g2\csrc/u8g2_box.c ****   LOSS OF USE, DATA, OR PROFITS; OR BUSINESS INTERRUPTION) HOWEVER 
  29:..\..\..\..\..\..\Dev\Library embedded l2c display\u8g2\csrc/u8g2_box.c ****   CAUSED AND ON ANY THEORY OF LIABILITY, WHETHER IN CONTRACT, 
  30:..\..\..\..\..\..\Dev\Library embedded l2c display\u8g2\csrc/u8g2_box.c ****   STRICT LIABILITY, OR TORT (INCLUDING NEGLIGENCE OR OTHERWISE) 
ARM GAS  C:\Users\Abude\AppData\Local\Temp\ccwX1mpx.s 			page 2


  31:..\..\..\..\..\..\Dev\Library embedded l2c display\u8g2\csrc/u8g2_box.c ****   ARISING IN ANY WAY OUT OF THE USE OF THIS SOFTWARE, EVEN IF 
  32:..\..\..\..\..\..\Dev\Library embedded l2c display\u8g2\csrc/u8g2_box.c ****   ADVISED OF THE POSSIBILITY OF SUCH DAMAGE.  
  33:..\..\..\..\..\..\Dev\Library embedded l2c display\u8g2\csrc/u8g2_box.c **** 
  34:..\..\..\..\..\..\Dev\Library embedded l2c display\u8g2\csrc/u8g2_box.c **** */
  35:..\..\..\..\..\..\Dev\Library embedded l2c display\u8g2\csrc/u8g2_box.c **** 
  36:..\..\..\..\..\..\Dev\Library embedded l2c display\u8g2\csrc/u8g2_box.c **** #include "u8g2.h"
  37:..\..\..\..\..\..\Dev\Library embedded l2c display\u8g2\csrc/u8g2_box.c **** 
  38:..\..\..\..\..\..\Dev\Library embedded l2c display\u8g2\csrc/u8g2_box.c **** /*
  39:..\..\..\..\..\..\Dev\Library embedded l2c display\u8g2\csrc/u8g2_box.c ****   draw a filled box
  40:..\..\..\..\..\..\Dev\Library embedded l2c display\u8g2\csrc/u8g2_box.c ****   restriction: does not work for w = 0 or h = 0
  41:..\..\..\..\..\..\Dev\Library embedded l2c display\u8g2\csrc/u8g2_box.c **** */
  42:..\..\..\..\..\..\Dev\Library embedded l2c display\u8g2\csrc/u8g2_box.c **** void u8g2_DrawBox(u8g2_t *u8g2, u8g2_uint_t x, u8g2_uint_t y, u8g2_uint_t w, u8g2_uint_t h)
  43:..\..\..\..\..\..\Dev\Library embedded l2c display\u8g2\csrc/u8g2_box.c **** {
  28              		.loc 1 43 0
  29              		.cfi_startproc
  30              		@ args = 4, pretend = 0, frame = 0
  31              		@ frame_needed = 0, uses_anonymous_args = 0
  32              	.LVL0:
  33 0000 2DE9F041 		push	{r4, r5, r6, r7, r8, lr}
  34              		.cfi_def_cfa_offset 24
  35              		.cfi_offset 4, -24
  36              		.cfi_offset 5, -20
  37              		.cfi_offset 6, -16
  38              		.cfi_offset 7, -12
  39              		.cfi_offset 8, -8
  40              		.cfi_offset 14, -4
  41 0004 82B0     		sub	sp, sp, #8
  42              		.cfi_def_cfa_offset 32
  43 0006 8046     		mov	r8, r0
  44 0008 0F46     		mov	r7, r1
  45 000a 1546     		mov	r5, r2
  46 000c 1E46     		mov	r6, r3
  47 000e BDF82040 		ldrh	r4, [sp, #32]
  44:..\..\..\..\..\..\Dev\Library embedded l2c display\u8g2\csrc/u8g2_box.c **** #ifdef U8G2_WITH_INTERSECTION
  45:..\..\..\..\..\..\Dev\Library embedded l2c display\u8g2\csrc/u8g2_box.c ****   if ( u8g2_IsIntersection(u8g2, x, y, x+w, y+h) == 0 ) 
  48              		.loc 1 45 0
  49 0012 01EB030E 		add	lr, r1, r3
  50 0016 1319     		adds	r3, r2, r4
  51              	.LVL1:
  52 0018 9BB2     		uxth	r3, r3
  53 001a 0093     		str	r3, [sp]
  54 001c 1FFA8EF3 		uxth	r3, lr
  55 0020 FFF7FEFF 		bl	u8g2_IsIntersection
  56              	.LVL2:
  57 0024 60B9     		cbnz	r0, .L3
  58 0026 0DE0     		b	.L1
  59              	.LVL3:
  60              	.L4:
  46:..\..\..\..\..\..\Dev\Library embedded l2c display\u8g2\csrc/u8g2_box.c ****     return;
  47:..\..\..\..\..\..\Dev\Library embedded l2c display\u8g2\csrc/u8g2_box.c **** #endif /* U8G2_WITH_INTERSECTION */
  48:..\..\..\..\..\..\Dev\Library embedded l2c display\u8g2\csrc/u8g2_box.c ****   while( h != 0 )
  49:..\..\..\..\..\..\Dev\Library embedded l2c display\u8g2\csrc/u8g2_box.c ****   { 
  50:..\..\..\..\..\..\Dev\Library embedded l2c display\u8g2\csrc/u8g2_box.c ****     u8g2_DrawHVLine(u8g2, x, y, w, 0);
  61              		.loc 1 50 0
  62 0028 0023     		movs	r3, #0
  63 002a 0093     		str	r3, [sp]
  64 002c 3346     		mov	r3, r6
ARM GAS  C:\Users\Abude\AppData\Local\Temp\ccwX1mpx.s 			page 3


  65 002e 2A46     		mov	r2, r5
  66 0030 3946     		mov	r1, r7
  67 0032 4046     		mov	r0, r8
  68 0034 FFF7FEFF 		bl	u8g2_DrawHVLine
  69              	.LVL4:
  51:..\..\..\..\..\..\Dev\Library embedded l2c display\u8g2\csrc/u8g2_box.c ****     y++;    
  70              		.loc 1 51 0
  71 0038 0135     		adds	r5, r5, #1
  72              	.LVL5:
  73 003a ADB2     		uxth	r5, r5
  74              	.LVL6:
  52:..\..\..\..\..\..\Dev\Library embedded l2c display\u8g2\csrc/u8g2_box.c ****     h--;
  75              		.loc 1 52 0
  76 003c 013C     		subs	r4, r4, #1
  77              	.LVL7:
  78 003e A4B2     		uxth	r4, r4
  79              	.LVL8:
  80              	.L3:
  48:..\..\..\..\..\..\Dev\Library embedded l2c display\u8g2\csrc/u8g2_box.c ****   { 
  81              		.loc 1 48 0
  82 0040 002C     		cmp	r4, #0
  83 0042 F1D1     		bne	.L4
  84              	.LVL9:
  85              	.L1:
  53:..\..\..\..\..\..\Dev\Library embedded l2c display\u8g2\csrc/u8g2_box.c ****   }
  54:..\..\..\..\..\..\Dev\Library embedded l2c display\u8g2\csrc/u8g2_box.c **** }
  86              		.loc 1 54 0
  87 0044 02B0     		add	sp, sp, #8
  88              		.cfi_def_cfa_offset 24
  89              		@ sp needed
  90 0046 BDE8F081 		pop	{r4, r5, r6, r7, r8, pc}
  91              		.cfi_endproc
  92              	.LFE0:
  93              		.size	u8g2_DrawBox, .-u8g2_DrawBox
  94 004a 00BF     		.section	.text.u8g2_DrawFrame,"ax",%progbits
  95              		.align	2
  96              		.global	u8g2_DrawFrame
  97              		.thumb
  98              		.thumb_func
  99              		.type	u8g2_DrawFrame, %function
 100              	u8g2_DrawFrame:
 101              	.LFB1:
  55:..\..\..\..\..\..\Dev\Library embedded l2c display\u8g2\csrc/u8g2_box.c **** 
  56:..\..\..\..\..\..\Dev\Library embedded l2c display\u8g2\csrc/u8g2_box.c **** 
  57:..\..\..\..\..\..\Dev\Library embedded l2c display\u8g2\csrc/u8g2_box.c **** /*
  58:..\..\..\..\..\..\Dev\Library embedded l2c display\u8g2\csrc/u8g2_box.c ****   draw a frame (empty box)
  59:..\..\..\..\..\..\Dev\Library embedded l2c display\u8g2\csrc/u8g2_box.c ****   restriction: does not work for w = 0 or h = 0
  60:..\..\..\..\..\..\Dev\Library embedded l2c display\u8g2\csrc/u8g2_box.c **** */
  61:..\..\..\..\..\..\Dev\Library embedded l2c display\u8g2\csrc/u8g2_box.c **** void u8g2_DrawFrame(u8g2_t *u8g2, u8g2_uint_t x, u8g2_uint_t y, u8g2_uint_t w, u8g2_uint_t h)
  62:..\..\..\..\..\..\Dev\Library embedded l2c display\u8g2\csrc/u8g2_box.c **** {
 102              		.loc 1 62 0
 103              		.cfi_startproc
 104              		@ args = 4, pretend = 0, frame = 0
 105              		@ frame_needed = 0, uses_anonymous_args = 0
 106              	.LVL10:
 107 0000 2DE9F047 		push	{r4, r5, r6, r7, r8, r9, r10, lr}
 108              		.cfi_def_cfa_offset 32
ARM GAS  C:\Users\Abude\AppData\Local\Temp\ccwX1mpx.s 			page 4


 109              		.cfi_offset 4, -32
 110              		.cfi_offset 5, -28
 111              		.cfi_offset 6, -24
 112              		.cfi_offset 7, -20
 113              		.cfi_offset 8, -16
 114              		.cfi_offset 9, -12
 115              		.cfi_offset 10, -8
 116              		.cfi_offset 14, -4
 117 0004 82B0     		sub	sp, sp, #8
 118              		.cfi_def_cfa_offset 40
 119 0006 8046     		mov	r8, r0
 120 0008 0E46     		mov	r6, r1
 121 000a 1446     		mov	r4, r2
 122 000c 1F46     		mov	r7, r3
 123 000e BDF82890 		ldrh	r9, [sp, #40]
 124              	.LVL11:
  63:..\..\..\..\..\..\Dev\Library embedded l2c display\u8g2\csrc/u8g2_box.c ****   u8g2_uint_t xtmp = x;
  64:..\..\..\..\..\..\Dev\Library embedded l2c display\u8g2\csrc/u8g2_box.c ****   
  65:..\..\..\..\..\..\Dev\Library embedded l2c display\u8g2\csrc/u8g2_box.c **** #ifdef U8G2_WITH_INTERSECTION
  66:..\..\..\..\..\..\Dev\Library embedded l2c display\u8g2\csrc/u8g2_box.c ****   if ( u8g2_IsIntersection(u8g2, x, y, x+w, y+h) == 0 ) 
 125              		.loc 1 66 0
 126 0012 CD18     		adds	r5, r1, r3
 127 0014 ADB2     		uxth	r5, r5
 128 0016 02EB0903 		add	r3, r2, r9
 129              	.LVL12:
 130 001a 9BB2     		uxth	r3, r3
 131 001c 0093     		str	r3, [sp]
 132 001e 2B46     		mov	r3, r5
 133 0020 FFF7FEFF 		bl	u8g2_IsIntersection
 134              	.LVL13:
 135 0024 80B3     		cbz	r0, .L6
  67:..\..\..\..\..\..\Dev\Library embedded l2c display\u8g2\csrc/u8g2_box.c ****     return;
  68:..\..\..\..\..\..\Dev\Library embedded l2c display\u8g2\csrc/u8g2_box.c **** #endif /* U8G2_WITH_INTERSECTION */
  69:..\..\..\..\..\..\Dev\Library embedded l2c display\u8g2\csrc/u8g2_box.c ****   
  70:..\..\..\..\..\..\Dev\Library embedded l2c display\u8g2\csrc/u8g2_box.c ****   u8g2_DrawHVLine(u8g2, x, y, w, 0);
 136              		.loc 1 70 0
 137 0026 0023     		movs	r3, #0
 138 0028 0093     		str	r3, [sp]
 139 002a 3B46     		mov	r3, r7
 140 002c 2246     		mov	r2, r4
 141 002e 3146     		mov	r1, r6
 142 0030 4046     		mov	r0, r8
 143 0032 FFF7FEFF 		bl	u8g2_DrawHVLine
 144              	.LVL14:
  71:..\..\..\..\..\..\Dev\Library embedded l2c display\u8g2\csrc/u8g2_box.c ****   if (h >= 2) {
 145              		.loc 1 71 0
 146 0036 B9F1010F 		cmp	r9, #1
 147 003a 25D9     		bls	.L6
  72:..\..\..\..\..\..\Dev\Library embedded l2c display\u8g2\csrc/u8g2_box.c ****     h-=2;
 148              		.loc 1 72 0
 149 003c A9F10209 		sub	r9, r9, #2
 150 0040 1FFA89F9 		uxth	r9, r9
 151              	.LVL15:
  73:..\..\..\..\..\..\Dev\Library embedded l2c display\u8g2\csrc/u8g2_box.c ****     y++;
 152              		.loc 1 73 0
 153 0044 0134     		adds	r4, r4, #1
 154 0046 A4B2     		uxth	r4, r4
ARM GAS  C:\Users\Abude\AppData\Local\Temp\ccwX1mpx.s 			page 5


 155              	.LVL16:
  74:..\..\..\..\..\..\Dev\Library embedded l2c display\u8g2\csrc/u8g2_box.c ****     if (h > 0) {
 156              		.loc 1 74 0
 157 0048 B9F1000F 		cmp	r9, #0
 158 004c 14D0     		beq	.L8
  75:..\..\..\..\..\..\Dev\Library embedded l2c display\u8g2\csrc/u8g2_box.c ****       u8g2_DrawHVLine(u8g2, x, y, h, 1);
 159              		.loc 1 75 0
 160 004e 4FF0010A 		mov	r10, #1
 161 0052 CDF800A0 		str	r10, [sp]
 162 0056 4B46     		mov	r3, r9
 163 0058 2246     		mov	r2, r4
 164 005a 3146     		mov	r1, r6
 165 005c 4046     		mov	r0, r8
 166 005e FFF7FEFF 		bl	u8g2_DrawHVLine
 167              	.LVL17:
  76:..\..\..\..\..\..\Dev\Library embedded l2c display\u8g2\csrc/u8g2_box.c ****       x+=w;
  77:..\..\..\..\..\..\Dev\Library embedded l2c display\u8g2\csrc/u8g2_box.c ****       x--;
 168              		.loc 1 77 0
 169 0062 691E     		subs	r1, r5, #1
 170              	.LVL18:
  78:..\..\..\..\..\..\Dev\Library embedded l2c display\u8g2\csrc/u8g2_box.c ****       u8g2_DrawHVLine(u8g2, x, y, h, 1);
 171              		.loc 1 78 0
 172 0064 CDF800A0 		str	r10, [sp]
 173 0068 4B46     		mov	r3, r9
 174 006a 2246     		mov	r2, r4
 175 006c 89B2     		uxth	r1, r1
 176 006e 4046     		mov	r0, r8
 177 0070 FFF7FEFF 		bl	u8g2_DrawHVLine
 178              	.LVL19:
  79:..\..\..\..\..\..\Dev\Library embedded l2c display\u8g2\csrc/u8g2_box.c ****       y+=h;
 179              		.loc 1 79 0
 180 0074 4C44     		add	r4, r4, r9
 181              	.LVL20:
 182 0076 A4B2     		uxth	r4, r4
 183              	.LVL21:
 184              	.L8:
  80:..\..\..\..\..\..\Dev\Library embedded l2c display\u8g2\csrc/u8g2_box.c ****     }
  81:..\..\..\..\..\..\Dev\Library embedded l2c display\u8g2\csrc/u8g2_box.c ****     u8g2_DrawHVLine(u8g2, xtmp, y, w, 0);
 185              		.loc 1 81 0
 186 0078 0023     		movs	r3, #0
 187 007a 0093     		str	r3, [sp]
 188 007c 3B46     		mov	r3, r7
 189 007e 2246     		mov	r2, r4
 190 0080 3146     		mov	r1, r6
 191 0082 4046     		mov	r0, r8
 192 0084 FFF7FEFF 		bl	u8g2_DrawHVLine
 193              	.LVL22:
 194              	.L6:
  82:..\..\..\..\..\..\Dev\Library embedded l2c display\u8g2\csrc/u8g2_box.c ****   }
  83:..\..\..\..\..\..\Dev\Library embedded l2c display\u8g2\csrc/u8g2_box.c **** }
 195              		.loc 1 83 0
 196 0088 02B0     		add	sp, sp, #8
 197              		.cfi_def_cfa_offset 32
 198              		@ sp needed
 199 008a BDE8F087 		pop	{r4, r5, r6, r7, r8, r9, r10, pc}
 200              		.cfi_endproc
 201              	.LFE1:
ARM GAS  C:\Users\Abude\AppData\Local\Temp\ccwX1mpx.s 			page 6


 202              		.size	u8g2_DrawFrame, .-u8g2_DrawFrame
 203 008e 00BF     		.section	.text.u8g2_DrawRBox,"ax",%progbits
 204              		.align	2
 205              		.global	u8g2_DrawRBox
 206              		.thumb
 207              		.thumb_func
 208              		.type	u8g2_DrawRBox, %function
 209              	u8g2_DrawRBox:
 210              	.LFB2:
  84:..\..\..\..\..\..\Dev\Library embedded l2c display\u8g2\csrc/u8g2_box.c **** 
  85:..\..\..\..\..\..\Dev\Library embedded l2c display\u8g2\csrc/u8g2_box.c **** 
  86:..\..\..\..\..\..\Dev\Library embedded l2c display\u8g2\csrc/u8g2_box.c **** 
  87:..\..\..\..\..\..\Dev\Library embedded l2c display\u8g2\csrc/u8g2_box.c **** 
  88:..\..\..\..\..\..\Dev\Library embedded l2c display\u8g2\csrc/u8g2_box.c **** void u8g2_DrawRBox(u8g2_t *u8g2, u8g2_uint_t x, u8g2_uint_t y, u8g2_uint_t w, u8g2_uint_t h, u8g2_u
  89:..\..\..\..\..\..\Dev\Library embedded l2c display\u8g2\csrc/u8g2_box.c **** {
 211              		.loc 1 89 0
 212              		.cfi_startproc
 213              		@ args = 8, pretend = 0, frame = 16
 214              		@ frame_needed = 0, uses_anonymous_args = 0
 215              	.LVL23:
 216 0000 2DE9F04F 		push	{r4, r5, r6, r7, r8, r9, r10, fp, lr}
 217              		.cfi_def_cfa_offset 36
 218              		.cfi_offset 4, -36
 219              		.cfi_offset 5, -32
 220              		.cfi_offset 6, -28
 221              		.cfi_offset 7, -24
 222              		.cfi_offset 8, -20
 223              		.cfi_offset 9, -16
 224              		.cfi_offset 10, -12
 225              		.cfi_offset 11, -8
 226              		.cfi_offset 14, -4
 227 0004 87B0     		sub	sp, sp, #28
 228              		.cfi_def_cfa_offset 64
 229 0006 0390     		str	r0, [sp, #12]
 230 0008 8946     		mov	r9, r1
 231 000a 9346     		mov	fp, r2
 232 000c 9A46     		mov	r10, r3
 233 000e BDF84060 		ldrh	r6, [sp, #64]
 234 0012 BDF84470 		ldrh	r7, [sp, #68]
  90:..\..\..\..\..\..\Dev\Library embedded l2c display\u8g2\csrc/u8g2_box.c ****   u8g2_uint_t xl, yu;
  91:..\..\..\..\..\..\Dev\Library embedded l2c display\u8g2\csrc/u8g2_box.c ****   u8g2_uint_t yl, xr;
  92:..\..\..\..\..\..\Dev\Library embedded l2c display\u8g2\csrc/u8g2_box.c **** 
  93:..\..\..\..\..\..\Dev\Library embedded l2c display\u8g2\csrc/u8g2_box.c **** #ifdef U8G2_WITH_INTERSECTION
  94:..\..\..\..\..\..\Dev\Library embedded l2c display\u8g2\csrc/u8g2_box.c ****   if ( u8g2_IsIntersection(u8g2, x, y, x+w, y+h) == 0 ) 
 235              		.loc 1 94 0
 236 0016 CC18     		adds	r4, r1, r3
 237 0018 A4B2     		uxth	r4, r4
 238 001a 9519     		adds	r5, r2, r6
 239 001c ADB2     		uxth	r5, r5
 240 001e 0095     		str	r5, [sp]
 241 0020 2346     		mov	r3, r4
 242              	.LVL24:
 243 0022 FFF7FEFF 		bl	u8g2_IsIntersection
 244              	.LVL25:
 245 0026 0028     		cmp	r0, #0
 246 0028 64D0     		beq	.L10
 247              	.LVL26:
ARM GAS  C:\Users\Abude\AppData\Local\Temp\ccwX1mpx.s 			page 7


  95:..\..\..\..\..\..\Dev\Library embedded l2c display\u8g2\csrc/u8g2_box.c ****     return;
  96:..\..\..\..\..\..\Dev\Library embedded l2c display\u8g2\csrc/u8g2_box.c **** #endif /* U8G2_WITH_INTERSECTION */
  97:..\..\..\..\..\..\Dev\Library embedded l2c display\u8g2\csrc/u8g2_box.c **** 
  98:..\..\..\..\..\..\Dev\Library embedded l2c display\u8g2\csrc/u8g2_box.c ****   xl = x;
  99:..\..\..\..\..\..\Dev\Library embedded l2c display\u8g2\csrc/u8g2_box.c ****   xl += r;
 248              		.loc 1 99 0
 249 002a 09EB0708 		add	r8, r9, r7
 250 002e 1FFA88F8 		uxth	r8, r8
 251              	.LVL27:
 100:..\..\..\..\..\..\Dev\Library embedded l2c display\u8g2\csrc/u8g2_box.c ****   yu = y;
 101:..\..\..\..\..\..\Dev\Library embedded l2c display\u8g2\csrc/u8g2_box.c ****   yu += r;
 252              		.loc 1 101 0
 253 0032 0BEB0703 		add	r3, fp, r7
 254 0036 9BB2     		uxth	r3, r3
 255 0038 1A46     		mov	r2, r3
 256              	.LVL28:
 102:..\..\..\..\..\..\Dev\Library embedded l2c display\u8g2\csrc/u8g2_box.c ****  
 103:..\..\..\..\..\..\Dev\Library embedded l2c display\u8g2\csrc/u8g2_box.c ****   xr = x;
 104:..\..\..\..\..\..\Dev\Library embedded l2c display\u8g2\csrc/u8g2_box.c ****   xr += w;
 105:..\..\..\..\..\..\Dev\Library embedded l2c display\u8g2\csrc/u8g2_box.c ****   xr -= r;
 257              		.loc 1 105 0
 258 003a E41B     		subs	r4, r4, r7
 259              	.LVL29:
 260 003c A4B2     		uxth	r4, r4
 261              	.LVL30:
 106:..\..\..\..\..\..\Dev\Library embedded l2c display\u8g2\csrc/u8g2_box.c ****   xr -= 1;
 262              		.loc 1 106 0
 263 003e 013C     		subs	r4, r4, #1
 264              	.LVL31:
 265 0040 A4B2     		uxth	r4, r4
 266              	.LVL32:
 107:..\..\..\..\..\..\Dev\Library embedded l2c display\u8g2\csrc/u8g2_box.c ****   
 108:..\..\..\..\..\..\Dev\Library embedded l2c display\u8g2\csrc/u8g2_box.c ****   yl = y;
 109:..\..\..\..\..\..\Dev\Library embedded l2c display\u8g2\csrc/u8g2_box.c ****   yl += h;
 110:..\..\..\..\..\..\Dev\Library embedded l2c display\u8g2\csrc/u8g2_box.c ****   yl -= r; 
 267              		.loc 1 110 0
 268 0042 ED1B     		subs	r5, r5, r7
 269              	.LVL33:
 270 0044 ADB2     		uxth	r5, r5
 271              	.LVL34:
 111:..\..\..\..\..\..\Dev\Library embedded l2c display\u8g2\csrc/u8g2_box.c ****   yl -= 1;
 272              		.loc 1 111 0
 273 0046 013D     		subs	r5, r5, #1
 274              	.LVL35:
 275 0048 ADB2     		uxth	r5, r5
 276              	.LVL36:
 112:..\..\..\..\..\..\Dev\Library embedded l2c display\u8g2\csrc/u8g2_box.c **** 
 113:..\..\..\..\..\..\Dev\Library embedded l2c display\u8g2\csrc/u8g2_box.c ****   u8g2_DrawDisc(u8g2, xl, yu, r, U8G2_DRAW_UPPER_LEFT);
 277              		.loc 1 113 0
 278 004a 0223     		movs	r3, #2
 279 004c 0093     		str	r3, [sp]
 280 004e 3B46     		mov	r3, r7
 281 0050 0492     		str	r2, [sp, #16]
 282 0052 4146     		mov	r1, r8
 283 0054 0398     		ldr	r0, [sp, #12]
 284 0056 FFF7FEFF 		bl	u8g2_DrawDisc
 285              	.LVL37:
ARM GAS  C:\Users\Abude\AppData\Local\Temp\ccwX1mpx.s 			page 8


 114:..\..\..\..\..\..\Dev\Library embedded l2c display\u8g2\csrc/u8g2_box.c ****   u8g2_DrawDisc(u8g2, xr, yu, r, U8G2_DRAW_UPPER_RIGHT);
 286              		.loc 1 114 0
 287 005a 0123     		movs	r3, #1
 288 005c 0093     		str	r3, [sp]
 289 005e 3B46     		mov	r3, r7
 290 0060 049A     		ldr	r2, [sp, #16]
 291 0062 2146     		mov	r1, r4
 292 0064 0398     		ldr	r0, [sp, #12]
 293 0066 FFF7FEFF 		bl	u8g2_DrawDisc
 294              	.LVL38:
 115:..\..\..\..\..\..\Dev\Library embedded l2c display\u8g2\csrc/u8g2_box.c ****   u8g2_DrawDisc(u8g2, xl, yl, r, U8G2_DRAW_LOWER_LEFT);
 295              		.loc 1 115 0
 296 006a 0423     		movs	r3, #4
 297 006c 0093     		str	r3, [sp]
 298 006e 3B46     		mov	r3, r7
 299 0070 2A46     		mov	r2, r5
 300 0072 4146     		mov	r1, r8
 301 0074 0398     		ldr	r0, [sp, #12]
 302 0076 FFF7FEFF 		bl	u8g2_DrawDisc
 303              	.LVL39:
 116:..\..\..\..\..\..\Dev\Library embedded l2c display\u8g2\csrc/u8g2_box.c ****   u8g2_DrawDisc(u8g2, xr, yl, r, U8G2_DRAW_LOWER_RIGHT);
 304              		.loc 1 116 0
 305 007a 0823     		movs	r3, #8
 306 007c 0093     		str	r3, [sp]
 307 007e 3B46     		mov	r3, r7
 308 0080 2A46     		mov	r2, r5
 309 0082 2146     		mov	r1, r4
 310 0084 0398     		ldr	r0, [sp, #12]
 311 0086 FFF7FEFF 		bl	u8g2_DrawDisc
 312              	.LVL40:
 313              	.LBB2:
 117:..\..\..\..\..\..\Dev\Library embedded l2c display\u8g2\csrc/u8g2_box.c **** 
 118:..\..\..\..\..\..\Dev\Library embedded l2c display\u8g2\csrc/u8g2_box.c ****   {
 119:..\..\..\..\..\..\Dev\Library embedded l2c display\u8g2\csrc/u8g2_box.c ****     u8g2_uint_t ww, hh;
 120:..\..\..\..\..\..\Dev\Library embedded l2c display\u8g2\csrc/u8g2_box.c **** 
 121:..\..\..\..\..\..\Dev\Library embedded l2c display\u8g2\csrc/u8g2_box.c ****     ww = w;
 122:..\..\..\..\..\..\Dev\Library embedded l2c display\u8g2\csrc/u8g2_box.c ****     ww -= r;
 314              		.loc 1 122 0
 315 008a C7EB0A03 		rsb	r3, r7, r10
 316 008e 9BB2     		uxth	r3, r3
 317              	.LVL41:
 123:..\..\..\..\..\..\Dev\Library embedded l2c display\u8g2\csrc/u8g2_box.c ****     ww -= r;
 318              		.loc 1 123 0
 319 0090 DB1B     		subs	r3, r3, r7
 320              	.LVL42:
 321 0092 9BB2     		uxth	r3, r3
 322              	.LVL43:
 124:..\..\..\..\..\..\Dev\Library embedded l2c display\u8g2\csrc/u8g2_box.c ****     xl++;
 323              		.loc 1 124 0
 324 0094 08F10108 		add	r8, r8, #1
 325              	.LVL44:
 326 0098 1FFA88F8 		uxth	r8, r8
 327              	.LVL45:
 125:..\..\..\..\..\..\Dev\Library embedded l2c display\u8g2\csrc/u8g2_box.c ****     yu++;
 328              		.loc 1 125 0
 329 009c 049A     		ldr	r2, [sp, #16]
 330 009e 541C     		adds	r4, r2, #1
ARM GAS  C:\Users\Abude\AppData\Local\Temp\ccwX1mpx.s 			page 9


 331              	.LVL46:
 332 00a0 A4B2     		uxth	r4, r4
 333              	.LVL47:
 126:..\..\..\..\..\..\Dev\Library embedded l2c display\u8g2\csrc/u8g2_box.c ****     
 127:..\..\..\..\..\..\Dev\Library embedded l2c display\u8g2\csrc/u8g2_box.c ****     if ( ww >= 3 )
 334              		.loc 1 127 0
 335 00a2 022B     		cmp	r3, #2
 336 00a4 17D9     		bls	.L12
 128:..\..\..\..\..\..\Dev\Library embedded l2c display\u8g2\csrc/u8g2_box.c ****     {
 129:..\..\..\..\..\..\Dev\Library embedded l2c display\u8g2\csrc/u8g2_box.c ****       ww -= 2;
 337              		.loc 1 129 0
 338 00a6 023B     		subs	r3, r3, #2
 339              	.LVL48:
 340 00a8 9BB2     		uxth	r3, r3
 341              	.LVL49:
 342 00aa 1946     		mov	r1, r3
 343              	.LVL50:
 130:..\..\..\..\..\..\Dev\Library embedded l2c display\u8g2\csrc/u8g2_box.c ****       u8g2_DrawBox(u8g2, xl, y, ww, r+1);
 344              		.loc 1 130 0
 345 00ac 7B1C     		adds	r3, r7, #1
 346 00ae 9BB2     		uxth	r3, r3
 347 00b0 0593     		str	r3, [sp, #20]
 348 00b2 0093     		str	r3, [sp]
 349 00b4 0491     		str	r1, [sp, #16]
 350 00b6 0B46     		mov	r3, r1
 351 00b8 5A46     		mov	r2, fp
 352 00ba 4146     		mov	r1, r8
 353              	.LVL51:
 354 00bc DDF80CB0 		ldr	fp, [sp, #12]
 355 00c0 5846     		mov	r0, fp
 356 00c2 FFF7FEFF 		bl	u8g2_DrawBox
 357              	.LVL52:
 131:..\..\..\..\..\..\Dev\Library embedded l2c display\u8g2\csrc/u8g2_box.c ****       u8g2_DrawBox(u8g2, xl, yl, ww, r+1);
 358              		.loc 1 131 0
 359 00c6 059A     		ldr	r2, [sp, #20]
 360 00c8 0092     		str	r2, [sp]
 361 00ca 049B     		ldr	r3, [sp, #16]
 362 00cc 2A46     		mov	r2, r5
 363 00ce 4146     		mov	r1, r8
 364 00d0 5846     		mov	r0, fp
 365 00d2 FFF7FEFF 		bl	u8g2_DrawBox
 366              	.LVL53:
 367              	.L12:
 132:..\..\..\..\..\..\Dev\Library embedded l2c display\u8g2\csrc/u8g2_box.c ****     }
 133:..\..\..\..\..\..\Dev\Library embedded l2c display\u8g2\csrc/u8g2_box.c ****     
 134:..\..\..\..\..\..\Dev\Library embedded l2c display\u8g2\csrc/u8g2_box.c ****     hh = h;
 135:..\..\..\..\..\..\Dev\Library embedded l2c display\u8g2\csrc/u8g2_box.c ****     hh -= r;
 368              		.loc 1 135 0
 369 00d6 F61B     		subs	r6, r6, r7
 370              	.LVL54:
 371 00d8 B6B2     		uxth	r6, r6
 372              	.LVL55:
 136:..\..\..\..\..\..\Dev\Library embedded l2c display\u8g2\csrc/u8g2_box.c ****     hh -= r;
 373              		.loc 1 136 0
 374 00da F71B     		subs	r7, r6, r7
 375              	.LVL56:
 376 00dc BFB2     		uxth	r7, r7
ARM GAS  C:\Users\Abude\AppData\Local\Temp\ccwX1mpx.s 			page 10


 377              	.LVL57:
 137:..\..\..\..\..\..\Dev\Library embedded l2c display\u8g2\csrc/u8g2_box.c ****     //h--;
 138:..\..\..\..\..\..\Dev\Library embedded l2c display\u8g2\csrc/u8g2_box.c ****     if ( hh >= 3 )
 378              		.loc 1 138 0
 379 00de 022F     		cmp	r7, #2
 380 00e0 08D9     		bls	.L10
 139:..\..\..\..\..\..\Dev\Library embedded l2c display\u8g2\csrc/u8g2_box.c ****     {
 140:..\..\..\..\..\..\Dev\Library embedded l2c display\u8g2\csrc/u8g2_box.c ****       hh -= 2;
 381              		.loc 1 140 0
 382 00e2 023F     		subs	r7, r7, #2
 383              	.LVL58:
 384 00e4 BFB2     		uxth	r7, r7
 385              	.LVL59:
 141:..\..\..\..\..\..\Dev\Library embedded l2c display\u8g2\csrc/u8g2_box.c ****       u8g2_DrawBox(u8g2, x, yu, w, hh);
 386              		.loc 1 141 0
 387 00e6 0097     		str	r7, [sp]
 388 00e8 5346     		mov	r3, r10
 389 00ea 2246     		mov	r2, r4
 390 00ec 4946     		mov	r1, r9
 391 00ee 0398     		ldr	r0, [sp, #12]
 392 00f0 FFF7FEFF 		bl	u8g2_DrawBox
 393              	.LVL60:
 394              	.L10:
 395              	.LBE2:
 142:..\..\..\..\..\..\Dev\Library embedded l2c display\u8g2\csrc/u8g2_box.c ****     }
 143:..\..\..\..\..\..\Dev\Library embedded l2c display\u8g2\csrc/u8g2_box.c ****   }
 144:..\..\..\..\..\..\Dev\Library embedded l2c display\u8g2\csrc/u8g2_box.c **** }
 396              		.loc 1 144 0
 397 00f4 07B0     		add	sp, sp, #28
 398              		.cfi_def_cfa_offset 36
 399              		@ sp needed
 400 00f6 BDE8F08F 		pop	{r4, r5, r6, r7, r8, r9, r10, fp, pc}
 401              		.cfi_endproc
 402              	.LFE2:
 403              		.size	u8g2_DrawRBox, .-u8g2_DrawRBox
 404 00fa 00BF     		.section	.text.u8g2_DrawRFrame,"ax",%progbits
 405              		.align	2
 406              		.global	u8g2_DrawRFrame
 407              		.thumb
 408              		.thumb_func
 409              		.type	u8g2_DrawRFrame, %function
 410              	u8g2_DrawRFrame:
 411              	.LFB3:
 145:..\..\..\..\..\..\Dev\Library embedded l2c display\u8g2\csrc/u8g2_box.c **** 
 146:..\..\..\..\..\..\Dev\Library embedded l2c display\u8g2\csrc/u8g2_box.c **** 
 147:..\..\..\..\..\..\Dev\Library embedded l2c display\u8g2\csrc/u8g2_box.c **** void u8g2_DrawRFrame(u8g2_t *u8g2, u8g2_uint_t x, u8g2_uint_t y, u8g2_uint_t w, u8g2_uint_t h, u8g2
 148:..\..\..\..\..\..\Dev\Library embedded l2c display\u8g2\csrc/u8g2_box.c **** {
 412              		.loc 1 148 0
 413              		.cfi_startproc
 414              		@ args = 8, pretend = 0, frame = 8
 415              		@ frame_needed = 0, uses_anonymous_args = 0
 416              	.LVL61:
 417 0000 2DE9F04F 		push	{r4, r5, r6, r7, r8, r9, r10, fp, lr}
 418              		.cfi_def_cfa_offset 36
 419              		.cfi_offset 4, -36
 420              		.cfi_offset 5, -32
 421              		.cfi_offset 6, -28
ARM GAS  C:\Users\Abude\AppData\Local\Temp\ccwX1mpx.s 			page 11


 422              		.cfi_offset 7, -24
 423              		.cfi_offset 8, -20
 424              		.cfi_offset 9, -16
 425              		.cfi_offset 10, -12
 426              		.cfi_offset 11, -8
 427              		.cfi_offset 14, -4
 428 0004 85B0     		sub	sp, sp, #20
 429              		.cfi_def_cfa_offset 56
 430 0006 0290     		str	r0, [sp, #8]
 431 0008 8A46     		mov	r10, r1
 432 000a 9346     		mov	fp, r2
 433 000c 9846     		mov	r8, r3
 434 000e BDF83890 		ldrh	r9, [sp, #56]
 435 0012 BDF83C60 		ldrh	r6, [sp, #60]
 149:..\..\..\..\..\..\Dev\Library embedded l2c display\u8g2\csrc/u8g2_box.c ****   u8g2_uint_t xl, yu;
 150:..\..\..\..\..\..\Dev\Library embedded l2c display\u8g2\csrc/u8g2_box.c **** 
 151:..\..\..\..\..\..\Dev\Library embedded l2c display\u8g2\csrc/u8g2_box.c **** #ifdef U8G2_WITH_INTERSECTION
 152:..\..\..\..\..\..\Dev\Library embedded l2c display\u8g2\csrc/u8g2_box.c ****   if ( u8g2_IsIntersection(u8g2, x, y, x+w, y+h) == 0 ) 
 436              		.loc 1 152 0
 437 0016 CD18     		adds	r5, r1, r3
 438 0018 ADB2     		uxth	r5, r5
 439 001a 02EB0904 		add	r4, r2, r9
 440 001e A4B2     		uxth	r4, r4
 441 0020 0094     		str	r4, [sp]
 442 0022 2B46     		mov	r3, r5
 443              	.LVL62:
 444 0024 FFF7FEFF 		bl	u8g2_IsIntersection
 445              	.LVL63:
 446 0028 0028     		cmp	r0, #0
 447 002a 6AD0     		beq	.L14
 448              	.LVL64:
 153:..\..\..\..\..\..\Dev\Library embedded l2c display\u8g2\csrc/u8g2_box.c ****     return;
 154:..\..\..\..\..\..\Dev\Library embedded l2c display\u8g2\csrc/u8g2_box.c **** #endif /* U8G2_WITH_INTERSECTION */
 155:..\..\..\..\..\..\Dev\Library embedded l2c display\u8g2\csrc/u8g2_box.c **** 
 156:..\..\..\..\..\..\Dev\Library embedded l2c display\u8g2\csrc/u8g2_box.c ****   xl = x;
 157:..\..\..\..\..\..\Dev\Library embedded l2c display\u8g2\csrc/u8g2_box.c ****   xl += r;
 449              		.loc 1 157 0
 450 002c 0AEB0607 		add	r7, r10, r6
 451 0030 BFB2     		uxth	r7, r7
 452              	.LVL65:
 158:..\..\..\..\..\..\Dev\Library embedded l2c display\u8g2\csrc/u8g2_box.c ****   yu = y;
 159:..\..\..\..\..\..\Dev\Library embedded l2c display\u8g2\csrc/u8g2_box.c ****   yu += r;
 453              		.loc 1 159 0
 454 0032 0BEB0603 		add	r3, fp, r6
 455 0036 9BB2     		uxth	r3, r3
 456 0038 1A46     		mov	r2, r3
 457              	.LVL66:
 458              	.LBB3:
 160:..\..\..\..\..\..\Dev\Library embedded l2c display\u8g2\csrc/u8g2_box.c ****  
 161:..\..\..\..\..\..\Dev\Library embedded l2c display\u8g2\csrc/u8g2_box.c ****   {
 162:..\..\..\..\..\..\Dev\Library embedded l2c display\u8g2\csrc/u8g2_box.c ****     u8g2_uint_t yl, xr;
 163:..\..\..\..\..\..\Dev\Library embedded l2c display\u8g2\csrc/u8g2_box.c ****       
 164:..\..\..\..\..\..\Dev\Library embedded l2c display\u8g2\csrc/u8g2_box.c ****     xr = x;
 165:..\..\..\..\..\..\Dev\Library embedded l2c display\u8g2\csrc/u8g2_box.c ****     xr += w;
 166:..\..\..\..\..\..\Dev\Library embedded l2c display\u8g2\csrc/u8g2_box.c ****     xr -= r;
 459              		.loc 1 166 0
 460 003a AD1B     		subs	r5, r5, r6
ARM GAS  C:\Users\Abude\AppData\Local\Temp\ccwX1mpx.s 			page 12


 461              	.LVL67:
 462 003c ADB2     		uxth	r5, r5
 463              	.LVL68:
 167:..\..\..\..\..\..\Dev\Library embedded l2c display\u8g2\csrc/u8g2_box.c ****     xr -= 1;
 464              		.loc 1 167 0
 465 003e 013D     		subs	r5, r5, #1
 466              	.LVL69:
 467 0040 ADB2     		uxth	r5, r5
 468              	.LVL70:
 168:..\..\..\..\..\..\Dev\Library embedded l2c display\u8g2\csrc/u8g2_box.c ****     
 169:..\..\..\..\..\..\Dev\Library embedded l2c display\u8g2\csrc/u8g2_box.c ****     yl = y;
 170:..\..\..\..\..\..\Dev\Library embedded l2c display\u8g2\csrc/u8g2_box.c ****     yl += h;
 171:..\..\..\..\..\..\Dev\Library embedded l2c display\u8g2\csrc/u8g2_box.c ****     yl -= r; 
 469              		.loc 1 171 0
 470 0042 A41B     		subs	r4, r4, r6
 471              	.LVL71:
 472 0044 A4B2     		uxth	r4, r4
 473              	.LVL72:
 172:..\..\..\..\..\..\Dev\Library embedded l2c display\u8g2\csrc/u8g2_box.c ****     yl -= 1;
 474              		.loc 1 172 0
 475 0046 013C     		subs	r4, r4, #1
 476              	.LVL73:
 477 0048 A4B2     		uxth	r4, r4
 478              	.LVL74:
 173:..\..\..\..\..\..\Dev\Library embedded l2c display\u8g2\csrc/u8g2_box.c **** 
 174:..\..\..\..\..\..\Dev\Library embedded l2c display\u8g2\csrc/u8g2_box.c ****     u8g2_DrawCircle(u8g2, xl, yu, r, U8G2_DRAW_UPPER_LEFT);
 479              		.loc 1 174 0
 480 004a 0223     		movs	r3, #2
 481 004c 0093     		str	r3, [sp]
 482 004e 3346     		mov	r3, r6
 483 0050 0392     		str	r2, [sp, #12]
 484 0052 3946     		mov	r1, r7
 485 0054 0298     		ldr	r0, [sp, #8]
 486 0056 FFF7FEFF 		bl	u8g2_DrawCircle
 487              	.LVL75:
 175:..\..\..\..\..\..\Dev\Library embedded l2c display\u8g2\csrc/u8g2_box.c ****     u8g2_DrawCircle(u8g2, xr, yu, r, U8G2_DRAW_UPPER_RIGHT);
 488              		.loc 1 175 0
 489 005a 0123     		movs	r3, #1
 490 005c 0093     		str	r3, [sp]
 491 005e 3346     		mov	r3, r6
 492 0060 039A     		ldr	r2, [sp, #12]
 493 0062 2946     		mov	r1, r5
 494 0064 0298     		ldr	r0, [sp, #8]
 495 0066 FFF7FEFF 		bl	u8g2_DrawCircle
 496              	.LVL76:
 176:..\..\..\..\..\..\Dev\Library embedded l2c display\u8g2\csrc/u8g2_box.c ****     u8g2_DrawCircle(u8g2, xl, yl, r, U8G2_DRAW_LOWER_LEFT);
 497              		.loc 1 176 0
 498 006a 0423     		movs	r3, #4
 499 006c 0093     		str	r3, [sp]
 500 006e 3346     		mov	r3, r6
 501 0070 2246     		mov	r2, r4
 502 0072 3946     		mov	r1, r7
 503 0074 0298     		ldr	r0, [sp, #8]
 504 0076 FFF7FEFF 		bl	u8g2_DrawCircle
 505              	.LVL77:
 177:..\..\..\..\..\..\Dev\Library embedded l2c display\u8g2\csrc/u8g2_box.c ****     u8g2_DrawCircle(u8g2, xr, yl, r, U8G2_DRAW_LOWER_RIGHT);
 506              		.loc 1 177 0
ARM GAS  C:\Users\Abude\AppData\Local\Temp\ccwX1mpx.s 			page 13


 507 007a 0823     		movs	r3, #8
 508 007c 0093     		str	r3, [sp]
 509 007e 3346     		mov	r3, r6
 510 0080 2246     		mov	r2, r4
 511 0082 2946     		mov	r1, r5
 512 0084 0298     		ldr	r0, [sp, #8]
 513 0086 FFF7FEFF 		bl	u8g2_DrawCircle
 514              	.LVL78:
 515              	.LBE3:
 516              	.LBB4:
 178:..\..\..\..\..\..\Dev\Library embedded l2c display\u8g2\csrc/u8g2_box.c ****   }
 179:..\..\..\..\..\..\Dev\Library embedded l2c display\u8g2\csrc/u8g2_box.c **** 
 180:..\..\..\..\..\..\Dev\Library embedded l2c display\u8g2\csrc/u8g2_box.c ****   {
 181:..\..\..\..\..\..\Dev\Library embedded l2c display\u8g2\csrc/u8g2_box.c ****     u8g2_uint_t ww, hh;
 182:..\..\..\..\..\..\Dev\Library embedded l2c display\u8g2\csrc/u8g2_box.c **** 
 183:..\..\..\..\..\..\Dev\Library embedded l2c display\u8g2\csrc/u8g2_box.c ****     ww = w;
 184:..\..\..\..\..\..\Dev\Library embedded l2c display\u8g2\csrc/u8g2_box.c ****     ww -= r;
 517              		.loc 1 184 0
 518 008a C6EB0805 		rsb	r5, r6, r8
 519              	.LVL79:
 520 008e ADB2     		uxth	r5, r5
 521              	.LVL80:
 185:..\..\..\..\..\..\Dev\Library embedded l2c display\u8g2\csrc/u8g2_box.c ****     ww -= r;
 522              		.loc 1 185 0
 523 0090 AD1B     		subs	r5, r5, r6
 524              	.LVL81:
 525 0092 ADB2     		uxth	r5, r5
 526              	.LVL82:
 186:..\..\..\..\..\..\Dev\Library embedded l2c display\u8g2\csrc/u8g2_box.c ****     hh = h;
 187:..\..\..\..\..\..\Dev\Library embedded l2c display\u8g2\csrc/u8g2_box.c ****     hh -= r;
 527              		.loc 1 187 0
 528 0094 C6EB0903 		rsb	r3, r6, r9
 529 0098 9BB2     		uxth	r3, r3
 530              	.LVL83:
 188:..\..\..\..\..\..\Dev\Library embedded l2c display\u8g2\csrc/u8g2_box.c ****     hh -= r;
 531              		.loc 1 188 0
 532 009a 9E1B     		subs	r6, r3, r6
 533              	.LVL84:
 534 009c B6B2     		uxth	r6, r6
 535              	.LVL85:
 189:..\..\..\..\..\..\Dev\Library embedded l2c display\u8g2\csrc/u8g2_box.c ****     
 190:..\..\..\..\..\..\Dev\Library embedded l2c display\u8g2\csrc/u8g2_box.c ****     xl++;
 536              		.loc 1 190 0
 537 009e 0137     		adds	r7, r7, #1
 538              	.LVL86:
 539 00a0 BFB2     		uxth	r7, r7
 540              	.LVL87:
 191:..\..\..\..\..\..\Dev\Library embedded l2c display\u8g2\csrc/u8g2_box.c ****     yu++;
 541              		.loc 1 191 0
 542 00a2 039A     		ldr	r2, [sp, #12]
 543 00a4 541C     		adds	r4, r2, #1
 544              	.LVL88:
 545 00a6 A4B2     		uxth	r4, r4
 546              	.LVL89:
 192:..\..\..\..\..\..\Dev\Library embedded l2c display\u8g2\csrc/u8g2_box.c ****     
 193:..\..\..\..\..\..\Dev\Library embedded l2c display\u8g2\csrc/u8g2_box.c ****     if ( ww >= 3 )
 547              		.loc 1 193 0
ARM GAS  C:\Users\Abude\AppData\Local\Temp\ccwX1mpx.s 			page 14


 548 00a8 022D     		cmp	r5, #2
 549 00aa 13D9     		bls	.L16
 194:..\..\..\..\..\..\Dev\Library embedded l2c display\u8g2\csrc/u8g2_box.c ****     {
 195:..\..\..\..\..\..\Dev\Library embedded l2c display\u8g2\csrc/u8g2_box.c ****       ww -= 2;
 550              		.loc 1 195 0
 551 00ac 023D     		subs	r5, r5, #2
 552              	.LVL90:
 553 00ae ADB2     		uxth	r5, r5
 554              	.LVL91:
 196:..\..\..\..\..\..\Dev\Library embedded l2c display\u8g2\csrc/u8g2_box.c ****       h--;
 555              		.loc 1 196 0
 556 00b0 09F1FF39 		add	r9, r9, #-1
 557              	.LVL92:
 558 00b4 1FFA89F9 		uxth	r9, r9
 559              	.LVL93:
 197:..\..\..\..\..\..\Dev\Library embedded l2c display\u8g2\csrc/u8g2_box.c ****       u8g2_DrawHLine(u8g2, xl, y, ww);
 560              		.loc 1 197 0
 561 00b8 2B46     		mov	r3, r5
 562 00ba 5A46     		mov	r2, fp
 563 00bc 3946     		mov	r1, r7
 564 00be 0298     		ldr	r0, [sp, #8]
 565 00c0 FFF7FEFF 		bl	u8g2_DrawHLine
 566              	.LVL94:
 198:..\..\..\..\..\..\Dev\Library embedded l2c display\u8g2\csrc/u8g2_box.c ****       u8g2_DrawHLine(u8g2, xl, y+h, ww);
 567              		.loc 1 198 0
 568 00c4 0BEB0902 		add	r2, fp, r9
 569 00c8 2B46     		mov	r3, r5
 570 00ca 92B2     		uxth	r2, r2
 571 00cc 3946     		mov	r1, r7
 572 00ce 0298     		ldr	r0, [sp, #8]
 573 00d0 FFF7FEFF 		bl	u8g2_DrawHLine
 574              	.LVL95:
 575              	.L16:
 199:..\..\..\..\..\..\Dev\Library embedded l2c display\u8g2\csrc/u8g2_box.c ****     }
 200:..\..\..\..\..\..\Dev\Library embedded l2c display\u8g2\csrc/u8g2_box.c ****     
 201:..\..\..\..\..\..\Dev\Library embedded l2c display\u8g2\csrc/u8g2_box.c ****     if ( hh >= 3 )
 576              		.loc 1 201 0
 577 00d4 022E     		cmp	r6, #2
 578 00d6 14D9     		bls	.L14
 202:..\..\..\..\..\..\Dev\Library embedded l2c display\u8g2\csrc/u8g2_box.c ****     {
 203:..\..\..\..\..\..\Dev\Library embedded l2c display\u8g2\csrc/u8g2_box.c ****       hh -= 2;
 579              		.loc 1 203 0
 580 00d8 023E     		subs	r6, r6, #2
 581              	.LVL96:
 582 00da B6B2     		uxth	r6, r6
 583              	.LVL97:
 204:..\..\..\..\..\..\Dev\Library embedded l2c display\u8g2\csrc/u8g2_box.c ****       w--;
 584              		.loc 1 204 0
 585 00dc 08F1FF38 		add	r8, r8, #-1
 586              	.LVL98:
 587 00e0 1FFA88F8 		uxth	r8, r8
 588              	.LVL99:
 205:..\..\..\..\..\..\Dev\Library embedded l2c display\u8g2\csrc/u8g2_box.c ****       u8g2_DrawVLine(u8g2, x, yu, hh);
 589              		.loc 1 205 0
 590 00e4 3346     		mov	r3, r6
 591 00e6 2246     		mov	r2, r4
 592 00e8 5146     		mov	r1, r10
ARM GAS  C:\Users\Abude\AppData\Local\Temp\ccwX1mpx.s 			page 15


 593 00ea 029D     		ldr	r5, [sp, #8]
 594              	.LVL100:
 595 00ec 2846     		mov	r0, r5
 596 00ee FFF7FEFF 		bl	u8g2_DrawVLine
 597              	.LVL101:
 206:..\..\..\..\..\..\Dev\Library embedded l2c display\u8g2\csrc/u8g2_box.c ****       u8g2_DrawVLine(u8g2, x+w, yu, hh);
 598              		.loc 1 206 0
 599 00f2 0AEB0801 		add	r1, r10, r8
 600 00f6 3346     		mov	r3, r6
 601 00f8 2246     		mov	r2, r4
 602 00fa 89B2     		uxth	r1, r1
 603 00fc 2846     		mov	r0, r5
 604 00fe FFF7FEFF 		bl	u8g2_DrawVLine
 605              	.LVL102:
 606              	.L14:
 607              	.LBE4:
 207:..\..\..\..\..\..\Dev\Library embedded l2c display\u8g2\csrc/u8g2_box.c ****     }
 208:..\..\..\..\..\..\Dev\Library embedded l2c display\u8g2\csrc/u8g2_box.c ****   }
 209:..\..\..\..\..\..\Dev\Library embedded l2c display\u8g2\csrc/u8g2_box.c **** }
 608              		.loc 1 209 0
 609 0102 05B0     		add	sp, sp, #20
 610              		.cfi_def_cfa_offset 36
 611              		@ sp needed
 612 0104 BDE8F08F 		pop	{r4, r5, r6, r7, r8, r9, r10, fp, pc}
 613              		.cfi_endproc
 614              	.LFE3:
 615              		.size	u8g2_DrawRFrame, .-u8g2_DrawRFrame
 616              		.text
 617              	.Letext0:
 618              		.file 2 "c:\\program files (x86)\\cypress\\psoc creator\\4.4\\psoc creator\\import\\gnu\\arm\\5.4.
 619              		.file 3 "c:\\program files (x86)\\cypress\\psoc creator\\4.4\\psoc creator\\import\\gnu\\arm\\5.4.
 620              		.file 4 "c:\\dev\\library embedded l2c display\\u8g2\\csrc\\u8x8.h"
 621              		.file 5 "c:\\dev\\library embedded l2c display\\u8g2\\csrc\\u8g2.h"