ARM GAS  C:\Users\Abude\AppData\Local\Temp\ccoVdEub.s 			page 1


   1              		.syntax unified
   2              		.cpu cortex-m3
   3              		.fpu softvfp
   4              		.eabi_attribute 20, 1
   5              		.eabi_attribute 21, 1
   6              		.eabi_attribute 23, 3
   7              		.eabi_attribute 24, 1
   8              		.eabi_attribute 25, 1
   9              		.eabi_attribute 26, 1
  10              		.eabi_attribute 30, 1
  11              		.eabi_attribute 34, 1
  12              		.eabi_attribute 18, 4
  13              		.thumb
  14              		.syntax unified
  15              		.file	"u8g2_polygon.c"
  16              		.text
  17              	.Ltext0:
  18              		.cfi_sections	.debug_frame
  19              		.section	.text.pge_Next,"ax",%progbits
  20              		.align	2
  21              		.thumb
  22              		.thumb_func
  23              		.type	pge_Next, %function
  24              	pge_Next:
  25              	.LFB0:
  26              		.file 1 "..\\..\\..\\..\\..\\..\\Dev\\Library embedded l2c display\\u8g2\\csrc\\u8g2_polygon.c"
   1:..\..\..\..\..\..\Dev\Library embedded l2c display\u8g2\csrc/u8g2_polygon.c **** /*
   2:..\..\..\..\..\..\Dev\Library embedded l2c display\u8g2\csrc/u8g2_polygon.c **** 
   3:..\..\..\..\..\..\Dev\Library embedded l2c display\u8g2\csrc/u8g2_polygon.c ****   u8g22_polygon.c
   4:..\..\..\..\..\..\Dev\Library embedded l2c display\u8g2\csrc/u8g2_polygon.c **** 
   5:..\..\..\..\..\..\Dev\Library embedded l2c display\u8g2\csrc/u8g2_polygon.c **** */	
   6:..\..\..\..\..\..\Dev\Library embedded l2c display\u8g2\csrc/u8g2_polygon.c **** 
   7:..\..\..\..\..\..\Dev\Library embedded l2c display\u8g2\csrc/u8g2_polygon.c **** 
   8:..\..\..\..\..\..\Dev\Library embedded l2c display\u8g2\csrc/u8g2_polygon.c **** #include "u8g2.h"
   9:..\..\..\..\..\..\Dev\Library embedded l2c display\u8g2\csrc/u8g2_polygon.c **** 
  10:..\..\..\..\..\..\Dev\Library embedded l2c display\u8g2\csrc/u8g2_polygon.c **** 
  11:..\..\..\..\..\..\Dev\Library embedded l2c display\u8g2\csrc/u8g2_polygon.c **** 
  12:..\..\..\..\..\..\Dev\Library embedded l2c display\u8g2\csrc/u8g2_polygon.c **** 
  13:..\..\..\..\..\..\Dev\Library embedded l2c display\u8g2\csrc/u8g2_polygon.c **** /*===========================================*/
  14:..\..\..\..\..\..\Dev\Library embedded l2c display\u8g2\csrc/u8g2_polygon.c **** /* local definitions */
  15:..\..\..\..\..\..\Dev\Library embedded l2c display\u8g2\csrc/u8g2_polygon.c **** 
  16:..\..\..\..\..\..\Dev\Library embedded l2c display\u8g2\csrc/u8g2_polygon.c **** typedef int16_t pg_word_t;
  17:..\..\..\..\..\..\Dev\Library embedded l2c display\u8g2\csrc/u8g2_polygon.c **** 
  18:..\..\..\..\..\..\Dev\Library embedded l2c display\u8g2\csrc/u8g2_polygon.c **** 
  19:..\..\..\..\..\..\Dev\Library embedded l2c display\u8g2\csrc/u8g2_polygon.c **** struct pg_point_struct
  20:..\..\..\..\..\..\Dev\Library embedded l2c display\u8g2\csrc/u8g2_polygon.c **** {
  21:..\..\..\..\..\..\Dev\Library embedded l2c display\u8g2\csrc/u8g2_polygon.c ****   pg_word_t x;
  22:..\..\..\..\..\..\Dev\Library embedded l2c display\u8g2\csrc/u8g2_polygon.c ****   pg_word_t y;
  23:..\..\..\..\..\..\Dev\Library embedded l2c display\u8g2\csrc/u8g2_polygon.c **** };
  24:..\..\..\..\..\..\Dev\Library embedded l2c display\u8g2\csrc/u8g2_polygon.c **** 
  25:..\..\..\..\..\..\Dev\Library embedded l2c display\u8g2\csrc/u8g2_polygon.c **** typedef struct _pg_struct pg_struct;	/* forward declaration */
  26:..\..\..\..\..\..\Dev\Library embedded l2c display\u8g2\csrc/u8g2_polygon.c **** 
  27:..\..\..\..\..\..\Dev\Library embedded l2c display\u8g2\csrc/u8g2_polygon.c **** struct pg_edge_struct
  28:..\..\..\..\..\..\Dev\Library embedded l2c display\u8g2\csrc/u8g2_polygon.c **** {
  29:..\..\..\..\..\..\Dev\Library embedded l2c display\u8g2\csrc/u8g2_polygon.c ****   pg_word_t x_direction;	/* 1, if x2 is greater than x1, -1 otherwise */
  30:..\..\..\..\..\..\Dev\Library embedded l2c display\u8g2\csrc/u8g2_polygon.c ****   pg_word_t height;
  31:..\..\..\..\..\..\Dev\Library embedded l2c display\u8g2\csrc/u8g2_polygon.c ****   pg_word_t current_x_offset;
ARM GAS  C:\Users\Abude\AppData\Local\Temp\ccoVdEub.s 			page 2


  32:..\..\..\..\..\..\Dev\Library embedded l2c display\u8g2\csrc/u8g2_polygon.c ****   pg_word_t error_offset;
  33:..\..\..\..\..\..\Dev\Library embedded l2c display\u8g2\csrc/u8g2_polygon.c ****   
  34:..\..\..\..\..\..\Dev\Library embedded l2c display\u8g2\csrc/u8g2_polygon.c ****   /* --- line loop --- */
  35:..\..\..\..\..\..\Dev\Library embedded l2c display\u8g2\csrc/u8g2_polygon.c ****   pg_word_t current_y;
  36:..\..\..\..\..\..\Dev\Library embedded l2c display\u8g2\csrc/u8g2_polygon.c ****   pg_word_t max_y;
  37:..\..\..\..\..\..\Dev\Library embedded l2c display\u8g2\csrc/u8g2_polygon.c ****   pg_word_t current_x;
  38:..\..\..\..\..\..\Dev\Library embedded l2c display\u8g2\csrc/u8g2_polygon.c ****   pg_word_t error;
  39:..\..\..\..\..\..\Dev\Library embedded l2c display\u8g2\csrc/u8g2_polygon.c **** 
  40:..\..\..\..\..\..\Dev\Library embedded l2c display\u8g2\csrc/u8g2_polygon.c ****   /* --- outer loop --- */
  41:..\..\..\..\..\..\Dev\Library embedded l2c display\u8g2\csrc/u8g2_polygon.c ****   uint8_t (*next_idx_fn)(pg_struct *pg, uint8_t i);
  42:..\..\..\..\..\..\Dev\Library embedded l2c display\u8g2\csrc/u8g2_polygon.c ****   uint8_t curr_idx;
  43:..\..\..\..\..\..\Dev\Library embedded l2c display\u8g2\csrc/u8g2_polygon.c **** };
  44:..\..\..\..\..\..\Dev\Library embedded l2c display\u8g2\csrc/u8g2_polygon.c **** 
  45:..\..\..\..\..\..\Dev\Library embedded l2c display\u8g2\csrc/u8g2_polygon.c **** /* maximum number of points in the polygon */
  46:..\..\..\..\..\..\Dev\Library embedded l2c display\u8g2\csrc/u8g2_polygon.c **** /* can be redefined, but highest possible value is 254 */
  47:..\..\..\..\..\..\Dev\Library embedded l2c display\u8g2\csrc/u8g2_polygon.c **** #define PG_MAX_POINTS 6
  48:..\..\..\..\..\..\Dev\Library embedded l2c display\u8g2\csrc/u8g2_polygon.c **** 
  49:..\..\..\..\..\..\Dev\Library embedded l2c display\u8g2\csrc/u8g2_polygon.c **** /* index numbers for the pge structures below */
  50:..\..\..\..\..\..\Dev\Library embedded l2c display\u8g2\csrc/u8g2_polygon.c **** #define PG_LEFT 0
  51:..\..\..\..\..\..\Dev\Library embedded l2c display\u8g2\csrc/u8g2_polygon.c **** #define PG_RIGHT 1
  52:..\..\..\..\..\..\Dev\Library embedded l2c display\u8g2\csrc/u8g2_polygon.c **** 
  53:..\..\..\..\..\..\Dev\Library embedded l2c display\u8g2\csrc/u8g2_polygon.c **** 
  54:..\..\..\..\..\..\Dev\Library embedded l2c display\u8g2\csrc/u8g2_polygon.c **** struct _pg_struct
  55:..\..\..\..\..\..\Dev\Library embedded l2c display\u8g2\csrc/u8g2_polygon.c **** {
  56:..\..\..\..\..\..\Dev\Library embedded l2c display\u8g2\csrc/u8g2_polygon.c ****   struct pg_point_struct list[PG_MAX_POINTS];
  57:..\..\..\..\..\..\Dev\Library embedded l2c display\u8g2\csrc/u8g2_polygon.c ****   uint8_t cnt;
  58:..\..\..\..\..\..\Dev\Library embedded l2c display\u8g2\csrc/u8g2_polygon.c ****   uint8_t is_min_y_not_flat;
  59:..\..\..\..\..\..\Dev\Library embedded l2c display\u8g2\csrc/u8g2_polygon.c ****   pg_word_t total_scan_line_cnt;
  60:..\..\..\..\..\..\Dev\Library embedded l2c display\u8g2\csrc/u8g2_polygon.c ****   struct pg_edge_struct pge[2];	/* left and right line draw structures */
  61:..\..\..\..\..\..\Dev\Library embedded l2c display\u8g2\csrc/u8g2_polygon.c **** };
  62:..\..\..\..\..\..\Dev\Library embedded l2c display\u8g2\csrc/u8g2_polygon.c **** 
  63:..\..\..\..\..\..\Dev\Library embedded l2c display\u8g2\csrc/u8g2_polygon.c **** 
  64:..\..\..\..\..\..\Dev\Library embedded l2c display\u8g2\csrc/u8g2_polygon.c **** /*===========================================*/
  65:..\..\..\..\..\..\Dev\Library embedded l2c display\u8g2\csrc/u8g2_polygon.c **** /* procedures, which should not be inlined (save as much flash ROM as possible */
  66:..\..\..\..\..\..\Dev\Library embedded l2c display\u8g2\csrc/u8g2_polygon.c **** 
  67:..\..\..\..\..\..\Dev\Library embedded l2c display\u8g2\csrc/u8g2_polygon.c **** #define PG_NOINLINE U8G2_NOINLINE
  68:..\..\..\..\..\..\Dev\Library embedded l2c display\u8g2\csrc/u8g2_polygon.c **** 
  69:..\..\..\..\..\..\Dev\Library embedded l2c display\u8g2\csrc/u8g2_polygon.c **** static uint8_t pge_Next(struct pg_edge_struct *pge) PG_NOINLINE;
  70:..\..\..\..\..\..\Dev\Library embedded l2c display\u8g2\csrc/u8g2_polygon.c **** static uint8_t pg_inc(pg_struct *pg, uint8_t i) PG_NOINLINE;
  71:..\..\..\..\..\..\Dev\Library embedded l2c display\u8g2\csrc/u8g2_polygon.c **** static uint8_t pg_dec(pg_struct *pg, uint8_t i) PG_NOINLINE;
  72:..\..\..\..\..\..\Dev\Library embedded l2c display\u8g2\csrc/u8g2_polygon.c **** static void pg_expand_min_y(pg_struct *pg, pg_word_t min_y, uint8_t pge_idx) PG_NOINLINE;
  73:..\..\..\..\..\..\Dev\Library embedded l2c display\u8g2\csrc/u8g2_polygon.c **** static void pg_line_init(pg_struct * const pg, uint8_t pge_index) PG_NOINLINE;
  74:..\..\..\..\..\..\Dev\Library embedded l2c display\u8g2\csrc/u8g2_polygon.c **** 
  75:..\..\..\..\..\..\Dev\Library embedded l2c display\u8g2\csrc/u8g2_polygon.c **** /*===========================================*/
  76:..\..\..\..\..\..\Dev\Library embedded l2c display\u8g2\csrc/u8g2_polygon.c **** /* line draw algorithm */
  77:..\..\..\..\..\..\Dev\Library embedded l2c display\u8g2\csrc/u8g2_polygon.c **** 
  78:..\..\..\..\..\..\Dev\Library embedded l2c display\u8g2\csrc/u8g2_polygon.c **** static uint8_t pge_Next(struct pg_edge_struct *pge)
  79:..\..\..\..\..\..\Dev\Library embedded l2c display\u8g2\csrc/u8g2_polygon.c **** {
  27              		.loc 1 79 0
  28              		.cfi_startproc
  29              		@ args = 0, pretend = 0, frame = 0
  30              		@ frame_needed = 0, uses_anonymous_args = 0
  31              		@ link register save eliminated.
  32              	.LVL0:
  80:..\..\..\..\..\..\Dev\Library embedded l2c display\u8g2\csrc/u8g2_polygon.c ****   if ( pge->current_y >= pge->max_y )
  33              		.loc 1 80 0
  34 0000 B0F90810 		ldrsh	r1, [r0, #8]
ARM GAS  C:\Users\Abude\AppData\Local\Temp\ccoVdEub.s 			page 3


  35 0004 B0F90A30 		ldrsh	r3, [r0, #10]
  36 0008 9942     		cmp	r1, r3
  37 000a 1BDA     		bge	.L4
  79:..\..\..\..\..\..\Dev\Library embedded l2c display\u8g2\csrc/u8g2_polygon.c ****   if ( pge->current_y >= pge->max_y )
  38              		.loc 1 79 0
  39 000c 10B4     		push	{r4}
  40              		.cfi_def_cfa_offset 4
  41              		.cfi_offset 4, -4
  81:..\..\..\..\..\..\Dev\Library embedded l2c display\u8g2\csrc/u8g2_polygon.c ****     return 0;
  82:..\..\..\..\..\..\Dev\Library embedded l2c display\u8g2\csrc/u8g2_polygon.c ****   
  83:..\..\..\..\..\..\Dev\Library embedded l2c display\u8g2\csrc/u8g2_polygon.c ****   pge->current_x += pge->current_x_offset;
  42              		.loc 1 83 0
  43 000e B0F90420 		ldrsh	r2, [r0, #4]
  44 0012 8389     		ldrh	r3, [r0, #12]
  45 0014 1A44     		add	r2, r2, r3
  46 0016 92B2     		uxth	r2, r2
  47 0018 8281     		strh	r2, [r0, #12]	@ movhi
  84:..\..\..\..\..\..\Dev\Library embedded l2c display\u8g2\csrc/u8g2_polygon.c ****   pge->error += pge->error_offset;
  48              		.loc 1 84 0
  49 001a B0F90640 		ldrsh	r4, [r0, #6]
  50 001e C389     		ldrh	r3, [r0, #14]
  51 0020 2344     		add	r3, r3, r4
  52 0022 9BB2     		uxth	r3, r3
  53 0024 1CB2     		sxth	r4, r3
  54 0026 C481     		strh	r4, [r0, #14]	@ movhi
  85:..\..\..\..\..\..\Dev\Library embedded l2c display\u8g2\csrc/u8g2_polygon.c ****   if ( pge->error > 0 )
  55              		.loc 1 85 0
  56 0028 002C     		cmp	r4, #0
  57 002a 07DD     		ble	.L3
  86:..\..\..\..\..\..\Dev\Library embedded l2c display\u8g2\csrc/u8g2_polygon.c ****   {
  87:..\..\..\..\..\..\Dev\Library embedded l2c display\u8g2\csrc/u8g2_polygon.c ****     pge->current_x += pge->x_direction;
  58              		.loc 1 87 0
  59 002c B0F90040 		ldrsh	r4, [r0]
  60 0030 2244     		add	r2, r2, r4
  61 0032 8281     		strh	r2, [r0, #12]	@ movhi
  88:..\..\..\..\..\..\Dev\Library embedded l2c display\u8g2\csrc/u8g2_polygon.c ****     pge->error -= pge->height;
  62              		.loc 1 88 0
  63 0034 B0F90220 		ldrsh	r2, [r0, #2]
  64 0038 9B1A     		subs	r3, r3, r2
  65 003a C381     		strh	r3, [r0, #14]	@ movhi
  66              	.L3:
  89:..\..\..\..\..\..\Dev\Library embedded l2c display\u8g2\csrc/u8g2_polygon.c ****   }  
  90:..\..\..\..\..\..\Dev\Library embedded l2c display\u8g2\csrc/u8g2_polygon.c ****   
  91:..\..\..\..\..\..\Dev\Library embedded l2c display\u8g2\csrc/u8g2_polygon.c ****   pge->current_y++;
  67              		.loc 1 91 0
  68 003c 0131     		adds	r1, r1, #1
  69 003e 0181     		strh	r1, [r0, #8]	@ movhi
  92:..\..\..\..\..\..\Dev\Library embedded l2c display\u8g2\csrc/u8g2_polygon.c ****   return 1;
  70              		.loc 1 92 0
  71 0040 0120     		movs	r0, #1
  72              	.LVL1:
  73 0042 01E0     		b	.L2
  74              	.LVL2:
  75              	.L4:
  76              		.cfi_def_cfa_offset 0
  77              		.cfi_restore 4
  81:..\..\..\..\..\..\Dev\Library embedded l2c display\u8g2\csrc/u8g2_polygon.c ****   
ARM GAS  C:\Users\Abude\AppData\Local\Temp\ccoVdEub.s 			page 4


  78              		.loc 1 81 0
  79 0044 0020     		movs	r0, #0
  80              	.LVL3:
  81 0046 7047     		bx	lr
  82              	.L2:
  83              		.cfi_def_cfa_offset 4
  84              		.cfi_offset 4, -4
  93:..\..\..\..\..\..\Dev\Library embedded l2c display\u8g2\csrc/u8g2_polygon.c **** }
  85              		.loc 1 93 0
  86 0048 10BC     		pop	{r4}
  87              		.cfi_restore 4
  88              		.cfi_def_cfa_offset 0
  89 004a 7047     		bx	lr
  90              		.cfi_endproc
  91              	.LFE0:
  92              		.size	pge_Next, .-pge_Next
  93              		.section	.text.pge_Init,"ax",%progbits
  94              		.align	2
  95              		.thumb
  96              		.thumb_func
  97              		.type	pge_Init, %function
  98              	pge_Init:
  99              	.LFB1:
  94:..\..\..\..\..\..\Dev\Library embedded l2c display\u8g2\csrc/u8g2_polygon.c **** 
  95:..\..\..\..\..\..\Dev\Library embedded l2c display\u8g2\csrc/u8g2_polygon.c **** /* assumes y2 > y1 */
  96:..\..\..\..\..\..\Dev\Library embedded l2c display\u8g2\csrc/u8g2_polygon.c **** static void pge_Init(struct pg_edge_struct *pge, pg_word_t x1, pg_word_t y1, pg_word_t x2, pg_word_
  97:..\..\..\..\..\..\Dev\Library embedded l2c display\u8g2\csrc/u8g2_polygon.c **** {
 100              		.loc 1 97 0
 101              		.cfi_startproc
 102              		@ args = 4, pretend = 0, frame = 0
 103              		@ frame_needed = 0, uses_anonymous_args = 0
 104              		@ link register save eliminated.
 105              	.LVL4:
 106 0000 70B4     		push	{r4, r5, r6}
 107              		.cfi_def_cfa_offset 12
 108              		.cfi_offset 4, -12
 109              		.cfi_offset 5, -8
 110              		.cfi_offset 6, -4
 111 0002 BDF90C60 		ldrsh	r6, [sp, #12]
  98:..\..\..\..\..\..\Dev\Library embedded l2c display\u8g2\csrc/u8g2_polygon.c ****   pg_word_t dx = x2 - x1;
 112              		.loc 1 98 0
 113 0006 5B1A     		subs	r3, r3, r1
 114              	.LVL5:
 115 0008 9BB2     		uxth	r3, r3
 116 000a 1CB2     		sxth	r4, r3
 117              	.LVL6:
  99:..\..\..\..\..\..\Dev\Library embedded l2c display\u8g2\csrc/u8g2_polygon.c ****   pg_word_t width;
 100:..\..\..\..\..\..\Dev\Library embedded l2c display\u8g2\csrc/u8g2_polygon.c **** 
 101:..\..\..\..\..\..\Dev\Library embedded l2c display\u8g2\csrc/u8g2_polygon.c ****   pge->height = y2 - y1;
 118              		.loc 1 101 0
 119 000c B51A     		subs	r5, r6, r2
 120 000e ADB2     		uxth	r5, r5
 121 0010 4580     		strh	r5, [r0, #2]	@ movhi
 102:..\..\..\..\..\..\Dev\Library embedded l2c display\u8g2\csrc/u8g2_polygon.c ****   pge->max_y = y2;
 122              		.loc 1 102 0
 123 0012 4681     		strh	r6, [r0, #10]	@ movhi
 103:..\..\..\..\..\..\Dev\Library embedded l2c display\u8g2\csrc/u8g2_polygon.c ****   pge->current_y = y1;
ARM GAS  C:\Users\Abude\AppData\Local\Temp\ccoVdEub.s 			page 5


 124              		.loc 1 103 0
 125 0014 0281     		strh	r2, [r0, #8]	@ movhi
 104:..\..\..\..\..\..\Dev\Library embedded l2c display\u8g2\csrc/u8g2_polygon.c ****   pge->current_x = x1;
 126              		.loc 1 104 0
 127 0016 8181     		strh	r1, [r0, #12]	@ movhi
 105:..\..\..\..\..\..\Dev\Library embedded l2c display\u8g2\csrc/u8g2_polygon.c **** 
 106:..\..\..\..\..\..\Dev\Library embedded l2c display\u8g2\csrc/u8g2_polygon.c ****   if ( dx >= 0 )
 128              		.loc 1 106 0
 129 0018 002C     		cmp	r4, #0
 130 001a 05DB     		blt	.L8
 107:..\..\..\..\..\..\Dev\Library embedded l2c display\u8g2\csrc/u8g2_polygon.c ****   {
 108:..\..\..\..\..\..\Dev\Library embedded l2c display\u8g2\csrc/u8g2_polygon.c ****     pge->x_direction = 1;
 131              		.loc 1 108 0
 132 001c 0123     		movs	r3, #1
 133 001e 0380     		strh	r3, [r0]	@ movhi
 134              	.LVL7:
 109:..\..\..\..\..\..\Dev\Library embedded l2c display\u8g2\csrc/u8g2_polygon.c ****     width = dx;
 110:..\..\..\..\..\..\Dev\Library embedded l2c display\u8g2\csrc/u8g2_polygon.c ****     pge->error = 0;
 135              		.loc 1 110 0
 136 0020 0023     		movs	r3, #0
 137 0022 C381     		strh	r3, [r0, #14]	@ movhi
 109:..\..\..\..\..\..\Dev\Library embedded l2c display\u8g2\csrc/u8g2_polygon.c ****     width = dx;
 138              		.loc 1 109 0
 139 0024 2346     		mov	r3, r4
 140 0026 07E0     		b	.L9
 141              	.LVL8:
 142              	.L8:
 111:..\..\..\..\..\..\Dev\Library embedded l2c display\u8g2\csrc/u8g2_polygon.c ****   }
 112:..\..\..\..\..\..\Dev\Library embedded l2c display\u8g2\csrc/u8g2_polygon.c ****   else
 113:..\..\..\..\..\..\Dev\Library embedded l2c display\u8g2\csrc/u8g2_polygon.c ****   {
 114:..\..\..\..\..\..\Dev\Library embedded l2c display\u8g2\csrc/u8g2_polygon.c ****     pge->x_direction = -1;
 143              		.loc 1 114 0
 144 0028 4FF6FF72 		movw	r2, #65535
 145              	.LVL9:
 146 002c 0280     		strh	r2, [r0]	@ movhi
 115:..\..\..\..\..\..\Dev\Library embedded l2c display\u8g2\csrc/u8g2_polygon.c ****     width = -dx;
 147              		.loc 1 115 0
 148 002e 5B42     		negs	r3, r3
 149 0030 1BB2     		sxth	r3, r3
 150              	.LVL10:
 116:..\..\..\..\..\..\Dev\Library embedded l2c display\u8g2\csrc/u8g2_polygon.c ****     pge->error = 1 - pge->height;
 151              		.loc 1 116 0
 152 0032 C5F10105 		rsb	r5, r5, #1
 153 0036 C581     		strh	r5, [r0, #14]	@ movhi
 154              	.LVL11:
 155              	.L9:
 117:..\..\..\..\..\..\Dev\Library embedded l2c display\u8g2\csrc/u8g2_polygon.c ****   }
 118:..\..\..\..\..\..\Dev\Library embedded l2c display\u8g2\csrc/u8g2_polygon.c ****   
 119:..\..\..\..\..\..\Dev\Library embedded l2c display\u8g2\csrc/u8g2_polygon.c ****   pge->current_x_offset = dx / pge->height;
 156              		.loc 1 119 0
 157 0038 B0F90210 		ldrsh	r1, [r0, #2]
 158              	.LVL12:
 159 003c 94FBF1F4 		sdiv	r4, r4, r1
 160              	.LVL13:
 161 0040 8480     		strh	r4, [r0, #4]	@ movhi
 120:..\..\..\..\..\..\Dev\Library embedded l2c display\u8g2\csrc/u8g2_polygon.c ****   pge->error_offset = width % pge->height;
 162              		.loc 1 120 0
ARM GAS  C:\Users\Abude\AppData\Local\Temp\ccoVdEub.s 			page 6


 163 0042 93FBF1F2 		sdiv	r2, r3, r1
 164 0046 01FB1233 		mls	r3, r1, r2, r3
 165              	.LVL14:
 166 004a C380     		strh	r3, [r0, #6]	@ movhi
 121:..\..\..\..\..\..\Dev\Library embedded l2c display\u8g2\csrc/u8g2_polygon.c **** }
 167              		.loc 1 121 0
 168 004c 70BC     		pop	{r4, r5, r6}
 169              		.cfi_restore 6
 170              		.cfi_restore 5
 171              		.cfi_restore 4
 172              		.cfi_def_cfa_offset 0
 173              	.LVL15:
 174 004e 7047     		bx	lr
 175              		.cfi_endproc
 176              	.LFE1:
 177              		.size	pge_Init, .-pge_Init
 178              		.section	.text.pg_inc,"ax",%progbits
 179              		.align	2
 180              		.thumb
 181              		.thumb_func
 182              		.type	pg_inc, %function
 183              	pg_inc:
 184              	.LFB2:
 122:..\..\..\..\..\..\Dev\Library embedded l2c display\u8g2\csrc/u8g2_polygon.c **** 
 123:..\..\..\..\..\..\Dev\Library embedded l2c display\u8g2\csrc/u8g2_polygon.c **** /*===========================================*/
 124:..\..\..\..\..\..\Dev\Library embedded l2c display\u8g2\csrc/u8g2_polygon.c **** /* convex polygon algorithm */
 125:..\..\..\..\..\..\Dev\Library embedded l2c display\u8g2\csrc/u8g2_polygon.c **** 
 126:..\..\..\..\..\..\Dev\Library embedded l2c display\u8g2\csrc/u8g2_polygon.c **** static uint8_t pg_inc(pg_struct *pg, uint8_t i)
 127:..\..\..\..\..\..\Dev\Library embedded l2c display\u8g2\csrc/u8g2_polygon.c **** {
 185              		.loc 1 127 0
 186              		.cfi_startproc
 187              		@ args = 0, pretend = 0, frame = 0
 188              		@ frame_needed = 0, uses_anonymous_args = 0
 189              		@ link register save eliminated.
 190              	.LVL16:
 128:..\..\..\..\..\..\Dev\Library embedded l2c display\u8g2\csrc/u8g2_polygon.c ****     i++;
 191              		.loc 1 128 0
 192 0000 0131     		adds	r1, r1, #1
 193              	.LVL17:
 194 0002 C9B2     		uxtb	r1, r1
 195              	.LVL18:
 129:..\..\..\..\..\..\Dev\Library embedded l2c display\u8g2\csrc/u8g2_polygon.c ****     if ( i >= pg->cnt )
 196              		.loc 1 129 0
 197 0004 037E     		ldrb	r3, [r0, #24]	@ zero_extendqisi2
 198 0006 9942     		cmp	r1, r3
 199 0008 00D3     		bcc	.L12
 130:..\..\..\..\..\..\Dev\Library embedded l2c display\u8g2\csrc/u8g2_polygon.c ****       i = 0;
 200              		.loc 1 130 0
 201 000a 0021     		movs	r1, #0
 202              	.LVL19:
 203              	.L12:
 131:..\..\..\..\..\..\Dev\Library embedded l2c display\u8g2\csrc/u8g2_polygon.c ****     return i;
 132:..\..\..\..\..\..\Dev\Library embedded l2c display\u8g2\csrc/u8g2_polygon.c **** }
 204              		.loc 1 132 0
 205 000c 0846     		mov	r0, r1
 206              	.LVL20:
 207 000e 7047     		bx	lr
ARM GAS  C:\Users\Abude\AppData\Local\Temp\ccoVdEub.s 			page 7


 208              		.cfi_endproc
 209              	.LFE2:
 210              		.size	pg_inc, .-pg_inc
 211              		.section	.text.pg_dec,"ax",%progbits
 212              		.align	2
 213              		.thumb
 214              		.thumb_func
 215              		.type	pg_dec, %function
 216              	pg_dec:
 217              	.LFB3:
 133:..\..\..\..\..\..\Dev\Library embedded l2c display\u8g2\csrc/u8g2_polygon.c **** 
 134:..\..\..\..\..\..\Dev\Library embedded l2c display\u8g2\csrc/u8g2_polygon.c **** static uint8_t pg_dec(pg_struct *pg, uint8_t i)
 135:..\..\..\..\..\..\Dev\Library embedded l2c display\u8g2\csrc/u8g2_polygon.c **** {
 218              		.loc 1 135 0
 219              		.cfi_startproc
 220              		@ args = 0, pretend = 0, frame = 0
 221              		@ frame_needed = 0, uses_anonymous_args = 0
 222              		@ link register save eliminated.
 223              	.LVL21:
 136:..\..\..\..\..\..\Dev\Library embedded l2c display\u8g2\csrc/u8g2_polygon.c ****     i--;
 224              		.loc 1 136 0
 225 0000 0139     		subs	r1, r1, #1
 226              	.LVL22:
 227 0002 C9B2     		uxtb	r1, r1
 228              	.LVL23:
 137:..\..\..\..\..\..\Dev\Library embedded l2c display\u8g2\csrc/u8g2_polygon.c ****     if ( i >= pg->cnt )
 229              		.loc 1 137 0
 230 0004 037E     		ldrb	r3, [r0, #24]	@ zero_extendqisi2
 231 0006 9942     		cmp	r1, r3
 232 0008 01D3     		bcc	.L15
 138:..\..\..\..\..\..\Dev\Library embedded l2c display\u8g2\csrc/u8g2_polygon.c ****       i = pg->cnt-1;
 233              		.loc 1 138 0
 234 000a 591E     		subs	r1, r3, #1
 235              	.LVL24:
 236 000c C9B2     		uxtb	r1, r1
 237              	.LVL25:
 238              	.L15:
 139:..\..\..\..\..\..\Dev\Library embedded l2c display\u8g2\csrc/u8g2_polygon.c ****     return i;
 140:..\..\..\..\..\..\Dev\Library embedded l2c display\u8g2\csrc/u8g2_polygon.c **** }
 239              		.loc 1 140 0
 240 000e 0846     		mov	r0, r1
 241              	.LVL26:
 242 0010 7047     		bx	lr
 243              		.cfi_endproc
 244              	.LFE3:
 245              		.size	pg_dec, .-pg_dec
 246 0012 00BF     		.section	.text.pg_expand_min_y,"ax",%progbits
 247              		.align	2
 248              		.thumb
 249              		.thumb_func
 250              		.type	pg_expand_min_y, %function
 251              	pg_expand_min_y:
 252              	.LFB4:
 141:..\..\..\..\..\..\Dev\Library embedded l2c display\u8g2\csrc/u8g2_polygon.c **** 
 142:..\..\..\..\..\..\Dev\Library embedded l2c display\u8g2\csrc/u8g2_polygon.c **** static void pg_expand_min_y(pg_struct *pg, pg_word_t min_y, uint8_t pge_idx)
 143:..\..\..\..\..\..\Dev\Library embedded l2c display\u8g2\csrc/u8g2_polygon.c **** {
 253              		.loc 1 143 0
ARM GAS  C:\Users\Abude\AppData\Local\Temp\ccoVdEub.s 			page 8


 254              		.cfi_startproc
 255              		@ args = 0, pretend = 0, frame = 0
 256              		@ frame_needed = 0, uses_anonymous_args = 0
 257              	.LVL27:
 258 0000 70B5     		push	{r4, r5, r6, lr}
 259              		.cfi_def_cfa_offset 16
 260              		.cfi_offset 4, -16
 261              		.cfi_offset 5, -12
 262              		.cfi_offset 6, -8
 263              		.cfi_offset 14, -4
 264 0002 0446     		mov	r4, r0
 265 0004 0E46     		mov	r6, r1
 266 0006 1546     		mov	r5, r2
 144:..\..\..\..\..\..\Dev\Library embedded l2c display\u8g2\csrc/u8g2_polygon.c ****   uint8_t i = pg->pge[pge_idx].curr_idx;
 267              		.loc 1 144 0
 268 0008 02EB4202 		add	r2, r2, r2, lsl #1
 269              	.LVL28:
 270 000c D300     		lsls	r3, r2, #3
 271 000e 0344     		add	r3, r3, r0
 272 0010 93F83010 		ldrb	r1, [r3, #48]	@ zero_extendqisi2
 273              	.LVL29:
 274              	.L18:
 145:..\..\..\..\..\..\Dev\Library embedded l2c display\u8g2\csrc/u8g2_polygon.c ****   for(;;)
 146:..\..\..\..\..\..\Dev\Library embedded l2c display\u8g2\csrc/u8g2_polygon.c ****   {
 147:..\..\..\..\..\..\Dev\Library embedded l2c display\u8g2\csrc/u8g2_polygon.c ****     i = pg->pge[pge_idx].next_idx_fn(pg, i);
 275              		.loc 1 147 0
 276 0014 05EB4502 		add	r2, r5, r5, lsl #1
 277 0018 D300     		lsls	r3, r2, #3
 278 001a 2344     		add	r3, r3, r4
 279 001c DB6A     		ldr	r3, [r3, #44]
 280 001e 2046     		mov	r0, r4
 281 0020 9847     		blx	r3
 282              	.LVL30:
 283 0022 0146     		mov	r1, r0
 284              	.LVL31:
 148:..\..\..\..\..\..\Dev\Library embedded l2c display\u8g2\csrc/u8g2_polygon.c ****     if ( pg->list[i].y != min_y )
 285              		.loc 1 148 0
 286 0024 04EB8003 		add	r3, r4, r0, lsl #2
 287 0028 B3F90230 		ldrsh	r3, [r3, #2]
 288 002c B342     		cmp	r3, r6
 289 002e 06D1     		bne	.L16
 149:..\..\..\..\..\..\Dev\Library embedded l2c display\u8g2\csrc/u8g2_polygon.c ****       break;	
 150:..\..\..\..\..\..\Dev\Library embedded l2c display\u8g2\csrc/u8g2_polygon.c ****     pg->pge[pge_idx].curr_idx = i;
 290              		.loc 1 150 0
 291 0030 05EB4502 		add	r2, r5, r5, lsl #1
 292 0034 D300     		lsls	r3, r2, #3
 293 0036 2344     		add	r3, r3, r4
 294 0038 83F83000 		strb	r0, [r3, #48]
 151:..\..\..\..\..\..\Dev\Library embedded l2c display\u8g2\csrc/u8g2_polygon.c ****   }
 295              		.loc 1 151 0
 296 003c EAE7     		b	.L18
 297              	.L16:
 298 003e 70BD     		pop	{r4, r5, r6, pc}
 299              		.cfi_endproc
 300              	.LFE4:
 301              		.size	pg_expand_min_y, .-pg_expand_min_y
 302              		.section	.text.pg_prepare,"ax",%progbits
ARM GAS  C:\Users\Abude\AppData\Local\Temp\ccoVdEub.s 			page 9


 303              		.align	2
 304              		.thumb
 305              		.thumb_func
 306              		.type	pg_prepare, %function
 307              	pg_prepare:
 308              	.LFB5:
 152:..\..\..\..\..\..\Dev\Library embedded l2c display\u8g2\csrc/u8g2_polygon.c **** }
 153:..\..\..\..\..\..\Dev\Library embedded l2c display\u8g2\csrc/u8g2_polygon.c **** 
 154:..\..\..\..\..\..\Dev\Library embedded l2c display\u8g2\csrc/u8g2_polygon.c **** static uint8_t pg_prepare(pg_struct *pg)
 155:..\..\..\..\..\..\Dev\Library embedded l2c display\u8g2\csrc/u8g2_polygon.c **** {
 309              		.loc 1 155 0
 310              		.cfi_startproc
 311              		@ args = 0, pretend = 0, frame = 0
 312              		@ frame_needed = 0, uses_anonymous_args = 0
 313              	.LVL32:
 314 0000 38B5     		push	{r3, r4, r5, lr}
 315              		.cfi_def_cfa_offset 16
 316              		.cfi_offset 3, -16
 317              		.cfi_offset 4, -12
 318              		.cfi_offset 5, -8
 319              		.cfi_offset 14, -4
 156:..\..\..\..\..\..\Dev\Library embedded l2c display\u8g2\csrc/u8g2_polygon.c ****   pg_word_t max_y;
 157:..\..\..\..\..\..\Dev\Library embedded l2c display\u8g2\csrc/u8g2_polygon.c ****   pg_word_t min_y;
 158:..\..\..\..\..\..\Dev\Library embedded l2c display\u8g2\csrc/u8g2_polygon.c ****   uint8_t i;
 159:..\..\..\..\..\..\Dev\Library embedded l2c display\u8g2\csrc/u8g2_polygon.c **** 
 160:..\..\..\..\..\..\Dev\Library embedded l2c display\u8g2\csrc/u8g2_polygon.c ****   /* setup the next index procedures */
 161:..\..\..\..\..\..\Dev\Library embedded l2c display\u8g2\csrc/u8g2_polygon.c ****   pg->pge[PG_RIGHT].next_idx_fn = pg_inc;
 320              		.loc 1 161 0
 321 0002 274B     		ldr	r3, .L30
 322 0004 4364     		str	r3, [r0, #68]
 162:..\..\..\..\..\..\Dev\Library embedded l2c display\u8g2\csrc/u8g2_polygon.c ****   pg->pge[PG_LEFT].next_idx_fn = pg_dec;
 323              		.loc 1 162 0
 324 0006 274B     		ldr	r3, .L30+4
 325 0008 C362     		str	r3, [r0, #44]
 163:..\..\..\..\..\..\Dev\Library embedded l2c display\u8g2\csrc/u8g2_polygon.c ****   
 164:..\..\..\..\..\..\Dev\Library embedded l2c display\u8g2\csrc/u8g2_polygon.c ****   /* search for highest and lowest point */
 165:..\..\..\..\..\..\Dev\Library embedded l2c display\u8g2\csrc/u8g2_polygon.c ****   max_y = pg->list[0].y;
 326              		.loc 1 165 0
 327 000a B0F90240 		ldrsh	r4, [r0, #2]
 328              	.LVL33:
 166:..\..\..\..\..\..\Dev\Library embedded l2c display\u8g2\csrc/u8g2_polygon.c ****   min_y = pg->list[0].y;
 167:..\..\..\..\..\..\Dev\Library embedded l2c display\u8g2\csrc/u8g2_polygon.c ****   pg->pge[PG_LEFT].curr_idx = 0;
 329              		.loc 1 167 0
 330 000e 0023     		movs	r3, #0
 331 0010 80F83030 		strb	r3, [r0, #48]
 332              	.LVL34:
 166:..\..\..\..\..\..\Dev\Library embedded l2c display\u8g2\csrc/u8g2_polygon.c ****   min_y = pg->list[0].y;
 333              		.loc 1 166 0
 334 0014 2546     		mov	r5, r4
 168:..\..\..\..\..\..\Dev\Library embedded l2c display\u8g2\csrc/u8g2_polygon.c ****   for( i = 1; i < pg->cnt; i++ )
 335              		.loc 1 168 0
 336 0016 0123     		movs	r3, #1
 337 0018 11E0     		b	.L21
 338              	.LVL35:
 339              	.L24:
 169:..\..\..\..\..\..\Dev\Library embedded l2c display\u8g2\csrc/u8g2_polygon.c ****   {
 170:..\..\..\..\..\..\Dev\Library embedded l2c display\u8g2\csrc/u8g2_polygon.c ****     if ( max_y < pg->list[i].y )
ARM GAS  C:\Users\Abude\AppData\Local\Temp\ccoVdEub.s 			page 10


 340              		.loc 1 170 0
 341 001a 1946     		mov	r1, r3
 342 001c 00EB8302 		add	r2, r0, r3, lsl #2
 343 0020 B2F90220 		ldrsh	r2, [r2, #2]
 344 0024 9442     		cmp	r4, r2
 345 0026 00DA     		bge	.L22
 171:..\..\..\..\..\..\Dev\Library embedded l2c display\u8g2\csrc/u8g2_polygon.c ****     {
 172:..\..\..\..\..\..\Dev\Library embedded l2c display\u8g2\csrc/u8g2_polygon.c ****       max_y = pg->list[i].y;
 346              		.loc 1 172 0
 347 0028 1446     		mov	r4, r2
 348              	.LVL36:
 349              	.L22:
 173:..\..\..\..\..\..\Dev\Library embedded l2c display\u8g2\csrc/u8g2_polygon.c ****     }
 174:..\..\..\..\..\..\Dev\Library embedded l2c display\u8g2\csrc/u8g2_polygon.c ****     if ( min_y > pg->list[i].y )
 350              		.loc 1 174 0
 351 002a 9542     		cmp	r5, r2
 352 002c 05DD     		ble	.L23
 175:..\..\..\..\..\..\Dev\Library embedded l2c display\u8g2\csrc/u8g2_polygon.c ****     {
 176:..\..\..\..\..\..\Dev\Library embedded l2c display\u8g2\csrc/u8g2_polygon.c ****       pg->pge[PG_LEFT].curr_idx = i;
 353              		.loc 1 176 0
 354 002e 80F83030 		strb	r3, [r0, #48]
 177:..\..\..\..\..\..\Dev\Library embedded l2c display\u8g2\csrc/u8g2_polygon.c ****       min_y = pg->list[i].y;
 355              		.loc 1 177 0
 356 0032 00EB8101 		add	r1, r0, r1, lsl #2
 357 0036 B1F90250 		ldrsh	r5, [r1, #2]
 358              	.LVL37:
 359              	.L23:
 168:..\..\..\..\..\..\Dev\Library embedded l2c display\u8g2\csrc/u8g2_polygon.c ****   {
 360              		.loc 1 168 0 discriminator 2
 361 003a 0133     		adds	r3, r3, #1
 362              	.LVL38:
 363 003c DBB2     		uxtb	r3, r3
 364              	.LVL39:
 365              	.L21:
 168:..\..\..\..\..\..\Dev\Library embedded l2c display\u8g2\csrc/u8g2_polygon.c ****   {
 366              		.loc 1 168 0 is_stmt 0 discriminator 1
 367 003e 027E     		ldrb	r2, [r0, #24]	@ zero_extendqisi2
 368 0040 9342     		cmp	r3, r2
 369 0042 EAD3     		bcc	.L24
 178:..\..\..\..\..\..\Dev\Library embedded l2c display\u8g2\csrc/u8g2_polygon.c ****     }
 179:..\..\..\..\..\..\Dev\Library embedded l2c display\u8g2\csrc/u8g2_polygon.c ****   }
 180:..\..\..\..\..\..\Dev\Library embedded l2c display\u8g2\csrc/u8g2_polygon.c **** 
 181:..\..\..\..\..\..\Dev\Library embedded l2c display\u8g2\csrc/u8g2_polygon.c ****   /* calculate total number of scan lines */
 182:..\..\..\..\..\..\Dev\Library embedded l2c display\u8g2\csrc/u8g2_polygon.c ****   pg->total_scan_line_cnt = max_y;
 183:..\..\..\..\..\..\Dev\Library embedded l2c display\u8g2\csrc/u8g2_polygon.c ****   pg->total_scan_line_cnt -= min_y;
 370              		.loc 1 183 0 is_stmt 1
 371 0044 641B     		subs	r4, r4, r5
 372              	.LVL40:
 373 0046 24B2     		sxth	r4, r4
 374 0048 4483     		strh	r4, [r0, #26]	@ movhi
 184:..\..\..\..\..\..\Dev\Library embedded l2c display\u8g2\csrc/u8g2_polygon.c ****   
 185:..\..\..\..\..\..\Dev\Library embedded l2c display\u8g2\csrc/u8g2_polygon.c ****   /* exit if polygon height is zero */
 186:..\..\..\..\..\..\Dev\Library embedded l2c display\u8g2\csrc/u8g2_polygon.c ****   if ( pg->total_scan_line_cnt == 0 )
 375              		.loc 1 186 0
 376 004a 2CB3     		cbz	r4, .L27
 377 004c 0446     		mov	r4, r0
 187:..\..\..\..\..\..\Dev\Library embedded l2c display\u8g2\csrc/u8g2_polygon.c ****     return 0;
ARM GAS  C:\Users\Abude\AppData\Local\Temp\ccoVdEub.s 			page 11


 188:..\..\..\..\..\..\Dev\Library embedded l2c display\u8g2\csrc/u8g2_polygon.c ****   
 189:..\..\..\..\..\..\Dev\Library embedded l2c display\u8g2\csrc/u8g2_polygon.c ****   /* if the minimum y side is flat, try to find the lowest and highest x points */
 190:..\..\..\..\..\..\Dev\Library embedded l2c display\u8g2\csrc/u8g2_polygon.c ****   pg->pge[PG_RIGHT].curr_idx = pg->pge[PG_LEFT].curr_idx;  
 378              		.loc 1 190 0
 379 004e 90F83030 		ldrb	r3, [r0, #48]	@ zero_extendqisi2
 380              	.LVL41:
 381 0052 80F84830 		strb	r3, [r0, #72]
 191:..\..\..\..\..\..\Dev\Library embedded l2c display\u8g2\csrc/u8g2_polygon.c ****   pg_expand_min_y(pg, min_y, PG_RIGHT);
 382              		.loc 1 191 0
 383 0056 0122     		movs	r2, #1
 384 0058 2946     		mov	r1, r5
 385 005a FFF7FEFF 		bl	pg_expand_min_y
 386              	.LVL42:
 192:..\..\..\..\..\..\Dev\Library embedded l2c display\u8g2\csrc/u8g2_polygon.c ****   pg_expand_min_y(pg, min_y, PG_LEFT);
 387              		.loc 1 192 0
 388 005e 0022     		movs	r2, #0
 389 0060 2946     		mov	r1, r5
 390 0062 2046     		mov	r0, r4
 391 0064 FFF7FEFF 		bl	pg_expand_min_y
 392              	.LVL43:
 193:..\..\..\..\..\..\Dev\Library embedded l2c display\u8g2\csrc/u8g2_polygon.c ****   
 194:..\..\..\..\..\..\Dev\Library embedded l2c display\u8g2\csrc/u8g2_polygon.c ****   /* check if the min side is really flat (depends on the x values) */
 195:..\..\..\..\..\..\Dev\Library embedded l2c display\u8g2\csrc/u8g2_polygon.c ****   pg->is_min_y_not_flat = 1;
 393              		.loc 1 195 0
 394 0068 0123     		movs	r3, #1
 395 006a 6376     		strb	r3, [r4, #25]
 196:..\..\..\..\..\..\Dev\Library embedded l2c display\u8g2\csrc/u8g2_polygon.c ****   if ( pg->list[pg->pge[PG_LEFT].curr_idx].x != pg->list[pg->pge[PG_RIGHT].curr_idx].x )
 396              		.loc 1 196 0
 397 006c 94F83030 		ldrb	r3, [r4, #48]	@ zero_extendqisi2
 398 0070 34F92320 		ldrsh	r2, [r4, r3, lsl #2]
 399 0074 94F84830 		ldrb	r3, [r4, #72]	@ zero_extendqisi2
 400 0078 34F92330 		ldrsh	r3, [r4, r3, lsl #2]
 401 007c 9A42     		cmp	r2, r3
 402 007e 03D0     		beq	.L26
 197:..\..\..\..\..\..\Dev\Library embedded l2c display\u8g2\csrc/u8g2_polygon.c ****   {
 198:..\..\..\..\..\..\Dev\Library embedded l2c display\u8g2\csrc/u8g2_polygon.c ****     pg->is_min_y_not_flat = 0;
 403              		.loc 1 198 0
 404 0080 0023     		movs	r3, #0
 405 0082 6376     		strb	r3, [r4, #25]
 199:..\..\..\..\..\..\Dev\Library embedded l2c display\u8g2\csrc/u8g2_polygon.c ****   }
 200:..\..\..\..\..\..\Dev\Library embedded l2c display\u8g2\csrc/u8g2_polygon.c ****   else
 201:..\..\..\..\..\..\Dev\Library embedded l2c display\u8g2\csrc/u8g2_polygon.c ****   {
 202:..\..\..\..\..\..\Dev\Library embedded l2c display\u8g2\csrc/u8g2_polygon.c ****     pg->total_scan_line_cnt--;
 203:..\..\..\..\..\..\Dev\Library embedded l2c display\u8g2\csrc/u8g2_polygon.c ****     if ( pg->total_scan_line_cnt == 0 )
 204:..\..\..\..\..\..\Dev\Library embedded l2c display\u8g2\csrc/u8g2_polygon.c ****       return 0;
 205:..\..\..\..\..\..\Dev\Library embedded l2c display\u8g2\csrc/u8g2_polygon.c ****   }
 206:..\..\..\..\..\..\Dev\Library embedded l2c display\u8g2\csrc/u8g2_polygon.c **** 
 207:..\..\..\..\..\..\Dev\Library embedded l2c display\u8g2\csrc/u8g2_polygon.c ****   return 1;
 406              		.loc 1 207 0
 407 0084 0120     		movs	r0, #1
 408 0086 38BD     		pop	{r3, r4, r5, pc}
 409              	.LVL44:
 410              	.L26:
 202:..\..\..\..\..\..\Dev\Library embedded l2c display\u8g2\csrc/u8g2_polygon.c ****     if ( pg->total_scan_line_cnt == 0 )
 411              		.loc 1 202 0
 412 0088 B4F91A30 		ldrsh	r3, [r4, #26]
 413 008c 013B     		subs	r3, r3, #1
ARM GAS  C:\Users\Abude\AppData\Local\Temp\ccoVdEub.s 			page 12


 414 008e 1BB2     		sxth	r3, r3
 415 0090 6383     		strh	r3, [r4, #26]	@ movhi
 203:..\..\..\..\..\..\Dev\Library embedded l2c display\u8g2\csrc/u8g2_polygon.c ****       return 0;
 416              		.loc 1 203 0
 417 0092 1BB9     		cbnz	r3, .L28
 204:..\..\..\..\..\..\Dev\Library embedded l2c display\u8g2\csrc/u8g2_polygon.c ****   }
 418              		.loc 1 204 0
 419 0094 0020     		movs	r0, #0
 420 0096 38BD     		pop	{r3, r4, r5, pc}
 421              	.LVL45:
 422              	.L27:
 187:..\..\..\..\..\..\Dev\Library embedded l2c display\u8g2\csrc/u8g2_polygon.c ****   
 423              		.loc 1 187 0
 424 0098 0020     		movs	r0, #0
 425              	.LVL46:
 426 009a 38BD     		pop	{r3, r4, r5, pc}
 427              	.LVL47:
 428              	.L28:
 429              		.loc 1 207 0
 430 009c 0120     		movs	r0, #1
 208:..\..\..\..\..\..\Dev\Library embedded l2c display\u8g2\csrc/u8g2_polygon.c **** }
 431              		.loc 1 208 0
 432 009e 38BD     		pop	{r3, r4, r5, pc}
 433              	.LVL48:
 434              	.L31:
 435              		.align	2
 436              	.L30:
 437 00a0 00000000 		.word	pg_inc
 438 00a4 00000000 		.word	pg_dec
 439              		.cfi_endproc
 440              	.LFE5:
 441              		.size	pg_prepare, .-pg_prepare
 442              		.section	.text.pg_line_init,"ax",%progbits
 443              		.align	2
 444              		.thumb
 445              		.thumb_func
 446              		.type	pg_line_init, %function
 447              	pg_line_init:
 448              	.LFB7:
 209:..\..\..\..\..\..\Dev\Library embedded l2c display\u8g2\csrc/u8g2_polygon.c **** 
 210:..\..\..\..\..\..\Dev\Library embedded l2c display\u8g2\csrc/u8g2_polygon.c **** static void pg_hline(pg_struct *pg, u8g2_t *u8g2)
 211:..\..\..\..\..\..\Dev\Library embedded l2c display\u8g2\csrc/u8g2_polygon.c **** {
 212:..\..\..\..\..\..\Dev\Library embedded l2c display\u8g2\csrc/u8g2_polygon.c ****   pg_word_t x1, x2, y;
 213:..\..\..\..\..\..\Dev\Library embedded l2c display\u8g2\csrc/u8g2_polygon.c ****   x1 = pg->pge[PG_LEFT].current_x;
 214:..\..\..\..\..\..\Dev\Library embedded l2c display\u8g2\csrc/u8g2_polygon.c ****   x2 = pg->pge[PG_RIGHT].current_x;
 215:..\..\..\..\..\..\Dev\Library embedded l2c display\u8g2\csrc/u8g2_polygon.c ****   y = pg->pge[PG_RIGHT].current_y;
 216:..\..\..\..\..\..\Dev\Library embedded l2c display\u8g2\csrc/u8g2_polygon.c ****   
 217:..\..\..\..\..\..\Dev\Library embedded l2c display\u8g2\csrc/u8g2_polygon.c ****   if ( y < 0 )
 218:..\..\..\..\..\..\Dev\Library embedded l2c display\u8g2\csrc/u8g2_polygon.c ****     return;
 219:..\..\..\..\..\..\Dev\Library embedded l2c display\u8g2\csrc/u8g2_polygon.c ****   if ( y >= u8g2_GetDisplayHeight(u8g2) )  // does not work for 256x64 display???
 220:..\..\..\..\..\..\Dev\Library embedded l2c display\u8g2\csrc/u8g2_polygon.c ****     return;
 221:..\..\..\..\..\..\Dev\Library embedded l2c display\u8g2\csrc/u8g2_polygon.c ****   if ( x1 < x2 )
 222:..\..\..\..\..\..\Dev\Library embedded l2c display\u8g2\csrc/u8g2_polygon.c ****   {
 223:..\..\..\..\..\..\Dev\Library embedded l2c display\u8g2\csrc/u8g2_polygon.c ****     if ( x2 < 0 )
 224:..\..\..\..\..\..\Dev\Library embedded l2c display\u8g2\csrc/u8g2_polygon.c ****       return;
 225:..\..\..\..\..\..\Dev\Library embedded l2c display\u8g2\csrc/u8g2_polygon.c ****     if ( x1 >= u8g2_GetDisplayWidth(u8g2) )
 226:..\..\..\..\..\..\Dev\Library embedded l2c display\u8g2\csrc/u8g2_polygon.c ****       return;
ARM GAS  C:\Users\Abude\AppData\Local\Temp\ccoVdEub.s 			page 13


 227:..\..\..\..\..\..\Dev\Library embedded l2c display\u8g2\csrc/u8g2_polygon.c ****     if ( x1 < 0 )
 228:..\..\..\..\..\..\Dev\Library embedded l2c display\u8g2\csrc/u8g2_polygon.c ****       x1 = 0;
 229:..\..\..\..\..\..\Dev\Library embedded l2c display\u8g2\csrc/u8g2_polygon.c ****     if ( x2 >= u8g2_GetDisplayWidth(u8g2) )
 230:..\..\..\..\..\..\Dev\Library embedded l2c display\u8g2\csrc/u8g2_polygon.c ****       x2 = u8g2_GetDisplayWidth(u8g2);
 231:..\..\..\..\..\..\Dev\Library embedded l2c display\u8g2\csrc/u8g2_polygon.c ****     u8g2_DrawHLine(u8g2, x1, y, x2 - x1);
 232:..\..\..\..\..\..\Dev\Library embedded l2c display\u8g2\csrc/u8g2_polygon.c ****   }
 233:..\..\..\..\..\..\Dev\Library embedded l2c display\u8g2\csrc/u8g2_polygon.c ****   else
 234:..\..\..\..\..\..\Dev\Library embedded l2c display\u8g2\csrc/u8g2_polygon.c ****   {
 235:..\..\..\..\..\..\Dev\Library embedded l2c display\u8g2\csrc/u8g2_polygon.c ****     if ( x1 < 0 )
 236:..\..\..\..\..\..\Dev\Library embedded l2c display\u8g2\csrc/u8g2_polygon.c ****       return;
 237:..\..\..\..\..\..\Dev\Library embedded l2c display\u8g2\csrc/u8g2_polygon.c ****     if ( x2 >= u8g2_GetDisplayWidth(u8g2) )
 238:..\..\..\..\..\..\Dev\Library embedded l2c display\u8g2\csrc/u8g2_polygon.c ****       return;
 239:..\..\..\..\..\..\Dev\Library embedded l2c display\u8g2\csrc/u8g2_polygon.c ****     if ( x2 < 0 )
 240:..\..\..\..\..\..\Dev\Library embedded l2c display\u8g2\csrc/u8g2_polygon.c ****       x1 = 0;
 241:..\..\..\..\..\..\Dev\Library embedded l2c display\u8g2\csrc/u8g2_polygon.c ****     if ( x1 >= u8g2_GetDisplayWidth(u8g2) )
 242:..\..\..\..\..\..\Dev\Library embedded l2c display\u8g2\csrc/u8g2_polygon.c ****       x1 = u8g2_GetDisplayWidth(u8g2);
 243:..\..\..\..\..\..\Dev\Library embedded l2c display\u8g2\csrc/u8g2_polygon.c ****     u8g2_DrawHLine(u8g2, x2, y, x1 - x2);
 244:..\..\..\..\..\..\Dev\Library embedded l2c display\u8g2\csrc/u8g2_polygon.c ****   }
 245:..\..\..\..\..\..\Dev\Library embedded l2c display\u8g2\csrc/u8g2_polygon.c **** }
 246:..\..\..\..\..\..\Dev\Library embedded l2c display\u8g2\csrc/u8g2_polygon.c **** 
 247:..\..\..\..\..\..\Dev\Library embedded l2c display\u8g2\csrc/u8g2_polygon.c **** static void pg_line_init(pg_struct * const pg, uint8_t pge_index)
 248:..\..\..\..\..\..\Dev\Library embedded l2c display\u8g2\csrc/u8g2_polygon.c **** {
 449              		.loc 1 248 0
 450              		.cfi_startproc
 451              		@ args = 0, pretend = 0, frame = 0
 452              		@ frame_needed = 0, uses_anonymous_args = 0
 453              	.LVL49:
 454 0000 F0B5     		push	{r4, r5, r6, r7, lr}
 455              		.cfi_def_cfa_offset 20
 456              		.cfi_offset 4, -20
 457              		.cfi_offset 5, -16
 458              		.cfi_offset 6, -12
 459              		.cfi_offset 7, -8
 460              		.cfi_offset 14, -4
 461 0002 83B0     		sub	sp, sp, #12
 462              		.cfi_def_cfa_offset 32
 463 0004 0546     		mov	r5, r0
 249:..\..\..\..\..\..\Dev\Library embedded l2c display\u8g2\csrc/u8g2_polygon.c ****   struct pg_edge_struct  *pge = pg->pge+pge_index;
 464              		.loc 1 249 0
 465 0006 00F11C04 		add	r4, r0, #28
 466 000a 01EB4101 		add	r1, r1, r1, lsl #1
 467              	.LVL50:
 468 000e CB00     		lsls	r3, r1, #3
 469 0010 1C44     		add	r4, r4, r3
 470              	.LVL51:
 250:..\..\..\..\..\..\Dev\Library embedded l2c display\u8g2\csrc/u8g2_polygon.c ****   uint8_t idx;  
 251:..\..\..\..\..\..\Dev\Library embedded l2c display\u8g2\csrc/u8g2_polygon.c ****   pg_word_t x1;
 252:..\..\..\..\..\..\Dev\Library embedded l2c display\u8g2\csrc/u8g2_polygon.c ****   pg_word_t y1;
 253:..\..\..\..\..\..\Dev\Library embedded l2c display\u8g2\csrc/u8g2_polygon.c ****   pg_word_t x2;
 254:..\..\..\..\..\..\Dev\Library embedded l2c display\u8g2\csrc/u8g2_polygon.c ****   pg_word_t y2;
 255:..\..\..\..\..\..\Dev\Library embedded l2c display\u8g2\csrc/u8g2_polygon.c **** 
 256:..\..\..\..\..\..\Dev\Library embedded l2c display\u8g2\csrc/u8g2_polygon.c ****   idx = pge->curr_idx;  
 471              		.loc 1 256 0
 472 0012 217D     		ldrb	r1, [r4, #20]	@ zero_extendqisi2
 473              	.LVL52:
 257:..\..\..\..\..\..\Dev\Library embedded l2c display\u8g2\csrc/u8g2_polygon.c ****   y1 = pg->list[idx].y;
 474              		.loc 1 257 0
ARM GAS  C:\Users\Abude\AppData\Local\Temp\ccoVdEub.s 			page 14


 475 0014 00EB8103 		add	r3, r0, r1, lsl #2
 476 0018 B3F90270 		ldrsh	r7, [r3, #2]
 477              	.LVL53:
 258:..\..\..\..\..\..\Dev\Library embedded l2c display\u8g2\csrc/u8g2_polygon.c ****   x1 = pg->list[idx].x;
 478              		.loc 1 258 0
 479 001c 30F92160 		ldrsh	r6, [r0, r1, lsl #2]
 480              	.LVL54:
 259:..\..\..\..\..\..\Dev\Library embedded l2c display\u8g2\csrc/u8g2_polygon.c ****   idx = pge->next_idx_fn(pg, idx);
 481              		.loc 1 259 0
 482 0020 2369     		ldr	r3, [r4, #16]
 483 0022 9847     		blx	r3
 484              	.LVL55:
 260:..\..\..\..\..\..\Dev\Library embedded l2c display\u8g2\csrc/u8g2_polygon.c ****   y2 = pg->list[idx].y;
 485              		.loc 1 260 0
 486 0024 05EB8003 		add	r3, r5, r0, lsl #2
 487 0028 B3F90220 		ldrsh	r2, [r3, #2]
 488              	.LVL56:
 261:..\..\..\..\..\..\Dev\Library embedded l2c display\u8g2\csrc/u8g2_polygon.c ****   x2 = pg->list[idx].x; 
 489              		.loc 1 261 0
 490 002c 35F92030 		ldrsh	r3, [r5, r0, lsl #2]
 491              	.LVL57:
 262:..\..\..\..\..\..\Dev\Library embedded l2c display\u8g2\csrc/u8g2_polygon.c ****   pge->curr_idx = idx;
 492              		.loc 1 262 0
 493 0030 2075     		strb	r0, [r4, #20]
 263:..\..\..\..\..\..\Dev\Library embedded l2c display\u8g2\csrc/u8g2_polygon.c ****   
 264:..\..\..\..\..\..\Dev\Library embedded l2c display\u8g2\csrc/u8g2_polygon.c ****   pge_Init(pge, x1, y1, x2, y2);
 494              		.loc 1 264 0
 495 0032 0092     		str	r2, [sp]
 496 0034 3A46     		mov	r2, r7
 497              	.LVL58:
 498 0036 3146     		mov	r1, r6
 499 0038 2046     		mov	r0, r4
 500              	.LVL59:
 501 003a FFF7FEFF 		bl	pge_Init
 502              	.LVL60:
 265:..\..\..\..\..\..\Dev\Library embedded l2c display\u8g2\csrc/u8g2_polygon.c **** }
 503              		.loc 1 265 0
 504 003e 03B0     		add	sp, sp, #12
 505              		.cfi_def_cfa_offset 20
 506              		@ sp needed
 507 0040 F0BD     		pop	{r4, r5, r6, r7, pc}
 508              		.cfi_endproc
 509              	.LFE7:
 510              		.size	pg_line_init, .-pg_line_init
 511 0042 00BF     		.section	.text.pg_ClearPolygonXY,"ax",%progbits
 512              		.align	2
 513              		.thumb
 514              		.thumb_func
 515              		.type	pg_ClearPolygonXY, %function
 516              	pg_ClearPolygonXY:
 517              	.LFB9:
 266:..\..\..\..\..\..\Dev\Library embedded l2c display\u8g2\csrc/u8g2_polygon.c **** 
 267:..\..\..\..\..\..\Dev\Library embedded l2c display\u8g2\csrc/u8g2_polygon.c **** static void pg_exec(pg_struct *pg, u8g2_t *u8g2)
 268:..\..\..\..\..\..\Dev\Library embedded l2c display\u8g2\csrc/u8g2_polygon.c **** {
 269:..\..\..\..\..\..\Dev\Library embedded l2c display\u8g2\csrc/u8g2_polygon.c ****   pg_word_t i = pg->total_scan_line_cnt;
 270:..\..\..\..\..\..\Dev\Library embedded l2c display\u8g2\csrc/u8g2_polygon.c **** 
 271:..\..\..\..\..\..\Dev\Library embedded l2c display\u8g2\csrc/u8g2_polygon.c ****   /* first line is skipped if the min y line is not flat */
ARM GAS  C:\Users\Abude\AppData\Local\Temp\ccoVdEub.s 			page 15


 272:..\..\..\..\..\..\Dev\Library embedded l2c display\u8g2\csrc/u8g2_polygon.c ****   pg_line_init(pg, PG_LEFT);		
 273:..\..\..\..\..\..\Dev\Library embedded l2c display\u8g2\csrc/u8g2_polygon.c ****   pg_line_init(pg, PG_RIGHT);
 274:..\..\..\..\..\..\Dev\Library embedded l2c display\u8g2\csrc/u8g2_polygon.c ****   
 275:..\..\..\..\..\..\Dev\Library embedded l2c display\u8g2\csrc/u8g2_polygon.c ****   if ( pg->is_min_y_not_flat != 0 )
 276:..\..\..\..\..\..\Dev\Library embedded l2c display\u8g2\csrc/u8g2_polygon.c ****   {
 277:..\..\..\..\..\..\Dev\Library embedded l2c display\u8g2\csrc/u8g2_polygon.c ****     pge_Next(&(pg->pge[PG_LEFT])); 
 278:..\..\..\..\..\..\Dev\Library embedded l2c display\u8g2\csrc/u8g2_polygon.c ****     pge_Next(&(pg->pge[PG_RIGHT]));
 279:..\..\..\..\..\..\Dev\Library embedded l2c display\u8g2\csrc/u8g2_polygon.c ****   }
 280:..\..\..\..\..\..\Dev\Library embedded l2c display\u8g2\csrc/u8g2_polygon.c **** 
 281:..\..\..\..\..\..\Dev\Library embedded l2c display\u8g2\csrc/u8g2_polygon.c ****   do
 282:..\..\..\..\..\..\Dev\Library embedded l2c display\u8g2\csrc/u8g2_polygon.c ****   {
 283:..\..\..\..\..\..\Dev\Library embedded l2c display\u8g2\csrc/u8g2_polygon.c ****     pg_hline(pg, u8g2);
 284:..\..\..\..\..\..\Dev\Library embedded l2c display\u8g2\csrc/u8g2_polygon.c ****     while ( pge_Next(&(pg->pge[PG_LEFT])) == 0 )
 285:..\..\..\..\..\..\Dev\Library embedded l2c display\u8g2\csrc/u8g2_polygon.c ****     {
 286:..\..\..\..\..\..\Dev\Library embedded l2c display\u8g2\csrc/u8g2_polygon.c ****       pg_line_init(pg, PG_LEFT);
 287:..\..\..\..\..\..\Dev\Library embedded l2c display\u8g2\csrc/u8g2_polygon.c ****     }
 288:..\..\..\..\..\..\Dev\Library embedded l2c display\u8g2\csrc/u8g2_polygon.c ****     while ( pge_Next(&(pg->pge[PG_RIGHT])) == 0 )
 289:..\..\..\..\..\..\Dev\Library embedded l2c display\u8g2\csrc/u8g2_polygon.c ****     {
 290:..\..\..\..\..\..\Dev\Library embedded l2c display\u8g2\csrc/u8g2_polygon.c ****       pg_line_init(pg, PG_RIGHT);
 291:..\..\..\..\..\..\Dev\Library embedded l2c display\u8g2\csrc/u8g2_polygon.c ****     }
 292:..\..\..\..\..\..\Dev\Library embedded l2c display\u8g2\csrc/u8g2_polygon.c ****     i--;
 293:..\..\..\..\..\..\Dev\Library embedded l2c display\u8g2\csrc/u8g2_polygon.c ****   } while( i > 0 );
 294:..\..\..\..\..\..\Dev\Library embedded l2c display\u8g2\csrc/u8g2_polygon.c **** }
 295:..\..\..\..\..\..\Dev\Library embedded l2c display\u8g2\csrc/u8g2_polygon.c **** 
 296:..\..\..\..\..\..\Dev\Library embedded l2c display\u8g2\csrc/u8g2_polygon.c **** /*===========================================*/
 297:..\..\..\..\..\..\Dev\Library embedded l2c display\u8g2\csrc/u8g2_polygon.c **** /* API procedures */
 298:..\..\..\..\..\..\Dev\Library embedded l2c display\u8g2\csrc/u8g2_polygon.c **** 
 299:..\..\..\..\..\..\Dev\Library embedded l2c display\u8g2\csrc/u8g2_polygon.c **** static void pg_ClearPolygonXY(pg_struct *pg)
 300:..\..\..\..\..\..\Dev\Library embedded l2c display\u8g2\csrc/u8g2_polygon.c **** {
 518              		.loc 1 300 0
 519              		.cfi_startproc
 520              		@ args = 0, pretend = 0, frame = 0
 521              		@ frame_needed = 0, uses_anonymous_args = 0
 522              		@ link register save eliminated.
 523              	.LVL61:
 301:..\..\..\..\..\..\Dev\Library embedded l2c display\u8g2\csrc/u8g2_polygon.c ****   pg->cnt = 0;
 524              		.loc 1 301 0
 525 0000 0023     		movs	r3, #0
 526 0002 0376     		strb	r3, [r0, #24]
 527 0004 7047     		bx	lr
 528              		.cfi_endproc
 529              	.LFE9:
 530              		.size	pg_ClearPolygonXY, .-pg_ClearPolygonXY
 531 0006 00BF     		.section	.text.pg_AddPolygonXY,"ax",%progbits
 532              		.align	2
 533              		.thumb
 534              		.thumb_func
 535              		.type	pg_AddPolygonXY, %function
 536              	pg_AddPolygonXY:
 537              	.LFB10:
 302:..\..\..\..\..\..\Dev\Library embedded l2c display\u8g2\csrc/u8g2_polygon.c **** }
 303:..\..\..\..\..\..\Dev\Library embedded l2c display\u8g2\csrc/u8g2_polygon.c **** 
 304:..\..\..\..\..\..\Dev\Library embedded l2c display\u8g2\csrc/u8g2_polygon.c **** static void pg_AddPolygonXY(pg_struct *pg, int16_t x, int16_t y)
 305:..\..\..\..\..\..\Dev\Library embedded l2c display\u8g2\csrc/u8g2_polygon.c **** {
 538              		.loc 1 305 0
 539              		.cfi_startproc
 540              		@ args = 0, pretend = 0, frame = 0
ARM GAS  C:\Users\Abude\AppData\Local\Temp\ccoVdEub.s 			page 16


 541              		@ frame_needed = 0, uses_anonymous_args = 0
 542              		@ link register save eliminated.
 543              	.LVL62:
 306:..\..\..\..\..\..\Dev\Library embedded l2c display\u8g2\csrc/u8g2_polygon.c ****   if ( pg->cnt < PG_MAX_POINTS )
 544              		.loc 1 306 0
 545 0000 037E     		ldrb	r3, [r0, #24]	@ zero_extendqisi2
 546 0002 052B     		cmp	r3, #5
 547 0004 06D8     		bhi	.L35
 307:..\..\..\..\..\..\Dev\Library embedded l2c display\u8g2\csrc/u8g2_polygon.c ****   {
 308:..\..\..\..\..\..\Dev\Library embedded l2c display\u8g2\csrc/u8g2_polygon.c ****     pg->list[pg->cnt].x = x;
 548              		.loc 1 308 0
 549 0006 20F82310 		strh	r1, [r0, r3, lsl #2]	@ movhi
 309:..\..\..\..\..\..\Dev\Library embedded l2c display\u8g2\csrc/u8g2_polygon.c ****     pg->list[pg->cnt].y = y;
 550              		.loc 1 309 0
 551 000a 00EB8301 		add	r1, r0, r3, lsl #2
 552              	.LVL63:
 553 000e 4A80     		strh	r2, [r1, #2]	@ movhi
 310:..\..\..\..\..\..\Dev\Library embedded l2c display\u8g2\csrc/u8g2_polygon.c ****     pg->cnt++;
 554              		.loc 1 310 0
 555 0010 0133     		adds	r3, r3, #1
 556 0012 0376     		strb	r3, [r0, #24]
 557              	.LVL64:
 558              	.L35:
 559 0014 7047     		bx	lr
 560              		.cfi_endproc
 561              	.LFE10:
 562              		.size	pg_AddPolygonXY, .-pg_AddPolygonXY
 563 0016 00BF     		.section	.text.pg_hline,"ax",%progbits
 564              		.align	2
 565              		.thumb
 566              		.thumb_func
 567              		.type	pg_hline, %function
 568              	pg_hline:
 569              	.LFB6:
 211:..\..\..\..\..\..\Dev\Library embedded l2c display\u8g2\csrc/u8g2_polygon.c ****   pg_word_t x1, x2, y;
 570              		.loc 1 211 0
 571              		.cfi_startproc
 572              		@ args = 0, pretend = 0, frame = 0
 573              		@ frame_needed = 0, uses_anonymous_args = 0
 574              	.LVL65:
 575 0000 10B5     		push	{r4, lr}
 576              		.cfi_def_cfa_offset 8
 577              		.cfi_offset 4, -8
 578              		.cfi_offset 14, -4
 213:..\..\..\..\..\..\Dev\Library embedded l2c display\u8g2\csrc/u8g2_polygon.c ****   x2 = pg->pge[PG_RIGHT].current_x;
 579              		.loc 1 213 0
 580 0002 B0F92830 		ldrsh	r3, [r0, #40]
 581              	.LVL66:
 214:..\..\..\..\..\..\Dev\Library embedded l2c display\u8g2\csrc/u8g2_polygon.c ****   y = pg->pge[PG_RIGHT].current_y;
 582              		.loc 1 214 0
 583 0006 B0F94040 		ldrsh	r4, [r0, #64]
 584              	.LVL67:
 215:..\..\..\..\..\..\Dev\Library embedded l2c display\u8g2\csrc/u8g2_polygon.c ****   
 585              		.loc 1 215 0
 586 000a B0F93C20 		ldrsh	r2, [r0, #60]
 587              	.LVL68:
 217:..\..\..\..\..\..\Dev\Library embedded l2c display\u8g2\csrc/u8g2_polygon.c ****     return;
ARM GAS  C:\Users\Abude\AppData\Local\Temp\ccoVdEub.s 			page 17


 588              		.loc 1 217 0
 589 000e 002A     		cmp	r2, #0
 590 0010 2BDB     		blt	.L37
 219:..\..\..\..\..\..\Dev\Library embedded l2c display\u8g2\csrc/u8g2_polygon.c ****     return;
 591              		.loc 1 219 0
 592 0012 B1F84600 		ldrh	r0, [r1, #70]
 593              	.LVL69:
 594 0016 8242     		cmp	r2, r0
 595 0018 27DA     		bge	.L37
 596 001a 0846     		mov	r0, r1
 221:..\..\..\..\..\..\Dev\Library embedded l2c display\u8g2\csrc/u8g2_polygon.c ****   {
 597              		.loc 1 221 0
 598 001c A342     		cmp	r3, r4
 599 001e 12DA     		bge	.L39
 223:..\..\..\..\..\..\Dev\Library embedded l2c display\u8g2\csrc/u8g2_polygon.c ****       return;
 600              		.loc 1 223 0
 601 0020 002C     		cmp	r4, #0
 602 0022 22DB     		blt	.L37
 225:..\..\..\..\..\..\Dev\Library embedded l2c display\u8g2\csrc/u8g2_polygon.c ****       return;
 603              		.loc 1 225 0
 604 0024 B1F84410 		ldrh	r1, [r1, #68]
 605              	.LVL70:
 606 0028 8B42     		cmp	r3, r1
 607 002a 1EDA     		bge	.L37
 227:..\..\..\..\..\..\Dev\Library embedded l2c display\u8g2\csrc/u8g2_polygon.c ****       x1 = 0;
 608              		.loc 1 227 0
 609 002c 002B     		cmp	r3, #0
 610 002e 00DA     		bge	.L40
 228:..\..\..\..\..\..\Dev\Library embedded l2c display\u8g2\csrc/u8g2_polygon.c ****     if ( x2 >= u8g2_GetDisplayWidth(u8g2) )
 611              		.loc 1 228 0
 612 0030 0023     		movs	r3, #0
 613              	.LVL71:
 614              	.L40:
 229:..\..\..\..\..\..\Dev\Library embedded l2c display\u8g2\csrc/u8g2_polygon.c ****       x2 = u8g2_GetDisplayWidth(u8g2);
 615              		.loc 1 229 0
 616 0032 A142     		cmp	r1, r4
 617 0034 00DC     		bgt	.L41
 230:..\..\..\..\..\..\Dev\Library embedded l2c display\u8g2\csrc/u8g2_polygon.c ****     u8g2_DrawHLine(u8g2, x1, y, x2 - x1);
 618              		.loc 1 230 0
 619 0036 0CB2     		sxth	r4, r1
 620              	.LVL72:
 621              	.L41:
 231:..\..\..\..\..\..\Dev\Library embedded l2c display\u8g2\csrc/u8g2_polygon.c ****   }
 622              		.loc 1 231 0
 623 0038 99B2     		uxth	r1, r3
 624 003a 631A     		subs	r3, r4, r1
 625              	.LVL73:
 626 003c 9BB2     		uxth	r3, r3
 627 003e 92B2     		uxth	r2, r2
 628 0040 FFF7FEFF 		bl	u8g2_DrawHLine
 629              	.LVL74:
 630 0044 10BD     		pop	{r4, pc}
 631              	.LVL75:
 632              	.L39:
 235:..\..\..\..\..\..\Dev\Library embedded l2c display\u8g2\csrc/u8g2_polygon.c ****       return;
 633              		.loc 1 235 0
 634 0046 002B     		cmp	r3, #0
ARM GAS  C:\Users\Abude\AppData\Local\Temp\ccoVdEub.s 			page 18


 635 0048 0FDB     		blt	.L37
 237:..\..\..\..\..\..\Dev\Library embedded l2c display\u8g2\csrc/u8g2_polygon.c ****       return;
 636              		.loc 1 237 0
 637 004a B1F84410 		ldrh	r1, [r1, #68]
 638 004e 8C42     		cmp	r4, r1
 639 0050 0BDA     		bge	.L37
 239:..\..\..\..\..\..\Dev\Library embedded l2c display\u8g2\csrc/u8g2_polygon.c ****       x1 = 0;
 640              		.loc 1 239 0
 641 0052 002C     		cmp	r4, #0
 642 0054 00DA     		bge	.L42
 240:..\..\..\..\..\..\Dev\Library embedded l2c display\u8g2\csrc/u8g2_polygon.c ****     if ( x1 >= u8g2_GetDisplayWidth(u8g2) )
 643              		.loc 1 240 0
 644 0056 0023     		movs	r3, #0
 645              	.LVL76:
 646              	.L42:
 241:..\..\..\..\..\..\Dev\Library embedded l2c display\u8g2\csrc/u8g2_polygon.c ****       x1 = u8g2_GetDisplayWidth(u8g2);
 647              		.loc 1 241 0
 648 0058 9942     		cmp	r1, r3
 649 005a 00DC     		bgt	.L43
 242:..\..\..\..\..\..\Dev\Library embedded l2c display\u8g2\csrc/u8g2_polygon.c ****     u8g2_DrawHLine(u8g2, x2, y, x1 - x2);
 650              		.loc 1 242 0
 651 005c 0BB2     		sxth	r3, r1
 652              	.LVL77:
 653              	.L43:
 243:..\..\..\..\..\..\Dev\Library embedded l2c display\u8g2\csrc/u8g2_polygon.c ****   }
 654              		.loc 1 243 0
 655 005e A1B2     		uxth	r1, r4
 656 0060 5B1A     		subs	r3, r3, r1
 657              	.LVL78:
 658 0062 9BB2     		uxth	r3, r3
 659 0064 92B2     		uxth	r2, r2
 660 0066 FFF7FEFF 		bl	u8g2_DrawHLine
 661              	.LVL79:
 662              	.L37:
 663 006a 10BD     		pop	{r4, pc}
 664              		.cfi_endproc
 665              	.LFE6:
 666              		.size	pg_hline, .-pg_hline
 667              		.section	.text.pg_exec,"ax",%progbits
 668              		.align	2
 669              		.thumb
 670              		.thumb_func
 671              		.type	pg_exec, %function
 672              	pg_exec:
 673              	.LFB8:
 268:..\..\..\..\..\..\Dev\Library embedded l2c display\u8g2\csrc/u8g2_polygon.c ****   pg_word_t i = pg->total_scan_line_cnt;
 674              		.loc 1 268 0
 675              		.cfi_startproc
 676              		@ args = 0, pretend = 0, frame = 0
 677              		@ frame_needed = 0, uses_anonymous_args = 0
 678              	.LVL80:
 679 0000 70B5     		push	{r4, r5, r6, lr}
 680              		.cfi_def_cfa_offset 16
 681              		.cfi_offset 4, -16
 682              		.cfi_offset 5, -12
 683              		.cfi_offset 6, -8
 684              		.cfi_offset 14, -4
ARM GAS  C:\Users\Abude\AppData\Local\Temp\ccoVdEub.s 			page 19


 685 0002 0446     		mov	r4, r0
 686 0004 0E46     		mov	r6, r1
 269:..\..\..\..\..\..\Dev\Library embedded l2c display\u8g2\csrc/u8g2_polygon.c **** 
 687              		.loc 1 269 0
 688 0006 B0F91A50 		ldrsh	r5, [r0, #26]
 689              	.LVL81:
 272:..\..\..\..\..\..\Dev\Library embedded l2c display\u8g2\csrc/u8g2_polygon.c ****   pg_line_init(pg, PG_RIGHT);
 690              		.loc 1 272 0
 691 000a 0021     		movs	r1, #0
 692              	.LVL82:
 693 000c FFF7FEFF 		bl	pg_line_init
 694              	.LVL83:
 273:..\..\..\..\..\..\Dev\Library embedded l2c display\u8g2\csrc/u8g2_polygon.c ****   
 695              		.loc 1 273 0
 696 0010 0121     		movs	r1, #1
 697 0012 2046     		mov	r0, r4
 698 0014 FFF7FEFF 		bl	pg_line_init
 699              	.LVL84:
 275:..\..\..\..\..\..\Dev\Library embedded l2c display\u8g2\csrc/u8g2_polygon.c ****   {
 700              		.loc 1 275 0
 701 0018 637E     		ldrb	r3, [r4, #25]	@ zero_extendqisi2
 702 001a 3BB1     		cbz	r3, .L53
 277:..\..\..\..\..\..\Dev\Library embedded l2c display\u8g2\csrc/u8g2_polygon.c ****     pge_Next(&(pg->pge[PG_RIGHT]));
 703              		.loc 1 277 0
 704 001c 04F11C00 		add	r0, r4, #28
 705 0020 FFF7FEFF 		bl	pge_Next
 706              	.LVL85:
 278:..\..\..\..\..\..\Dev\Library embedded l2c display\u8g2\csrc/u8g2_polygon.c ****   }
 707              		.loc 1 278 0
 708 0024 04F13400 		add	r0, r4, #52
 709 0028 FFF7FEFF 		bl	pge_Next
 710              	.LVL86:
 711              	.L53:
 283:..\..\..\..\..\..\Dev\Library embedded l2c display\u8g2\csrc/u8g2_polygon.c ****     while ( pge_Next(&(pg->pge[PG_LEFT])) == 0 )
 712              		.loc 1 283 0
 713 002c 3146     		mov	r1, r6
 714 002e 2046     		mov	r0, r4
 715 0030 FFF7FEFF 		bl	pg_hline
 716              	.LVL87:
 284:..\..\..\..\..\..\Dev\Library embedded l2c display\u8g2\csrc/u8g2_polygon.c ****     {
 717              		.loc 1 284 0
 718 0034 03E0     		b	.L49
 719              	.L50:
 286:..\..\..\..\..\..\Dev\Library embedded l2c display\u8g2\csrc/u8g2_polygon.c ****     }
 720              		.loc 1 286 0
 721 0036 0021     		movs	r1, #0
 722 0038 2046     		mov	r0, r4
 723 003a FFF7FEFF 		bl	pg_line_init
 724              	.LVL88:
 725              	.L49:
 284:..\..\..\..\..\..\Dev\Library embedded l2c display\u8g2\csrc/u8g2_polygon.c ****     {
 726              		.loc 1 284 0
 727 003e 04F11C00 		add	r0, r4, #28
 728 0042 FFF7FEFF 		bl	pge_Next
 729              	.LVL89:
 730 0046 0028     		cmp	r0, #0
 731 0048 F5D0     		beq	.L50
ARM GAS  C:\Users\Abude\AppData\Local\Temp\ccoVdEub.s 			page 20


 732 004a 03E0     		b	.L51
 733              	.L52:
 290:..\..\..\..\..\..\Dev\Library embedded l2c display\u8g2\csrc/u8g2_polygon.c ****     }
 734              		.loc 1 290 0
 735 004c 0121     		movs	r1, #1
 736 004e 2046     		mov	r0, r4
 737 0050 FFF7FEFF 		bl	pg_line_init
 738              	.LVL90:
 739              	.L51:
 288:..\..\..\..\..\..\Dev\Library embedded l2c display\u8g2\csrc/u8g2_polygon.c ****     {
 740              		.loc 1 288 0
 741 0054 04F13400 		add	r0, r4, #52
 742 0058 FFF7FEFF 		bl	pge_Next
 743              	.LVL91:
 744 005c 0028     		cmp	r0, #0
 745 005e F5D0     		beq	.L52
 292:..\..\..\..\..\..\Dev\Library embedded l2c display\u8g2\csrc/u8g2_polygon.c ****   } while( i > 0 );
 746              		.loc 1 292 0
 747 0060 013D     		subs	r5, r5, #1
 748              	.LVL92:
 749 0062 2DB2     		sxth	r5, r5
 750              	.LVL93:
 293:..\..\..\..\..\..\Dev\Library embedded l2c display\u8g2\csrc/u8g2_polygon.c **** }
 751              		.loc 1 293 0
 752 0064 002D     		cmp	r5, #0
 753 0066 E1DC     		bgt	.L53
 294:..\..\..\..\..\..\Dev\Library embedded l2c display\u8g2\csrc/u8g2_polygon.c **** 
 754              		.loc 1 294 0
 755 0068 70BD     		pop	{r4, r5, r6, pc}
 756              		.cfi_endproc
 757              	.LFE8:
 758              		.size	pg_exec, .-pg_exec
 759 006a 00BF     		.section	.text.pg_DrawPolygon,"ax",%progbits
 760              		.align	2
 761              		.thumb
 762              		.thumb_func
 763              		.type	pg_DrawPolygon, %function
 764              	pg_DrawPolygon:
 765              	.LFB11:
 311:..\..\..\..\..\..\Dev\Library embedded l2c display\u8g2\csrc/u8g2_polygon.c ****   }
 312:..\..\..\..\..\..\Dev\Library embedded l2c display\u8g2\csrc/u8g2_polygon.c **** }
 313:..\..\..\..\..\..\Dev\Library embedded l2c display\u8g2\csrc/u8g2_polygon.c **** 
 314:..\..\..\..\..\..\Dev\Library embedded l2c display\u8g2\csrc/u8g2_polygon.c **** static void pg_DrawPolygon(pg_struct *pg, u8g2_t *u8g2)
 315:..\..\..\..\..\..\Dev\Library embedded l2c display\u8g2\csrc/u8g2_polygon.c **** {
 766              		.loc 1 315 0
 767              		.cfi_startproc
 768              		@ args = 0, pretend = 0, frame = 0
 769              		@ frame_needed = 0, uses_anonymous_args = 0
 770              	.LVL94:
 771 0000 38B5     		push	{r3, r4, r5, lr}
 772              		.cfi_def_cfa_offset 16
 773              		.cfi_offset 3, -16
 774              		.cfi_offset 4, -12
 775              		.cfi_offset 5, -8
 776              		.cfi_offset 14, -4
 777 0002 0446     		mov	r4, r0
 778 0004 0D46     		mov	r5, r1
ARM GAS  C:\Users\Abude\AppData\Local\Temp\ccoVdEub.s 			page 21


 316:..\..\..\..\..\..\Dev\Library embedded l2c display\u8g2\csrc/u8g2_polygon.c ****   if ( pg_prepare(pg) == 0 )
 779              		.loc 1 316 0
 780 0006 FFF7FEFF 		bl	pg_prepare
 781              	.LVL95:
 782 000a 18B1     		cbz	r0, .L55
 317:..\..\..\..\..\..\Dev\Library embedded l2c display\u8g2\csrc/u8g2_polygon.c ****     return;
 318:..\..\..\..\..\..\Dev\Library embedded l2c display\u8g2\csrc/u8g2_polygon.c ****   pg_exec(pg, u8g2);
 783              		.loc 1 318 0
 784 000c 2946     		mov	r1, r5
 785 000e 2046     		mov	r0, r4
 786 0010 FFF7FEFF 		bl	pg_exec
 787              	.LVL96:
 788              	.L55:
 789 0014 38BD     		pop	{r3, r4, r5, pc}
 790              		.cfi_endproc
 791              	.LFE11:
 792              		.size	pg_DrawPolygon, .-pg_DrawPolygon
 793 0016 00BF     		.section	.text.u8g2_ClearPolygonXY,"ax",%progbits
 794              		.align	2
 795              		.global	u8g2_ClearPolygonXY
 796              		.thumb
 797              		.thumb_func
 798              		.type	u8g2_ClearPolygonXY, %function
 799              	u8g2_ClearPolygonXY:
 800              	.LFB12:
 319:..\..\..\..\..\..\Dev\Library embedded l2c display\u8g2\csrc/u8g2_polygon.c **** }
 320:..\..\..\..\..\..\Dev\Library embedded l2c display\u8g2\csrc/u8g2_polygon.c **** 
 321:..\..\..\..\..\..\Dev\Library embedded l2c display\u8g2\csrc/u8g2_polygon.c **** pg_struct u8g2_pg;
 322:..\..\..\..\..\..\Dev\Library embedded l2c display\u8g2\csrc/u8g2_polygon.c **** 
 323:..\..\..\..\..\..\Dev\Library embedded l2c display\u8g2\csrc/u8g2_polygon.c **** void u8g2_ClearPolygonXY(void)
 324:..\..\..\..\..\..\Dev\Library embedded l2c display\u8g2\csrc/u8g2_polygon.c **** {
 801              		.loc 1 324 0
 802              		.cfi_startproc
 803              		@ args = 0, pretend = 0, frame = 0
 804              		@ frame_needed = 0, uses_anonymous_args = 0
 805 0000 08B5     		push	{r3, lr}
 806              		.cfi_def_cfa_offset 8
 807              		.cfi_offset 3, -8
 808              		.cfi_offset 14, -4
 325:..\..\..\..\..\..\Dev\Library embedded l2c display\u8g2\csrc/u8g2_polygon.c ****   pg_ClearPolygonXY(&u8g2_pg);
 809              		.loc 1 325 0
 810 0002 0248     		ldr	r0, .L60
 811 0004 FFF7FEFF 		bl	pg_ClearPolygonXY
 812              	.LVL97:
 813 0008 08BD     		pop	{r3, pc}
 814              	.L61:
 815 000a 00BF     		.align	2
 816              	.L60:
 817 000c 00000000 		.word	u8g2_pg
 818              		.cfi_endproc
 819              	.LFE12:
 820              		.size	u8g2_ClearPolygonXY, .-u8g2_ClearPolygonXY
 821              		.section	.text.u8g2_AddPolygonXY,"ax",%progbits
 822              		.align	2
 823              		.global	u8g2_AddPolygonXY
 824              		.thumb
 825              		.thumb_func
ARM GAS  C:\Users\Abude\AppData\Local\Temp\ccoVdEub.s 			page 22


 826              		.type	u8g2_AddPolygonXY, %function
 827              	u8g2_AddPolygonXY:
 828              	.LFB13:
 326:..\..\..\..\..\..\Dev\Library embedded l2c display\u8g2\csrc/u8g2_polygon.c **** }
 327:..\..\..\..\..\..\Dev\Library embedded l2c display\u8g2\csrc/u8g2_polygon.c **** 
 328:..\..\..\..\..\..\Dev\Library embedded l2c display\u8g2\csrc/u8g2_polygon.c **** void u8g2_AddPolygonXY(U8X8_UNUSED u8g2_t *u8g2, int16_t x, int16_t y)
 329:..\..\..\..\..\..\Dev\Library embedded l2c display\u8g2\csrc/u8g2_polygon.c **** {
 829              		.loc 1 329 0
 830              		.cfi_startproc
 831              		@ args = 0, pretend = 0, frame = 0
 832              		@ frame_needed = 0, uses_anonymous_args = 0
 833              	.LVL98:
 834 0000 08B5     		push	{r3, lr}
 835              		.cfi_def_cfa_offset 8
 836              		.cfi_offset 3, -8
 837              		.cfi_offset 14, -4
 330:..\..\..\..\..\..\Dev\Library embedded l2c display\u8g2\csrc/u8g2_polygon.c ****   pg_AddPolygonXY(&u8g2_pg, x, y);
 838              		.loc 1 330 0
 839 0002 0248     		ldr	r0, .L64
 840              	.LVL99:
 841 0004 FFF7FEFF 		bl	pg_AddPolygonXY
 842              	.LVL100:
 843 0008 08BD     		pop	{r3, pc}
 844              	.L65:
 845 000a 00BF     		.align	2
 846              	.L64:
 847 000c 00000000 		.word	u8g2_pg
 848              		.cfi_endproc
 849              	.LFE13:
 850              		.size	u8g2_AddPolygonXY, .-u8g2_AddPolygonXY
 851              		.section	.text.u8g2_DrawPolygon,"ax",%progbits
 852              		.align	2
 853              		.global	u8g2_DrawPolygon
 854              		.thumb
 855              		.thumb_func
 856              		.type	u8g2_DrawPolygon, %function
 857              	u8g2_DrawPolygon:
 858              	.LFB14:
 331:..\..\..\..\..\..\Dev\Library embedded l2c display\u8g2\csrc/u8g2_polygon.c **** }
 332:..\..\..\..\..\..\Dev\Library embedded l2c display\u8g2\csrc/u8g2_polygon.c **** 
 333:..\..\..\..\..\..\Dev\Library embedded l2c display\u8g2\csrc/u8g2_polygon.c **** void u8g2_DrawPolygon(u8g2_t *u8g2)
 334:..\..\..\..\..\..\Dev\Library embedded l2c display\u8g2\csrc/u8g2_polygon.c **** {
 859              		.loc 1 334 0
 860              		.cfi_startproc
 861              		@ args = 0, pretend = 0, frame = 0
 862              		@ frame_needed = 0, uses_anonymous_args = 0
 863              	.LVL101:
 864 0000 08B5     		push	{r3, lr}
 865              		.cfi_def_cfa_offset 8
 866              		.cfi_offset 3, -8
 867              		.cfi_offset 14, -4
 335:..\..\..\..\..\..\Dev\Library embedded l2c display\u8g2\csrc/u8g2_polygon.c ****   pg_DrawPolygon(&u8g2_pg, u8g2);
 868              		.loc 1 335 0
 869 0002 0146     		mov	r1, r0
 870 0004 0148     		ldr	r0, .L68
 871              	.LVL102:
 872 0006 FFF7FEFF 		bl	pg_DrawPolygon
ARM GAS  C:\Users\Abude\AppData\Local\Temp\ccoVdEub.s 			page 23


 873              	.LVL103:
 874 000a 08BD     		pop	{r3, pc}
 875              	.L69:
 876              		.align	2
 877              	.L68:
 878 000c 00000000 		.word	u8g2_pg
 879              		.cfi_endproc
 880              	.LFE14:
 881              		.size	u8g2_DrawPolygon, .-u8g2_DrawPolygon
 882              		.section	.text.u8g2_DrawTriangle,"ax",%progbits
 883              		.align	2
 884              		.global	u8g2_DrawTriangle
 885              		.thumb
 886              		.thumb_func
 887              		.type	u8g2_DrawTriangle, %function
 888              	u8g2_DrawTriangle:
 889              	.LFB15:
 336:..\..\..\..\..\..\Dev\Library embedded l2c display\u8g2\csrc/u8g2_polygon.c **** }
 337:..\..\..\..\..\..\Dev\Library embedded l2c display\u8g2\csrc/u8g2_polygon.c **** 
 338:..\..\..\..\..\..\Dev\Library embedded l2c display\u8g2\csrc/u8g2_polygon.c **** void u8g2_DrawTriangle(u8g2_t *u8g2, int16_t x0, int16_t y0, int16_t x1, int16_t y1, int16_t x2, in
 339:..\..\..\..\..\..\Dev\Library embedded l2c display\u8g2\csrc/u8g2_polygon.c **** {
 890              		.loc 1 339 0
 891              		.cfi_startproc
 892              		@ args = 12, pretend = 0, frame = 0
 893              		@ frame_needed = 0, uses_anonymous_args = 0
 894              	.LVL104:
 895 0000 F8B5     		push	{r3, r4, r5, r6, r7, lr}
 896              		.cfi_def_cfa_offset 24
 897              		.cfi_offset 3, -24
 898              		.cfi_offset 4, -20
 899              		.cfi_offset 5, -16
 900              		.cfi_offset 6, -12
 901              		.cfi_offset 7, -8
 902              		.cfi_offset 14, -4
 903 0002 0446     		mov	r4, r0
 904 0004 0E46     		mov	r6, r1
 905 0006 1746     		mov	r7, r2
 906 0008 1D46     		mov	r5, r3
 340:..\..\..\..\..\..\Dev\Library embedded l2c display\u8g2\csrc/u8g2_polygon.c ****   u8g2_ClearPolygonXY();
 907              		.loc 1 340 0
 908 000a FFF7FEFF 		bl	u8g2_ClearPolygonXY
 909              	.LVL105:
 341:..\..\..\..\..\..\Dev\Library embedded l2c display\u8g2\csrc/u8g2_polygon.c ****   u8g2_AddPolygonXY(u8g2, x0, y0);
 910              		.loc 1 341 0
 911 000e 3A46     		mov	r2, r7
 912 0010 3146     		mov	r1, r6
 913 0012 2046     		mov	r0, r4
 914 0014 FFF7FEFF 		bl	u8g2_AddPolygonXY
 915              	.LVL106:
 342:..\..\..\..\..\..\Dev\Library embedded l2c display\u8g2\csrc/u8g2_polygon.c ****   u8g2_AddPolygonXY(u8g2, x1, y1);
 916              		.loc 1 342 0
 917 0018 BDF91820 		ldrsh	r2, [sp, #24]
 918 001c 2946     		mov	r1, r5
 919 001e 2046     		mov	r0, r4
 920 0020 FFF7FEFF 		bl	u8g2_AddPolygonXY
 921              	.LVL107:
 343:..\..\..\..\..\..\Dev\Library embedded l2c display\u8g2\csrc/u8g2_polygon.c ****   u8g2_AddPolygonXY(u8g2, x2, y2);
ARM GAS  C:\Users\Abude\AppData\Local\Temp\ccoVdEub.s 			page 24


 922              		.loc 1 343 0
 923 0024 BDF92020 		ldrsh	r2, [sp, #32]
 924 0028 BDF91C10 		ldrsh	r1, [sp, #28]
 925 002c 2046     		mov	r0, r4
 926 002e FFF7FEFF 		bl	u8g2_AddPolygonXY
 927              	.LVL108:
 344:..\..\..\..\..\..\Dev\Library embedded l2c display\u8g2\csrc/u8g2_polygon.c ****   u8g2_DrawPolygon(u8g2);
 928              		.loc 1 344 0
 929 0032 2046     		mov	r0, r4
 930 0034 FFF7FEFF 		bl	u8g2_DrawPolygon
 931              	.LVL109:
 932 0038 F8BD     		pop	{r3, r4, r5, r6, r7, pc}
 933              		.cfi_endproc
 934              	.LFE15:
 935              		.size	u8g2_DrawTriangle, .-u8g2_DrawTriangle
 936              		.comm	u8g2_pg,76,4
 937 003a 00BF     		.text
 938              	.Letext0:
 939              		.file 2 "c:\\program files (x86)\\cypress\\psoc creator\\4.4\\psoc creator\\import\\gnu\\arm\\5.4.
 940              		.file 3 "c:\\program files (x86)\\cypress\\psoc creator\\4.4\\psoc creator\\import\\gnu\\arm\\5.4.
 941              		.file 4 "c:\\dev\\library embedded l2c display\\u8g2\\csrc\\u8x8.h"
 942              		.file 5 "c:\\dev\\library embedded l2c display\\u8g2\\csrc\\u8g2.h"