ARM GAS  C:\Users\Abude\AppData\Local\Temp\ccScCY4D.s 			page 1


   1              		.syntax unified
   2              		.cpu cortex-m3
   3              		.fpu softvfp
   4              		.eabi_attribute 20, 1
   5              		.eabi_attribute 21, 1
   6              		.eabi_attribute 23, 3
   7              		.eabi_attribute 24, 1
   8              		.eabi_attribute 25, 1
   9              		.eabi_attribute 26, 1
  10              		.eabi_attribute 30, 1
  11              		.eabi_attribute 34, 1
  12              		.eabi_attribute 18, 4
  13              		.thumb
  14              		.syntax unified
  15              		.file	"u8g2_bitmap.c"
  16              		.text
  17              	.Ltext0:
  18              		.cfi_sections	.debug_frame
  19              		.section	.text.u8g2_SetBitmapMode,"ax",%progbits
  20              		.align	2
  21              		.global	u8g2_SetBitmapMode
  22              		.thumb
  23              		.thumb_func
  24              		.type	u8g2_SetBitmapMode, %function
  25              	u8g2_SetBitmapMode:
  26              	.LFB0:
  27              		.file 1 "..\\..\\..\\..\\..\\..\\Dev\\Library embedded l2c display\\u8g2\\csrc\\u8g2_bitmap.c"
   1:..\..\..\..\..\..\Dev\Library embedded l2c display\u8g2\csrc/u8g2_bitmap.c **** /*
   2:..\..\..\..\..\..\Dev\Library embedded l2c display\u8g2\csrc/u8g2_bitmap.c **** 
   3:..\..\..\..\..\..\Dev\Library embedded l2c display\u8g2\csrc/u8g2_bitmap.c ****   u8g2_bitmap.c
   4:..\..\..\..\..\..\Dev\Library embedded l2c display\u8g2\csrc/u8g2_bitmap.c **** 
   5:..\..\..\..\..\..\Dev\Library embedded l2c display\u8g2\csrc/u8g2_bitmap.c ****   Universal 8bit Graphics Library (https://github.com/olikraus/u8g2/)
   6:..\..\..\..\..\..\Dev\Library embedded l2c display\u8g2\csrc/u8g2_bitmap.c **** 
   7:..\..\..\..\..\..\Dev\Library embedded l2c display\u8g2\csrc/u8g2_bitmap.c ****   Copyright (c) 2016, olikraus@gmail.com
   8:..\..\..\..\..\..\Dev\Library embedded l2c display\u8g2\csrc/u8g2_bitmap.c ****   All rights reserved.
   9:..\..\..\..\..\..\Dev\Library embedded l2c display\u8g2\csrc/u8g2_bitmap.c **** 
  10:..\..\..\..\..\..\Dev\Library embedded l2c display\u8g2\csrc/u8g2_bitmap.c ****   Redistribution and use in source and binary forms, with or without modification, 
  11:..\..\..\..\..\..\Dev\Library embedded l2c display\u8g2\csrc/u8g2_bitmap.c ****   are permitted provided that the following conditions are met:
  12:..\..\..\..\..\..\Dev\Library embedded l2c display\u8g2\csrc/u8g2_bitmap.c **** 
  13:..\..\..\..\..\..\Dev\Library embedded l2c display\u8g2\csrc/u8g2_bitmap.c ****   * Redistributions of source code must retain the above copyright notice, this list 
  14:..\..\..\..\..\..\Dev\Library embedded l2c display\u8g2\csrc/u8g2_bitmap.c ****     of conditions and the following disclaimer.
  15:..\..\..\..\..\..\Dev\Library embedded l2c display\u8g2\csrc/u8g2_bitmap.c ****     
  16:..\..\..\..\..\..\Dev\Library embedded l2c display\u8g2\csrc/u8g2_bitmap.c ****   * Redistributions in binary form must reproduce the above copyright notice, this 
  17:..\..\..\..\..\..\Dev\Library embedded l2c display\u8g2\csrc/u8g2_bitmap.c ****     list of conditions and the following disclaimer in the documentation and/or other 
  18:..\..\..\..\..\..\Dev\Library embedded l2c display\u8g2\csrc/u8g2_bitmap.c ****     materials provided with the distribution.
  19:..\..\..\..\..\..\Dev\Library embedded l2c display\u8g2\csrc/u8g2_bitmap.c **** 
  20:..\..\..\..\..\..\Dev\Library embedded l2c display\u8g2\csrc/u8g2_bitmap.c ****   THIS SOFTWARE IS PROVIDED BY THE COPYRIGHT HOLDERS AND 
  21:..\..\..\..\..\..\Dev\Library embedded l2c display\u8g2\csrc/u8g2_bitmap.c ****   CONTRIBUTORS "AS IS" AND ANY EXPRESS OR IMPLIED WARRANTIES, 
  22:..\..\..\..\..\..\Dev\Library embedded l2c display\u8g2\csrc/u8g2_bitmap.c ****   INCLUDING, BUT NOT LIMITED TO, THE IMPLIED WARRANTIES OF 
  23:..\..\..\..\..\..\Dev\Library embedded l2c display\u8g2\csrc/u8g2_bitmap.c ****   MERCHANTABILITY AND FITNESS FOR A PARTICULAR PURPOSE ARE 
  24:..\..\..\..\..\..\Dev\Library embedded l2c display\u8g2\csrc/u8g2_bitmap.c ****   DISCLAIMED. IN NO EVENT SHALL THE COPYRIGHT HOLDER OR 
  25:..\..\..\..\..\..\Dev\Library embedded l2c display\u8g2\csrc/u8g2_bitmap.c ****   CONTRIBUTORS BE LIABLE FOR ANY DIRECT, INDIRECT, INCIDENTAL, 
  26:..\..\..\..\..\..\Dev\Library embedded l2c display\u8g2\csrc/u8g2_bitmap.c ****   SPECIAL, EXEMPLARY, OR CONSEQUENTIAL DAMAGES (INCLUDING, BUT 
  27:..\..\..\..\..\..\Dev\Library embedded l2c display\u8g2\csrc/u8g2_bitmap.c ****   NOT LIMITED TO, PROCUREMENT OF SUBSTITUTE GOODS OR SERVICES; 
  28:..\..\..\..\..\..\Dev\Library embedded l2c display\u8g2\csrc/u8g2_bitmap.c ****   LOSS OF USE, DATA, OR PROFITS; OR BUSINESS INTERRUPTION) HOWEVER 
  29:..\..\..\..\..\..\Dev\Library embedded l2c display\u8g2\csrc/u8g2_bitmap.c ****   CAUSED AND ON ANY THEORY OF LIABILITY, WHETHER IN CONTRACT, 
  30:..\..\..\..\..\..\Dev\Library embedded l2c display\u8g2\csrc/u8g2_bitmap.c ****   STRICT LIABILITY, OR TORT (INCLUDING NEGLIGENCE OR OTHERWISE) 
ARM GAS  C:\Users\Abude\AppData\Local\Temp\ccScCY4D.s 			page 2


  31:..\..\..\..\..\..\Dev\Library embedded l2c display\u8g2\csrc/u8g2_bitmap.c ****   ARISING IN ANY WAY OUT OF THE USE OF THIS SOFTWARE, EVEN IF 
  32:..\..\..\..\..\..\Dev\Library embedded l2c display\u8g2\csrc/u8g2_bitmap.c ****   ADVISED OF THE POSSIBILITY OF SUCH DAMAGE.  
  33:..\..\..\..\..\..\Dev\Library embedded l2c display\u8g2\csrc/u8g2_bitmap.c **** 
  34:..\..\..\..\..\..\Dev\Library embedded l2c display\u8g2\csrc/u8g2_bitmap.c **** */
  35:..\..\..\..\..\..\Dev\Library embedded l2c display\u8g2\csrc/u8g2_bitmap.c **** 
  36:..\..\..\..\..\..\Dev\Library embedded l2c display\u8g2\csrc/u8g2_bitmap.c **** #include "u8g2.h"
  37:..\..\..\..\..\..\Dev\Library embedded l2c display\u8g2\csrc/u8g2_bitmap.c **** 
  38:..\..\..\..\..\..\Dev\Library embedded l2c display\u8g2\csrc/u8g2_bitmap.c **** 
  39:..\..\..\..\..\..\Dev\Library embedded l2c display\u8g2\csrc/u8g2_bitmap.c **** void u8g2_SetBitmapMode(u8g2_t *u8g2, uint8_t is_transparent) {
  28              		.loc 1 39 0
  29              		.cfi_startproc
  30              		@ args = 0, pretend = 0, frame = 0
  31              		@ frame_needed = 0, uses_anonymous_args = 0
  32              		@ link register save eliminated.
  33              	.LVL0:
  40:..\..\..\..\..\..\Dev\Library embedded l2c display\u8g2\csrc/u8g2_bitmap.c ****   u8g2->bitmap_transparency = is_transparent;
  34              		.loc 1 40 0
  35 0000 80F89110 		strb	r1, [r0, #145]
  36 0004 7047     		bx	lr
  37              		.cfi_endproc
  38              	.LFE0:
  39              		.size	u8g2_SetBitmapMode, .-u8g2_SetBitmapMode
  40 0006 00BF     		.section	.text.u8g2_DrawHorizontalBitmap,"ax",%progbits
  41              		.align	2
  42              		.global	u8g2_DrawHorizontalBitmap
  43              		.thumb
  44              		.thumb_func
  45              		.type	u8g2_DrawHorizontalBitmap, %function
  46              	u8g2_DrawHorizontalBitmap:
  47              	.LFB1:
  41:..\..\..\..\..\..\Dev\Library embedded l2c display\u8g2\csrc/u8g2_bitmap.c **** }
  42:..\..\..\..\..\..\Dev\Library embedded l2c display\u8g2\csrc/u8g2_bitmap.c **** 
  43:..\..\..\..\..\..\Dev\Library embedded l2c display\u8g2\csrc/u8g2_bitmap.c **** /*
  44:..\..\..\..\..\..\Dev\Library embedded l2c display\u8g2\csrc/u8g2_bitmap.c ****   x,y 	Position on the display
  45:..\..\..\..\..\..\Dev\Library embedded l2c display\u8g2\csrc/u8g2_bitmap.c ****   len		Length of bitmap line in pixel. Note: This differs from u8glib which had a bytecount here.
  46:..\..\..\..\..\..\Dev\Library embedded l2c display\u8g2\csrc/u8g2_bitmap.c ****   b		Pointer to the bitmap line.
  47:..\..\..\..\..\..\Dev\Library embedded l2c display\u8g2\csrc/u8g2_bitmap.c ****   Only draw pixels which are set.
  48:..\..\..\..\..\..\Dev\Library embedded l2c display\u8g2\csrc/u8g2_bitmap.c **** */
  49:..\..\..\..\..\..\Dev\Library embedded l2c display\u8g2\csrc/u8g2_bitmap.c **** 
  50:..\..\..\..\..\..\Dev\Library embedded l2c display\u8g2\csrc/u8g2_bitmap.c **** void u8g2_DrawHorizontalBitmap(u8g2_t *u8g2, u8g2_uint_t x, u8g2_uint_t y, u8g2_uint_t len, const u
  51:..\..\..\..\..\..\Dev\Library embedded l2c display\u8g2\csrc/u8g2_bitmap.c **** {
  48              		.loc 1 51 0
  49              		.cfi_startproc
  50              		@ args = 4, pretend = 0, frame = 0
  51              		@ frame_needed = 0, uses_anonymous_args = 0
  52              	.LVL1:
  53 0000 2DE9F04F 		push	{r4, r5, r6, r7, r8, r9, r10, fp, lr}
  54              		.cfi_def_cfa_offset 36
  55              		.cfi_offset 4, -36
  56              		.cfi_offset 5, -32
  57              		.cfi_offset 6, -28
  58              		.cfi_offset 7, -24
  59              		.cfi_offset 8, -20
  60              		.cfi_offset 9, -16
  61              		.cfi_offset 10, -12
  62              		.cfi_offset 11, -8
  63              		.cfi_offset 14, -4
ARM GAS  C:\Users\Abude\AppData\Local\Temp\ccScCY4D.s 			page 3


  64 0004 83B0     		sub	sp, sp, #12
  65              		.cfi_def_cfa_offset 48
  66 0006 8046     		mov	r8, r0
  67 0008 0D46     		mov	r5, r1
  68 000a 9146     		mov	r9, r2
  69 000c 1C46     		mov	r4, r3
  70 000e 0C9F     		ldr	r7, [sp, #48]
  52:..\..\..\..\..\..\Dev\Library embedded l2c display\u8g2\csrc/u8g2_bitmap.c ****   uint8_t mask;
  53:..\..\..\..\..\..\Dev\Library embedded l2c display\u8g2\csrc/u8g2_bitmap.c ****   uint8_t color = u8g2->draw_color;
  71              		.loc 1 53 0
  72 0010 90F892A0 		ldrb	r10, [r0, #146]	@ zero_extendqisi2
  73              	.LVL2:
  54:..\..\..\..\..\..\Dev\Library embedded l2c display\u8g2\csrc/u8g2_bitmap.c ****   uint8_t ncolor = (color == 0 ? 1 : 0);
  55:..\..\..\..\..\..\Dev\Library embedded l2c display\u8g2\csrc/u8g2_bitmap.c **** 
  56:..\..\..\..\..\..\Dev\Library embedded l2c display\u8g2\csrc/u8g2_bitmap.c **** #ifdef U8G2_WITH_INTERSECTION
  57:..\..\..\..\..\..\Dev\Library embedded l2c display\u8g2\csrc/u8g2_bitmap.c ****   if ( u8g2_IsIntersection(u8g2, x, y, x+len, y+1) == 0 ) 
  74              		.loc 1 57 0
  75 0014 CB18     		adds	r3, r1, r3
  76              	.LVL3:
  77 0016 561C     		adds	r6, r2, #1
  78 0018 B6B2     		uxth	r6, r6
  79 001a 0096     		str	r6, [sp]
  80 001c 9BB2     		uxth	r3, r3
  81 001e FFF7FEFF 		bl	u8g2_IsIntersection
  82              	.LVL4:
  83 0022 58B3     		cbz	r0, .L2
  84 0024 BAFA8AFB 		clz	fp, r10
  85              	.LVL5:
  86 0028 4FEA5B1B 		lsr	fp, fp, #5
  87              	.LVL6:
  88 002c 8026     		movs	r6, #128
  89 002e 21E0     		b	.L4
  90              	.LVL7:
  91              	.L8:
  58:..\..\..\..\..\..\Dev\Library embedded l2c display\u8g2\csrc/u8g2_bitmap.c ****     return;
  59:..\..\..\..\..\..\Dev\Library embedded l2c display\u8g2\csrc/u8g2_bitmap.c **** #endif /* U8G2_WITH_INTERSECTION */
  60:..\..\..\..\..\..\Dev\Library embedded l2c display\u8g2\csrc/u8g2_bitmap.c ****   
  61:..\..\..\..\..\..\Dev\Library embedded l2c display\u8g2\csrc/u8g2_bitmap.c ****   mask = 128;
  62:..\..\..\..\..\..\Dev\Library embedded l2c display\u8g2\csrc/u8g2_bitmap.c ****   while(len > 0)
  63:..\..\..\..\..\..\Dev\Library embedded l2c display\u8g2\csrc/u8g2_bitmap.c ****   {
  64:..\..\..\..\..\..\Dev\Library embedded l2c display\u8g2\csrc/u8g2_bitmap.c ****     if ( *b & mask ) {
  92              		.loc 1 64 0
  93 0030 3B78     		ldrb	r3, [r7]	@ zero_extendqisi2
  94 0032 1E42     		tst	r6, r3
  95 0034 0AD0     		beq	.L5
  65:..\..\..\..\..\..\Dev\Library embedded l2c display\u8g2\csrc/u8g2_bitmap.c ****       u8g2->draw_color = color;
  96              		.loc 1 65 0
  97 0036 88F892A0 		strb	r10, [r8, #146]
  66:..\..\..\..\..\..\Dev\Library embedded l2c display\u8g2\csrc/u8g2_bitmap.c ****       u8g2_DrawHVLine(u8g2, x, y, 1, 0);
  98              		.loc 1 66 0
  99 003a 0023     		movs	r3, #0
 100 003c 0093     		str	r3, [sp]
 101 003e 0123     		movs	r3, #1
 102 0040 4A46     		mov	r2, r9
 103 0042 2946     		mov	r1, r5
 104 0044 4046     		mov	r0, r8
 105 0046 FFF7FEFF 		bl	u8g2_DrawHVLine
ARM GAS  C:\Users\Abude\AppData\Local\Temp\ccScCY4D.s 			page 4


 106              	.LVL8:
 107 004a 0BE0     		b	.L6
 108              	.L5:
  67:..\..\..\..\..\..\Dev\Library embedded l2c display\u8g2\csrc/u8g2_bitmap.c ****     } else if ( u8g2->bitmap_transparency == 0 ) {
 109              		.loc 1 67 0
 110 004c 98F89130 		ldrb	r3, [r8, #145]	@ zero_extendqisi2
 111 0050 43B9     		cbnz	r3, .L6
  68:..\..\..\..\..\..\Dev\Library embedded l2c display\u8g2\csrc/u8g2_bitmap.c ****       u8g2->draw_color = ncolor;
 112              		.loc 1 68 0
 113 0052 88F892B0 		strb	fp, [r8, #146]
  69:..\..\..\..\..\..\Dev\Library embedded l2c display\u8g2\csrc/u8g2_bitmap.c ****       u8g2_DrawHVLine(u8g2, x, y, 1, 0);
 114              		.loc 1 69 0
 115 0056 0093     		str	r3, [sp]
 116 0058 0123     		movs	r3, #1
 117 005a 4A46     		mov	r2, r9
 118 005c 2946     		mov	r1, r5
 119 005e 4046     		mov	r0, r8
 120 0060 FFF7FEFF 		bl	u8g2_DrawHVLine
 121              	.LVL9:
 122              	.L6:
  70:..\..\..\..\..\..\Dev\Library embedded l2c display\u8g2\csrc/u8g2_bitmap.c ****     }
  71:..\..\..\..\..\..\Dev\Library embedded l2c display\u8g2\csrc/u8g2_bitmap.c **** 
  72:..\..\..\..\..\..\Dev\Library embedded l2c display\u8g2\csrc/u8g2_bitmap.c ****     x++;
 123              		.loc 1 72 0
 124 0064 0135     		adds	r5, r5, #1
 125              	.LVL10:
 126 0066 ADB2     		uxth	r5, r5
 127              	.LVL11:
  73:..\..\..\..\..\..\Dev\Library embedded l2c display\u8g2\csrc/u8g2_bitmap.c ****     mask >>= 1;
  74:..\..\..\..\..\..\Dev\Library embedded l2c display\u8g2\csrc/u8g2_bitmap.c ****     if ( mask == 0 )
 128              		.loc 1 74 0
 129 0068 7608     		lsrs	r6, r6, #1
 130              	.LVL12:
 131 006a 01D1     		bne	.L7
 132              	.LVL13:
  75:..\..\..\..\..\..\Dev\Library embedded l2c display\u8g2\csrc/u8g2_bitmap.c ****     {
  76:..\..\..\..\..\..\Dev\Library embedded l2c display\u8g2\csrc/u8g2_bitmap.c ****       mask = 128;
  77:..\..\..\..\..\..\Dev\Library embedded l2c display\u8g2\csrc/u8g2_bitmap.c ****       b++;
 133              		.loc 1 77 0
 134 006c 0137     		adds	r7, r7, #1
 135              	.LVL14:
  76:..\..\..\..\..\..\Dev\Library embedded l2c display\u8g2\csrc/u8g2_bitmap.c ****       b++;
 136              		.loc 1 76 0
 137 006e 8026     		movs	r6, #128
 138              	.LVL15:
 139              	.L7:
  78:..\..\..\..\..\..\Dev\Library embedded l2c display\u8g2\csrc/u8g2_bitmap.c ****     }
  79:..\..\..\..\..\..\Dev\Library embedded l2c display\u8g2\csrc/u8g2_bitmap.c ****     len--;
 140              		.loc 1 79 0
 141 0070 013C     		subs	r4, r4, #1
 142              	.LVL16:
 143 0072 A4B2     		uxth	r4, r4
 144              	.LVL17:
 145              	.L4:
  62:..\..\..\..\..\..\Dev\Library embedded l2c display\u8g2\csrc/u8g2_bitmap.c ****   {
 146              		.loc 1 62 0
 147 0074 002C     		cmp	r4, #0
ARM GAS  C:\Users\Abude\AppData\Local\Temp\ccScCY4D.s 			page 5


 148 0076 DBD1     		bne	.L8
  80:..\..\..\..\..\..\Dev\Library embedded l2c display\u8g2\csrc/u8g2_bitmap.c ****   }
  81:..\..\..\..\..\..\Dev\Library embedded l2c display\u8g2\csrc/u8g2_bitmap.c ****   u8g2->draw_color = color;
 149              		.loc 1 81 0
 150 0078 88F892A0 		strb	r10, [r8, #146]
 151              	.LVL18:
 152              	.L2:
  82:..\..\..\..\..\..\Dev\Library embedded l2c display\u8g2\csrc/u8g2_bitmap.c **** }
 153              		.loc 1 82 0
 154 007c 03B0     		add	sp, sp, #12
 155              		.cfi_def_cfa_offset 36
 156              		@ sp needed
 157 007e BDE8F08F 		pop	{r4, r5, r6, r7, r8, r9, r10, fp, pc}
 158              		.cfi_endproc
 159              	.LFE1:
 160              		.size	u8g2_DrawHorizontalBitmap, .-u8g2_DrawHorizontalBitmap
 161 0082 00BF     		.section	.text.u8g2_DrawBitmap,"ax",%progbits
 162              		.align	2
 163              		.global	u8g2_DrawBitmap
 164              		.thumb
 165              		.thumb_func
 166              		.type	u8g2_DrawBitmap, %function
 167              	u8g2_DrawBitmap:
 168              	.LFB2:
  83:..\..\..\..\..\..\Dev\Library embedded l2c display\u8g2\csrc/u8g2_bitmap.c **** 
  84:..\..\..\..\..\..\Dev\Library embedded l2c display\u8g2\csrc/u8g2_bitmap.c **** 
  85:..\..\..\..\..\..\Dev\Library embedded l2c display\u8g2\csrc/u8g2_bitmap.c **** /* u8glib compatible bitmap draw function */
  86:..\..\..\..\..\..\Dev\Library embedded l2c display\u8g2\csrc/u8g2_bitmap.c **** void u8g2_DrawBitmap(u8g2_t *u8g2, u8g2_uint_t x, u8g2_uint_t y, u8g2_uint_t cnt, u8g2_uint_t h, co
  87:..\..\..\..\..\..\Dev\Library embedded l2c display\u8g2\csrc/u8g2_bitmap.c **** {
 169              		.loc 1 87 0
 170              		.cfi_startproc
 171              		@ args = 8, pretend = 0, frame = 0
 172              		@ frame_needed = 0, uses_anonymous_args = 0
 173              	.LVL19:
 174 0000 2DE9F047 		push	{r4, r5, r6, r7, r8, r9, r10, lr}
 175              		.cfi_def_cfa_offset 32
 176              		.cfi_offset 4, -32
 177              		.cfi_offset 5, -28
 178              		.cfi_offset 6, -24
 179              		.cfi_offset 7, -20
 180              		.cfi_offset 8, -16
 181              		.cfi_offset 9, -12
 182              		.cfi_offset 10, -8
 183              		.cfi_offset 14, -4
 184 0004 82B0     		sub	sp, sp, #8
 185              		.cfi_def_cfa_offset 40
 186 0006 8246     		mov	r10, r0
 187 0008 8846     		mov	r8, r1
 188 000a 1546     		mov	r5, r2
 189 000c 9946     		mov	r9, r3
 190 000e BDF82840 		ldrh	r4, [sp, #40]
 191 0012 0B9E     		ldr	r6, [sp, #44]
 192              	.LVL20:
  88:..\..\..\..\..\..\Dev\Library embedded l2c display\u8g2\csrc/u8g2_bitmap.c ****   u8g2_uint_t w;
  89:..\..\..\..\..\..\Dev\Library embedded l2c display\u8g2\csrc/u8g2_bitmap.c ****   w = cnt;
  90:..\..\..\..\..\..\Dev\Library embedded l2c display\u8g2\csrc/u8g2_bitmap.c ****   w *= 8;
 193              		.loc 1 90 0
ARM GAS  C:\Users\Abude\AppData\Local\Temp\ccScCY4D.s 			page 6


 194 0014 DF00     		lsls	r7, r3, #3
 195 0016 BFB2     		uxth	r7, r7
 196              	.LVL21:
  91:..\..\..\..\..\..\Dev\Library embedded l2c display\u8g2\csrc/u8g2_bitmap.c **** #ifdef U8G2_WITH_INTERSECTION
  92:..\..\..\..\..\..\Dev\Library embedded l2c display\u8g2\csrc/u8g2_bitmap.c ****   if ( u8g2_IsIntersection(u8g2, x, y, x+w, y+h) == 0 ) 
 197              		.loc 1 92 0
 198 0018 07EB010E 		add	lr, r7, r1
 199 001c 1319     		adds	r3, r2, r4
 200              	.LVL22:
 201 001e 9BB2     		uxth	r3, r3
 202 0020 0093     		str	r3, [sp]
 203 0022 1FFA8EF3 		uxth	r3, lr
 204 0026 FFF7FEFF 		bl	u8g2_IsIntersection
 205              	.LVL23:
 206 002a 60B9     		cbnz	r0, .L12
 207 002c 0DE0     		b	.L10
 208              	.LVL24:
 209              	.L13:
  93:..\..\..\..\..\..\Dev\Library embedded l2c display\u8g2\csrc/u8g2_bitmap.c ****     return;
  94:..\..\..\..\..\..\Dev\Library embedded l2c display\u8g2\csrc/u8g2_bitmap.c **** #endif /* U8G2_WITH_INTERSECTION */
  95:..\..\..\..\..\..\Dev\Library embedded l2c display\u8g2\csrc/u8g2_bitmap.c ****   
  96:..\..\..\..\..\..\Dev\Library embedded l2c display\u8g2\csrc/u8g2_bitmap.c ****   while( h > 0 )
  97:..\..\..\..\..\..\Dev\Library embedded l2c display\u8g2\csrc/u8g2_bitmap.c ****   {
  98:..\..\..\..\..\..\Dev\Library embedded l2c display\u8g2\csrc/u8g2_bitmap.c ****     u8g2_DrawHorizontalBitmap(u8g2, x, y, w, bitmap);
 210              		.loc 1 98 0
 211 002e 0096     		str	r6, [sp]
 212 0030 3B46     		mov	r3, r7
 213 0032 2A46     		mov	r2, r5
 214 0034 4146     		mov	r1, r8
 215 0036 5046     		mov	r0, r10
 216 0038 FFF7FEFF 		bl	u8g2_DrawHorizontalBitmap
 217              	.LVL25:
  99:..\..\..\..\..\..\Dev\Library embedded l2c display\u8g2\csrc/u8g2_bitmap.c ****     bitmap += cnt;
 218              		.loc 1 99 0
 219 003c 4E44     		add	r6, r6, r9
 220              	.LVL26:
 100:..\..\..\..\..\..\Dev\Library embedded l2c display\u8g2\csrc/u8g2_bitmap.c ****     y++;
 221              		.loc 1 100 0
 222 003e 0135     		adds	r5, r5, #1
 223              	.LVL27:
 224 0040 ADB2     		uxth	r5, r5
 225              	.LVL28:
 101:..\..\..\..\..\..\Dev\Library embedded l2c display\u8g2\csrc/u8g2_bitmap.c ****     h--;
 226              		.loc 1 101 0
 227 0042 013C     		subs	r4, r4, #1
 228              	.LVL29:
 229 0044 A4B2     		uxth	r4, r4
 230              	.LVL30:
 231              	.L12:
  96:..\..\..\..\..\..\Dev\Library embedded l2c display\u8g2\csrc/u8g2_bitmap.c ****   {
 232              		.loc 1 96 0
 233 0046 002C     		cmp	r4, #0
 234 0048 F1D1     		bne	.L13
 235              	.LVL31:
 236              	.L10:
 102:..\..\..\..\..\..\Dev\Library embedded l2c display\u8g2\csrc/u8g2_bitmap.c ****   }
 103:..\..\..\..\..\..\Dev\Library embedded l2c display\u8g2\csrc/u8g2_bitmap.c **** }
ARM GAS  C:\Users\Abude\AppData\Local\Temp\ccScCY4D.s 			page 7


 237              		.loc 1 103 0
 238 004a 02B0     		add	sp, sp, #8
 239              		.cfi_def_cfa_offset 32
 240              		@ sp needed
 241 004c BDE8F087 		pop	{r4, r5, r6, r7, r8, r9, r10, pc}
 242              		.cfi_endproc
 243              	.LFE2:
 244              		.size	u8g2_DrawBitmap, .-u8g2_DrawBitmap
 245              		.section	.text.u8g2_DrawHXBM,"ax",%progbits
 246              		.align	2
 247              		.global	u8g2_DrawHXBM
 248              		.thumb
 249              		.thumb_func
 250              		.type	u8g2_DrawHXBM, %function
 251              	u8g2_DrawHXBM:
 252              	.LFB3:
 104:..\..\..\..\..\..\Dev\Library embedded l2c display\u8g2\csrc/u8g2_bitmap.c **** 
 105:..\..\..\..\..\..\Dev\Library embedded l2c display\u8g2\csrc/u8g2_bitmap.c **** 
 106:..\..\..\..\..\..\Dev\Library embedded l2c display\u8g2\csrc/u8g2_bitmap.c **** 
 107:..\..\..\..\..\..\Dev\Library embedded l2c display\u8g2\csrc/u8g2_bitmap.c **** void u8g2_DrawHXBM(u8g2_t *u8g2, u8g2_uint_t x, u8g2_uint_t y, u8g2_uint_t len, const uint8_t *b)
 108:..\..\..\..\..\..\Dev\Library embedded l2c display\u8g2\csrc/u8g2_bitmap.c **** {
 253              		.loc 1 108 0
 254              		.cfi_startproc
 255              		@ args = 4, pretend = 0, frame = 0
 256              		@ frame_needed = 0, uses_anonymous_args = 0
 257              	.LVL32:
 258 0000 2DE9F04F 		push	{r4, r5, r6, r7, r8, r9, r10, fp, lr}
 259              		.cfi_def_cfa_offset 36
 260              		.cfi_offset 4, -36
 261              		.cfi_offset 5, -32
 262              		.cfi_offset 6, -28
 263              		.cfi_offset 7, -24
 264              		.cfi_offset 8, -20
 265              		.cfi_offset 9, -16
 266              		.cfi_offset 10, -12
 267              		.cfi_offset 11, -8
 268              		.cfi_offset 14, -4
 269 0004 83B0     		sub	sp, sp, #12
 270              		.cfi_def_cfa_offset 48
 271 0006 8046     		mov	r8, r0
 272 0008 0E46     		mov	r6, r1
 273 000a 9146     		mov	r9, r2
 274 000c 1D46     		mov	r5, r3
 275 000e 0C9F     		ldr	r7, [sp, #48]
 109:..\..\..\..\..\..\Dev\Library embedded l2c display\u8g2\csrc/u8g2_bitmap.c ****   uint8_t mask;
 110:..\..\..\..\..\..\Dev\Library embedded l2c display\u8g2\csrc/u8g2_bitmap.c ****   uint8_t color = u8g2->draw_color;
 276              		.loc 1 110 0
 277 0010 90F892A0 		ldrb	r10, [r0, #146]	@ zero_extendqisi2
 278              	.LVL33:
 111:..\..\..\..\..\..\Dev\Library embedded l2c display\u8g2\csrc/u8g2_bitmap.c ****   uint8_t ncolor = (color == 0 ? 1 : 0);
 112:..\..\..\..\..\..\Dev\Library embedded l2c display\u8g2\csrc/u8g2_bitmap.c **** #ifdef U8G2_WITH_INTERSECTION
 113:..\..\..\..\..\..\Dev\Library embedded l2c display\u8g2\csrc/u8g2_bitmap.c ****   if ( u8g2_IsIntersection(u8g2, x, y, x+len, y+1) == 0 ) 
 279              		.loc 1 113 0
 280 0014 CB18     		adds	r3, r1, r3
 281              	.LVL34:
 282 0016 541C     		adds	r4, r2, #1
 283 0018 A4B2     		uxth	r4, r4
ARM GAS  C:\Users\Abude\AppData\Local\Temp\ccScCY4D.s 			page 8


 284 001a 0094     		str	r4, [sp]
 285 001c 9BB2     		uxth	r3, r3
 286 001e FFF7FEFF 		bl	u8g2_IsIntersection
 287              	.LVL35:
 288 0022 68B3     		cbz	r0, .L15
 289 0024 BAFA8AFB 		clz	fp, r10
 290              	.LVL36:
 291 0028 4FEA5B1B 		lsr	fp, fp, #5
 292              	.LVL37:
 293 002c 0124     		movs	r4, #1
 294 002e 23E0     		b	.L17
 295              	.LVL38:
 296              	.L21:
 114:..\..\..\..\..\..\Dev\Library embedded l2c display\u8g2\csrc/u8g2_bitmap.c ****     return;
 115:..\..\..\..\..\..\Dev\Library embedded l2c display\u8g2\csrc/u8g2_bitmap.c **** #endif /* U8G2_WITH_INTERSECTION */
 116:..\..\..\..\..\..\Dev\Library embedded l2c display\u8g2\csrc/u8g2_bitmap.c ****   
 117:..\..\..\..\..\..\Dev\Library embedded l2c display\u8g2\csrc/u8g2_bitmap.c ****   mask = 1;
 118:..\..\..\..\..\..\Dev\Library embedded l2c display\u8g2\csrc/u8g2_bitmap.c ****   while(len > 0) {
 119:..\..\..\..\..\..\Dev\Library embedded l2c display\u8g2\csrc/u8g2_bitmap.c ****     if ( *b & mask ) {
 297              		.loc 1 119 0
 298 0030 3B78     		ldrb	r3, [r7]	@ zero_extendqisi2
 299 0032 1C42     		tst	r4, r3
 300 0034 0AD0     		beq	.L18
 120:..\..\..\..\..\..\Dev\Library embedded l2c display\u8g2\csrc/u8g2_bitmap.c ****       u8g2->draw_color = color;
 301              		.loc 1 120 0
 302 0036 88F892A0 		strb	r10, [r8, #146]
 121:..\..\..\..\..\..\Dev\Library embedded l2c display\u8g2\csrc/u8g2_bitmap.c ****       u8g2_DrawHVLine(u8g2, x, y, 1, 0);
 303              		.loc 1 121 0
 304 003a 0023     		movs	r3, #0
 305 003c 0093     		str	r3, [sp]
 306 003e 0123     		movs	r3, #1
 307 0040 4A46     		mov	r2, r9
 308 0042 3146     		mov	r1, r6
 309 0044 4046     		mov	r0, r8
 310 0046 FFF7FEFF 		bl	u8g2_DrawHVLine
 311              	.LVL39:
 312 004a 0BE0     		b	.L19
 313              	.L18:
 122:..\..\..\..\..\..\Dev\Library embedded l2c display\u8g2\csrc/u8g2_bitmap.c ****     } else if ( u8g2->bitmap_transparency == 0 ) {
 314              		.loc 1 122 0
 315 004c 98F89130 		ldrb	r3, [r8, #145]	@ zero_extendqisi2
 316 0050 43B9     		cbnz	r3, .L19
 123:..\..\..\..\..\..\Dev\Library embedded l2c display\u8g2\csrc/u8g2_bitmap.c ****       u8g2->draw_color = ncolor;
 317              		.loc 1 123 0
 318 0052 88F892B0 		strb	fp, [r8, #146]
 124:..\..\..\..\..\..\Dev\Library embedded l2c display\u8g2\csrc/u8g2_bitmap.c ****       u8g2_DrawHVLine(u8g2, x, y, 1, 0);
 319              		.loc 1 124 0
 320 0056 0093     		str	r3, [sp]
 321 0058 0123     		movs	r3, #1
 322 005a 4A46     		mov	r2, r9
 323 005c 3146     		mov	r1, r6
 324 005e 4046     		mov	r0, r8
 325 0060 FFF7FEFF 		bl	u8g2_DrawHVLine
 326              	.LVL40:
 327              	.L19:
 125:..\..\..\..\..\..\Dev\Library embedded l2c display\u8g2\csrc/u8g2_bitmap.c ****     }
 126:..\..\..\..\..\..\Dev\Library embedded l2c display\u8g2\csrc/u8g2_bitmap.c ****     x++;
ARM GAS  C:\Users\Abude\AppData\Local\Temp\ccScCY4D.s 			page 9


 328              		.loc 1 126 0
 329 0064 0136     		adds	r6, r6, #1
 330              	.LVL41:
 331 0066 B6B2     		uxth	r6, r6
 332              	.LVL42:
 127:..\..\..\..\..\..\Dev\Library embedded l2c display\u8g2\csrc/u8g2_bitmap.c ****     mask <<= 1;
 333              		.loc 1 127 0
 334 0068 6400     		lsls	r4, r4, #1
 335              	.LVL43:
 128:..\..\..\..\..\..\Dev\Library embedded l2c display\u8g2\csrc/u8g2_bitmap.c ****     if ( mask == 0 )
 336              		.loc 1 128 0
 337 006a 14F0FF04 		ands	r4, r4, #255
 338              	.LVL44:
 339 006e 01D1     		bne	.L20
 340              	.LVL45:
 129:..\..\..\..\..\..\Dev\Library embedded l2c display\u8g2\csrc/u8g2_bitmap.c ****     {
 130:..\..\..\..\..\..\Dev\Library embedded l2c display\u8g2\csrc/u8g2_bitmap.c ****       mask = 1;
 131:..\..\..\..\..\..\Dev\Library embedded l2c display\u8g2\csrc/u8g2_bitmap.c ****       b++;
 341              		.loc 1 131 0
 342 0070 0137     		adds	r7, r7, #1
 343              	.LVL46:
 130:..\..\..\..\..\..\Dev\Library embedded l2c display\u8g2\csrc/u8g2_bitmap.c ****       b++;
 344              		.loc 1 130 0
 345 0072 0124     		movs	r4, #1
 346              	.LVL47:
 347              	.L20:
 132:..\..\..\..\..\..\Dev\Library embedded l2c display\u8g2\csrc/u8g2_bitmap.c ****     }
 133:..\..\..\..\..\..\Dev\Library embedded l2c display\u8g2\csrc/u8g2_bitmap.c ****     len--;
 348              		.loc 1 133 0
 349 0074 013D     		subs	r5, r5, #1
 350              	.LVL48:
 351 0076 ADB2     		uxth	r5, r5
 352              	.LVL49:
 353              	.L17:
 118:..\..\..\..\..\..\Dev\Library embedded l2c display\u8g2\csrc/u8g2_bitmap.c ****     if ( *b & mask ) {
 354              		.loc 1 118 0
 355 0078 002D     		cmp	r5, #0
 356 007a D9D1     		bne	.L21
 134:..\..\..\..\..\..\Dev\Library embedded l2c display\u8g2\csrc/u8g2_bitmap.c ****   }
 135:..\..\..\..\..\..\Dev\Library embedded l2c display\u8g2\csrc/u8g2_bitmap.c ****   u8g2->draw_color = color;
 357              		.loc 1 135 0
 358 007c 88F892A0 		strb	r10, [r8, #146]
 359              	.LVL50:
 360              	.L15:
 136:..\..\..\..\..\..\Dev\Library embedded l2c display\u8g2\csrc/u8g2_bitmap.c **** }
 361              		.loc 1 136 0
 362 0080 03B0     		add	sp, sp, #12
 363              		.cfi_def_cfa_offset 36
 364              		@ sp needed
 365 0082 BDE8F08F 		pop	{r4, r5, r6, r7, r8, r9, r10, fp, pc}
 366              		.cfi_endproc
 367              	.LFE3:
 368              		.size	u8g2_DrawHXBM, .-u8g2_DrawHXBM
 369 0086 00BF     		.section	.text.u8g2_DrawXBM,"ax",%progbits
 370              		.align	2
 371              		.global	u8g2_DrawXBM
 372              		.thumb
ARM GAS  C:\Users\Abude\AppData\Local\Temp\ccScCY4D.s 			page 10


 373              		.thumb_func
 374              		.type	u8g2_DrawXBM, %function
 375              	u8g2_DrawXBM:
 376              	.LFB4:
 137:..\..\..\..\..\..\Dev\Library embedded l2c display\u8g2\csrc/u8g2_bitmap.c **** 
 138:..\..\..\..\..\..\Dev\Library embedded l2c display\u8g2\csrc/u8g2_bitmap.c **** 
 139:..\..\..\..\..\..\Dev\Library embedded l2c display\u8g2\csrc/u8g2_bitmap.c **** void u8g2_DrawXBM(u8g2_t *u8g2, u8g2_uint_t x, u8g2_uint_t y, u8g2_uint_t w, u8g2_uint_t h, const u
 140:..\..\..\..\..\..\Dev\Library embedded l2c display\u8g2\csrc/u8g2_bitmap.c **** {
 377              		.loc 1 140 0
 378              		.cfi_startproc
 379              		@ args = 8, pretend = 0, frame = 0
 380              		@ frame_needed = 0, uses_anonymous_args = 0
 381              	.LVL51:
 382 0000 2DE9F047 		push	{r4, r5, r6, r7, r8, r9, r10, lr}
 383              		.cfi_def_cfa_offset 32
 384              		.cfi_offset 4, -32
 385              		.cfi_offset 5, -28
 386              		.cfi_offset 6, -24
 387              		.cfi_offset 7, -20
 388              		.cfi_offset 8, -16
 389              		.cfi_offset 9, -12
 390              		.cfi_offset 10, -8
 391              		.cfi_offset 14, -4
 392 0004 82B0     		sub	sp, sp, #8
 393              		.cfi_def_cfa_offset 40
 394 0006 8246     		mov	r10, r0
 395 0008 8946     		mov	r9, r1
 396 000a 1546     		mov	r5, r2
 397 000c 1F46     		mov	r7, r3
 398 000e BDF82840 		ldrh	r4, [sp, #40]
 399 0012 0B9E     		ldr	r6, [sp, #44]
 400              	.LVL52:
 141:..\..\..\..\..\..\Dev\Library embedded l2c display\u8g2\csrc/u8g2_bitmap.c ****   u8g2_uint_t blen;
 142:..\..\..\..\..\..\Dev\Library embedded l2c display\u8g2\csrc/u8g2_bitmap.c ****   blen = w;
 143:..\..\..\..\..\..\Dev\Library embedded l2c display\u8g2\csrc/u8g2_bitmap.c ****   blen += 7;
 401              		.loc 1 143 0
 402 0014 03F10708 		add	r8, r3, #7
 403              	.LVL53:
 144:..\..\..\..\..\..\Dev\Library embedded l2c display\u8g2\csrc/u8g2_bitmap.c ****   blen >>= 3;
 404              		.loc 1 144 0
 405 0018 C8F3CC08 		ubfx	r8, r8, #3, #13
 406              	.LVL54:
 145:..\..\..\..\..\..\Dev\Library embedded l2c display\u8g2\csrc/u8g2_bitmap.c **** #ifdef U8G2_WITH_INTERSECTION
 146:..\..\..\..\..\..\Dev\Library embedded l2c display\u8g2\csrc/u8g2_bitmap.c ****   if ( u8g2_IsIntersection(u8g2, x, y, x+w, y+h) == 0 ) 
 407              		.loc 1 146 0
 408 001c 03EB010E 		add	lr, r3, r1
 409 0020 1319     		adds	r3, r2, r4
 410              	.LVL55:
 411 0022 9BB2     		uxth	r3, r3
 412 0024 0093     		str	r3, [sp]
 413 0026 1FFA8EF3 		uxth	r3, lr
 414 002a FFF7FEFF 		bl	u8g2_IsIntersection
 415              	.LVL56:
 416 002e 60B9     		cbnz	r0, .L25
 417 0030 0DE0     		b	.L23
 418              	.LVL57:
 419              	.L26:
ARM GAS  C:\Users\Abude\AppData\Local\Temp\ccScCY4D.s 			page 11


 147:..\..\..\..\..\..\Dev\Library embedded l2c display\u8g2\csrc/u8g2_bitmap.c ****     return;
 148:..\..\..\..\..\..\Dev\Library embedded l2c display\u8g2\csrc/u8g2_bitmap.c **** #endif /* U8G2_WITH_INTERSECTION */
 149:..\..\..\..\..\..\Dev\Library embedded l2c display\u8g2\csrc/u8g2_bitmap.c ****   
 150:..\..\..\..\..\..\Dev\Library embedded l2c display\u8g2\csrc/u8g2_bitmap.c ****   while( h > 0 )
 151:..\..\..\..\..\..\Dev\Library embedded l2c display\u8g2\csrc/u8g2_bitmap.c ****   {
 152:..\..\..\..\..\..\Dev\Library embedded l2c display\u8g2\csrc/u8g2_bitmap.c ****     u8g2_DrawHXBM(u8g2, x, y, w, bitmap);
 420              		.loc 1 152 0
 421 0032 0096     		str	r6, [sp]
 422 0034 3B46     		mov	r3, r7
 423 0036 2A46     		mov	r2, r5
 424 0038 4946     		mov	r1, r9
 425 003a 5046     		mov	r0, r10
 426 003c FFF7FEFF 		bl	u8g2_DrawHXBM
 427              	.LVL58:
 153:..\..\..\..\..\..\Dev\Library embedded l2c display\u8g2\csrc/u8g2_bitmap.c ****     bitmap += blen;
 428              		.loc 1 153 0
 429 0040 4644     		add	r6, r6, r8
 430              	.LVL59:
 154:..\..\..\..\..\..\Dev\Library embedded l2c display\u8g2\csrc/u8g2_bitmap.c ****     y++;
 431              		.loc 1 154 0
 432 0042 0135     		adds	r5, r5, #1
 433              	.LVL60:
 434 0044 ADB2     		uxth	r5, r5
 435              	.LVL61:
 155:..\..\..\..\..\..\Dev\Library embedded l2c display\u8g2\csrc/u8g2_bitmap.c ****     h--;
 436              		.loc 1 155 0
 437 0046 013C     		subs	r4, r4, #1
 438              	.LVL62:
 439 0048 A4B2     		uxth	r4, r4
 440              	.LVL63:
 441              	.L25:
 150:..\..\..\..\..\..\Dev\Library embedded l2c display\u8g2\csrc/u8g2_bitmap.c ****   {
 442              		.loc 1 150 0
 443 004a 002C     		cmp	r4, #0
 444 004c F1D1     		bne	.L26
 445              	.LVL64:
 446              	.L23:
 156:..\..\..\..\..\..\Dev\Library embedded l2c display\u8g2\csrc/u8g2_bitmap.c ****   }
 157:..\..\..\..\..\..\Dev\Library embedded l2c display\u8g2\csrc/u8g2_bitmap.c **** }
 447              		.loc 1 157 0
 448 004e 02B0     		add	sp, sp, #8
 449              		.cfi_def_cfa_offset 32
 450              		@ sp needed
 451 0050 BDE8F087 		pop	{r4, r5, r6, r7, r8, r9, r10, pc}
 452              		.cfi_endproc
 453              	.LFE4:
 454              		.size	u8g2_DrawXBM, .-u8g2_DrawXBM
 455              		.section	.text.u8g2_DrawHXBMP,"ax",%progbits
 456              		.align	2
 457              		.global	u8g2_DrawHXBMP
 458              		.thumb
 459              		.thumb_func
 460              		.type	u8g2_DrawHXBMP, %function
 461              	u8g2_DrawHXBMP:
 462              	.LFB5:
 158:..\..\..\..\..\..\Dev\Library embedded l2c display\u8g2\csrc/u8g2_bitmap.c **** 
 159:..\..\..\..\..\..\Dev\Library embedded l2c display\u8g2\csrc/u8g2_bitmap.c **** 
ARM GAS  C:\Users\Abude\AppData\Local\Temp\ccScCY4D.s 			page 12


 160:..\..\..\..\..\..\Dev\Library embedded l2c display\u8g2\csrc/u8g2_bitmap.c **** 
 161:..\..\..\..\..\..\Dev\Library embedded l2c display\u8g2\csrc/u8g2_bitmap.c **** 
 162:..\..\..\..\..\..\Dev\Library embedded l2c display\u8g2\csrc/u8g2_bitmap.c **** 
 163:..\..\..\..\..\..\Dev\Library embedded l2c display\u8g2\csrc/u8g2_bitmap.c **** 
 164:..\..\..\..\..\..\Dev\Library embedded l2c display\u8g2\csrc/u8g2_bitmap.c **** void u8g2_DrawHXBMP(u8g2_t *u8g2, u8g2_uint_t x, u8g2_uint_t y, u8g2_uint_t len, const uint8_t *b)
 165:..\..\..\..\..\..\Dev\Library embedded l2c display\u8g2\csrc/u8g2_bitmap.c **** {
 463              		.loc 1 165 0
 464              		.cfi_startproc
 465              		@ args = 4, pretend = 0, frame = 0
 466              		@ frame_needed = 0, uses_anonymous_args = 0
 467              	.LVL65:
 468 0000 2DE9F04F 		push	{r4, r5, r6, r7, r8, r9, r10, fp, lr}
 469              		.cfi_def_cfa_offset 36
 470              		.cfi_offset 4, -36
 471              		.cfi_offset 5, -32
 472              		.cfi_offset 6, -28
 473              		.cfi_offset 7, -24
 474              		.cfi_offset 8, -20
 475              		.cfi_offset 9, -16
 476              		.cfi_offset 10, -12
 477              		.cfi_offset 11, -8
 478              		.cfi_offset 14, -4
 479 0004 83B0     		sub	sp, sp, #12
 480              		.cfi_def_cfa_offset 48
 481 0006 8046     		mov	r8, r0
 482 0008 0E46     		mov	r6, r1
 483 000a 9146     		mov	r9, r2
 484 000c 1D46     		mov	r5, r3
 485 000e 0C9F     		ldr	r7, [sp, #48]
 166:..\..\..\..\..\..\Dev\Library embedded l2c display\u8g2\csrc/u8g2_bitmap.c ****   uint8_t mask;
 167:..\..\..\..\..\..\Dev\Library embedded l2c display\u8g2\csrc/u8g2_bitmap.c ****   uint8_t color = u8g2->draw_color;
 486              		.loc 1 167 0
 487 0010 90F892A0 		ldrb	r10, [r0, #146]	@ zero_extendqisi2
 488              	.LVL66:
 168:..\..\..\..\..\..\Dev\Library embedded l2c display\u8g2\csrc/u8g2_bitmap.c ****   uint8_t ncolor = (color == 0 ? 1 : 0);
 169:..\..\..\..\..\..\Dev\Library embedded l2c display\u8g2\csrc/u8g2_bitmap.c **** #ifdef U8G2_WITH_INTERSECTION
 170:..\..\..\..\..\..\Dev\Library embedded l2c display\u8g2\csrc/u8g2_bitmap.c ****   if ( u8g2_IsIntersection(u8g2, x, y, x+len, y+1) == 0 ) 
 489              		.loc 1 170 0
 490 0014 CB18     		adds	r3, r1, r3
 491              	.LVL67:
 492 0016 541C     		adds	r4, r2, #1
 493 0018 A4B2     		uxth	r4, r4
 494 001a 0094     		str	r4, [sp]
 495 001c 9BB2     		uxth	r3, r3
 496 001e FFF7FEFF 		bl	u8g2_IsIntersection
 497              	.LVL68:
 498 0022 68B3     		cbz	r0, .L28
 499 0024 BAFA8AFB 		clz	fp, r10
 500              	.LVL69:
 501 0028 4FEA5B1B 		lsr	fp, fp, #5
 502              	.LVL70:
 503 002c 0124     		movs	r4, #1
 504 002e 23E0     		b	.L30
 505              	.LVL71:
 506              	.L34:
 171:..\..\..\..\..\..\Dev\Library embedded l2c display\u8g2\csrc/u8g2_bitmap.c ****     return;
 172:..\..\..\..\..\..\Dev\Library embedded l2c display\u8g2\csrc/u8g2_bitmap.c **** #endif /* U8G2_WITH_INTERSECTION */
ARM GAS  C:\Users\Abude\AppData\Local\Temp\ccScCY4D.s 			page 13


 173:..\..\..\..\..\..\Dev\Library embedded l2c display\u8g2\csrc/u8g2_bitmap.c ****   
 174:..\..\..\..\..\..\Dev\Library embedded l2c display\u8g2\csrc/u8g2_bitmap.c ****   mask = 1;
 175:..\..\..\..\..\..\Dev\Library embedded l2c display\u8g2\csrc/u8g2_bitmap.c ****   while(len > 0)
 176:..\..\..\..\..\..\Dev\Library embedded l2c display\u8g2\csrc/u8g2_bitmap.c ****   {
 177:..\..\..\..\..\..\Dev\Library embedded l2c display\u8g2\csrc/u8g2_bitmap.c ****     if( u8x8_pgm_read(b) & mask ) {
 507              		.loc 1 177 0
 508 0030 3B78     		ldrb	r3, [r7]	@ zero_extendqisi2
 509 0032 1C42     		tst	r4, r3
 510 0034 0AD0     		beq	.L31
 178:..\..\..\..\..\..\Dev\Library embedded l2c display\u8g2\csrc/u8g2_bitmap.c ****       u8g2->draw_color = color;
 511              		.loc 1 178 0
 512 0036 88F892A0 		strb	r10, [r8, #146]
 179:..\..\..\..\..\..\Dev\Library embedded l2c display\u8g2\csrc/u8g2_bitmap.c ****       u8g2_DrawHVLine(u8g2, x, y, 1, 0);
 513              		.loc 1 179 0
 514 003a 0023     		movs	r3, #0
 515 003c 0093     		str	r3, [sp]
 516 003e 0123     		movs	r3, #1
 517 0040 4A46     		mov	r2, r9
 518 0042 3146     		mov	r1, r6
 519 0044 4046     		mov	r0, r8
 520 0046 FFF7FEFF 		bl	u8g2_DrawHVLine
 521              	.LVL72:
 522 004a 0BE0     		b	.L32
 523              	.L31:
 180:..\..\..\..\..\..\Dev\Library embedded l2c display\u8g2\csrc/u8g2_bitmap.c ****     } else if( u8g2->bitmap_transparency == 0 ) {
 524              		.loc 1 180 0
 525 004c 98F89130 		ldrb	r3, [r8, #145]	@ zero_extendqisi2
 526 0050 43B9     		cbnz	r3, .L32
 181:..\..\..\..\..\..\Dev\Library embedded l2c display\u8g2\csrc/u8g2_bitmap.c ****       u8g2->draw_color = ncolor;
 527              		.loc 1 181 0
 528 0052 88F892B0 		strb	fp, [r8, #146]
 182:..\..\..\..\..\..\Dev\Library embedded l2c display\u8g2\csrc/u8g2_bitmap.c ****       u8g2_DrawHVLine(u8g2, x, y, 1, 0);
 529              		.loc 1 182 0
 530 0056 0093     		str	r3, [sp]
 531 0058 0123     		movs	r3, #1
 532 005a 4A46     		mov	r2, r9
 533 005c 3146     		mov	r1, r6
 534 005e 4046     		mov	r0, r8
 535 0060 FFF7FEFF 		bl	u8g2_DrawHVLine
 536              	.LVL73:
 537              	.L32:
 183:..\..\..\..\..\..\Dev\Library embedded l2c display\u8g2\csrc/u8g2_bitmap.c ****     }
 184:..\..\..\..\..\..\Dev\Library embedded l2c display\u8g2\csrc/u8g2_bitmap.c ****    
 185:..\..\..\..\..\..\Dev\Library embedded l2c display\u8g2\csrc/u8g2_bitmap.c ****     x++;
 538              		.loc 1 185 0
 539 0064 0136     		adds	r6, r6, #1
 540              	.LVL74:
 541 0066 B6B2     		uxth	r6, r6
 542              	.LVL75:
 186:..\..\..\..\..\..\Dev\Library embedded l2c display\u8g2\csrc/u8g2_bitmap.c ****     mask <<= 1;
 543              		.loc 1 186 0
 544 0068 6400     		lsls	r4, r4, #1
 545              	.LVL76:
 187:..\..\..\..\..\..\Dev\Library embedded l2c display\u8g2\csrc/u8g2_bitmap.c ****     if ( mask == 0 )
 546              		.loc 1 187 0
 547 006a 14F0FF04 		ands	r4, r4, #255
 548              	.LVL77:
ARM GAS  C:\Users\Abude\AppData\Local\Temp\ccScCY4D.s 			page 14


 549 006e 01D1     		bne	.L33
 550              	.LVL78:
 188:..\..\..\..\..\..\Dev\Library embedded l2c display\u8g2\csrc/u8g2_bitmap.c ****     {
 189:..\..\..\..\..\..\Dev\Library embedded l2c display\u8g2\csrc/u8g2_bitmap.c ****       mask = 1;
 190:..\..\..\..\..\..\Dev\Library embedded l2c display\u8g2\csrc/u8g2_bitmap.c ****       b++;
 551              		.loc 1 190 0
 552 0070 0137     		adds	r7, r7, #1
 553              	.LVL79:
 189:..\..\..\..\..\..\Dev\Library embedded l2c display\u8g2\csrc/u8g2_bitmap.c ****       b++;
 554              		.loc 1 189 0
 555 0072 0124     		movs	r4, #1
 556              	.LVL80:
 557              	.L33:
 191:..\..\..\..\..\..\Dev\Library embedded l2c display\u8g2\csrc/u8g2_bitmap.c ****     }
 192:..\..\..\..\..\..\Dev\Library embedded l2c display\u8g2\csrc/u8g2_bitmap.c ****     len--;
 558              		.loc 1 192 0
 559 0074 013D     		subs	r5, r5, #1
 560              	.LVL81:
 561 0076 ADB2     		uxth	r5, r5
 562              	.LVL82:
 563              	.L30:
 175:..\..\..\..\..\..\Dev\Library embedded l2c display\u8g2\csrc/u8g2_bitmap.c ****   {
 564              		.loc 1 175 0
 565 0078 002D     		cmp	r5, #0
 566 007a D9D1     		bne	.L34
 193:..\..\..\..\..\..\Dev\Library embedded l2c display\u8g2\csrc/u8g2_bitmap.c ****   }
 194:..\..\..\..\..\..\Dev\Library embedded l2c display\u8g2\csrc/u8g2_bitmap.c ****   u8g2->draw_color = color;
 567              		.loc 1 194 0
 568 007c 88F892A0 		strb	r10, [r8, #146]
 569              	.LVL83:
 570              	.L28:
 195:..\..\..\..\..\..\Dev\Library embedded l2c display\u8g2\csrc/u8g2_bitmap.c **** }
 571              		.loc 1 195 0
 572 0080 03B0     		add	sp, sp, #12
 573              		.cfi_def_cfa_offset 36
 574              		@ sp needed
 575 0082 BDE8F08F 		pop	{r4, r5, r6, r7, r8, r9, r10, fp, pc}
 576              		.cfi_endproc
 577              	.LFE5:
 578              		.size	u8g2_DrawHXBMP, .-u8g2_DrawHXBMP
 579 0086 00BF     		.section	.text.u8g2_DrawXBMP,"ax",%progbits
 580              		.align	2
 581              		.global	u8g2_DrawXBMP
 582              		.thumb
 583              		.thumb_func
 584              		.type	u8g2_DrawXBMP, %function
 585              	u8g2_DrawXBMP:
 586              	.LFB6:
 196:..\..\..\..\..\..\Dev\Library embedded l2c display\u8g2\csrc/u8g2_bitmap.c **** 
 197:..\..\..\..\..\..\Dev\Library embedded l2c display\u8g2\csrc/u8g2_bitmap.c **** 
 198:..\..\..\..\..\..\Dev\Library embedded l2c display\u8g2\csrc/u8g2_bitmap.c **** void u8g2_DrawXBMP(u8g2_t *u8g2, u8g2_uint_t x, u8g2_uint_t y, u8g2_uint_t w, u8g2_uint_t h, const 
 199:..\..\..\..\..\..\Dev\Library embedded l2c display\u8g2\csrc/u8g2_bitmap.c **** {
 587              		.loc 1 199 0
 588              		.cfi_startproc
 589              		@ args = 8, pretend = 0, frame = 0
 590              		@ frame_needed = 0, uses_anonymous_args = 0
 591              	.LVL84:
ARM GAS  C:\Users\Abude\AppData\Local\Temp\ccScCY4D.s 			page 15


 592 0000 2DE9F047 		push	{r4, r5, r6, r7, r8, r9, r10, lr}
 593              		.cfi_def_cfa_offset 32
 594              		.cfi_offset 4, -32
 595              		.cfi_offset 5, -28
 596              		.cfi_offset 6, -24
 597              		.cfi_offset 7, -20
 598              		.cfi_offset 8, -16
 599              		.cfi_offset 9, -12
 600              		.cfi_offset 10, -8
 601              		.cfi_offset 14, -4
 602 0004 82B0     		sub	sp, sp, #8
 603              		.cfi_def_cfa_offset 40
 604 0006 8246     		mov	r10, r0
 605 0008 8946     		mov	r9, r1
 606 000a 1546     		mov	r5, r2
 607 000c 1F46     		mov	r7, r3
 608 000e BDF82840 		ldrh	r4, [sp, #40]
 609 0012 0B9E     		ldr	r6, [sp, #44]
 610              	.LVL85:
 200:..\..\..\..\..\..\Dev\Library embedded l2c display\u8g2\csrc/u8g2_bitmap.c ****   u8g2_uint_t blen;
 201:..\..\..\..\..\..\Dev\Library embedded l2c display\u8g2\csrc/u8g2_bitmap.c ****   blen = w;
 202:..\..\..\..\..\..\Dev\Library embedded l2c display\u8g2\csrc/u8g2_bitmap.c ****   blen += 7;
 611              		.loc 1 202 0
 612 0014 03F10708 		add	r8, r3, #7
 613              	.LVL86:
 203:..\..\..\..\..\..\Dev\Library embedded l2c display\u8g2\csrc/u8g2_bitmap.c ****   blen >>= 3;
 614              		.loc 1 203 0
 615 0018 C8F3CC08 		ubfx	r8, r8, #3, #13
 616              	.LVL87:
 204:..\..\..\..\..\..\Dev\Library embedded l2c display\u8g2\csrc/u8g2_bitmap.c **** #ifdef U8G2_WITH_INTERSECTION
 205:..\..\..\..\..\..\Dev\Library embedded l2c display\u8g2\csrc/u8g2_bitmap.c ****   if ( u8g2_IsIntersection(u8g2, x, y, x+w, y+h) == 0 ) 
 617              		.loc 1 205 0
 618 001c 03EB010E 		add	lr, r3, r1
 619 0020 1319     		adds	r3, r2, r4
 620              	.LVL88:
 621 0022 9BB2     		uxth	r3, r3
 622 0024 0093     		str	r3, [sp]
 623 0026 1FFA8EF3 		uxth	r3, lr
 624 002a FFF7FEFF 		bl	u8g2_IsIntersection
 625              	.LVL89:
 626 002e 60B9     		cbnz	r0, .L38
 627 0030 0DE0     		b	.L36
 628              	.LVL90:
 629              	.L39:
 206:..\..\..\..\..\..\Dev\Library embedded l2c display\u8g2\csrc/u8g2_bitmap.c ****     return;
 207:..\..\..\..\..\..\Dev\Library embedded l2c display\u8g2\csrc/u8g2_bitmap.c **** #endif /* U8G2_WITH_INTERSECTION */
 208:..\..\..\..\..\..\Dev\Library embedded l2c display\u8g2\csrc/u8g2_bitmap.c ****   
 209:..\..\..\..\..\..\Dev\Library embedded l2c display\u8g2\csrc/u8g2_bitmap.c ****   while( h > 0 )
 210:..\..\..\..\..\..\Dev\Library embedded l2c display\u8g2\csrc/u8g2_bitmap.c ****   {
 211:..\..\..\..\..\..\Dev\Library embedded l2c display\u8g2\csrc/u8g2_bitmap.c ****     u8g2_DrawHXBMP(u8g2, x, y, w, bitmap);
 630              		.loc 1 211 0
 631 0032 0096     		str	r6, [sp]
 632 0034 3B46     		mov	r3, r7
 633 0036 2A46     		mov	r2, r5
 634 0038 4946     		mov	r1, r9
 635 003a 5046     		mov	r0, r10
 636 003c FFF7FEFF 		bl	u8g2_DrawHXBMP
ARM GAS  C:\Users\Abude\AppData\Local\Temp\ccScCY4D.s 			page 16


 637              	.LVL91:
 212:..\..\..\..\..\..\Dev\Library embedded l2c display\u8g2\csrc/u8g2_bitmap.c ****     bitmap += blen;
 638              		.loc 1 212 0
 639 0040 4644     		add	r6, r6, r8
 640              	.LVL92:
 213:..\..\..\..\..\..\Dev\Library embedded l2c display\u8g2\csrc/u8g2_bitmap.c ****     y++;
 641              		.loc 1 213 0
 642 0042 0135     		adds	r5, r5, #1
 643              	.LVL93:
 644 0044 ADB2     		uxth	r5, r5
 645              	.LVL94:
 214:..\..\..\..\..\..\Dev\Library embedded l2c display\u8g2\csrc/u8g2_bitmap.c ****     h--;
 646              		.loc 1 214 0
 647 0046 013C     		subs	r4, r4, #1
 648              	.LVL95:
 649 0048 A4B2     		uxth	r4, r4
 650              	.LVL96:
 651              	.L38:
 209:..\..\..\..\..\..\Dev\Library embedded l2c display\u8g2\csrc/u8g2_bitmap.c ****   {
 652              		.loc 1 209 0
 653 004a 002C     		cmp	r4, #0
 654 004c F1D1     		bne	.L39
 655              	.LVL97:
 656              	.L36:
 215:..\..\..\..\..\..\Dev\Library embedded l2c display\u8g2\csrc/u8g2_bitmap.c ****   }
 216:..\..\..\..\..\..\Dev\Library embedded l2c display\u8g2\csrc/u8g2_bitmap.c **** }
 657              		.loc 1 216 0
 658 004e 02B0     		add	sp, sp, #8
 659              		.cfi_def_cfa_offset 32
 660              		@ sp needed
 661 0050 BDE8F087 		pop	{r4, r5, r6, r7, r8, r9, r10, pc}
 662              		.cfi_endproc
 663              	.LFE6:
 664              		.size	u8g2_DrawXBMP, .-u8g2_DrawXBMP
 665              		.text
 666              	.Letext0:
 667              		.file 2 "c:\\program files (x86)\\cypress\\psoc creator\\4.4\\psoc creator\\import\\gnu\\arm\\5.4.
 668              		.file 3 "c:\\program files (x86)\\cypress\\psoc creator\\4.4\\psoc creator\\import\\gnu\\arm\\5.4.
 669              		.file 4 "c:\\dev\\library embedded l2c display\\u8g2\\csrc\\u8x8.h"
 670              		.file 5 "c:\\dev\\library embedded l2c display\\u8g2\\csrc\\u8g2.h"