ARM GAS  C:\Users\Abude\AppData\Local\Temp\ccpbNMoH.s 			page 1


   1              		.syntax unified
   2              		.cpu cortex-m3
   3              		.fpu softvfp
   4              		.eabi_attribute 20, 1
   5              		.eabi_attribute 21, 1
   6              		.eabi_attribute 23, 3
   7              		.eabi_attribute 24, 1
   8              		.eabi_attribute 25, 1
   9              		.eabi_attribute 26, 1
  10              		.eabi_attribute 30, 1
  11              		.eabi_attribute 34, 1
  12              		.eabi_attribute 18, 4
  13              		.thumb
  14              		.syntax unified
  15              		.file	"u8g2_hvline.c"
  16              		.text
  17              	.Ltext0:
  18              		.cfi_sections	.debug_frame
  19              		.section	.text.u8g2_clip_intersection2,"ax",%progbits
  20              		.align	2
  21              		.thumb
  22              		.thumb_func
  23              		.type	u8g2_clip_intersection2, %function
  24              	u8g2_clip_intersection2:
  25              	.LFB0:
  26              		.file 1 "..\\..\\..\\..\\..\\..\\Dev\\Library embedded l2c display\\u8g2\\csrc\\u8g2_hvline.c"
   1:..\..\..\..\..\..\Dev\Library embedded l2c display\u8g2\csrc/u8g2_hvline.c **** /*
   2:..\..\..\..\..\..\Dev\Library embedded l2c display\u8g2\csrc/u8g2_hvline.c **** 
   3:..\..\..\..\..\..\Dev\Library embedded l2c display\u8g2\csrc/u8g2_hvline.c ****   u8g2_hvline.c
   4:..\..\..\..\..\..\Dev\Library embedded l2c display\u8g2\csrc/u8g2_hvline.c **** 
   5:..\..\..\..\..\..\Dev\Library embedded l2c display\u8g2\csrc/u8g2_hvline.c ****   Universal 8bit Graphics Library (https://github.com/olikraus/u8g2/)
   6:..\..\..\..\..\..\Dev\Library embedded l2c display\u8g2\csrc/u8g2_hvline.c **** 
   7:..\..\..\..\..\..\Dev\Library embedded l2c display\u8g2\csrc/u8g2_hvline.c ****   Copyright (c) 2016, olikraus@gmail.com
   8:..\..\..\..\..\..\Dev\Library embedded l2c display\u8g2\csrc/u8g2_hvline.c ****   All rights reserved.
   9:..\..\..\..\..\..\Dev\Library embedded l2c display\u8g2\csrc/u8g2_hvline.c **** 
  10:..\..\..\..\..\..\Dev\Library embedded l2c display\u8g2\csrc/u8g2_hvline.c ****   Redistribution and use in source and binary forms, with or without modification, 
  11:..\..\..\..\..\..\Dev\Library embedded l2c display\u8g2\csrc/u8g2_hvline.c ****   are permitted provided that the following conditions are met:
  12:..\..\..\..\..\..\Dev\Library embedded l2c display\u8g2\csrc/u8g2_hvline.c **** 
  13:..\..\..\..\..\..\Dev\Library embedded l2c display\u8g2\csrc/u8g2_hvline.c ****   * Redistributions of source code must retain the above copyright notice, this list 
  14:..\..\..\..\..\..\Dev\Library embedded l2c display\u8g2\csrc/u8g2_hvline.c ****     of conditions and the following disclaimer.
  15:..\..\..\..\..\..\Dev\Library embedded l2c display\u8g2\csrc/u8g2_hvline.c ****     
  16:..\..\..\..\..\..\Dev\Library embedded l2c display\u8g2\csrc/u8g2_hvline.c ****   * Redistributions in binary form must reproduce the above copyright notice, this 
  17:..\..\..\..\..\..\Dev\Library embedded l2c display\u8g2\csrc/u8g2_hvline.c ****     list of conditions and the following disclaimer in the documentation and/or other 
  18:..\..\..\..\..\..\Dev\Library embedded l2c display\u8g2\csrc/u8g2_hvline.c ****     materials provided with the distribution.
  19:..\..\..\..\..\..\Dev\Library embedded l2c display\u8g2\csrc/u8g2_hvline.c **** 
  20:..\..\..\..\..\..\Dev\Library embedded l2c display\u8g2\csrc/u8g2_hvline.c ****   THIS SOFTWARE IS PROVIDED BY THE COPYRIGHT HOLDERS AND 
  21:..\..\..\..\..\..\Dev\Library embedded l2c display\u8g2\csrc/u8g2_hvline.c ****   CONTRIBUTORS "AS IS" AND ANY EXPRESS OR IMPLIED WARRANTIES, 
  22:..\..\..\..\..\..\Dev\Library embedded l2c display\u8g2\csrc/u8g2_hvline.c ****   INCLUDING, BUT NOT LIMITED TO, THE IMPLIED WARRANTIES OF 
  23:..\..\..\..\..\..\Dev\Library embedded l2c display\u8g2\csrc/u8g2_hvline.c ****   MERCHANTABILITY AND FITNESS FOR A PARTICULAR PURPOSE ARE 
  24:..\..\..\..\..\..\Dev\Library embedded l2c display\u8g2\csrc/u8g2_hvline.c ****   DISCLAIMED. IN NO EVENT SHALL THE COPYRIGHT HOLDER OR 
  25:..\..\..\..\..\..\Dev\Library embedded l2c display\u8g2\csrc/u8g2_hvline.c ****   CONTRIBUTORS BE LIABLE FOR ANY DIRECT, INDIRECT, INCIDENTAL, 
  26:..\..\..\..\..\..\Dev\Library embedded l2c display\u8g2\csrc/u8g2_hvline.c ****   SPECIAL, EXEMPLARY, OR CONSEQUENTIAL DAMAGES (INCLUDING, BUT 
  27:..\..\..\..\..\..\Dev\Library embedded l2c display\u8g2\csrc/u8g2_hvline.c ****   NOT LIMITED TO, PROCUREMENT OF SUBSTITUTE GOODS OR SERVICES; 
  28:..\..\..\..\..\..\Dev\Library embedded l2c display\u8g2\csrc/u8g2_hvline.c ****   LOSS OF USE, DATA, OR PROFITS; OR BUSINESS INTERRUPTION) HOWEVER 
  29:..\..\..\..\..\..\Dev\Library embedded l2c display\u8g2\csrc/u8g2_hvline.c ****   CAUSED AND ON ANY THEORY OF LIABILITY, WHETHER IN CONTRACT, 
  30:..\..\..\..\..\..\Dev\Library embedded l2c display\u8g2\csrc/u8g2_hvline.c ****   STRICT LIABILITY, OR TORT (INCLUDING NEGLIGENCE OR OTHERWISE) 
  31:..\..\..\..\..\..\Dev\Library embedded l2c display\u8g2\csrc/u8g2_hvline.c ****   ARISING IN ANY WAY OUT OF THE USE OF THIS SOFTWARE, EVEN IF 
ARM GAS  C:\Users\Abude\AppData\Local\Temp\ccpbNMoH.s 			page 2


  32:..\..\..\..\..\..\Dev\Library embedded l2c display\u8g2\csrc/u8g2_hvline.c ****   ADVISED OF THE POSSIBILITY OF SUCH DAMAGE.  
  33:..\..\..\..\..\..\Dev\Library embedded l2c display\u8g2\csrc/u8g2_hvline.c **** 
  34:..\..\..\..\..\..\Dev\Library embedded l2c display\u8g2\csrc/u8g2_hvline.c **** 
  35:..\..\..\..\..\..\Dev\Library embedded l2c display\u8g2\csrc/u8g2_hvline.c ****   Calltree
  36:..\..\..\..\..\..\Dev\Library embedded l2c display\u8g2\csrc/u8g2_hvline.c ****   
  37:..\..\..\..\..\..\Dev\Library embedded l2c display\u8g2\csrc/u8g2_hvline.c ****     void u8g2_DrawHVLine(u8g2_t *u8g2, u8g2_uint_t x, u8g2_uint_t y, u8g2_uint_t len, uint8_t dir)
  38:..\..\..\..\..\..\Dev\Library embedded l2c display\u8g2\csrc/u8g2_hvline.c ****     u8g2->cb->draw_l90
  39:..\..\..\..\..\..\Dev\Library embedded l2c display\u8g2\csrc/u8g2_hvline.c ****     u8g2_draw_hv_line_2dir
  40:..\..\..\..\..\..\Dev\Library embedded l2c display\u8g2\csrc/u8g2_hvline.c ****     u8g2->ll_hvline(u8g2, x, y, len, dir);
  41:..\..\..\..\..\..\Dev\Library embedded l2c display\u8g2\csrc/u8g2_hvline.c ****     
  42:..\..\..\..\..\..\Dev\Library embedded l2c display\u8g2\csrc/u8g2_hvline.c **** 
  43:..\..\..\..\..\..\Dev\Library embedded l2c display\u8g2\csrc/u8g2_hvline.c **** */
  44:..\..\..\..\..\..\Dev\Library embedded l2c display\u8g2\csrc/u8g2_hvline.c **** 
  45:..\..\..\..\..\..\Dev\Library embedded l2c display\u8g2\csrc/u8g2_hvline.c **** #include "u8g2.h"
  46:..\..\..\..\..\..\Dev\Library embedded l2c display\u8g2\csrc/u8g2_hvline.c **** #include <assert.h>
  47:..\..\..\..\..\..\Dev\Library embedded l2c display\u8g2\csrc/u8g2_hvline.c **** 
  48:..\..\..\..\..\..\Dev\Library embedded l2c display\u8g2\csrc/u8g2_hvline.c **** /*==========================================================*/
  49:..\..\..\..\..\..\Dev\Library embedded l2c display\u8g2\csrc/u8g2_hvline.c **** /* intersection procedure */
  50:..\..\..\..\..\..\Dev\Library embedded l2c display\u8g2\csrc/u8g2_hvline.c **** 
  51:..\..\..\..\..\..\Dev\Library embedded l2c display\u8g2\csrc/u8g2_hvline.c **** /*
  52:..\..\..\..\..\..\Dev\Library embedded l2c display\u8g2\csrc/u8g2_hvline.c ****   Description:
  53:..\..\..\..\..\..\Dev\Library embedded l2c display\u8g2\csrc/u8g2_hvline.c ****     clip range from pos a (included) with line len (a+len excluded) agains c (included) to d (exclu
  54:..\..\..\..\..\..\Dev\Library embedded l2c display\u8g2\csrc/u8g2_hvline.c ****   Assumptions:
  55:..\..\..\..\..\..\Dev\Library embedded l2c display\u8g2\csrc/u8g2_hvline.c ****     len > 0
  56:..\..\..\..\..\..\Dev\Library embedded l2c display\u8g2\csrc/u8g2_hvline.c ****     c <= d		(this is not checked)
  57:..\..\..\..\..\..\Dev\Library embedded l2c display\u8g2\csrc/u8g2_hvline.c ****   will return 0 if there is no intersection and if a > b
  58:..\..\..\..\..\..\Dev\Library embedded l2c display\u8g2\csrc/u8g2_hvline.c **** 
  59:..\..\..\..\..\..\Dev\Library embedded l2c display\u8g2\csrc/u8g2_hvline.c **** */
  60:..\..\..\..\..\..\Dev\Library embedded l2c display\u8g2\csrc/u8g2_hvline.c **** 
  61:..\..\..\..\..\..\Dev\Library embedded l2c display\u8g2\csrc/u8g2_hvline.c **** static uint8_t u8g2_clip_intersection2(u8g2_uint_t *ap, u8g2_uint_t *len, u8g2_uint_t c, u8g2_uint_
  62:..\..\..\..\..\..\Dev\Library embedded l2c display\u8g2\csrc/u8g2_hvline.c **** {
  27              		.loc 1 62 0
  28              		.cfi_startproc
  29              		@ args = 0, pretend = 0, frame = 0
  30              		@ frame_needed = 0, uses_anonymous_args = 0
  31              		@ link register save eliminated.
  32              	.LVL0:
  33 0000 30B4     		push	{r4, r5}
  34              		.cfi_def_cfa_offset 8
  35              		.cfi_offset 4, -8
  36              		.cfi_offset 5, -4
  63:..\..\..\..\..\..\Dev\Library embedded l2c display\u8g2\csrc/u8g2_hvline.c ****   u8g2_uint_t a = *ap;
  37              		.loc 1 63 0
  38 0002 0588     		ldrh	r5, [r0]
  39              	.LVL1:
  64:..\..\..\..\..\..\Dev\Library embedded l2c display\u8g2\csrc/u8g2_hvline.c ****   u8g2_uint_t b;
  65:..\..\..\..\..\..\Dev\Library embedded l2c display\u8g2\csrc/u8g2_hvline.c ****   b  = a;
  66:..\..\..\..\..\..\Dev\Library embedded l2c display\u8g2\csrc/u8g2_hvline.c ****   b += *len;
  40              		.loc 1 66 0
  41 0004 0C88     		ldrh	r4, [r1]
  42 0006 2C44     		add	r4, r4, r5
  43 0008 A4B2     		uxth	r4, r4
  44              	.LVL2:
  67:..\..\..\..\..\..\Dev\Library embedded l2c display\u8g2\csrc/u8g2_hvline.c **** 
  68:..\..\..\..\..\..\Dev\Library embedded l2c display\u8g2\csrc/u8g2_hvline.c ****   /*
  69:..\..\..\..\..\..\Dev\Library embedded l2c display\u8g2\csrc/u8g2_hvline.c ****     Description:
  70:..\..\..\..\..\..\Dev\Library embedded l2c display\u8g2\csrc/u8g2_hvline.c ****       clip range from a (included) to b (excluded) agains c (included) to d (excluded)
ARM GAS  C:\Users\Abude\AppData\Local\Temp\ccpbNMoH.s 			page 3


  71:..\..\..\..\..\..\Dev\Library embedded l2c display\u8g2\csrc/u8g2_hvline.c ****     Assumptions:
  72:..\..\..\..\..\..\Dev\Library embedded l2c display\u8g2\csrc/u8g2_hvline.c ****       a <= b		(violation is checked and handled correctly)
  73:..\..\..\..\..\..\Dev\Library embedded l2c display\u8g2\csrc/u8g2_hvline.c ****       c <= d		(this is not checked)
  74:..\..\..\..\..\..\Dev\Library embedded l2c display\u8g2\csrc/u8g2_hvline.c ****     will return 0 if there is no intersection and if a > b
  75:..\..\..\..\..\..\Dev\Library embedded l2c display\u8g2\csrc/u8g2_hvline.c **** 
  76:..\..\..\..\..\..\Dev\Library embedded l2c display\u8g2\csrc/u8g2_hvline.c ****     optimized clipping: c is set to 0 --> 27 Oct 2018: again removed the c==0 assumption
  77:..\..\..\..\..\..\Dev\Library embedded l2c display\u8g2\csrc/u8g2_hvline.c ****     
  78:..\..\..\..\..\..\Dev\Library embedded l2c display\u8g2\csrc/u8g2_hvline.c ****     replaced by uint8_t u8g2_clip_intersection2
  79:..\..\..\..\..\..\Dev\Library embedded l2c display\u8g2\csrc/u8g2_hvline.c ****   */
  80:..\..\..\..\..\..\Dev\Library embedded l2c display\u8g2\csrc/u8g2_hvline.c **** 
  81:..\..\..\..\..\..\Dev\Library embedded l2c display\u8g2\csrc/u8g2_hvline.c ****   /* handle the a>b case correctly. If code and time is critical, this could */
  82:..\..\..\..\..\..\Dev\Library embedded l2c display\u8g2\csrc/u8g2_hvline.c ****   /* be removed completly (be aware about memory curruption for wrong */
  83:..\..\..\..\..\..\Dev\Library embedded l2c display\u8g2\csrc/u8g2_hvline.c ****   /* arguments) or return 0 for a>b (will lead to skipped lines for wrong */
  84:..\..\..\..\..\..\Dev\Library embedded l2c display\u8g2\csrc/u8g2_hvline.c ****   /* arguments) */  
  85:..\..\..\..\..\..\Dev\Library embedded l2c display\u8g2\csrc/u8g2_hvline.c ****   
  86:..\..\..\..\..\..\Dev\Library embedded l2c display\u8g2\csrc/u8g2_hvline.c ****   /* removing the following if clause completly may lead to memory corruption of a>b */
  87:..\..\..\..\..\..\Dev\Library embedded l2c display\u8g2\csrc/u8g2_hvline.c ****   if ( a > b )
  45              		.loc 1 87 0
  46 000a A542     		cmp	r5, r4
  47 000c 05D9     		bls	.L2
  88:..\..\..\..\..\..\Dev\Library embedded l2c display\u8g2\csrc/u8g2_hvline.c ****   {    
  89:..\..\..\..\..\..\Dev\Library embedded l2c display\u8g2\csrc/u8g2_hvline.c ****     /* replacing this if with a simple "return 0;" will not handle the case with negative a */    
  90:..\..\..\..\..\..\Dev\Library embedded l2c display\u8g2\csrc/u8g2_hvline.c ****     if ( a < d )
  48              		.loc 1 90 0
  49 000e 9D42     		cmp	r5, r3
  50 0010 02D2     		bcs	.L6
  51              	.LVL3:
  91:..\..\..\..\..\..\Dev\Library embedded l2c display\u8g2\csrc/u8g2_hvline.c ****     {
  92:..\..\..\..\..\..\Dev\Library embedded l2c display\u8g2\csrc/u8g2_hvline.c ****       b = d;
  93:..\..\..\..\..\..\Dev\Library embedded l2c display\u8g2\csrc/u8g2_hvline.c ****       b--;
  52              		.loc 1 93 0
  53 0012 5C1E     		subs	r4, r3, #1
  54 0014 A4B2     		uxth	r4, r4
  55              	.LVL4:
  56 0016 00E0     		b	.L2
  57              	.L6:
  94:..\..\..\..\..\..\Dev\Library embedded l2c display\u8g2\csrc/u8g2_hvline.c ****     }
  95:..\..\..\..\..\..\Dev\Library embedded l2c display\u8g2\csrc/u8g2_hvline.c ****     else
  96:..\..\..\..\..\..\Dev\Library embedded l2c display\u8g2\csrc/u8g2_hvline.c ****     {
  97:..\..\..\..\..\..\Dev\Library embedded l2c display\u8g2\csrc/u8g2_hvline.c ****       a = c;
  58              		.loc 1 97 0
  59 0018 1546     		mov	r5, r2
  60              	.LVL5:
  61              	.L2:
  98:..\..\..\..\..\..\Dev\Library embedded l2c display\u8g2\csrc/u8g2_hvline.c ****     }
  99:..\..\..\..\..\..\Dev\Library embedded l2c display\u8g2\csrc/u8g2_hvline.c ****   }
 100:..\..\..\..\..\..\Dev\Library embedded l2c display\u8g2\csrc/u8g2_hvline.c ****   
 101:..\..\..\..\..\..\Dev\Library embedded l2c display\u8g2\csrc/u8g2_hvline.c ****   /* from now on, the asumption a <= b is ok */
 102:..\..\..\..\..\..\Dev\Library embedded l2c display\u8g2\csrc/u8g2_hvline.c ****   
 103:..\..\..\..\..\..\Dev\Library embedded l2c display\u8g2\csrc/u8g2_hvline.c ****   if ( a >= d )
  62              		.loc 1 103 0
  63 001a 9D42     		cmp	r5, r3
  64 001c 0CD2     		bcs	.L7
 104:..\..\..\..\..\..\Dev\Library embedded l2c display\u8g2\csrc/u8g2_hvline.c ****     return 0;
 105:..\..\..\..\..\..\Dev\Library embedded l2c display\u8g2\csrc/u8g2_hvline.c ****   if ( b <= c )
  65              		.loc 1 105 0
  66 001e 9442     		cmp	r4, r2
ARM GAS  C:\Users\Abude\AppData\Local\Temp\ccpbNMoH.s 			page 4


  67 0020 0CD9     		bls	.L8
 106:..\..\..\..\..\..\Dev\Library embedded l2c display\u8g2\csrc/u8g2_hvline.c ****     return 0;
 107:..\..\..\..\..\..\Dev\Library embedded l2c display\u8g2\csrc/u8g2_hvline.c ****   if ( a < c )		
  68              		.loc 1 107 0
  69 0022 9542     		cmp	r5, r2
  70 0024 00D3     		bcc	.L4
  71 0026 2A46     		mov	r2, r5
  72              	.LVL6:
  73              	.L4:
 108:..\..\..\..\..\..\Dev\Library embedded l2c display\u8g2\csrc/u8g2_hvline.c ****     a = c;
 109:..\..\..\..\..\..\Dev\Library embedded l2c display\u8g2\csrc/u8g2_hvline.c ****   if ( b > d )
  74              		.loc 1 109 0
  75 0028 9C42     		cmp	r4, r3
  76 002a 00D8     		bhi	.L5
  77 002c 2346     		mov	r3, r4
  78              	.LVL7:
  79              	.L5:
 110:..\..\..\..\..\..\Dev\Library embedded l2c display\u8g2\csrc/u8g2_hvline.c ****     b = d;
 111:..\..\..\..\..\..\Dev\Library embedded l2c display\u8g2\csrc/u8g2_hvline.c ****   
 112:..\..\..\..\..\..\Dev\Library embedded l2c display\u8g2\csrc/u8g2_hvline.c ****   *ap = a;
  80              		.loc 1 112 0
  81 002e 0280     		strh	r2, [r0]	@ movhi
 113:..\..\..\..\..\..\Dev\Library embedded l2c display\u8g2\csrc/u8g2_hvline.c ****   b -= a;
  82              		.loc 1 113 0
  83 0030 9B1A     		subs	r3, r3, r2
  84              	.LVL8:
 114:..\..\..\..\..\..\Dev\Library embedded l2c display\u8g2\csrc/u8g2_hvline.c ****   *len = b;
  85              		.loc 1 114 0
  86 0032 0B80     		strh	r3, [r1]	@ movhi
 115:..\..\..\..\..\..\Dev\Library embedded l2c display\u8g2\csrc/u8g2_hvline.c ****   return 1;
  87              		.loc 1 115 0
  88 0034 0120     		movs	r0, #1
  89              	.LVL9:
  90 0036 02E0     		b	.L3
  91              	.LVL10:
  92              	.L7:
 104:..\..\..\..\..\..\Dev\Library embedded l2c display\u8g2\csrc/u8g2_hvline.c ****   if ( b <= c )
  93              		.loc 1 104 0
  94 0038 0020     		movs	r0, #0
  95              	.LVL11:
  96 003a 00E0     		b	.L3
  97              	.LVL12:
  98              	.L8:
 106:..\..\..\..\..\..\Dev\Library embedded l2c display\u8g2\csrc/u8g2_hvline.c ****   if ( a < c )		
  99              		.loc 1 106 0
 100 003c 0020     		movs	r0, #0
 101              	.LVL13:
 102              	.L3:
 116:..\..\..\..\..\..\Dev\Library embedded l2c display\u8g2\csrc/u8g2_hvline.c **** }
 103              		.loc 1 116 0
 104 003e 30BC     		pop	{r4, r5}
 105              		.cfi_restore 5
 106              		.cfi_restore 4
 107              		.cfi_def_cfa_offset 0
 108 0040 7047     		bx	lr
 109              		.cfi_endproc
 110              	.LFE0:
ARM GAS  C:\Users\Abude\AppData\Local\Temp\ccpbNMoH.s 			page 5


 111              		.size	u8g2_clip_intersection2, .-u8g2_clip_intersection2
 112 0042 00BF     		.section	.text.u8g2_draw_hv_line_2dir,"ax",%progbits
 113              		.align	2
 114              		.global	u8g2_draw_hv_line_2dir
 115              		.thumb
 116              		.thumb_func
 117              		.type	u8g2_draw_hv_line_2dir, %function
 118              	u8g2_draw_hv_line_2dir:
 119              	.LFB1:
 117:..\..\..\..\..\..\Dev\Library embedded l2c display\u8g2\csrc/u8g2_hvline.c **** 
 118:..\..\..\..\..\..\Dev\Library embedded l2c display\u8g2\csrc/u8g2_hvline.c **** 
 119:..\..\..\..\..\..\Dev\Library embedded l2c display\u8g2\csrc/u8g2_hvline.c **** 
 120:..\..\..\..\..\..\Dev\Library embedded l2c display\u8g2\csrc/u8g2_hvline.c **** /*==========================================================*/
 121:..\..\..\..\..\..\Dev\Library embedded l2c display\u8g2\csrc/u8g2_hvline.c **** /* draw procedures */
 122:..\..\..\..\..\..\Dev\Library embedded l2c display\u8g2\csrc/u8g2_hvline.c **** 
 123:..\..\..\..\..\..\Dev\Library embedded l2c display\u8g2\csrc/u8g2_hvline.c **** /*
 124:..\..\..\..\..\..\Dev\Library embedded l2c display\u8g2\csrc/u8g2_hvline.c ****   x,y		Upper left position of the line within the pixel buffer 
 125:..\..\..\..\..\..\Dev\Library embedded l2c display\u8g2\csrc/u8g2_hvline.c ****   len		length of the line in pixel, len must not be 0
 126:..\..\..\..\..\..\Dev\Library embedded l2c display\u8g2\csrc/u8g2_hvline.c ****   dir		0: horizontal line (left to right)
 127:..\..\..\..\..\..\Dev\Library embedded l2c display\u8g2\csrc/u8g2_hvline.c **** 		1: vertical line (top to bottom)
 128:..\..\..\..\..\..\Dev\Library embedded l2c display\u8g2\csrc/u8g2_hvline.c ****   This function first adjusts the y position to the local buffer. Then it
 129:..\..\..\..\..\..\Dev\Library embedded l2c display\u8g2\csrc/u8g2_hvline.c ****   will clip the line and call u8g2_draw_low_level_hv_line()
 130:..\..\..\..\..\..\Dev\Library embedded l2c display\u8g2\csrc/u8g2_hvline.c **** 
 131:..\..\..\..\..\..\Dev\Library embedded l2c display\u8g2\csrc/u8g2_hvline.c **** */
 132:..\..\..\..\..\..\Dev\Library embedded l2c display\u8g2\csrc/u8g2_hvline.c **** void u8g2_draw_hv_line_2dir(u8g2_t *u8g2, u8g2_uint_t x, u8g2_uint_t y, u8g2_uint_t len, uint8_t di
 133:..\..\..\..\..\..\Dev\Library embedded l2c display\u8g2\csrc/u8g2_hvline.c **** {
 120              		.loc 1 133 0
 121              		.cfi_startproc
 122              		@ args = 4, pretend = 0, frame = 0
 123              		@ frame_needed = 0, uses_anonymous_args = 0
 124              	.LVL14:
 125 0000 30B5     		push	{r4, r5, lr}
 126              		.cfi_def_cfa_offset 12
 127              		.cfi_offset 4, -12
 128              		.cfi_offset 5, -8
 129              		.cfi_offset 14, -4
 130 0002 83B0     		sub	sp, sp, #12
 131              		.cfi_def_cfa_offset 24
 134:..\..\..\..\..\..\Dev\Library embedded l2c display\u8g2\csrc/u8g2_hvline.c **** 
 135:..\..\..\..\..\..\Dev\Library embedded l2c display\u8g2\csrc/u8g2_hvline.c ****   /* clipping happens before the display rotation */
 136:..\..\..\..\..\..\Dev\Library embedded l2c display\u8g2\csrc/u8g2_hvline.c **** 
 137:..\..\..\..\..\..\Dev\Library embedded l2c display\u8g2\csrc/u8g2_hvline.c ****   /* transform to pixel buffer coordinates */
 138:..\..\..\..\..\..\Dev\Library embedded l2c display\u8g2\csrc/u8g2_hvline.c ****   y -= u8g2->pixel_curr_row;
 132              		.loc 1 138 0
 133 0004 C48F     		ldrh	r4, [r0, #62]
 134 0006 121B     		subs	r2, r2, r4
 135              	.LVL15:
 139:..\..\..\..\..\..\Dev\Library embedded l2c display\u8g2\csrc/u8g2_hvline.c ****   
 140:..\..\..\..\..\..\Dev\Library embedded l2c display\u8g2\csrc/u8g2_hvline.c ****   u8g2->ll_hvline(u8g2, x, y, len, dir);
 136              		.loc 1 140 0
 137 0008 C46A     		ldr	r4, [r0, #44]
 138 000a 9DF81850 		ldrb	r5, [sp, #24]	@ zero_extendqisi2
 139 000e 0095     		str	r5, [sp]
 140 0010 92B2     		uxth	r2, r2
 141 0012 A047     		blx	r4
 142              	.LVL16:
 141:..\..\..\..\..\..\Dev\Library embedded l2c display\u8g2\csrc/u8g2_hvline.c **** }
ARM GAS  C:\Users\Abude\AppData\Local\Temp\ccpbNMoH.s 			page 6


 143              		.loc 1 141 0
 144 0014 03B0     		add	sp, sp, #12
 145              		.cfi_def_cfa_offset 12
 146              		@ sp needed
 147 0016 30BD     		pop	{r4, r5, pc}
 148              		.cfi_endproc
 149              	.LFE1:
 150              		.size	u8g2_draw_hv_line_2dir, .-u8g2_draw_hv_line_2dir
 151              		.section	.text.u8g2_DrawHVLine,"ax",%progbits
 152              		.align	2
 153              		.global	u8g2_DrawHVLine
 154              		.thumb
 155              		.thumb_func
 156              		.type	u8g2_DrawHVLine, %function
 157              	u8g2_DrawHVLine:
 158              	.LFB2:
 142:..\..\..\..\..\..\Dev\Library embedded l2c display\u8g2\csrc/u8g2_hvline.c **** 
 143:..\..\..\..\..\..\Dev\Library embedded l2c display\u8g2\csrc/u8g2_hvline.c **** 
 144:..\..\..\..\..\..\Dev\Library embedded l2c display\u8g2\csrc/u8g2_hvline.c **** /*
 145:..\..\..\..\..\..\Dev\Library embedded l2c display\u8g2\csrc/u8g2_hvline.c ****   This is the toplevel function for the hv line draw procedures.
 146:..\..\..\..\..\..\Dev\Library embedded l2c display\u8g2\csrc/u8g2_hvline.c ****   This function should be called by the user.
 147:..\..\..\..\..\..\Dev\Library embedded l2c display\u8g2\csrc/u8g2_hvline.c ****   
 148:..\..\..\..\..\..\Dev\Library embedded l2c display\u8g2\csrc/u8g2_hvline.c ****   "dir" may have 4 directions: 0 (left to right), 1, 2, 3 (down up)
 149:..\..\..\..\..\..\Dev\Library embedded l2c display\u8g2\csrc/u8g2_hvline.c **** */
 150:..\..\..\..\..\..\Dev\Library embedded l2c display\u8g2\csrc/u8g2_hvline.c **** void u8g2_DrawHVLine(u8g2_t *u8g2, u8g2_uint_t x, u8g2_uint_t y, u8g2_uint_t len, uint8_t dir)
 151:..\..\..\..\..\..\Dev\Library embedded l2c display\u8g2\csrc/u8g2_hvline.c **** {
 159              		.loc 1 151 0
 160              		.cfi_startproc
 161              		@ args = 4, pretend = 0, frame = 8
 162              		@ frame_needed = 0, uses_anonymous_args = 0
 163              	.LVL17:
 164 0000 70B5     		push	{r4, r5, r6, lr}
 165              		.cfi_def_cfa_offset 16
 166              		.cfi_offset 4, -16
 167              		.cfi_offset 5, -12
 168              		.cfi_offset 6, -8
 169              		.cfi_offset 14, -4
 170 0002 84B0     		sub	sp, sp, #16
 171              		.cfi_def_cfa_offset 32
 172 0004 9DF82050 		ldrb	r5, [sp, #32]	@ zero_extendqisi2
 173 0008 ADF80E10 		strh	r1, [sp, #14]	@ movhi
 174 000c ADF80C20 		strh	r2, [sp, #12]	@ movhi
 175 0010 ADF80A30 		strh	r3, [sp, #10]	@ movhi
 152:..\..\..\..\..\..\Dev\Library embedded l2c display\u8g2\csrc/u8g2_hvline.c ****   /* Make a call to the callback function (e.g. u8g2_draw_l90_r0). */
 153:..\..\..\..\..\..\Dev\Library embedded l2c display\u8g2\csrc/u8g2_hvline.c ****   /* The callback may rotate the hv line */
 154:..\..\..\..\..\..\Dev\Library embedded l2c display\u8g2\csrc/u8g2_hvline.c ****   /* after rotation this will call u8g2_draw_hv_line_4dir() */
 155:..\..\..\..\..\..\Dev\Library embedded l2c display\u8g2\csrc/u8g2_hvline.c ****   
 156:..\..\..\..\..\..\Dev\Library embedded l2c display\u8g2\csrc/u8g2_hvline.c **** #ifdef U8G2_WITH_CLIP_WINDOW_SUPPORT
 157:..\..\..\..\..\..\Dev\Library embedded l2c display\u8g2\csrc/u8g2_hvline.c ****   if ( u8g2->is_page_clip_window_intersection != 0 )
 176              		.loc 1 157 0
 177 0014 90F88C30 		ldrb	r3, [r0, #140]	@ zero_extendqisi2
 178              	.LVL18:
 179 0018 002B     		cmp	r3, #0
 180 001a 50D0     		beq	.L12
 158:..\..\..\..\..\..\Dev\Library embedded l2c display\u8g2\csrc/u8g2_hvline.c **** #endif /* U8G2_WITH_CLIP_WINDOW_SUPPORT */
 159:..\..\..\..\..\..\Dev\Library embedded l2c display\u8g2\csrc/u8g2_hvline.c ****     if ( len != 0 )
 181              		.loc 1 159 0
ARM GAS  C:\Users\Abude\AppData\Local\Temp\ccpbNMoH.s 			page 7


 182 001c BDF80A30 		ldrh	r3, [sp, #10]
 183 0020 002B     		cmp	r3, #0
 184 0022 4CD0     		beq	.L12
 160:..\..\..\..\..\..\Dev\Library embedded l2c display\u8g2\csrc/u8g2_hvline.c ****     {
 161:..\..\..\..\..\..\Dev\Library embedded l2c display\u8g2\csrc/u8g2_hvline.c ****     
 162:..\..\..\..\..\..\Dev\Library embedded l2c display\u8g2\csrc/u8g2_hvline.c ****       /* convert to two directions */    
 163:..\..\..\..\..\..\Dev\Library embedded l2c display\u8g2\csrc/u8g2_hvline.c ****       if ( len > 1 )
 185              		.loc 1 163 0
 186 0024 012B     		cmp	r3, #1
 187 0026 11D9     		bls	.L14
 164:..\..\..\..\..\..\Dev\Library embedded l2c display\u8g2\csrc/u8g2_hvline.c ****       {
 165:..\..\..\..\..\..\Dev\Library embedded l2c display\u8g2\csrc/u8g2_hvline.c **** 	if ( dir == 2 )
 188              		.loc 1 165 0
 189 0028 022D     		cmp	r5, #2
 190 002a 06D1     		bne	.L15
 166:..\..\..\..\..\..\Dev\Library embedded l2c display\u8g2\csrc/u8g2_hvline.c **** 	{
 167:..\..\..\..\..\..\Dev\Library embedded l2c display\u8g2\csrc/u8g2_hvline.c **** 	  x -= len;
 191              		.loc 1 167 0
 192 002c 8AB2     		uxth	r2, r1
 193              	.LVL19:
 194 002e D31A     		subs	r3, r2, r3
 195 0030 9BB2     		uxth	r3, r3
 168:..\..\..\..\..\..\Dev\Library embedded l2c display\u8g2\csrc/u8g2_hvline.c **** 	  x++;
 196              		.loc 1 168 0
 197 0032 0133     		adds	r3, r3, #1
 198 0034 ADF80E30 		strh	r3, [sp, #14]	@ movhi
 199 0038 08E0     		b	.L14
 200              	.LVL20:
 201              	.L15:
 169:..\..\..\..\..\..\Dev\Library embedded l2c display\u8g2\csrc/u8g2_hvline.c **** 	}
 170:..\..\..\..\..\..\Dev\Library embedded l2c display\u8g2\csrc/u8g2_hvline.c **** 	else if ( dir == 3 )
 202              		.loc 1 170 0
 203 003a 032D     		cmp	r5, #3
 204 003c 06D1     		bne	.L14
 171:..\..\..\..\..\..\Dev\Library embedded l2c display\u8g2\csrc/u8g2_hvline.c **** 	{
 172:..\..\..\..\..\..\Dev\Library embedded l2c display\u8g2\csrc/u8g2_hvline.c **** 	  y -= len;
 205              		.loc 1 172 0
 206 003e BDF80C20 		ldrh	r2, [sp, #12]
 207              	.LVL21:
 208 0042 D31A     		subs	r3, r2, r3
 209 0044 9BB2     		uxth	r3, r3
 173:..\..\..\..\..\..\Dev\Library embedded l2c display\u8g2\csrc/u8g2_hvline.c **** 	  y++;
 210              		.loc 1 173 0
 211 0046 0133     		adds	r3, r3, #1
 212 0048 ADF80C30 		strh	r3, [sp, #12]	@ movhi
 213              	.LVL22:
 214              	.L14:
 215 004c 0446     		mov	r4, r0
 216              	.LVL23:
 174:..\..\..\..\..\..\Dev\Library embedded l2c display\u8g2\csrc/u8g2_hvline.c **** 	}
 175:..\..\..\..\..\..\Dev\Library embedded l2c display\u8g2\csrc/u8g2_hvline.c ****       }
 176:..\..\..\..\..\..\Dev\Library embedded l2c display\u8g2\csrc/u8g2_hvline.c ****       dir &= 1;  
 177:..\..\..\..\..\..\Dev\Library embedded l2c display\u8g2\csrc/u8g2_hvline.c ****       
 178:..\..\..\..\..\..\Dev\Library embedded l2c display\u8g2\csrc/u8g2_hvline.c ****       /* clip against the user window */
 179:..\..\..\..\..\..\Dev\Library embedded l2c display\u8g2\csrc/u8g2_hvline.c ****       if ( dir == 0 )
 217              		.loc 1 179 0
 218 004e 15F00105 		ands	r5, r5, #1
ARM GAS  C:\Users\Abude\AppData\Local\Temp\ccpbNMoH.s 			page 8


 219              	.LVL24:
 220 0052 15D1     		bne	.L16
 180:..\..\..\..\..\..\Dev\Library embedded l2c display\u8g2\csrc/u8g2_hvline.c ****       {
 181:..\..\..\..\..\..\Dev\Library embedded l2c display\u8g2\csrc/u8g2_hvline.c **** 	if ( y < u8g2->user_y0 )
 221              		.loc 1 181 0
 222 0054 B0F84C20 		ldrh	r2, [r0, #76]
 223 0058 BDF80C30 		ldrh	r3, [sp, #12]
 224 005c 9A42     		cmp	r2, r3
 225 005e 2ED8     		bhi	.L12
 182:..\..\..\..\..\..\Dev\Library embedded l2c display\u8g2\csrc/u8g2_hvline.c **** 	  return;
 183:..\..\..\..\..\..\Dev\Library embedded l2c display\u8g2\csrc/u8g2_hvline.c **** 	if ( y >= u8g2->user_y1 )
 226              		.loc 1 183 0
 227 0060 B0F84E20 		ldrh	r2, [r0, #78]
 228 0064 9342     		cmp	r3, r2
 229 0066 2AD2     		bcs	.L12
 184:..\..\..\..\..\..\Dev\Library embedded l2c display\u8g2\csrc/u8g2_hvline.c **** 	  return;
 185:..\..\..\..\..\..\Dev\Library embedded l2c display\u8g2\csrc/u8g2_hvline.c **** 	if ( u8g2_clip_intersection2(&x, &len, u8g2->user_x0, u8g2->user_x1) == 0 )
 230              		.loc 1 185 0
 231 0068 B0F84A30 		ldrh	r3, [r0, #74]
 232 006c B0F84820 		ldrh	r2, [r0, #72]
 233 0070 0DF10A01 		add	r1, sp, #10
 234              	.LVL25:
 235 0074 0DF10E00 		add	r0, sp, #14
 236              	.LVL26:
 237 0078 FFF7FEFF 		bl	u8g2_clip_intersection2
 238              	.LVL27:
 239 007c A0B9     		cbnz	r0, .L17
 240 007e 1EE0     		b	.L12
 241              	.LVL28:
 242              	.L16:
 186:..\..\..\..\..\..\Dev\Library embedded l2c display\u8g2\csrc/u8g2_hvline.c **** 	  return;
 187:..\..\..\..\..\..\Dev\Library embedded l2c display\u8g2\csrc/u8g2_hvline.c ****       }
 188:..\..\..\..\..\..\Dev\Library embedded l2c display\u8g2\csrc/u8g2_hvline.c ****       else
 189:..\..\..\..\..\..\Dev\Library embedded l2c display\u8g2\csrc/u8g2_hvline.c ****       {
 190:..\..\..\..\..\..\Dev\Library embedded l2c display\u8g2\csrc/u8g2_hvline.c **** 	if ( x < u8g2->user_x0 )
 243              		.loc 1 190 0
 244 0080 B0F84820 		ldrh	r2, [r0, #72]
 245 0084 BDF80E30 		ldrh	r3, [sp, #14]
 246 0088 9A42     		cmp	r2, r3
 247 008a 18D8     		bhi	.L12
 191:..\..\..\..\..\..\Dev\Library embedded l2c display\u8g2\csrc/u8g2_hvline.c **** 	  return;
 192:..\..\..\..\..\..\Dev\Library embedded l2c display\u8g2\csrc/u8g2_hvline.c **** 	if ( x >= u8g2->user_x1 )
 248              		.loc 1 192 0
 249 008c B0F84A20 		ldrh	r2, [r0, #74]
 250 0090 9342     		cmp	r3, r2
 251 0092 14D2     		bcs	.L12
 193:..\..\..\..\..\..\Dev\Library embedded l2c display\u8g2\csrc/u8g2_hvline.c **** 	  return;
 194:..\..\..\..\..\..\Dev\Library embedded l2c display\u8g2\csrc/u8g2_hvline.c **** 	if ( u8g2_clip_intersection2(&y, &len, u8g2->user_y0, u8g2->user_y1) == 0 )
 252              		.loc 1 194 0
 253 0094 B0F84E30 		ldrh	r3, [r0, #78]
 254 0098 B0F84C20 		ldrh	r2, [r0, #76]
 255 009c 0DF10A01 		add	r1, sp, #10
 256              	.LVL29:
 257 00a0 03A8     		add	r0, sp, #12
 258              	.LVL30:
 259 00a2 FFF7FEFF 		bl	u8g2_clip_intersection2
 260              	.LVL31:
ARM GAS  C:\Users\Abude\AppData\Local\Temp\ccpbNMoH.s 			page 9


 261 00a6 50B1     		cbz	r0, .L12
 262              	.L17:
 195:..\..\..\..\..\..\Dev\Library embedded l2c display\u8g2\csrc/u8g2_hvline.c **** 	  return;
 196:..\..\..\..\..\..\Dev\Library embedded l2c display\u8g2\csrc/u8g2_hvline.c ****       }
 197:..\..\..\..\..\..\Dev\Library embedded l2c display\u8g2\csrc/u8g2_hvline.c ****       
 198:..\..\..\..\..\..\Dev\Library embedded l2c display\u8g2\csrc/u8g2_hvline.c ****       
 199:..\..\..\..\..\..\Dev\Library embedded l2c display\u8g2\csrc/u8g2_hvline.c ****       u8g2->cb->draw_l90(u8g2, x, y, len, dir);
 263              		.loc 1 199 0
 264 00a8 236B     		ldr	r3, [r4, #48]
 265 00aa 9E68     		ldr	r6, [r3, #8]
 266 00ac BDF80A30 		ldrh	r3, [sp, #10]
 267 00b0 BDF80C20 		ldrh	r2, [sp, #12]
 268 00b4 BDF80E10 		ldrh	r1, [sp, #14]
 269 00b8 0095     		str	r5, [sp]
 270 00ba 2046     		mov	r0, r4
 271 00bc B047     		blx	r6
 272              	.LVL32:
 273              	.L12:
 200:..\..\..\..\..\..\Dev\Library embedded l2c display\u8g2\csrc/u8g2_hvline.c ****     }
 201:..\..\..\..\..\..\Dev\Library embedded l2c display\u8g2\csrc/u8g2_hvline.c **** }
 274              		.loc 1 201 0
 275 00be 04B0     		add	sp, sp, #16
 276              		.cfi_def_cfa_offset 16
 277              		@ sp needed
 278 00c0 70BD     		pop	{r4, r5, r6, pc}
 279              		.cfi_endproc
 280              	.LFE2:
 281              		.size	u8g2_DrawHVLine, .-u8g2_DrawHVLine
 282 00c2 00BF     		.section	.text.u8g2_DrawHLine,"ax",%progbits
 283              		.align	2
 284              		.global	u8g2_DrawHLine
 285              		.thumb
 286              		.thumb_func
 287              		.type	u8g2_DrawHLine, %function
 288              	u8g2_DrawHLine:
 289              	.LFB3:
 202:..\..\..\..\..\..\Dev\Library embedded l2c display\u8g2\csrc/u8g2_hvline.c **** 
 203:..\..\..\..\..\..\Dev\Library embedded l2c display\u8g2\csrc/u8g2_hvline.c **** void u8g2_DrawHLine(u8g2_t *u8g2, u8g2_uint_t x, u8g2_uint_t y, u8g2_uint_t len)
 204:..\..\..\..\..\..\Dev\Library embedded l2c display\u8g2\csrc/u8g2_hvline.c **** {
 290              		.loc 1 204 0
 291              		.cfi_startproc
 292              		@ args = 0, pretend = 0, frame = 0
 293              		@ frame_needed = 0, uses_anonymous_args = 0
 294              	.LVL33:
 295 0000 10B5     		push	{r4, lr}
 296              		.cfi_def_cfa_offset 8
 297              		.cfi_offset 4, -8
 298              		.cfi_offset 14, -4
 299 0002 82B0     		sub	sp, sp, #8
 300              		.cfi_def_cfa_offset 16
 205:..\..\..\..\..\..\Dev\Library embedded l2c display\u8g2\csrc/u8g2_hvline.c **** // #ifdef U8G2_WITH_INTERSECTION
 206:..\..\..\..\..\..\Dev\Library embedded l2c display\u8g2\csrc/u8g2_hvline.c **** //   if ( u8g2_IsIntersection(u8g2, x, y, x+len, y+1) == 0 ) 
 207:..\..\..\..\..\..\Dev\Library embedded l2c display\u8g2\csrc/u8g2_hvline.c **** //     return;
 208:..\..\..\..\..\..\Dev\Library embedded l2c display\u8g2\csrc/u8g2_hvline.c **** // #endif /* U8G2_WITH_INTERSECTION */
 209:..\..\..\..\..\..\Dev\Library embedded l2c display\u8g2\csrc/u8g2_hvline.c ****   u8g2_DrawHVLine(u8g2, x, y, len, 0);
 301              		.loc 1 209 0
 302 0004 0024     		movs	r4, #0
ARM GAS  C:\Users\Abude\AppData\Local\Temp\ccpbNMoH.s 			page 10


 303 0006 0094     		str	r4, [sp]
 304 0008 FFF7FEFF 		bl	u8g2_DrawHVLine
 305              	.LVL34:
 210:..\..\..\..\..\..\Dev\Library embedded l2c display\u8g2\csrc/u8g2_hvline.c **** }
 306              		.loc 1 210 0
 307 000c 02B0     		add	sp, sp, #8
 308              		.cfi_def_cfa_offset 8
 309              		@ sp needed
 310 000e 10BD     		pop	{r4, pc}
 311              		.cfi_endproc
 312              	.LFE3:
 313              		.size	u8g2_DrawHLine, .-u8g2_DrawHLine
 314              		.section	.text.u8g2_DrawVLine,"ax",%progbits
 315              		.align	2
 316              		.global	u8g2_DrawVLine
 317              		.thumb
 318              		.thumb_func
 319              		.type	u8g2_DrawVLine, %function
 320              	u8g2_DrawVLine:
 321              	.LFB4:
 211:..\..\..\..\..\..\Dev\Library embedded l2c display\u8g2\csrc/u8g2_hvline.c **** 
 212:..\..\..\..\..\..\Dev\Library embedded l2c display\u8g2\csrc/u8g2_hvline.c **** void u8g2_DrawVLine(u8g2_t *u8g2, u8g2_uint_t x, u8g2_uint_t y, u8g2_uint_t len)
 213:..\..\..\..\..\..\Dev\Library embedded l2c display\u8g2\csrc/u8g2_hvline.c **** {
 322              		.loc 1 213 0
 323              		.cfi_startproc
 324              		@ args = 0, pretend = 0, frame = 0
 325              		@ frame_needed = 0, uses_anonymous_args = 0
 326              	.LVL35:
 327 0000 10B5     		push	{r4, lr}
 328              		.cfi_def_cfa_offset 8
 329              		.cfi_offset 4, -8
 330              		.cfi_offset 14, -4
 331 0002 82B0     		sub	sp, sp, #8
 332              		.cfi_def_cfa_offset 16
 214:..\..\..\..\..\..\Dev\Library embedded l2c display\u8g2\csrc/u8g2_hvline.c **** // #ifdef U8G2_WITH_INTERSECTION
 215:..\..\..\..\..\..\Dev\Library embedded l2c display\u8g2\csrc/u8g2_hvline.c **** //   if ( u8g2_IsIntersection(u8g2, x, y, x+1, y+len) == 0 ) 
 216:..\..\..\..\..\..\Dev\Library embedded l2c display\u8g2\csrc/u8g2_hvline.c **** //     return;
 217:..\..\..\..\..\..\Dev\Library embedded l2c display\u8g2\csrc/u8g2_hvline.c **** // #endif /* U8G2_WITH_INTERSECTION */
 218:..\..\..\..\..\..\Dev\Library embedded l2c display\u8g2\csrc/u8g2_hvline.c ****   u8g2_DrawHVLine(u8g2, x, y, len, 1);
 333              		.loc 1 218 0
 334 0004 0124     		movs	r4, #1
 335 0006 0094     		str	r4, [sp]
 336 0008 FFF7FEFF 		bl	u8g2_DrawHVLine
 337              	.LVL36:
 219:..\..\..\..\..\..\Dev\Library embedded l2c display\u8g2\csrc/u8g2_hvline.c **** }
 338              		.loc 1 219 0
 339 000c 02B0     		add	sp, sp, #8
 340              		.cfi_def_cfa_offset 8
 341              		@ sp needed
 342 000e 10BD     		pop	{r4, pc}
 343              		.cfi_endproc
 344              	.LFE4:
 345              		.size	u8g2_DrawVLine, .-u8g2_DrawVLine
 346              		.section	.text.u8g2_DrawPixel,"ax",%progbits
 347              		.align	2
 348              		.global	u8g2_DrawPixel
 349              		.thumb
ARM GAS  C:\Users\Abude\AppData\Local\Temp\ccpbNMoH.s 			page 11


 350              		.thumb_func
 351              		.type	u8g2_DrawPixel, %function
 352              	u8g2_DrawPixel:
 353              	.LFB5:
 220:..\..\..\..\..\..\Dev\Library embedded l2c display\u8g2\csrc/u8g2_hvline.c **** 
 221:..\..\..\..\..\..\Dev\Library embedded l2c display\u8g2\csrc/u8g2_hvline.c **** void u8g2_DrawPixel(u8g2_t *u8g2, u8g2_uint_t x, u8g2_uint_t y)
 222:..\..\..\..\..\..\Dev\Library embedded l2c display\u8g2\csrc/u8g2_hvline.c **** {
 354              		.loc 1 222 0
 355              		.cfi_startproc
 356              		@ args = 0, pretend = 0, frame = 0
 357              		@ frame_needed = 0, uses_anonymous_args = 0
 358              	.LVL37:
 223:..\..\..\..\..\..\Dev\Library embedded l2c display\u8g2\csrc/u8g2_hvline.c **** #ifdef U8G2_WITH_INTERSECTION
 224:..\..\..\..\..\..\Dev\Library embedded l2c display\u8g2\csrc/u8g2_hvline.c ****   if ( y < u8g2->user_y0 )
 359              		.loc 1 224 0
 360 0000 B0F84C30 		ldrh	r3, [r0, #76]
 361 0004 9342     		cmp	r3, r2
 362 0006 15D8     		bhi	.L26
 225:..\..\..\..\..\..\Dev\Library embedded l2c display\u8g2\csrc/u8g2_hvline.c ****     return;
 226:..\..\..\..\..\..\Dev\Library embedded l2c display\u8g2\csrc/u8g2_hvline.c ****   if ( y >= u8g2->user_y1 )
 363              		.loc 1 226 0
 364 0008 B0F84E30 		ldrh	r3, [r0, #78]
 365 000c 9A42     		cmp	r2, r3
 366 000e 11D2     		bcs	.L26
 227:..\..\..\..\..\..\Dev\Library embedded l2c display\u8g2\csrc/u8g2_hvline.c ****     return;
 228:..\..\..\..\..\..\Dev\Library embedded l2c display\u8g2\csrc/u8g2_hvline.c ****   if ( x < u8g2->user_x0 )
 367              		.loc 1 228 0
 368 0010 B0F84830 		ldrh	r3, [r0, #72]
 369 0014 8B42     		cmp	r3, r1
 370 0016 0DD8     		bhi	.L26
 229:..\..\..\..\..\..\Dev\Library embedded l2c display\u8g2\csrc/u8g2_hvline.c ****     return;
 230:..\..\..\..\..\..\Dev\Library embedded l2c display\u8g2\csrc/u8g2_hvline.c ****   if ( x >= u8g2->user_x1 )
 371              		.loc 1 230 0
 372 0018 B0F84A30 		ldrh	r3, [r0, #74]
 373 001c 9942     		cmp	r1, r3
 374 001e 09D2     		bcs	.L26
 222:..\..\..\..\..\..\Dev\Library embedded l2c display\u8g2\csrc/u8g2_hvline.c **** #ifdef U8G2_WITH_INTERSECTION
 375              		.loc 1 222 0
 376 0020 00B5     		push	{lr}
 377              		.cfi_def_cfa_offset 4
 378              		.cfi_offset 14, -4
 379 0022 83B0     		sub	sp, sp, #12
 380              		.cfi_def_cfa_offset 16
 231:..\..\..\..\..\..\Dev\Library embedded l2c display\u8g2\csrc/u8g2_hvline.c ****     return;
 232:..\..\..\..\..\..\Dev\Library embedded l2c display\u8g2\csrc/u8g2_hvline.c **** #endif /* U8G2_WITH_INTERSECTION */
 233:..\..\..\..\..\..\Dev\Library embedded l2c display\u8g2\csrc/u8g2_hvline.c ****   u8g2_DrawHVLine(u8g2, x, y, 1, 0);
 381              		.loc 1 233 0
 382 0024 0023     		movs	r3, #0
 383 0026 0093     		str	r3, [sp]
 384 0028 0123     		movs	r3, #1
 385 002a FFF7FEFF 		bl	u8g2_DrawHVLine
 386              	.LVL38:
 234:..\..\..\..\..\..\Dev\Library embedded l2c display\u8g2\csrc/u8g2_hvline.c **** }
 387              		.loc 1 234 0
 388 002e 03B0     		add	sp, sp, #12
 389              		.cfi_def_cfa_offset 4
 390              		@ sp needed
ARM GAS  C:\Users\Abude\AppData\Local\Temp\ccpbNMoH.s 			page 12


 391 0030 5DF804FB 		ldr	pc, [sp], #4
 392              	.LVL39:
 393              	.L26:
 394              		.cfi_def_cfa_offset 0
 395              		.cfi_restore 14
 396 0034 7047     		bx	lr
 397              		.cfi_endproc
 398              	.LFE5:
 399              		.size	u8g2_DrawPixel, .-u8g2_DrawPixel
 400 0036 00BF     		.section	.text.u8g2_SetDrawColor,"ax",%progbits
 401              		.align	2
 402              		.global	u8g2_SetDrawColor
 403              		.thumb
 404              		.thumb_func
 405              		.type	u8g2_SetDrawColor, %function
 406              	u8g2_SetDrawColor:
 407              	.LFB6:
 235:..\..\..\..\..\..\Dev\Library embedded l2c display\u8g2\csrc/u8g2_hvline.c **** 
 236:..\..\..\..\..\..\Dev\Library embedded l2c display\u8g2\csrc/u8g2_hvline.c **** /*
 237:..\..\..\..\..\..\Dev\Library embedded l2c display\u8g2\csrc/u8g2_hvline.c ****   Assign the draw color for all drawing functions.
 238:..\..\..\..\..\..\Dev\Library embedded l2c display\u8g2\csrc/u8g2_hvline.c ****   color may be 0 or 1. The actual color is defined by the display.
 239:..\..\..\..\..\..\Dev\Library embedded l2c display\u8g2\csrc/u8g2_hvline.c ****   With color = 1 the drawing function will set the display memory to 1.
 240:..\..\..\..\..\..\Dev\Library embedded l2c display\u8g2\csrc/u8g2_hvline.c ****   For OLEDs this ususally means, that the pixel is enabled and the LED 
 241:..\..\..\..\..\..\Dev\Library embedded l2c display\u8g2\csrc/u8g2_hvline.c ****   at the pixel is turned on.
 242:..\..\..\..\..\..\Dev\Library embedded l2c display\u8g2\csrc/u8g2_hvline.c ****   On an LCD it usually means that the LCD segment of the pixel is enabled, 
 243:..\..\..\..\..\..\Dev\Library embedded l2c display\u8g2\csrc/u8g2_hvline.c ****   which absorbs the light.
 244:..\..\..\..\..\..\Dev\Library embedded l2c display\u8g2\csrc/u8g2_hvline.c ****   For eInk/ePaper it means black ink.
 245:..\..\..\..\..\..\Dev\Library embedded l2c display\u8g2\csrc/u8g2_hvline.c **** 
 246:..\..\..\..\..\..\Dev\Library embedded l2c display\u8g2\csrc/u8g2_hvline.c ****   7 Jan 2017: Allow color value 2 for XOR operation.
 247:..\..\..\..\..\..\Dev\Library embedded l2c display\u8g2\csrc/u8g2_hvline.c ****   
 248:..\..\..\..\..\..\Dev\Library embedded l2c display\u8g2\csrc/u8g2_hvline.c **** */
 249:..\..\..\..\..\..\Dev\Library embedded l2c display\u8g2\csrc/u8g2_hvline.c **** void u8g2_SetDrawColor(u8g2_t *u8g2, uint8_t color)
 250:..\..\..\..\..\..\Dev\Library embedded l2c display\u8g2\csrc/u8g2_hvline.c **** {
 408              		.loc 1 250 0
 409              		.cfi_startproc
 410              		@ args = 0, pretend = 0, frame = 0
 411              		@ frame_needed = 0, uses_anonymous_args = 0
 412              		@ link register save eliminated.
 413              	.LVL40:
 251:..\..\..\..\..\..\Dev\Library embedded l2c display\u8g2\csrc/u8g2_hvline.c ****   u8g2->draw_color = color;	/* u8g2_SetDrawColor: just assign the argument */ 
 414              		.loc 1 251 0
 415 0000 80F89210 		strb	r1, [r0, #146]
 252:..\..\..\..\..\..\Dev\Library embedded l2c display\u8g2\csrc/u8g2_hvline.c ****   if ( color >= 3 )
 416              		.loc 1 252 0
 417 0004 0229     		cmp	r1, #2
 418 0006 02D9     		bls	.L27
 253:..\..\..\..\..\..\Dev\Library embedded l2c display\u8g2\csrc/u8g2_hvline.c ****     u8g2->draw_color = 1;	/* u8g2_SetDrawColor: make color as one if arg is invalid */
 419              		.loc 1 253 0
 420 0008 0123     		movs	r3, #1
 421 000a 80F89230 		strb	r3, [r0, #146]
 422              	.L27:
 423 000e 7047     		bx	lr
 424              		.cfi_endproc
 425              	.LFE6:
 426              		.size	u8g2_SetDrawColor, .-u8g2_SetDrawColor
 427              		.text
 428              	.Letext0:
ARM GAS  C:\Users\Abude\AppData\Local\Temp\ccpbNMoH.s 			page 13


 429              		.file 2 "c:\\program files (x86)\\cypress\\psoc creator\\4.4\\psoc creator\\import\\gnu\\arm\\5.4.
 430              		.file 3 "c:\\program files (x86)\\cypress\\psoc creator\\4.4\\psoc creator\\import\\gnu\\arm\\5.4.
 431              		.file 4 "c:\\dev\\library embedded l2c display\\u8g2\\csrc\\u8x8.h"
 432              		.file 5 "c:\\dev\\library embedded l2c display\\u8g2\\csrc\\u8g2.h"