ARM GAS  C:\Users\Abude\AppData\Local\Temp\cclta1Eb.s 			page 1


   1              		.syntax unified
   2              		.cpu cortex-m3
   3              		.fpu softvfp
   4              		.eabi_attribute 20, 1
   5              		.eabi_attribute 21, 1
   6              		.eabi_attribute 23, 3
   7              		.eabi_attribute 24, 1
   8              		.eabi_attribute 25, 1
   9              		.eabi_attribute 26, 1
  10              		.eabi_attribute 30, 1
  11              		.eabi_attribute 34, 1
  12              		.eabi_attribute 18, 4
  13              		.thumb
  14              		.syntax unified
  15              		.file	"u8g2_message.c"
  16              		.text
  17              	.Ltext0:
  18              		.cfi_sections	.debug_frame
  19              		.section	.text.u8g2_draw_button_line,"ax",%progbits
  20              		.align	2
  21              		.global	u8g2_draw_button_line
  22              		.thumb
  23              		.thumb_func
  24              		.type	u8g2_draw_button_line, %function
  25              	u8g2_draw_button_line:
  26              	.LFB0:
  27              		.file 1 "..\\..\\..\\..\\..\\..\\Dev\\Library embedded l2c display\\u8g2\\csrc\\u8g2_message.c"
   1:..\..\..\..\..\..\Dev\Library embedded l2c display\u8g2\csrc/u8g2_message.c **** /*
   2:..\..\..\..\..\..\Dev\Library embedded l2c display\u8g2\csrc/u8g2_message.c **** 
   3:..\..\..\..\..\..\Dev\Library embedded l2c display\u8g2\csrc/u8g2_message.c ****   u8g2_message.c
   4:..\..\..\..\..\..\Dev\Library embedded l2c display\u8g2\csrc/u8g2_message.c ****   
   5:..\..\..\..\..\..\Dev\Library embedded l2c display\u8g2\csrc/u8g2_message.c ****   Universal 8bit Graphics Library (https://github.com/olikraus/u8g2/)
   6:..\..\..\..\..\..\Dev\Library embedded l2c display\u8g2\csrc/u8g2_message.c **** 
   7:..\..\..\..\..\..\Dev\Library embedded l2c display\u8g2\csrc/u8g2_message.c ****   Copyright (c) 2016, olikraus@gmail.com
   8:..\..\..\..\..\..\Dev\Library embedded l2c display\u8g2\csrc/u8g2_message.c ****   All rights reserved.
   9:..\..\..\..\..\..\Dev\Library embedded l2c display\u8g2\csrc/u8g2_message.c **** 
  10:..\..\..\..\..\..\Dev\Library embedded l2c display\u8g2\csrc/u8g2_message.c ****   Redistribution and use in source and binary forms, with or without modification, 
  11:..\..\..\..\..\..\Dev\Library embedded l2c display\u8g2\csrc/u8g2_message.c ****   are permitted provided that the following conditions are met:
  12:..\..\..\..\..\..\Dev\Library embedded l2c display\u8g2\csrc/u8g2_message.c **** 
  13:..\..\..\..\..\..\Dev\Library embedded l2c display\u8g2\csrc/u8g2_message.c ****   * Redistributions of source code must retain the above copyright notice, this list 
  14:..\..\..\..\..\..\Dev\Library embedded l2c display\u8g2\csrc/u8g2_message.c ****     of conditions and the following disclaimer.
  15:..\..\..\..\..\..\Dev\Library embedded l2c display\u8g2\csrc/u8g2_message.c ****     
  16:..\..\..\..\..\..\Dev\Library embedded l2c display\u8g2\csrc/u8g2_message.c ****   * Redistributions in binary form must reproduce the above copyright notice, this 
  17:..\..\..\..\..\..\Dev\Library embedded l2c display\u8g2\csrc/u8g2_message.c ****     list of conditions and the following disclaimer in the documentation and/or other 
  18:..\..\..\..\..\..\Dev\Library embedded l2c display\u8g2\csrc/u8g2_message.c ****     materials provided with the distribution.
  19:..\..\..\..\..\..\Dev\Library embedded l2c display\u8g2\csrc/u8g2_message.c **** 
  20:..\..\..\..\..\..\Dev\Library embedded l2c display\u8g2\csrc/u8g2_message.c ****   THIS SOFTWARE IS PROVIDED BY THE COPYRIGHT HOLDERS AND 
  21:..\..\..\..\..\..\Dev\Library embedded l2c display\u8g2\csrc/u8g2_message.c ****   CONTRIBUTORS "AS IS" AND ANY EXPRESS OR IMPLIED WARRANTIES, 
  22:..\..\..\..\..\..\Dev\Library embedded l2c display\u8g2\csrc/u8g2_message.c ****   INCLUDING, BUT NOT LIMITED TO, THE IMPLIED WARRANTIES OF 
  23:..\..\..\..\..\..\Dev\Library embedded l2c display\u8g2\csrc/u8g2_message.c ****   MERCHANTABILITY AND FITNESS FOR A PARTICULAR PURPOSE ARE 
  24:..\..\..\..\..\..\Dev\Library embedded l2c display\u8g2\csrc/u8g2_message.c ****   DISCLAIMED. IN NO EVENT SHALL THE COPYRIGHT HOLDER OR 
  25:..\..\..\..\..\..\Dev\Library embedded l2c display\u8g2\csrc/u8g2_message.c ****   CONTRIBUTORS BE LIABLE FOR ANY DIRECT, INDIRECT, INCIDENTAL, 
  26:..\..\..\..\..\..\Dev\Library embedded l2c display\u8g2\csrc/u8g2_message.c ****   SPECIAL, EXEMPLARY, OR CONSEQUENTIAL DAMAGES (INCLUDING, BUT 
  27:..\..\..\..\..\..\Dev\Library embedded l2c display\u8g2\csrc/u8g2_message.c ****   NOT LIMITED TO, PROCUREMENT OF SUBSTITUTE GOODS OR SERVICES; 
  28:..\..\..\..\..\..\Dev\Library embedded l2c display\u8g2\csrc/u8g2_message.c ****   LOSS OF USE, DATA, OR PROFITS; OR BUSINESS INTERRUPTION) HOWEVER 
  29:..\..\..\..\..\..\Dev\Library embedded l2c display\u8g2\csrc/u8g2_message.c ****   CAUSED AND ON ANY THEORY OF LIABILITY, WHETHER IN CONTRACT, 
  30:..\..\..\..\..\..\Dev\Library embedded l2c display\u8g2\csrc/u8g2_message.c ****   STRICT LIABILITY, OR TORT (INCLUDING NEGLIGENCE OR OTHERWISE) 
ARM GAS  C:\Users\Abude\AppData\Local\Temp\cclta1Eb.s 			page 2


  31:..\..\..\..\..\..\Dev\Library embedded l2c display\u8g2\csrc/u8g2_message.c ****   ARISING IN ANY WAY OUT OF THE USE OF THIS SOFTWARE, EVEN IF 
  32:..\..\..\..\..\..\Dev\Library embedded l2c display\u8g2\csrc/u8g2_message.c ****   ADVISED OF THE POSSIBILITY OF SUCH DAMAGE.  
  33:..\..\..\..\..\..\Dev\Library embedded l2c display\u8g2\csrc/u8g2_message.c ****   
  34:..\..\..\..\..\..\Dev\Library embedded l2c display\u8g2\csrc/u8g2_message.c **** */
  35:..\..\..\..\..\..\Dev\Library embedded l2c display\u8g2\csrc/u8g2_message.c **** 
  36:..\..\..\..\..\..\Dev\Library embedded l2c display\u8g2\csrc/u8g2_message.c **** #include "u8g2.h"
  37:..\..\..\..\..\..\Dev\Library embedded l2c display\u8g2\csrc/u8g2_message.c **** 
  38:..\..\..\..\..\..\Dev\Library embedded l2c display\u8g2\csrc/u8g2_message.c **** #define SPACE_BETWEEN_BUTTONS_IN_PIXEL 6
  39:..\..\..\..\..\..\Dev\Library embedded l2c display\u8g2\csrc/u8g2_message.c **** #define SPACE_BETWEEN_TEXT_AND_BUTTONS_IN_PIXEL 3
  40:..\..\..\..\..\..\Dev\Library embedded l2c display\u8g2\csrc/u8g2_message.c **** 
  41:..\..\..\..\..\..\Dev\Library embedded l2c display\u8g2\csrc/u8g2_message.c **** uint8_t u8g2_draw_button_line(u8g2_t *u8g2, u8g2_uint_t y, u8g2_uint_t w, uint8_t cursor, const cha
  42:..\..\..\..\..\..\Dev\Library embedded l2c display\u8g2\csrc/u8g2_message.c **** {
  28              		.loc 1 42 0
  29              		.cfi_startproc
  30              		@ args = 4, pretend = 0, frame = 0
  31              		@ frame_needed = 0, uses_anonymous_args = 0
  32              	.LVL0:
  33 0000 2DE9F04F 		push	{r4, r5, r6, r7, r8, r9, r10, fp, lr}
  34              		.cfi_def_cfa_offset 36
  35              		.cfi_offset 4, -36
  36              		.cfi_offset 5, -32
  37              		.cfi_offset 6, -28
  38              		.cfi_offset 7, -24
  39              		.cfi_offset 8, -20
  40              		.cfi_offset 9, -16
  41              		.cfi_offset 10, -12
  42              		.cfi_offset 11, -8
  43              		.cfi_offset 14, -4
  44 0004 85B0     		sub	sp, sp, #20
  45              		.cfi_def_cfa_offset 56
  46 0006 0746     		mov	r7, r0
  47 0008 8946     		mov	r9, r1
  48 000a 1446     		mov	r4, r2
  49 000c 9A46     		mov	r10, r3
  50 000e 0E9E     		ldr	r6, [sp, #56]
  43:..\..\..\..\..\..\Dev\Library embedded l2c display\u8g2\csrc/u8g2_message.c ****   u8g2_uint_t button_line_width;
  44:..\..\..\..\..\..\Dev\Library embedded l2c display\u8g2\csrc/u8g2_message.c **** 	
  45:..\..\..\..\..\..\Dev\Library embedded l2c display\u8g2\csrc/u8g2_message.c ****   uint8_t i;
  46:..\..\..\..\..\..\Dev\Library embedded l2c display\u8g2\csrc/u8g2_message.c ****   uint8_t cnt;
  47:..\..\..\..\..\..\Dev\Library embedded l2c display\u8g2\csrc/u8g2_message.c ****   uint8_t is_invert;
  48:..\..\..\..\..\..\Dev\Library embedded l2c display\u8g2\csrc/u8g2_message.c **** 	
  49:..\..\..\..\..\..\Dev\Library embedded l2c display\u8g2\csrc/u8g2_message.c ****   u8g2_uint_t d;
  50:..\..\..\..\..\..\Dev\Library embedded l2c display\u8g2\csrc/u8g2_message.c ****   u8g2_uint_t x;
  51:..\..\..\..\..\..\Dev\Library embedded l2c display\u8g2\csrc/u8g2_message.c **** 	
  52:..\..\..\..\..\..\Dev\Library embedded l2c display\u8g2\csrc/u8g2_message.c ****   cnt = u8x8_GetStringLineCnt(s);
  51              		.loc 1 52 0
  52 0010 3046     		mov	r0, r6
  53              	.LVL1:
  54 0012 FFF7FEFF 		bl	u8x8_GetStringLineCnt
  55              	.LVL2:
  56 0016 8046     		mov	r8, r0
  57              	.LVL3:
  53:..\..\..\..\..\..\Dev\Library embedded l2c display\u8g2\csrc/u8g2_message.c ****   
  54:..\..\..\..\..\..\Dev\Library embedded l2c display\u8g2\csrc/u8g2_message.c **** 	
  55:..\..\..\..\..\..\Dev\Library embedded l2c display\u8g2\csrc/u8g2_message.c ****   /* calculate the width of the button line */
  56:..\..\..\..\..\..\Dev\Library embedded l2c display\u8g2\csrc/u8g2_message.c ****   button_line_width = 0;
  57:..\..\..\..\..\..\Dev\Library embedded l2c display\u8g2\csrc/u8g2_message.c ****   for( i = 0; i < cnt; i++ )
ARM GAS  C:\Users\Abude\AppData\Local\Temp\cclta1Eb.s 			page 3


  58              		.loc 1 57 0
  59 0018 0025     		movs	r5, #0
  56:..\..\..\..\..\..\Dev\Library embedded l2c display\u8g2\csrc/u8g2_message.c ****   for( i = 0; i < cnt; i++ )
  60              		.loc 1 56 0
  61 001a AB46     		mov	fp, r5
  62              		.loc 1 57 0
  63 001c 0CE0     		b	.L2
  64              	.LVL4:
  65              	.L3:
  58:..\..\..\..\..\..\Dev\Library embedded l2c display\u8g2\csrc/u8g2_message.c ****   {
  59:..\..\..\..\..\..\Dev\Library embedded l2c display\u8g2\csrc/u8g2_message.c ****     button_line_width += u8g2_GetUTF8Width(u8g2, u8x8_GetStringLineStart(i, s));
  66              		.loc 1 59 0 discriminator 3
  67 001e 3146     		mov	r1, r6
  68 0020 2846     		mov	r0, r5
  69 0022 FFF7FEFF 		bl	u8x8_GetStringLineStart
  70              	.LVL5:
  71 0026 0146     		mov	r1, r0
  72 0028 3846     		mov	r0, r7
  73 002a FFF7FEFF 		bl	u8g2_GetUTF8Width
  74              	.LVL6:
  75 002e 5844     		add	r0, r0, fp
  76 0030 1FFA80FB 		uxth	fp, r0
  77              	.LVL7:
  57:..\..\..\..\..\..\Dev\Library embedded l2c display\u8g2\csrc/u8g2_message.c ****   {
  78              		.loc 1 57 0 discriminator 3
  79 0034 0135     		adds	r5, r5, #1
  80              	.LVL8:
  81 0036 EDB2     		uxtb	r5, r5
  82              	.LVL9:
  83              	.L2:
  57:..\..\..\..\..\..\Dev\Library embedded l2c display\u8g2\csrc/u8g2_message.c ****   {
  84              		.loc 1 57 0 is_stmt 0 discriminator 1
  85 0038 4545     		cmp	r5, r8
  86 003a F0D3     		bcc	.L3
  60:..\..\..\..\..\..\Dev\Library embedded l2c display\u8g2\csrc/u8g2_message.c ****   }
  61:..\..\..\..\..\..\Dev\Library embedded l2c display\u8g2\csrc/u8g2_message.c ****   button_line_width += (cnt-1)*SPACE_BETWEEN_BUTTONS_IN_PIXEL;	/* add some space between the button
  87              		.loc 1 61 0 is_stmt 1
  88 003c 08F1FF33 		add	r3, r8, #-1
  89 0040 03EB4303 		add	r3, r3, r3, lsl #1
  90 0044 5800     		lsls	r0, r3, #1
  91 0046 5844     		add	r0, r0, fp
  92 0048 80B2     		uxth	r0, r0
  93              	.LVL10:
  62:..\..\..\..\..\..\Dev\Library embedded l2c display\u8g2\csrc/u8g2_message.c ****   
  63:..\..\..\..\..\..\Dev\Library embedded l2c display\u8g2\csrc/u8g2_message.c ****   /* calculate the left offset */
  64:..\..\..\..\..\..\Dev\Library embedded l2c display\u8g2\csrc/u8g2_message.c ****   d = 0;
  65:..\..\..\..\..\..\Dev\Library embedded l2c display\u8g2\csrc/u8g2_message.c ****   if ( button_line_width < w )
  94              		.loc 1 65 0
  95 004a A042     		cmp	r0, r4
  96 004c 03D2     		bcs	.L8
  97              	.LVL11:
  66:..\..\..\..\..\..\Dev\Library embedded l2c display\u8g2\csrc/u8g2_message.c ****   {
  67:..\..\..\..\..\..\Dev\Library embedded l2c display\u8g2\csrc/u8g2_message.c ****     d = w;
  68:..\..\..\..\..\..\Dev\Library embedded l2c display\u8g2\csrc/u8g2_message.c ****     d -= button_line_width;
  98              		.loc 1 68 0
  99 004e 241A     		subs	r4, r4, r0
 100              	.LVL12:
ARM GAS  C:\Users\Abude\AppData\Local\Temp\cclta1Eb.s 			page 4


  69:..\..\..\..\..\..\Dev\Library embedded l2c display\u8g2\csrc/u8g2_message.c ****     d /= 2;
 101              		.loc 1 69 0
 102 0050 C4F34E04 		ubfx	r4, r4, #1, #15
 103              	.LVL13:
 104 0054 00E0     		b	.L4
 105              	.LVL14:
 106              	.L8:
  64:..\..\..\..\..\..\Dev\Library embedded l2c display\u8g2\csrc/u8g2_message.c ****   if ( button_line_width < w )
 107              		.loc 1 64 0
 108 0056 0024     		movs	r4, #0
 109              	.LVL15:
 110              	.L4:
  70:..\..\..\..\..\..\Dev\Library embedded l2c display\u8g2\csrc/u8g2_message.c ****   }
  71:..\..\..\..\..\..\Dev\Library embedded l2c display\u8g2\csrc/u8g2_message.c ****   
  72:..\..\..\..\..\..\Dev\Library embedded l2c display\u8g2\csrc/u8g2_message.c ****   /* draw the buttons */
  73:..\..\..\..\..\..\Dev\Library embedded l2c display\u8g2\csrc/u8g2_message.c ****   x = d;
  74:..\..\..\..\..\..\Dev\Library embedded l2c display\u8g2\csrc/u8g2_message.c ****   for( i = 0; i < cnt; i++ )
  75:..\..\..\..\..\..\Dev\Library embedded l2c display\u8g2\csrc/u8g2_message.c ****   {
  76:..\..\..\..\..\..\Dev\Library embedded l2c display\u8g2\csrc/u8g2_message.c ****     is_invert = 0;
  77:..\..\..\..\..\..\Dev\Library embedded l2c display\u8g2\csrc/u8g2_message.c ****     if ( i == cursor )
  78:..\..\..\..\..\..\Dev\Library embedded l2c display\u8g2\csrc/u8g2_message.c ****       is_invert = 1;
 111              		.loc 1 78 0 discriminator 1
 112 0058 0025     		movs	r5, #0
 113              	.LVL16:
 114 005a 23E0     		b	.L5
 115              	.LVL17:
 116              	.L7:
  77:..\..\..\..\..\..\Dev\Library embedded l2c display\u8g2\csrc/u8g2_message.c ****       is_invert = 1;
 117              		.loc 1 77 0
 118 005c 5545     		cmp	r5, r10
 119 005e 02D0     		beq	.L9
  76:..\..\..\..\..\..\Dev\Library embedded l2c display\u8g2\csrc/u8g2_message.c ****     if ( i == cursor )
 120              		.loc 1 76 0
 121 0060 4FF0000B 		mov	fp, #0
 122 0064 01E0     		b	.L6
 123              	.L9:
 124              		.loc 1 78 0
 125 0066 4FF0010B 		mov	fp, #1
 126              	.L6:
 127              	.LVL18:
  79:..\..\..\..\..\..\Dev\Library embedded l2c display\u8g2\csrc/u8g2_message.c **** 
  80:..\..\..\..\..\..\Dev\Library embedded l2c display\u8g2\csrc/u8g2_message.c ****     u8g2_DrawUTF8Line(u8g2, x, y, 0, u8x8_GetStringLineStart(i, s), 1, is_invert);
 128              		.loc 1 80 0 discriminator 2
 129 006a 3146     		mov	r1, r6
 130 006c 2846     		mov	r0, r5
 131 006e FFF7FEFF 		bl	u8x8_GetStringLineStart
 132              	.LVL19:
 133 0072 CDF808B0 		str	fp, [sp, #8]
 134 0076 0123     		movs	r3, #1
 135 0078 0193     		str	r3, [sp, #4]
 136 007a 0090     		str	r0, [sp]
 137 007c 0023     		movs	r3, #0
 138 007e 4A46     		mov	r2, r9
 139 0080 2146     		mov	r1, r4
 140 0082 3846     		mov	r0, r7
 141 0084 FFF7FEFF 		bl	u8g2_DrawUTF8Line
 142              	.LVL20:
ARM GAS  C:\Users\Abude\AppData\Local\Temp\cclta1Eb.s 			page 5


  81:..\..\..\..\..\..\Dev\Library embedded l2c display\u8g2\csrc/u8g2_message.c ****     x += u8g2_GetUTF8Width(u8g2, u8x8_GetStringLineStart(i, s));
 143              		.loc 1 81 0 discriminator 2
 144 0088 3146     		mov	r1, r6
 145 008a 2846     		mov	r0, r5
 146 008c FFF7FEFF 		bl	u8x8_GetStringLineStart
 147              	.LVL21:
 148 0090 0146     		mov	r1, r0
 149 0092 3846     		mov	r0, r7
 150 0094 FFF7FEFF 		bl	u8g2_GetUTF8Width
 151              	.LVL22:
 152 0098 2044     		add	r0, r0, r4
 153 009a 84B2     		uxth	r4, r0
 154              	.LVL23:
  82:..\..\..\..\..\..\Dev\Library embedded l2c display\u8g2\csrc/u8g2_message.c ****     x += SPACE_BETWEEN_BUTTONS_IN_PIXEL;
 155              		.loc 1 82 0 discriminator 2
 156 009c 0634     		adds	r4, r4, #6
 157              	.LVL24:
 158 009e A4B2     		uxth	r4, r4
 159              	.LVL25:
  74:..\..\..\..\..\..\Dev\Library embedded l2c display\u8g2\csrc/u8g2_message.c ****   {
 160              		.loc 1 74 0 discriminator 2
 161 00a0 0135     		adds	r5, r5, #1
 162              	.LVL26:
 163 00a2 EDB2     		uxtb	r5, r5
 164              	.LVL27:
 165              	.L5:
  74:..\..\..\..\..\..\Dev\Library embedded l2c display\u8g2\csrc/u8g2_message.c ****   {
 166              		.loc 1 74 0 is_stmt 0 discriminator 1
 167 00a4 4545     		cmp	r5, r8
 168 00a6 D9D3     		bcc	.L7
  83:..\..\..\..\..\..\Dev\Library embedded l2c display\u8g2\csrc/u8g2_message.c ****   }
  84:..\..\..\..\..\..\Dev\Library embedded l2c display\u8g2\csrc/u8g2_message.c ****   
  85:..\..\..\..\..\..\Dev\Library embedded l2c display\u8g2\csrc/u8g2_message.c ****   /* return the number of buttons */
  86:..\..\..\..\..\..\Dev\Library embedded l2c display\u8g2\csrc/u8g2_message.c ****   return cnt;
  87:..\..\..\..\..\..\Dev\Library embedded l2c display\u8g2\csrc/u8g2_message.c **** }
 169              		.loc 1 87 0 is_stmt 1
 170 00a8 4046     		mov	r0, r8
 171 00aa 05B0     		add	sp, sp, #20
 172              		.cfi_def_cfa_offset 36
 173              		@ sp needed
 174 00ac BDE8F08F 		pop	{r4, r5, r6, r7, r8, r9, r10, fp, pc}
 175              		.cfi_endproc
 176              	.LFE0:
 177              		.size	u8g2_draw_button_line, .-u8g2_draw_button_line
 178              		.section	.text.u8g2_UserInterfaceMessage,"ax",%progbits
 179              		.align	2
 180              		.global	u8g2_UserInterfaceMessage
 181              		.thumb
 182              		.thumb_func
 183              		.type	u8g2_UserInterfaceMessage, %function
 184              	u8g2_UserInterfaceMessage:
 185              	.LFB1:
  88:..\..\..\..\..\..\Dev\Library embedded l2c display\u8g2\csrc/u8g2_message.c **** 
  89:..\..\..\..\..\..\Dev\Library embedded l2c display\u8g2\csrc/u8g2_message.c **** /*
  90:..\..\..\..\..\..\Dev\Library embedded l2c display\u8g2\csrc/u8g2_message.c ****   title1:	Multiple lines,separated by '\n'
  91:..\..\..\..\..\..\Dev\Library embedded l2c display\u8g2\csrc/u8g2_message.c ****   title2:	A single line/string which is terminated by '\0' or '\n' . "title2" accepts the return va
  92:..\..\..\..\..\..\Dev\Library embedded l2c display\u8g2\csrc/u8g2_message.c ****   title3:	Multiple lines,separated by '\n'
ARM GAS  C:\Users\Abude\AppData\Local\Temp\cclta1Eb.s 			page 6


  93:..\..\..\..\..\..\Dev\Library embedded l2c display\u8g2\csrc/u8g2_message.c ****   buttons:	one more more buttons separated by '\n' and terminated with '\0'
  94:..\..\..\..\..\..\Dev\Library embedded l2c display\u8g2\csrc/u8g2_message.c ****   side effects:
  95:..\..\..\..\..\..\Dev\Library embedded l2c display\u8g2\csrc/u8g2_message.c ****     u8g2_SetFontDirection(u8g2, 0);
  96:..\..\..\..\..\..\Dev\Library embedded l2c display\u8g2\csrc/u8g2_message.c ****     u8g2_SetFontPosBaseline(u8g2);
  97:..\..\..\..\..\..\Dev\Library embedded l2c display\u8g2\csrc/u8g2_message.c **** */
  98:..\..\..\..\..\..\Dev\Library embedded l2c display\u8g2\csrc/u8g2_message.c **** 
  99:..\..\..\..\..\..\Dev\Library embedded l2c display\u8g2\csrc/u8g2_message.c **** uint8_t u8g2_UserInterfaceMessage(u8g2_t *u8g2, const char *title1, const char *title2, const char 
 100:..\..\..\..\..\..\Dev\Library embedded l2c display\u8g2\csrc/u8g2_message.c **** {
 186              		.loc 1 100 0
 187              		.cfi_startproc
 188              		@ args = 4, pretend = 0, frame = 8
 189              		@ frame_needed = 0, uses_anonymous_args = 0
 190              	.LVL28:
 191 0000 2DE9F04F 		push	{r4, r5, r6, r7, r8, r9, r10, fp, lr}
 192              		.cfi_def_cfa_offset 36
 193              		.cfi_offset 4, -36
 194              		.cfi_offset 5, -32
 195              		.cfi_offset 6, -28
 196              		.cfi_offset 7, -24
 197              		.cfi_offset 8, -20
 198              		.cfi_offset 9, -16
 199              		.cfi_offset 10, -12
 200              		.cfi_offset 11, -8
 201              		.cfi_offset 14, -4
 202 0004 87B0     		sub	sp, sp, #28
 203              		.cfi_def_cfa_offset 64
 204 0006 0446     		mov	r4, r0
 205 0008 8946     		mov	r9, r1
 206 000a 1746     		mov	r7, r2
 207 000c 9A46     		mov	r10, r3
 208 000e DDF840B0 		ldr	fp, [sp, #64]
 209              	.LVL29:
 101:..\..\..\..\..\..\Dev\Library embedded l2c display\u8g2\csrc/u8g2_message.c ****   uint8_t height;
 102:..\..\..\..\..\..\Dev\Library embedded l2c display\u8g2\csrc/u8g2_message.c ****   uint8_t line_height;
 103:..\..\..\..\..\..\Dev\Library embedded l2c display\u8g2\csrc/u8g2_message.c ****   u8g2_uint_t pixel_height;
 104:..\..\..\..\..\..\Dev\Library embedded l2c display\u8g2\csrc/u8g2_message.c ****   u8g2_uint_t y, yy;
 105:..\..\..\..\..\..\Dev\Library embedded l2c display\u8g2\csrc/u8g2_message.c **** 	
 106:..\..\..\..\..\..\Dev\Library embedded l2c display\u8g2\csrc/u8g2_message.c ****   uint8_t cursor = 0;
 107:..\..\..\..\..\..\Dev\Library embedded l2c display\u8g2\csrc/u8g2_message.c ****   uint8_t button_cnt;
 108:..\..\..\..\..\..\Dev\Library embedded l2c display\u8g2\csrc/u8g2_message.c ****   uint8_t event;
 109:..\..\..\..\..\..\Dev\Library embedded l2c display\u8g2\csrc/u8g2_message.c **** 	
 110:..\..\..\..\..\..\Dev\Library embedded l2c display\u8g2\csrc/u8g2_message.c ****   /* only horizontal strings are supported, so force this here */
 111:..\..\..\..\..\..\Dev\Library embedded l2c display\u8g2\csrc/u8g2_message.c ****   u8g2_SetFontDirection(u8g2, 0);
 210              		.loc 1 111 0
 211 0012 0021     		movs	r1, #0
 212              	.LVL30:
 213 0014 FFF7FEFF 		bl	u8g2_SetFontDirection
 214              	.LVL31:
 112:..\..\..\..\..\..\Dev\Library embedded l2c display\u8g2\csrc/u8g2_message.c **** 
 113:..\..\..\..\..\..\Dev\Library embedded l2c display\u8g2\csrc/u8g2_message.c ****   /* force baseline position */
 114:..\..\..\..\..\..\Dev\Library embedded l2c display\u8g2\csrc/u8g2_message.c ****   u8g2_SetFontPosBaseline(u8g2);
 215              		.loc 1 114 0
 216 0018 2046     		mov	r0, r4
 217 001a FFF7FEFF 		bl	u8g2_SetFontPosBaseline
 218              	.LVL32:
 115:..\..\..\..\..\..\Dev\Library embedded l2c display\u8g2\csrc/u8g2_message.c **** 	
 116:..\..\..\..\..\..\Dev\Library embedded l2c display\u8g2\csrc/u8g2_message.c **** 	
ARM GAS  C:\Users\Abude\AppData\Local\Temp\cclta1Eb.s 			page 7


 117:..\..\..\..\..\..\Dev\Library embedded l2c display\u8g2\csrc/u8g2_message.c ****   /* calculate line height */
 118:..\..\..\..\..\..\Dev\Library embedded l2c display\u8g2\csrc/u8g2_message.c ****   line_height = u8g2_GetAscent(u8g2);
 219              		.loc 1 118 0
 220 001e 94F88E30 		ldrb	r3, [r4, #142]	@ zero_extendqisi2
 221              	.LVL33:
 119:..\..\..\..\..\..\Dev\Library embedded l2c display\u8g2\csrc/u8g2_message.c ****   line_height -= u8g2_GetDescent(u8g2);
 222              		.loc 1 119 0
 223 0022 94F98F50 		ldrsb	r5, [r4, #143]
 224 0026 5D1B     		subs	r5, r3, r5
 225 0028 EDB2     		uxtb	r5, r5
 226              	.LVL34:
 120:..\..\..\..\..\..\Dev\Library embedded l2c display\u8g2\csrc/u8g2_message.c **** 
 121:..\..\..\..\..\..\Dev\Library embedded l2c display\u8g2\csrc/u8g2_message.c ****   /* calculate overall height of the message box in lines*/
 122:..\..\..\..\..\..\Dev\Library embedded l2c display\u8g2\csrc/u8g2_message.c ****   height = 1;	/* button line */
 123:..\..\..\..\..\..\Dev\Library embedded l2c display\u8g2\csrc/u8g2_message.c ****   height += u8x8_GetStringLineCnt(title1);
 227              		.loc 1 123 0
 228 002a 4846     		mov	r0, r9
 229 002c FFF7FEFF 		bl	u8x8_GetStringLineCnt
 230              	.LVL35:
 231 0030 461C     		adds	r6, r0, #1
 232 0032 F6B2     		uxtb	r6, r6
 233              	.LVL36:
 124:..\..\..\..\..\..\Dev\Library embedded l2c display\u8g2\csrc/u8g2_message.c ****   if ( title2 != NULL )
 234              		.loc 1 124 0
 235 0034 0FB1     		cbz	r7, .L12
 125:..\..\..\..\..\..\Dev\Library embedded l2c display\u8g2\csrc/u8g2_message.c ****     height++;
 236              		.loc 1 125 0
 237 0036 0230     		adds	r0, r0, #2
 238 0038 C6B2     		uxtb	r6, r0
 239              	.LVL37:
 240              	.L12:
 126:..\..\..\..\..\..\Dev\Library embedded l2c display\u8g2\csrc/u8g2_message.c ****   height += u8x8_GetStringLineCnt(title3);
 241              		.loc 1 126 0
 242 003a 5046     		mov	r0, r10
 243 003c FFF7FEFF 		bl	u8x8_GetStringLineCnt
 244              	.LVL38:
 245 0040 3044     		add	r0, r0, r6
 246              	.LVL39:
 127:..\..\..\..\..\..\Dev\Library embedded l2c display\u8g2\csrc/u8g2_message.c ****   
 128:..\..\..\..\..\..\Dev\Library embedded l2c display\u8g2\csrc/u8g2_message.c ****   /* calculate the height in pixel */
 129:..\..\..\..\..\..\Dev\Library embedded l2c display\u8g2\csrc/u8g2_message.c ****   pixel_height = height;
 247              		.loc 1 129 0
 248 0042 C3B2     		uxtb	r3, r0
 249              	.LVL40:
 130:..\..\..\..\..\..\Dev\Library embedded l2c display\u8g2\csrc/u8g2_message.c ****   pixel_height *= line_height;
 250              		.loc 1 130 0
 251 0044 ADB2     		uxth	r5, r5
 252              	.LVL41:
 253 0046 05FB03F3 		mul	r3, r5, r3
 254              	.LVL42:
 131:..\..\..\..\..\..\Dev\Library embedded l2c display\u8g2\csrc/u8g2_message.c ****   
 132:..\..\..\..\..\..\Dev\Library embedded l2c display\u8g2\csrc/u8g2_message.c ****   /* ... and add the space between the text and the buttons */
 133:..\..\..\..\..\..\Dev\Library embedded l2c display\u8g2\csrc/u8g2_message.c ****   pixel_height +=SPACE_BETWEEN_TEXT_AND_BUTTONS_IN_PIXEL;
 255              		.loc 1 133 0
 256 004a 0333     		adds	r3, r3, #3
 257              	.LVL43:
 258 004c 9BB2     		uxth	r3, r3
ARM GAS  C:\Users\Abude\AppData\Local\Temp\cclta1Eb.s 			page 8


 259              	.LVL44:
 134:..\..\..\..\..\..\Dev\Library embedded l2c display\u8g2\csrc/u8g2_message.c ****   
 135:..\..\..\..\..\..\Dev\Library embedded l2c display\u8g2\csrc/u8g2_message.c ****   /* calculate offset from top */
 136:..\..\..\..\..\..\Dev\Library embedded l2c display\u8g2\csrc/u8g2_message.c ****   y = 0;
 137:..\..\..\..\..\..\Dev\Library embedded l2c display\u8g2\csrc/u8g2_message.c ****   if ( pixel_height < u8g2_GetDisplayHeight(u8g2)   )
 260              		.loc 1 137 0
 261 004e B4F84620 		ldrh	r2, [r4, #70]
 262 0052 9342     		cmp	r3, r2
 263 0054 03D2     		bcs	.L26
 264              	.LVL45:
 138:..\..\..\..\..\..\Dev\Library embedded l2c display\u8g2\csrc/u8g2_message.c ****   {
 139:..\..\..\..\..\..\Dev\Library embedded l2c display\u8g2\csrc/u8g2_message.c ****     y = u8g2_GetDisplayHeight(u8g2);
 140:..\..\..\..\..\..\Dev\Library embedded l2c display\u8g2\csrc/u8g2_message.c ****     y -= pixel_height;
 265              		.loc 1 140 0
 266 0056 D31A     		subs	r3, r2, r3
 267              	.LVL46:
 141:..\..\..\..\..\..\Dev\Library embedded l2c display\u8g2\csrc/u8g2_message.c ****     y /= 2;
 268              		.loc 1 141 0
 269 0058 C3F34E03 		ubfx	r3, r3, #1, #15
 270              	.LVL47:
 271 005c 00E0     		b	.L13
 272              	.LVL48:
 273              	.L26:
 136:..\..\..\..\..\..\Dev\Library embedded l2c display\u8g2\csrc/u8g2_message.c ****   if ( pixel_height < u8g2_GetDisplayHeight(u8g2)   )
 274              		.loc 1 136 0
 275 005e 0023     		movs	r3, #0
 276              	.LVL49:
 277              	.L13:
 142:..\..\..\..\..\..\Dev\Library embedded l2c display\u8g2\csrc/u8g2_message.c ****   }
 143:..\..\..\..\..\..\Dev\Library embedded l2c display\u8g2\csrc/u8g2_message.c ****   y += u8g2_GetAscent(u8g2);
 278              		.loc 1 143 0
 279 0060 94F98E60 		ldrsb	r6, [r4, #142]
 280 0064 1E44     		add	r6, r6, r3
 281 0066 B6B2     		uxth	r6, r6
 282              	.LVL50:
 106:..\..\..\..\..\..\Dev\Library embedded l2c display\u8g2\csrc/u8g2_message.c ****   uint8_t button_cnt;
 283              		.loc 1 106 0
 284 0068 0023     		movs	r3, #0
 285 006a 0493     		str	r3, [sp, #16]
 286 006c 01E0     		b	.L14
 287              	.LVL51:
 288              	.L27:
 144:..\..\..\..\..\..\Dev\Library embedded l2c display\u8g2\csrc/u8g2_message.c **** 
 145:..\..\..\..\..\..\Dev\Library embedded l2c display\u8g2\csrc/u8g2_message.c ****   
 146:..\..\..\..\..\..\Dev\Library embedded l2c display\u8g2\csrc/u8g2_message.c ****   for(;;)
 147:..\..\..\..\..\..\Dev\Library embedded l2c display\u8g2\csrc/u8g2_message.c ****   {
 148:..\..\..\..\..\..\Dev\Library embedded l2c display\u8g2\csrc/u8g2_message.c ****       u8g2_FirstPage(u8g2);
 149:..\..\..\..\..\..\Dev\Library embedded l2c display\u8g2\csrc/u8g2_message.c ****       do
 150:..\..\..\..\..\..\Dev\Library embedded l2c display\u8g2\csrc/u8g2_message.c ****       {
 151:..\..\..\..\..\..\Dev\Library embedded l2c display\u8g2\csrc/u8g2_message.c **** 	  yy = y;
 152:..\..\..\..\..\..\Dev\Library embedded l2c display\u8g2\csrc/u8g2_message.c **** 	  /* draw message box */
 153:..\..\..\..\..\..\Dev\Library embedded l2c display\u8g2\csrc/u8g2_message.c **** 	  
 154:..\..\..\..\..\..\Dev\Library embedded l2c display\u8g2\csrc/u8g2_message.c **** 	  yy += u8g2_DrawUTF8Lines(u8g2, 0, yy, u8g2_GetDisplayWidth(u8g2), line_height, title1);
 155:..\..\..\..\..\..\Dev\Library embedded l2c display\u8g2\csrc/u8g2_message.c **** 	  if ( title2 != NULL )
 156:..\..\..\..\..\..\Dev\Library embedded l2c display\u8g2\csrc/u8g2_message.c **** 	  {
 157:..\..\..\..\..\..\Dev\Library embedded l2c display\u8g2\csrc/u8g2_message.c **** 	    u8g2_DrawUTF8Line(u8g2, 0, yy, u8g2_GetDisplayWidth(u8g2), title2, 0, 0);
 158:..\..\..\..\..\..\Dev\Library embedded l2c display\u8g2\csrc/u8g2_message.c **** 	    yy+=line_height;
ARM GAS  C:\Users\Abude\AppData\Local\Temp\cclta1Eb.s 			page 9


 159:..\..\..\..\..\..\Dev\Library embedded l2c display\u8g2\csrc/u8g2_message.c **** 	  }
 160:..\..\..\..\..\..\Dev\Library embedded l2c display\u8g2\csrc/u8g2_message.c **** 	  yy += u8g2_DrawUTF8Lines(u8g2, 0, yy, u8g2_GetDisplayWidth(u8g2), line_height, title3);
 161:..\..\..\..\..\..\Dev\Library embedded l2c display\u8g2\csrc/u8g2_message.c **** 	  yy += SPACE_BETWEEN_TEXT_AND_BUTTONS_IN_PIXEL;
 162:..\..\..\..\..\..\Dev\Library embedded l2c display\u8g2\csrc/u8g2_message.c **** 
 163:..\..\..\..\..\..\Dev\Library embedded l2c display\u8g2\csrc/u8g2_message.c **** 	  button_cnt = u8g2_draw_button_line(u8g2, yy, u8g2_GetDisplayWidth(u8g2), cursor, buttons);
 164:..\..\..\..\..\..\Dev\Library embedded l2c display\u8g2\csrc/u8g2_message.c **** 	  
 165:..\..\..\..\..\..\Dev\Library embedded l2c display\u8g2\csrc/u8g2_message.c ****       } while( u8g2_NextPage(u8g2) );
 166:..\..\..\..\..\..\Dev\Library embedded l2c display\u8g2\csrc/u8g2_message.c **** 
 167:..\..\..\..\..\..\Dev\Library embedded l2c display\u8g2\csrc/u8g2_message.c **** #ifdef U8G2_REF_MAN_PIC
 168:..\..\..\..\..\..\Dev\Library embedded l2c display\u8g2\csrc/u8g2_message.c ****       return 0;
 169:..\..\..\..\..\..\Dev\Library embedded l2c display\u8g2\csrc/u8g2_message.c **** #endif
 170:..\..\..\..\..\..\Dev\Library embedded l2c display\u8g2\csrc/u8g2_message.c **** 	  
 171:..\..\..\..\..\..\Dev\Library embedded l2c display\u8g2\csrc/u8g2_message.c ****       for(;;)
 172:..\..\..\..\..\..\Dev\Library embedded l2c display\u8g2\csrc/u8g2_message.c ****       {
 173:..\..\..\..\..\..\Dev\Library embedded l2c display\u8g2\csrc/u8g2_message.c **** 	    event = u8x8_GetMenuEvent(u8g2_GetU8x8(u8g2));
 174:..\..\..\..\..\..\Dev\Library embedded l2c display\u8g2\csrc/u8g2_message.c **** 	    if ( event == U8X8_MSG_GPIO_MENU_SELECT )
 175:..\..\..\..\..\..\Dev\Library embedded l2c display\u8g2\csrc/u8g2_message.c **** 	      return cursor+1;
 176:..\..\..\..\..\..\Dev\Library embedded l2c display\u8g2\csrc/u8g2_message.c **** 	    else if ( event == U8X8_MSG_GPIO_MENU_HOME )
 177:..\..\..\..\..\..\Dev\Library embedded l2c display\u8g2\csrc/u8g2_message.c **** 	      return 0;
 178:..\..\..\..\..\..\Dev\Library embedded l2c display\u8g2\csrc/u8g2_message.c **** 	    else if ( event == U8X8_MSG_GPIO_MENU_NEXT || event == U8X8_MSG_GPIO_MENU_DOWN )
 179:..\..\..\..\..\..\Dev\Library embedded l2c display\u8g2\csrc/u8g2_message.c **** 	    {
 180:..\..\..\..\..\..\Dev\Library embedded l2c display\u8g2\csrc/u8g2_message.c **** 	      cursor++;
 181:..\..\..\..\..\..\Dev\Library embedded l2c display\u8g2\csrc/u8g2_message.c **** 	      if ( cursor >= button_cnt )
 182:..\..\..\..\..\..\Dev\Library embedded l2c display\u8g2\csrc/u8g2_message.c **** 		cursor = 0;
 289              		.loc 1 182 0
 290 006e 0023     		movs	r3, #0
 291              	.LVL52:
 292 0070 0493     		str	r3, [sp, #16]
 293              	.LVL53:
 294              	.L14:
 148:..\..\..\..\..\..\Dev\Library embedded l2c display\u8g2\csrc/u8g2_message.c ****       do
 295              		.loc 1 148 0
 296 0072 2046     		mov	r0, r4
 297 0074 FFF7FEFF 		bl	u8g2_FirstPage
 298              	.LVL54:
 299              	.L16:
 154:..\..\..\..\..\..\Dev\Library embedded l2c display\u8g2\csrc/u8g2_message.c **** 	  if ( title2 != NULL )
 300              		.loc 1 154 0
 301 0078 B4F84430 		ldrh	r3, [r4, #68]
 302 007c CDF80490 		str	r9, [sp, #4]
 303 0080 0095     		str	r5, [sp]
 304 0082 3246     		mov	r2, r6
 305 0084 0021     		movs	r1, #0
 306 0086 2046     		mov	r0, r4
 307 0088 FFF7FEFF 		bl	u8g2_DrawUTF8Lines
 308              	.LVL55:
 309 008c 3044     		add	r0, r0, r6
 310 008e 1FFA80F8 		uxth	r8, r0
 311              	.LVL56:
 155:..\..\..\..\..\..\Dev\Library embedded l2c display\u8g2\csrc/u8g2_message.c **** 	  {
 312              		.loc 1 155 0
 313 0092 67B1     		cbz	r7, .L15
 157:..\..\..\..\..\..\Dev\Library embedded l2c display\u8g2\csrc/u8g2_message.c **** 	    yy+=line_height;
 314              		.loc 1 157 0
 315 0094 B4F84430 		ldrh	r3, [r4, #68]
 316 0098 0021     		movs	r1, #0
 317 009a 0291     		str	r1, [sp, #8]
ARM GAS  C:\Users\Abude\AppData\Local\Temp\cclta1Eb.s 			page 10


 318 009c 0191     		str	r1, [sp, #4]
 319 009e 0097     		str	r7, [sp]
 320 00a0 4246     		mov	r2, r8
 321 00a2 2046     		mov	r0, r4
 322 00a4 FFF7FEFF 		bl	u8g2_DrawUTF8Line
 323              	.LVL57:
 158:..\..\..\..\..\..\Dev\Library embedded l2c display\u8g2\csrc/u8g2_message.c **** 	  }
 324              		.loc 1 158 0
 325 00a8 A844     		add	r8, r8, r5
 326              	.LVL58:
 327 00aa 1FFA88F8 		uxth	r8, r8
 328              	.LVL59:
 329              	.L15:
 160:..\..\..\..\..\..\Dev\Library embedded l2c display\u8g2\csrc/u8g2_message.c **** 	  yy += SPACE_BETWEEN_TEXT_AND_BUTTONS_IN_PIXEL;
 330              		.loc 1 160 0
 331 00ae B4F84430 		ldrh	r3, [r4, #68]
 332 00b2 CDF804A0 		str	r10, [sp, #4]
 333 00b6 0095     		str	r5, [sp]
 334 00b8 4246     		mov	r2, r8
 335 00ba 0021     		movs	r1, #0
 336 00bc 2046     		mov	r0, r4
 337 00be FFF7FEFF 		bl	u8g2_DrawUTF8Lines
 338              	.LVL60:
 339 00c2 4044     		add	r0, r0, r8
 340 00c4 81B2     		uxth	r1, r0
 341              	.LVL61:
 161:..\..\..\..\..\..\Dev\Library embedded l2c display\u8g2\csrc/u8g2_message.c **** 
 342              		.loc 1 161 0
 343 00c6 0331     		adds	r1, r1, #3
 344              	.LVL62:
 163:..\..\..\..\..\..\Dev\Library embedded l2c display\u8g2\csrc/u8g2_message.c **** 	  
 345              		.loc 1 163 0
 346 00c8 B4F84420 		ldrh	r2, [r4, #68]
 347 00cc CDF800B0 		str	fp, [sp]
 348 00d0 049B     		ldr	r3, [sp, #16]
 349 00d2 89B2     		uxth	r1, r1
 350 00d4 2046     		mov	r0, r4
 351 00d6 FFF7FEFF 		bl	u8g2_draw_button_line
 352              	.LVL63:
 353 00da 8046     		mov	r8, r0
 354              	.LVL64:
 165:..\..\..\..\..\..\Dev\Library embedded l2c display\u8g2\csrc/u8g2_message.c **** 
 355              		.loc 1 165 0
 356 00dc 2046     		mov	r0, r4
 357 00de FFF7FEFF 		bl	u8g2_NextPage
 358              	.LVL65:
 359 00e2 0028     		cmp	r0, #0
 360 00e4 C8D1     		bne	.L16
 361 00e6 0590     		str	r0, [sp, #20]
 362              	.L24:
 173:..\..\..\..\..\..\Dev\Library embedded l2c display\u8g2\csrc/u8g2_message.c **** 	    if ( event == U8X8_MSG_GPIO_MENU_SELECT )
 363              		.loc 1 173 0
 364 00e8 2046     		mov	r0, r4
 365 00ea FFF7FEFF 		bl	u8x8_GetMenuEvent
 366              	.LVL66:
 174:..\..\..\..\..\..\Dev\Library embedded l2c display\u8g2\csrc/u8g2_message.c **** 	      return cursor+1;
 367              		.loc 1 174 0
ARM GAS  C:\Users\Abude\AppData\Local\Temp\cclta1Eb.s 			page 11


 368 00ee 5028     		cmp	r0, #80
 369 00f0 04D1     		bne	.L17
 175:..\..\..\..\..\..\Dev\Library embedded l2c display\u8g2\csrc/u8g2_message.c **** 	    else if ( event == U8X8_MSG_GPIO_MENU_HOME )
 370              		.loc 1 175 0
 371 00f2 049B     		ldr	r3, [sp, #16]
 372 00f4 0133     		adds	r3, r3, #1
 373 00f6 DBB2     		uxtb	r3, r3
 374 00f8 0593     		str	r3, [sp, #20]
 375 00fa 19E0     		b	.L18
 376              	.L17:
 176:..\..\..\..\..\..\Dev\Library embedded l2c display\u8g2\csrc/u8g2_message.c **** 	      return 0;
 377              		.loc 1 176 0
 378 00fc 5328     		cmp	r0, #83
 379 00fe 17D0     		beq	.L18
 178:..\..\..\..\..\..\Dev\Library embedded l2c display\u8g2\csrc/u8g2_message.c **** 	    {
 380              		.loc 1 178 0
 381 0100 5128     		cmp	r0, #81
 382 0102 01D0     		beq	.L19
 178:..\..\..\..\..\..\Dev\Library embedded l2c display\u8g2\csrc/u8g2_message.c **** 	    {
 383              		.loc 1 178 0 is_stmt 0 discriminator 1
 384 0104 5528     		cmp	r0, #85
 385 0106 06D1     		bne	.L20
 386              	.L19:
 180:..\..\..\..\..\..\Dev\Library embedded l2c display\u8g2\csrc/u8g2_message.c **** 	      if ( cursor >= button_cnt )
 387              		.loc 1 180 0 is_stmt 1
 388 0108 049B     		ldr	r3, [sp, #16]
 389 010a 0133     		adds	r3, r3, #1
 390 010c DBB2     		uxtb	r3, r3
 391 010e 0493     		str	r3, [sp, #16]
 392              	.LVL67:
 181:..\..\..\..\..\..\Dev\Library embedded l2c display\u8g2\csrc/u8g2_message.c **** 		cursor = 0;
 393              		.loc 1 181 0
 394 0110 9845     		cmp	r8, r3
 395 0112 ACD9     		bls	.L27
 396 0114 ADE7     		b	.L14
 397              	.LVL68:
 398              	.L20:
 183:..\..\..\..\..\..\Dev\Library embedded l2c display\u8g2\csrc/u8g2_message.c **** 	      break;
 184:..\..\..\..\..\..\Dev\Library embedded l2c display\u8g2\csrc/u8g2_message.c **** 	    }
 185:..\..\..\..\..\..\Dev\Library embedded l2c display\u8g2\csrc/u8g2_message.c **** 	    else if ( event == U8X8_MSG_GPIO_MENU_PREV || event == U8X8_MSG_GPIO_MENU_UP )
 399              		.loc 1 185 0
 400 0116 5228     		cmp	r0, #82
 401 0118 01D0     		beq	.L23
 402              		.loc 1 185 0 is_stmt 0 discriminator 1
 403 011a 5428     		cmp	r0, #84
 404 011c E4D1     		bne	.L24
 405              	.L23:
 186:..\..\..\..\..\..\Dev\Library embedded l2c display\u8g2\csrc/u8g2_message.c **** 	    {
 187:..\..\..\..\..\..\Dev\Library embedded l2c display\u8g2\csrc/u8g2_message.c **** 	      if ( cursor == 0 )
 406              		.loc 1 187 0 is_stmt 1
 407 011e 049B     		ldr	r3, [sp, #16]
 408 0120 03B1     		cbz	r3, .L25
 409 0122 9846     		mov	r8, r3
 410              	.LVL69:
 411              	.L25:
 188:..\..\..\..\..\..\Dev\Library embedded l2c display\u8g2\csrc/u8g2_message.c **** 		cursor = button_cnt;
 189:..\..\..\..\..\..\Dev\Library embedded l2c display\u8g2\csrc/u8g2_message.c **** 	      cursor--;
ARM GAS  C:\Users\Abude\AppData\Local\Temp\cclta1Eb.s 			page 12


 412              		.loc 1 189 0
 413 0124 08F1FF38 		add	r8, r8, #-1
 414              	.LVL70:
 415 0128 5FFA88F3 		uxtb	r3, r8
 416 012c 0493     		str	r3, [sp, #16]
 417              	.LVL71:
 190:..\..\..\..\..\..\Dev\Library embedded l2c display\u8g2\csrc/u8g2_message.c **** 	      break;
 418              		.loc 1 190 0
 419 012e A0E7     		b	.L14
 420              	.LVL72:
 421              	.L18:
 191:..\..\..\..\..\..\Dev\Library embedded l2c display\u8g2\csrc/u8g2_message.c **** 	    }    
 192:..\..\..\..\..\..\Dev\Library embedded l2c display\u8g2\csrc/u8g2_message.c ****       }
 193:..\..\..\..\..\..\Dev\Library embedded l2c display\u8g2\csrc/u8g2_message.c ****   }
 194:..\..\..\..\..\..\Dev\Library embedded l2c display\u8g2\csrc/u8g2_message.c ****   /* never reached */
 195:..\..\..\..\..\..\Dev\Library embedded l2c display\u8g2\csrc/u8g2_message.c ****   //return 0;
 196:..\..\..\..\..\..\Dev\Library embedded l2c display\u8g2\csrc/u8g2_message.c **** }
 422              		.loc 1 196 0
 423 0130 0598     		ldr	r0, [sp, #20]
 424              	.LVL73:
 425 0132 07B0     		add	sp, sp, #28
 426              		.cfi_def_cfa_offset 36
 427              		@ sp needed
 428 0134 BDE8F08F 		pop	{r4, r5, r6, r7, r8, r9, r10, fp, pc}
 429              		.cfi_endproc
 430              	.LFE1:
 431              		.size	u8g2_UserInterfaceMessage, .-u8g2_UserInterfaceMessage
 432              		.text
 433              	.Letext0:
 434              		.file 2 "c:\\program files (x86)\\cypress\\psoc creator\\4.4\\psoc creator\\import\\gnu\\arm\\5.4.
 435              		.file 3 "c:\\program files (x86)\\cypress\\psoc creator\\4.4\\psoc creator\\import\\gnu\\arm\\5.4.
 436              		.file 4 "c:\\dev\\library embedded l2c display\\u8g2\\csrc\\u8x8.h"
 437              		.file 5 "c:\\dev\\library embedded l2c display\\u8g2\\csrc\\u8g2.h"