ARM GAS  C:\Users\Abude\AppData\Local\Temp\ccE1cKY4.s 			page 1


   1              		.syntax unified
   2              		.cpu cortex-m3
   3              		.fpu softvfp
   4              		.eabi_attribute 20, 1
   5              		.eabi_attribute 21, 1
   6              		.eabi_attribute 23, 3
   7              		.eabi_attribute 24, 1
   8              		.eabi_attribute 25, 1
   9              		.eabi_attribute 26, 1
  10              		.eabi_attribute 30, 1
  11              		.eabi_attribute 34, 1
  12              		.eabi_attribute 18, 4
  13              		.thumb
  14              		.syntax unified
  15              		.file	"u8g2_selection_list.c"
  16              		.text
  17              	.Ltext0:
  18              		.cfi_sections	.debug_frame
  19              		.section	.text.u8g2_DrawUTF8Line,"ax",%progbits
  20              		.align	2
  21              		.global	u8g2_DrawUTF8Line
  22              		.thumb
  23              		.thumb_func
  24              		.type	u8g2_DrawUTF8Line, %function
  25              	u8g2_DrawUTF8Line:
  26              	.LFB0:
  27              		.file 1 "..\\..\\..\\..\\..\\..\\Dev\\Library embedded l2c display\\u8g2\\csrc\\u8g2_selection_lis
   1:..\..\..\..\..\..\Dev\Library embedded l2c display\u8g2\csrc/u8g2_selection_list.c **** /*
   2:..\..\..\..\..\..\Dev\Library embedded l2c display\u8g2\csrc/u8g2_selection_list.c **** 
   3:..\..\..\..\..\..\Dev\Library embedded l2c display\u8g2\csrc/u8g2_selection_list.c ****   u8g2_selection_list.c
   4:..\..\..\..\..\..\Dev\Library embedded l2c display\u8g2\csrc/u8g2_selection_list.c ****   
   5:..\..\..\..\..\..\Dev\Library embedded l2c display\u8g2\csrc/u8g2_selection_list.c ****   selection list with scroll option
   6:..\..\..\..\..\..\Dev\Library embedded l2c display\u8g2\csrc/u8g2_selection_list.c ****   
   7:..\..\..\..\..\..\Dev\Library embedded l2c display\u8g2\csrc/u8g2_selection_list.c ****   Universal 8bit Graphics Library (https://github.com/olikraus/u8g2/)
   8:..\..\..\..\..\..\Dev\Library embedded l2c display\u8g2\csrc/u8g2_selection_list.c **** 
   9:..\..\..\..\..\..\Dev\Library embedded l2c display\u8g2\csrc/u8g2_selection_list.c ****   Copyright (c) 2016, olikraus@gmail.com
  10:..\..\..\..\..\..\Dev\Library embedded l2c display\u8g2\csrc/u8g2_selection_list.c ****   All rights reserved.
  11:..\..\..\..\..\..\Dev\Library embedded l2c display\u8g2\csrc/u8g2_selection_list.c **** 
  12:..\..\..\..\..\..\Dev\Library embedded l2c display\u8g2\csrc/u8g2_selection_list.c ****   Redistribution and use in source and binary forms, with or without modification, 
  13:..\..\..\..\..\..\Dev\Library embedded l2c display\u8g2\csrc/u8g2_selection_list.c ****   are permitted provided that the following conditions are met:
  14:..\..\..\..\..\..\Dev\Library embedded l2c display\u8g2\csrc/u8g2_selection_list.c **** 
  15:..\..\..\..\..\..\Dev\Library embedded l2c display\u8g2\csrc/u8g2_selection_list.c ****   * Redistributions of source code must retain the above copyright notice, this list 
  16:..\..\..\..\..\..\Dev\Library embedded l2c display\u8g2\csrc/u8g2_selection_list.c ****     of conditions and the following disclaimer.
  17:..\..\..\..\..\..\Dev\Library embedded l2c display\u8g2\csrc/u8g2_selection_list.c ****     
  18:..\..\..\..\..\..\Dev\Library embedded l2c display\u8g2\csrc/u8g2_selection_list.c ****   * Redistributions in binary form must reproduce the above copyright notice, this 
  19:..\..\..\..\..\..\Dev\Library embedded l2c display\u8g2\csrc/u8g2_selection_list.c ****     list of conditions and the following disclaimer in the documentation and/or other 
  20:..\..\..\..\..\..\Dev\Library embedded l2c display\u8g2\csrc/u8g2_selection_list.c ****     materials provided with the distribution.
  21:..\..\..\..\..\..\Dev\Library embedded l2c display\u8g2\csrc/u8g2_selection_list.c **** 
  22:..\..\..\..\..\..\Dev\Library embedded l2c display\u8g2\csrc/u8g2_selection_list.c ****   THIS SOFTWARE IS PROVIDED BY THE COPYRIGHT HOLDERS AND 
  23:..\..\..\..\..\..\Dev\Library embedded l2c display\u8g2\csrc/u8g2_selection_list.c ****   CONTRIBUTORS "AS IS" AND ANY EXPRESS OR IMPLIED WARRANTIES, 
  24:..\..\..\..\..\..\Dev\Library embedded l2c display\u8g2\csrc/u8g2_selection_list.c ****   INCLUDING, BUT NOT LIMITED TO, THE IMPLIED WARRANTIES OF 
  25:..\..\..\..\..\..\Dev\Library embedded l2c display\u8g2\csrc/u8g2_selection_list.c ****   MERCHANTABILITY AND FITNESS FOR A PARTICULAR PURPOSE ARE 
  26:..\..\..\..\..\..\Dev\Library embedded l2c display\u8g2\csrc/u8g2_selection_list.c ****   DISCLAIMED. IN NO EVENT SHALL THE COPYRIGHT HOLDER OR 
  27:..\..\..\..\..\..\Dev\Library embedded l2c display\u8g2\csrc/u8g2_selection_list.c ****   CONTRIBUTORS BE LIABLE FOR ANY DIRECT, INDIRECT, INCIDENTAL, 
  28:..\..\..\..\..\..\Dev\Library embedded l2c display\u8g2\csrc/u8g2_selection_list.c ****   SPECIAL, EXEMPLARY, OR CONSEQUENTIAL DAMAGES (INCLUDING, BUT 
  29:..\..\..\..\..\..\Dev\Library embedded l2c display\u8g2\csrc/u8g2_selection_list.c ****   NOT LIMITED TO, PROCUREMENT OF SUBSTITUTE GOODS OR SERVICES; 
  30:..\..\..\..\..\..\Dev\Library embedded l2c display\u8g2\csrc/u8g2_selection_list.c ****   LOSS OF USE, DATA, OR PROFITS; OR BUSINESS INTERRUPTION) HOWEVER 
ARM GAS  C:\Users\Abude\AppData\Local\Temp\ccE1cKY4.s 			page 2


  31:..\..\..\..\..\..\Dev\Library embedded l2c display\u8g2\csrc/u8g2_selection_list.c ****   CAUSED AND ON ANY THEORY OF LIABILITY, WHETHER IN CONTRACT, 
  32:..\..\..\..\..\..\Dev\Library embedded l2c display\u8g2\csrc/u8g2_selection_list.c ****   STRICT LIABILITY, OR TORT (INCLUDING NEGLIGENCE OR OTHERWISE) 
  33:..\..\..\..\..\..\Dev\Library embedded l2c display\u8g2\csrc/u8g2_selection_list.c ****   ARISING IN ANY WAY OUT OF THE USE OF THIS SOFTWARE, EVEN IF 
  34:..\..\..\..\..\..\Dev\Library embedded l2c display\u8g2\csrc/u8g2_selection_list.c ****   ADVISED OF THE POSSIBILITY OF SUCH DAMAGE.  
  35:..\..\..\..\..\..\Dev\Library embedded l2c display\u8g2\csrc/u8g2_selection_list.c ****   
  36:..\..\..\..\..\..\Dev\Library embedded l2c display\u8g2\csrc/u8g2_selection_list.c **** */
  37:..\..\..\..\..\..\Dev\Library embedded l2c display\u8g2\csrc/u8g2_selection_list.c **** 
  38:..\..\..\..\..\..\Dev\Library embedded l2c display\u8g2\csrc/u8g2_selection_list.c **** #include "u8g2.h"
  39:..\..\..\..\..\..\Dev\Library embedded l2c display\u8g2\csrc/u8g2_selection_list.c **** 
  40:..\..\..\..\..\..\Dev\Library embedded l2c display\u8g2\csrc/u8g2_selection_list.c **** #define MY_BORDER_SIZE 1
  41:..\..\..\..\..\..\Dev\Library embedded l2c display\u8g2\csrc/u8g2_selection_list.c **** 
  42:..\..\..\..\..\..\Dev\Library embedded l2c display\u8g2\csrc/u8g2_selection_list.c **** 
  43:..\..\..\..\..\..\Dev\Library embedded l2c display\u8g2\csrc/u8g2_selection_list.c **** /*
  44:..\..\..\..\..\..\Dev\Library embedded l2c display\u8g2\csrc/u8g2_selection_list.c ****   Draw a string at x,y
  45:..\..\..\..\..\..\Dev\Library embedded l2c display\u8g2\csrc/u8g2_selection_list.c ****   Center string within w (left adjust if w < pixel len of s)
  46:..\..\..\..\..\..\Dev\Library embedded l2c display\u8g2\csrc/u8g2_selection_list.c ****   
  47:..\..\..\..\..\..\Dev\Library embedded l2c display\u8g2\csrc/u8g2_selection_list.c ****   Side effects:
  48:..\..\..\..\..\..\Dev\Library embedded l2c display\u8g2\csrc/u8g2_selection_list.c ****     u8g2_SetFontDirection(u8g2, 0);
  49:..\..\..\..\..\..\Dev\Library embedded l2c display\u8g2\csrc/u8g2_selection_list.c ****     u8g2_SetFontPosBaseline(u8g2);
  50:..\..\..\..\..\..\Dev\Library embedded l2c display\u8g2\csrc/u8g2_selection_list.c **** 
  51:..\..\..\..\..\..\Dev\Library embedded l2c display\u8g2\csrc/u8g2_selection_list.c **** */
  52:..\..\..\..\..\..\Dev\Library embedded l2c display\u8g2\csrc/u8g2_selection_list.c **** void u8g2_DrawUTF8Line(u8g2_t *u8g2, u8g2_uint_t x, u8g2_uint_t y, u8g2_uint_t w, const char *s, ui
  53:..\..\..\..\..\..\Dev\Library embedded l2c display\u8g2\csrc/u8g2_selection_list.c **** {
  28              		.loc 1 53 0
  29              		.cfi_startproc
  30              		@ args = 12, pretend = 0, frame = 8
  31              		@ frame_needed = 0, uses_anonymous_args = 0
  32              	.LVL0:
  33 0000 2DE9F04F 		push	{r4, r5, r6, r7, r8, r9, r10, fp, lr}
  34              		.cfi_def_cfa_offset 36
  35              		.cfi_offset 4, -36
  36              		.cfi_offset 5, -32
  37              		.cfi_offset 6, -28
  38              		.cfi_offset 7, -24
  39              		.cfi_offset 8, -20
  40              		.cfi_offset 9, -16
  41              		.cfi_offset 10, -12
  42              		.cfi_offset 11, -8
  43              		.cfi_offset 14, -4
  44 0004 85B0     		sub	sp, sp, #20
  45              		.cfi_def_cfa_offset 56
  46 0006 8146     		mov	r9, r0
  47 0008 0291     		str	r1, [sp, #8]
  48 000a 9246     		mov	r10, r2
  49 000c 1C46     		mov	r4, r3
  50 000e 9DF83C70 		ldrb	r7, [sp, #60]	@ zero_extendqisi2
  51 0012 9DF840B0 		ldrb	fp, [sp, #64]	@ zero_extendqisi2
  54:..\..\..\..\..\..\Dev\Library embedded l2c display\u8g2\csrc/u8g2_selection_list.c ****   u8g2_uint_t d, str_width;
  55:..\..\..\..\..\..\Dev\Library embedded l2c display\u8g2\csrc/u8g2_selection_list.c ****   u8g2_uint_t fx, fy, fw, fh;
  56:..\..\..\..\..\..\Dev\Library embedded l2c display\u8g2\csrc/u8g2_selection_list.c **** 
  57:..\..\..\..\..\..\Dev\Library embedded l2c display\u8g2\csrc/u8g2_selection_list.c ****   /* only horizontal strings are supported, so force this here */
  58:..\..\..\..\..\..\Dev\Library embedded l2c display\u8g2\csrc/u8g2_selection_list.c ****   u8g2_SetFontDirection(u8g2, 0);
  52              		.loc 1 58 0
  53 0016 0021     		movs	r1, #0
  54              	.LVL1:
  55 0018 FFF7FEFF 		bl	u8g2_SetFontDirection
  56              	.LVL2:
ARM GAS  C:\Users\Abude\AppData\Local\Temp\ccE1cKY4.s 			page 3


  59:..\..\..\..\..\..\Dev\Library embedded l2c display\u8g2\csrc/u8g2_selection_list.c **** 
  60:..\..\..\..\..\..\Dev\Library embedded l2c display\u8g2\csrc/u8g2_selection_list.c ****   /* revert y position back to baseline ref */
  61:..\..\..\..\..\..\Dev\Library embedded l2c display\u8g2\csrc/u8g2_selection_list.c ****   y += u8g2->font_calc_vref(u8g2);   
  57              		.loc 1 61 0
  58 001c D9F85C30 		ldr	r3, [r9, #92]
  59 0020 4846     		mov	r0, r9
  60 0022 9847     		blx	r3
  61              	.LVL3:
  62 0024 5044     		add	r0, r0, r10
  63 0026 1FFA80FA 		uxth	r10, r0
  64              	.LVL4:
  62:..\..\..\..\..\..\Dev\Library embedded l2c display\u8g2\csrc/u8g2_selection_list.c **** 
  63:..\..\..\..\..\..\Dev\Library embedded l2c display\u8g2\csrc/u8g2_selection_list.c ****   /* calculate the width of the string in pixel */
  64:..\..\..\..\..\..\Dev\Library embedded l2c display\u8g2\csrc/u8g2_selection_list.c ****   str_width = u8g2_GetUTF8Width(u8g2, s);
  65              		.loc 1 64 0
  66 002a 0E99     		ldr	r1, [sp, #56]
  67 002c 4846     		mov	r0, r9
  68 002e FFF7FEFF 		bl	u8g2_GetUTF8Width
  69              	.LVL5:
  70 0032 0546     		mov	r5, r0
  71              	.LVL6:
  65:..\..\..\..\..\..\Dev\Library embedded l2c display\u8g2\csrc/u8g2_selection_list.c **** 
  66:..\..\..\..\..\..\Dev\Library embedded l2c display\u8g2\csrc/u8g2_selection_list.c ****   /* calculate delta d within the box */
  67:..\..\..\..\..\..\Dev\Library embedded l2c display\u8g2\csrc/u8g2_selection_list.c ****   d = 0;
  68:..\..\..\..\..\..\Dev\Library embedded l2c display\u8g2\csrc/u8g2_selection_list.c ****   if ( str_width < w )
  72              		.loc 1 68 0
  73 0034 A042     		cmp	r0, r4
  74 0036 05D2     		bcs	.L8
  75              	.LVL7:
  69:..\..\..\..\..\..\Dev\Library embedded l2c display\u8g2\csrc/u8g2_selection_list.c ****   {
  70:..\..\..\..\..\..\Dev\Library embedded l2c display\u8g2\csrc/u8g2_selection_list.c ****     d = w;
  71:..\..\..\..\..\..\Dev\Library embedded l2c display\u8g2\csrc/u8g2_selection_list.c ****     d -=str_width;
  76              		.loc 1 71 0
  77 0038 251A     		subs	r5, r4, r0
  78              	.LVL8:
  72:..\..\..\..\..\..\Dev\Library embedded l2c display\u8g2\csrc/u8g2_selection_list.c ****     d /= 2;
  79              		.loc 1 72 0
  80 003a C5F34E03 		ubfx	r3, r5, #1, #15
  81 003e 0393     		str	r3, [sp, #12]
  82              	.LVL9:
  83 0040 2546     		mov	r5, r4
  84 0042 01E0     		b	.L2
  85              	.LVL10:
  86              	.L8:
  67:..\..\..\..\..\..\Dev\Library embedded l2c display\u8g2\csrc/u8g2_selection_list.c ****   if ( str_width < w )
  87              		.loc 1 67 0
  88 0044 0023     		movs	r3, #0
  89 0046 0393     		str	r3, [sp, #12]
  90              	.LVL11:
  91              	.L2:
  73:..\..\..\..\..\..\Dev\Library embedded l2c display\u8g2\csrc/u8g2_selection_list.c ****   }
  74:..\..\..\..\..\..\Dev\Library embedded l2c display\u8g2\csrc/u8g2_selection_list.c ****   else
  75:..\..\..\..\..\..\Dev\Library embedded l2c display\u8g2\csrc/u8g2_selection_list.c ****   {
  76:..\..\..\..\..\..\Dev\Library embedded l2c display\u8g2\csrc/u8g2_selection_list.c ****     w = str_width;
  77:..\..\..\..\..\..\Dev\Library embedded l2c display\u8g2\csrc/u8g2_selection_list.c ****   }
  78:..\..\..\..\..\..\Dev\Library embedded l2c display\u8g2\csrc/u8g2_selection_list.c **** 
  79:..\..\..\..\..\..\Dev\Library embedded l2c display\u8g2\csrc/u8g2_selection_list.c ****   /* caluclate text box */
ARM GAS  C:\Users\Abude\AppData\Local\Temp\ccE1cKY4.s 			page 4


  80:..\..\..\..\..\..\Dev\Library embedded l2c display\u8g2\csrc/u8g2_selection_list.c ****   fx = x;
  81:..\..\..\..\..\..\Dev\Library embedded l2c display\u8g2\csrc/u8g2_selection_list.c ****   fy = y - u8g2_GetAscent(u8g2) ;
  92              		.loc 1 81 0
  93 0048 99F98E30 		ldrsb	r3, [r9, #142]
  94 004c C3EB0A06 		rsb	r6, r3, r10
  95 0050 B6B2     		uxth	r6, r6
  96              	.LVL12:
  82:..\..\..\..\..\..\Dev\Library embedded l2c display\u8g2\csrc/u8g2_selection_list.c ****   fw = w;
  83:..\..\..\..\..\..\Dev\Library embedded l2c display\u8g2\csrc/u8g2_selection_list.c ****   fh = u8g2_GetAscent(u8g2) - u8g2_GetDescent(u8g2) ;
  97              		.loc 1 83 0
  98 0052 99F98F40 		ldrsb	r4, [r9, #143]
  99 0056 1C1B     		subs	r4, r3, r4
 100 0058 A4B2     		uxth	r4, r4
 101              	.LVL13:
  84:..\..\..\..\..\..\Dev\Library embedded l2c display\u8g2\csrc/u8g2_selection_list.c **** 
  85:..\..\..\..\..\..\Dev\Library embedded l2c display\u8g2\csrc/u8g2_selection_list.c ****   /* draw the box, if inverted */
  86:..\..\..\..\..\..\Dev\Library embedded l2c display\u8g2\csrc/u8g2_selection_list.c ****   u8g2_SetDrawColor(u8g2, 1);
 102              		.loc 1 86 0
 103 005a 0121     		movs	r1, #1
 104 005c 4846     		mov	r0, r9
 105              	.LVL14:
 106 005e FFF7FEFF 		bl	u8g2_SetDrawColor
 107              	.LVL15:
  87:..\..\..\..\..\..\Dev\Library embedded l2c display\u8g2\csrc/u8g2_selection_list.c ****   if ( is_invert )
 108              		.loc 1 87 0
 109 0062 BBF1000F 		cmp	fp, #0
 110 0066 06D0     		beq	.L3
  88:..\..\..\..\..\..\Dev\Library embedded l2c display\u8g2\csrc/u8g2_selection_list.c ****   {
  89:..\..\..\..\..\..\Dev\Library embedded l2c display\u8g2\csrc/u8g2_selection_list.c ****     u8g2_DrawBox(u8g2, fx, fy, fw, fh);
 111              		.loc 1 89 0
 112 0068 0094     		str	r4, [sp]
 113 006a 2B46     		mov	r3, r5
 114 006c 3246     		mov	r2, r6
 115 006e 0299     		ldr	r1, [sp, #8]
 116 0070 4846     		mov	r0, r9
 117 0072 FFF7FEFF 		bl	u8g2_DrawBox
 118              	.LVL16:
 119              	.L3:
  67:..\..\..\..\..\..\Dev\Library embedded l2c display\u8g2\csrc/u8g2_selection_list.c ****   if ( str_width < w )
 120              		.loc 1 67 0
 121 0076 DDF80880 		ldr	r8, [sp, #8]
 122 007a 12E0     		b	.L4
 123              	.LVL17:
 124              	.L5:
  90:..\..\..\..\..\..\Dev\Library embedded l2c display\u8g2\csrc/u8g2_selection_list.c ****   }
  91:..\..\..\..\..\..\Dev\Library embedded l2c display\u8g2\csrc/u8g2_selection_list.c **** 
  92:..\..\..\..\..\..\Dev\Library embedded l2c display\u8g2\csrc/u8g2_selection_list.c ****   /* draw the frame */
  93:..\..\..\..\..\..\Dev\Library embedded l2c display\u8g2\csrc/u8g2_selection_list.c ****   while( border_size > 0 )
  94:..\..\..\..\..\..\Dev\Library embedded l2c display\u8g2\csrc/u8g2_selection_list.c ****   {
  95:..\..\..\..\..\..\Dev\Library embedded l2c display\u8g2\csrc/u8g2_selection_list.c ****     fx--;
 125              		.loc 1 95 0
 126 007c 08F1FF38 		add	r8, r8, #-1
 127              	.LVL18:
 128 0080 1FFA88F8 		uxth	r8, r8
 129              	.LVL19:
  96:..\..\..\..\..\..\Dev\Library embedded l2c display\u8g2\csrc/u8g2_selection_list.c ****     fy--;
 130              		.loc 1 96 0
ARM GAS  C:\Users\Abude\AppData\Local\Temp\ccE1cKY4.s 			page 5


 131 0084 013E     		subs	r6, r6, #1
 132              	.LVL20:
 133 0086 B6B2     		uxth	r6, r6
 134              	.LVL21:
  97:..\..\..\..\..\..\Dev\Library embedded l2c display\u8g2\csrc/u8g2_selection_list.c ****     fw +=2;
 135              		.loc 1 97 0
 136 0088 0235     		adds	r5, r5, #2
 137              	.LVL22:
 138 008a ADB2     		uxth	r5, r5
 139              	.LVL23:
  98:..\..\..\..\..\..\Dev\Library embedded l2c display\u8g2\csrc/u8g2_selection_list.c ****     fh +=2;
 140              		.loc 1 98 0
 141 008c 0234     		adds	r4, r4, #2
 142              	.LVL24:
 143 008e A4B2     		uxth	r4, r4
 144              	.LVL25:
  99:..\..\..\..\..\..\Dev\Library embedded l2c display\u8g2\csrc/u8g2_selection_list.c ****     u8g2_DrawFrame(u8g2, fx, fy, fw, fh );
 145              		.loc 1 99 0
 146 0090 0094     		str	r4, [sp]
 147 0092 2B46     		mov	r3, r5
 148 0094 3246     		mov	r2, r6
 149 0096 4146     		mov	r1, r8
 150 0098 4846     		mov	r0, r9
 151 009a FFF7FEFF 		bl	u8g2_DrawFrame
 152              	.LVL26:
 100:..\..\..\..\..\..\Dev\Library embedded l2c display\u8g2\csrc/u8g2_selection_list.c ****     border_size--;
 153              		.loc 1 100 0
 154 009e 013F     		subs	r7, r7, #1
 155              	.LVL27:
 156 00a0 FFB2     		uxtb	r7, r7
 157              	.LVL28:
 158              	.L4:
  93:..\..\..\..\..\..\Dev\Library embedded l2c display\u8g2\csrc/u8g2_selection_list.c ****   {
 159              		.loc 1 93 0
 160 00a2 002F     		cmp	r7, #0
 161 00a4 EAD1     		bne	.L5
 101:..\..\..\..\..\..\Dev\Library embedded l2c display\u8g2\csrc/u8g2_selection_list.c ****   }
 102:..\..\..\..\..\..\Dev\Library embedded l2c display\u8g2\csrc/u8g2_selection_list.c **** 
 103:..\..\..\..\..\..\Dev\Library embedded l2c display\u8g2\csrc/u8g2_selection_list.c ****   if ( is_invert )
 162              		.loc 1 103 0
 163 00a6 BBF1000F 		cmp	fp, #0
 164 00aa 04D0     		beq	.L6
 104:..\..\..\..\..\..\Dev\Library embedded l2c display\u8g2\csrc/u8g2_selection_list.c ****   {
 105:..\..\..\..\..\..\Dev\Library embedded l2c display\u8g2\csrc/u8g2_selection_list.c ****     u8g2_SetDrawColor(u8g2, 0);
 165              		.loc 1 105 0
 166 00ac 0021     		movs	r1, #0
 167 00ae 4846     		mov	r0, r9
 168 00b0 FFF7FEFF 		bl	u8g2_SetDrawColor
 169              	.LVL29:
 170 00b4 03E0     		b	.L7
 171              	.L6:
 106:..\..\..\..\..\..\Dev\Library embedded l2c display\u8g2\csrc/u8g2_selection_list.c ****   }
 107:..\..\..\..\..\..\Dev\Library embedded l2c display\u8g2\csrc/u8g2_selection_list.c ****   else
 108:..\..\..\..\..\..\Dev\Library embedded l2c display\u8g2\csrc/u8g2_selection_list.c ****   {
 109:..\..\..\..\..\..\Dev\Library embedded l2c display\u8g2\csrc/u8g2_selection_list.c ****     u8g2_SetDrawColor(u8g2, 1);
 172              		.loc 1 109 0
 173 00b6 0121     		movs	r1, #1
ARM GAS  C:\Users\Abude\AppData\Local\Temp\ccE1cKY4.s 			page 6


 174 00b8 4846     		mov	r0, r9
 175 00ba FFF7FEFF 		bl	u8g2_SetDrawColor
 176              	.LVL30:
 177              	.L7:
 110:..\..\..\..\..\..\Dev\Library embedded l2c display\u8g2\csrc/u8g2_selection_list.c ****   }
 111:..\..\..\..\..\..\Dev\Library embedded l2c display\u8g2\csrc/u8g2_selection_list.c **** 
 112:..\..\..\..\..\..\Dev\Library embedded l2c display\u8g2\csrc/u8g2_selection_list.c ****   /* draw the text */
 113:..\..\..\..\..\..\Dev\Library embedded l2c display\u8g2\csrc/u8g2_selection_list.c ****   u8g2_DrawUTF8(u8g2, x+d, y, s);
 178              		.loc 1 113 0
 179 00be 039B     		ldr	r3, [sp, #12]
 180 00c0 029A     		ldr	r2, [sp, #8]
 181 00c2 1344     		add	r3, r3, r2
 182 00c4 1946     		mov	r1, r3
 183 00c6 0E9B     		ldr	r3, [sp, #56]
 184 00c8 5246     		mov	r2, r10
 185 00ca 89B2     		uxth	r1, r1
 186 00cc 4846     		mov	r0, r9
 187 00ce FFF7FEFF 		bl	u8g2_DrawUTF8
 188              	.LVL31:
 114:..\..\..\..\..\..\Dev\Library embedded l2c display\u8g2\csrc/u8g2_selection_list.c **** 
 115:..\..\..\..\..\..\Dev\Library embedded l2c display\u8g2\csrc/u8g2_selection_list.c ****   /* revert draw color */
 116:..\..\..\..\..\..\Dev\Library embedded l2c display\u8g2\csrc/u8g2_selection_list.c ****   u8g2_SetDrawColor(u8g2, 1);
 189              		.loc 1 116 0
 190 00d2 0121     		movs	r1, #1
 191 00d4 4846     		mov	r0, r9
 192 00d6 FFF7FEFF 		bl	u8g2_SetDrawColor
 193              	.LVL32:
 117:..\..\..\..\..\..\Dev\Library embedded l2c display\u8g2\csrc/u8g2_selection_list.c **** 
 118:..\..\..\..\..\..\Dev\Library embedded l2c display\u8g2\csrc/u8g2_selection_list.c **** }
 194              		.loc 1 118 0
 195 00da 05B0     		add	sp, sp, #20
 196              		.cfi_def_cfa_offset 36
 197              		@ sp needed
 198 00dc BDE8F08F 		pop	{r4, r5, r6, r7, r8, r9, r10, fp, pc}
 199              		.cfi_endproc
 200              	.LFE0:
 201              		.size	u8g2_DrawUTF8Line, .-u8g2_DrawUTF8Line
 202              		.section	.text.u8g2_draw_selection_list_line,"ax",%progbits
 203              		.align	2
 204              		.thumb
 205              		.thumb_func
 206              		.type	u8g2_draw_selection_list_line, %function
 207              	u8g2_draw_selection_list_line:
 208              	.LFB2:
 119:..\..\..\..\..\..\Dev\Library embedded l2c display\u8g2\csrc/u8g2_selection_list.c **** 
 120:..\..\..\..\..\..\Dev\Library embedded l2c display\u8g2\csrc/u8g2_selection_list.c **** 
 121:..\..\..\..\..\..\Dev\Library embedded l2c display\u8g2\csrc/u8g2_selection_list.c **** /*
 122:..\..\..\..\..\..\Dev\Library embedded l2c display\u8g2\csrc/u8g2_selection_list.c ****   draw several lines at position x,y.
 123:..\..\..\..\..\..\Dev\Library embedded l2c display\u8g2\csrc/u8g2_selection_list.c ****   lines are stored in s and must be separated with '\n'.
 124:..\..\..\..\..\..\Dev\Library embedded l2c display\u8g2\csrc/u8g2_selection_list.c ****   lines can be centered with respect to "w"
 125:..\..\..\..\..\..\Dev\Library embedded l2c display\u8g2\csrc/u8g2_selection_list.c ****   if s == NULL nothing is drawn and 0 is returned
 126:..\..\..\..\..\..\Dev\Library embedded l2c display\u8g2\csrc/u8g2_selection_list.c ****   returns the number of lines in s multiplied with line_height
 127:..\..\..\..\..\..\Dev\Library embedded l2c display\u8g2\csrc/u8g2_selection_list.c **** */
 128:..\..\..\..\..\..\Dev\Library embedded l2c display\u8g2\csrc/u8g2_selection_list.c **** u8g2_uint_t u8g2_DrawUTF8Lines(u8g2_t *u8g2, u8g2_uint_t x, u8g2_uint_t y, u8g2_uint_t w, u8g2_uint
 129:..\..\..\..\..\..\Dev\Library embedded l2c display\u8g2\csrc/u8g2_selection_list.c **** {
 130:..\..\..\..\..\..\Dev\Library embedded l2c display\u8g2\csrc/u8g2_selection_list.c ****   uint8_t i;
 131:..\..\..\..\..\..\Dev\Library embedded l2c display\u8g2\csrc/u8g2_selection_list.c ****   uint8_t cnt;
ARM GAS  C:\Users\Abude\AppData\Local\Temp\ccE1cKY4.s 			page 7


 132:..\..\..\..\..\..\Dev\Library embedded l2c display\u8g2\csrc/u8g2_selection_list.c ****   u8g2_uint_t yy = 0;
 133:..\..\..\..\..\..\Dev\Library embedded l2c display\u8g2\csrc/u8g2_selection_list.c ****   cnt = u8x8_GetStringLineCnt(s);
 134:..\..\..\..\..\..\Dev\Library embedded l2c display\u8g2\csrc/u8g2_selection_list.c ****   //printf("str=%s\n", s);
 135:..\..\..\..\..\..\Dev\Library embedded l2c display\u8g2\csrc/u8g2_selection_list.c ****   //printf("cnt=%d, y=%d, line_height=%d\n", cnt, y, line_height);
 136:..\..\..\..\..\..\Dev\Library embedded l2c display\u8g2\csrc/u8g2_selection_list.c ****   for( i = 0; i < cnt; i++ )
 137:..\..\..\..\..\..\Dev\Library embedded l2c display\u8g2\csrc/u8g2_selection_list.c ****   {
 138:..\..\..\..\..\..\Dev\Library embedded l2c display\u8g2\csrc/u8g2_selection_list.c ****     //printf("  i=%d, y=%d, line_height=%d\n", i, y, line_height);
 139:..\..\..\..\..\..\Dev\Library embedded l2c display\u8g2\csrc/u8g2_selection_list.c ****     u8g2_DrawUTF8Line(u8g2, x, y, w, u8x8_GetStringLineStart(i, s), 0, 0);
 140:..\..\..\..\..\..\Dev\Library embedded l2c display\u8g2\csrc/u8g2_selection_list.c ****     y+=line_height;
 141:..\..\..\..\..\..\Dev\Library embedded l2c display\u8g2\csrc/u8g2_selection_list.c ****     yy+=line_height;
 142:..\..\..\..\..\..\Dev\Library embedded l2c display\u8g2\csrc/u8g2_selection_list.c ****   }
 143:..\..\..\..\..\..\Dev\Library embedded l2c display\u8g2\csrc/u8g2_selection_list.c ****   return yy;
 144:..\..\..\..\..\..\Dev\Library embedded l2c display\u8g2\csrc/u8g2_selection_list.c **** }
 145:..\..\..\..\..\..\Dev\Library embedded l2c display\u8g2\csrc/u8g2_selection_list.c **** 
 146:..\..\..\..\..\..\Dev\Library embedded l2c display\u8g2\csrc/u8g2_selection_list.c **** /*
 147:..\..\..\..\..\..\Dev\Library embedded l2c display\u8g2\csrc/u8g2_selection_list.c ****   selection list with string line
 148:..\..\..\..\..\..\Dev\Library embedded l2c display\u8g2\csrc/u8g2_selection_list.c ****   returns line height
 149:..\..\..\..\..\..\Dev\Library embedded l2c display\u8g2\csrc/u8g2_selection_list.c **** */
 150:..\..\..\..\..\..\Dev\Library embedded l2c display\u8g2\csrc/u8g2_selection_list.c **** static u8g2_uint_t u8g2_draw_selection_list_line(u8g2_t *u8g2, u8sl_t *u8sl, u8g2_uint_t y, uint8_t
 151:..\..\..\..\..\..\Dev\Library embedded l2c display\u8g2\csrc/u8g2_selection_list.c **** static u8g2_uint_t u8g2_draw_selection_list_line(u8g2_t *u8g2, u8sl_t *u8sl, u8g2_uint_t y, uint8_t
 152:..\..\..\..\..\..\Dev\Library embedded l2c display\u8g2\csrc/u8g2_selection_list.c **** {
 209              		.loc 1 152 0
 210              		.cfi_startproc
 211              		@ args = 4, pretend = 0, frame = 0
 212              		@ frame_needed = 0, uses_anonymous_args = 0
 213              	.LVL33:
 214 0000 F0B5     		push	{r4, r5, r6, r7, lr}
 215              		.cfi_def_cfa_offset 20
 216              		.cfi_offset 4, -20
 217              		.cfi_offset 5, -16
 218              		.cfi_offset 6, -12
 219              		.cfi_offset 7, -8
 220              		.cfi_offset 14, -4
 221 0002 85B0     		sub	sp, sp, #20
 222              		.cfi_def_cfa_offset 40
 223 0004 0546     		mov	r5, r0
 224 0006 1646     		mov	r6, r2
 225              	.LVL34:
 153:..\..\..\..\..\..\Dev\Library embedded l2c display\u8g2\csrc/u8g2_selection_list.c ****   u8g2_uint_t yy;
 154:..\..\..\..\..\..\Dev\Library embedded l2c display\u8g2\csrc/u8g2_selection_list.c ****   uint8_t border_size = 0;
 155:..\..\..\..\..\..\Dev\Library embedded l2c display\u8g2\csrc/u8g2_selection_list.c ****   uint8_t is_invert = 0;
 156:..\..\..\..\..\..\Dev\Library embedded l2c display\u8g2\csrc/u8g2_selection_list.c **** 	
 157:..\..\..\..\..\..\Dev\Library embedded l2c display\u8g2\csrc/u8g2_selection_list.c ****   u8g2_uint_t line_height = u8g2_GetAscent(u8g2) - u8g2_GetDescent(u8g2)+MY_BORDER_SIZE;
 226              		.loc 1 157 0
 227 0008 90F98E20 		ldrsb	r2, [r0, #142]
 228              	.LVL35:
 229 000c 90F98F40 		ldrsb	r4, [r0, #143]
 230 0010 141B     		subs	r4, r2, r4
 231 0012 0134     		adds	r4, r4, #1
 232 0014 A4B2     		uxth	r4, r4
 233              	.LVL36:
 158:..\..\..\..\..\..\Dev\Library embedded l2c display\u8g2\csrc/u8g2_selection_list.c **** 
 159:..\..\..\..\..\..\Dev\Library embedded l2c display\u8g2\csrc/u8g2_selection_list.c ****   /* calculate offset from display upper border */
 160:..\..\..\..\..\..\Dev\Library embedded l2c display\u8g2\csrc/u8g2_selection_list.c ****   yy = idx;
 161:..\..\..\..\..\..\Dev\Library embedded l2c display\u8g2\csrc/u8g2_selection_list.c ****   yy -= u8sl->first_pos;
 162:..\..\..\..\..\..\Dev\Library embedded l2c display\u8g2\csrc/u8g2_selection_list.c ****   yy *= line_height;
 163:..\..\..\..\..\..\Dev\Library embedded l2c display\u8g2\csrc/u8g2_selection_list.c ****   yy += y;
ARM GAS  C:\Users\Abude\AppData\Local\Temp\ccE1cKY4.s 			page 8


 164:..\..\..\..\..\..\Dev\Library embedded l2c display\u8g2\csrc/u8g2_selection_list.c **** 
 165:..\..\..\..\..\..\Dev\Library embedded l2c display\u8g2\csrc/u8g2_selection_list.c ****   /* check whether this is the current cursor line */
 166:..\..\..\..\..\..\Dev\Library embedded l2c display\u8g2\csrc/u8g2_selection_list.c ****   if ( idx == u8sl->current_pos )
 234              		.loc 1 166 0
 235 0016 CA78     		ldrb	r2, [r1, #3]	@ zero_extendqisi2
 236 0018 9342     		cmp	r3, r2
 237 001a 01D0     		beq	.L13
 154:..\..\..\..\..\..\Dev\Library embedded l2c display\u8g2\csrc/u8g2_selection_list.c ****   uint8_t is_invert = 0;
 238              		.loc 1 154 0
 239 001c 0027     		movs	r7, #0
 240 001e 00E0     		b	.L11
 241              	.L13:
 167:..\..\..\..\..\..\Dev\Library embedded l2c display\u8g2\csrc/u8g2_selection_list.c ****   {
 168:..\..\..\..\..\..\Dev\Library embedded l2c display\u8g2\csrc/u8g2_selection_list.c ****     border_size = MY_BORDER_SIZE;
 242              		.loc 1 168 0
 243 0020 0127     		movs	r7, #1
 244              	.L11:
 245              	.LVL37:
 169:..\..\..\..\..\..\Dev\Library embedded l2c display\u8g2\csrc/u8g2_selection_list.c ****     is_invert = 1;
 170:..\..\..\..\..\..\Dev\Library embedded l2c display\u8g2\csrc/u8g2_selection_list.c ****   }
 171:..\..\..\..\..\..\Dev\Library embedded l2c display\u8g2\csrc/u8g2_selection_list.c **** 
 172:..\..\..\..\..\..\Dev\Library embedded l2c display\u8g2\csrc/u8g2_selection_list.c ****   /* get the line from the array */
 173:..\..\..\..\..\..\Dev\Library embedded l2c display\u8g2\csrc/u8g2_selection_list.c ****   s = u8x8_GetStringLineStart(idx, s);
 246              		.loc 1 173 0
 247 0022 0A99     		ldr	r1, [sp, #40]
 248              	.LVL38:
 249 0024 1846     		mov	r0, r3
 250              	.LVL39:
 251 0026 FFF7FEFF 		bl	u8x8_GetStringLineStart
 252              	.LVL40:
 174:..\..\..\..\..\..\Dev\Library embedded l2c display\u8g2\csrc/u8g2_selection_list.c **** 
 175:..\..\..\..\..\..\Dev\Library embedded l2c display\u8g2\csrc/u8g2_selection_list.c ****   /* draw the line */
 176:..\..\..\..\..\..\Dev\Library embedded l2c display\u8g2\csrc/u8g2_selection_list.c ****   if ( s == NULL )
 253              		.loc 1 176 0
 254 002a 0246     		mov	r2, r0
 255 002c 00B9     		cbnz	r0, .L12
 177:..\..\..\..\..\..\Dev\Library embedded l2c display\u8g2\csrc/u8g2_selection_list.c ****     s = "";
 256              		.loc 1 177 0
 257 002e 084A     		ldr	r2, .L16
 258              	.L12:
 259              	.LVL41:
 178:..\..\..\..\..\..\Dev\Library embedded l2c display\u8g2\csrc/u8g2_selection_list.c ****   u8g2_DrawUTF8Line(u8g2, MY_BORDER_SIZE, y, u8g2_GetDisplayWidth(u8g2)-2*MY_BORDER_SIZE, s, border
 260              		.loc 1 178 0
 261 0030 B5F84430 		ldrh	r3, [r5, #68]
 262 0034 023B     		subs	r3, r3, #2
 263 0036 0297     		str	r7, [sp, #8]
 264 0038 0197     		str	r7, [sp, #4]
 265 003a 0092     		str	r2, [sp]
 266 003c 9BB2     		uxth	r3, r3
 267 003e 3246     		mov	r2, r6
 268              	.LVL42:
 269 0040 0121     		movs	r1, #1
 270 0042 2846     		mov	r0, r5
 271 0044 FFF7FEFF 		bl	u8g2_DrawUTF8Line
 272              	.LVL43:
 179:..\..\..\..\..\..\Dev\Library embedded l2c display\u8g2\csrc/u8g2_selection_list.c ****   return line_height;
 180:..\..\..\..\..\..\Dev\Library embedded l2c display\u8g2\csrc/u8g2_selection_list.c **** }
ARM GAS  C:\Users\Abude\AppData\Local\Temp\ccE1cKY4.s 			page 9


 273              		.loc 1 180 0
 274 0048 2046     		mov	r0, r4
 275 004a 05B0     		add	sp, sp, #20
 276              		.cfi_def_cfa_offset 20
 277              		@ sp needed
 278 004c F0BD     		pop	{r4, r5, r6, r7, pc}
 279              	.LVL44:
 280              	.L17:
 281 004e 00BF     		.align	2
 282              	.L16:
 283 0050 00000000 		.word	.LC0
 284              		.cfi_endproc
 285              	.LFE2:
 286              		.size	u8g2_draw_selection_list_line, .-u8g2_draw_selection_list_line
 287              		.section	.text.u8g2_DrawUTF8Lines,"ax",%progbits
 288              		.align	2
 289              		.global	u8g2_DrawUTF8Lines
 290              		.thumb
 291              		.thumb_func
 292              		.type	u8g2_DrawUTF8Lines, %function
 293              	u8g2_DrawUTF8Lines:
 294              	.LFB1:
 129:..\..\..\..\..\..\Dev\Library embedded l2c display\u8g2\csrc/u8g2_selection_list.c ****   uint8_t i;
 295              		.loc 1 129 0
 296              		.cfi_startproc
 297              		@ args = 8, pretend = 0, frame = 0
 298              		@ frame_needed = 0, uses_anonymous_args = 0
 299              	.LVL45:
 300 0000 2DE9F04F 		push	{r4, r5, r6, r7, r8, r9, r10, fp, lr}
 301              		.cfi_def_cfa_offset 36
 302              		.cfi_offset 4, -36
 303              		.cfi_offset 5, -32
 304              		.cfi_offset 6, -28
 305              		.cfi_offset 7, -24
 306              		.cfi_offset 8, -20
 307              		.cfi_offset 9, -16
 308              		.cfi_offset 10, -12
 309              		.cfi_offset 11, -8
 310              		.cfi_offset 14, -4
 311 0004 85B0     		sub	sp, sp, #20
 312              		.cfi_def_cfa_offset 56
 313 0006 8346     		mov	fp, r0
 314 0008 8A46     		mov	r10, r1
 315 000a 1546     		mov	r5, r2
 316 000c 9946     		mov	r9, r3
 317 000e BDF83870 		ldrh	r7, [sp, #56]
 318              	.LVL46:
 133:..\..\..\..\..\..\Dev\Library embedded l2c display\u8g2\csrc/u8g2_selection_list.c ****   //printf("str=%s\n", s);
 319              		.loc 1 133 0
 320 0012 0F98     		ldr	r0, [sp, #60]
 321              	.LVL47:
 322 0014 FFF7FEFF 		bl	u8x8_GetStringLineCnt
 323              	.LVL48:
 324 0018 8046     		mov	r8, r0
 325              	.LVL49:
 132:..\..\..\..\..\..\Dev\Library embedded l2c display\u8g2\csrc/u8g2_selection_list.c ****   cnt = u8x8_GetStringLineCnt(s);
 326              		.loc 1 132 0
ARM GAS  C:\Users\Abude\AppData\Local\Temp\ccE1cKY4.s 			page 10


 327 001a 0026     		movs	r6, #0
 136:..\..\..\..\..\..\Dev\Library embedded l2c display\u8g2\csrc/u8g2_selection_list.c ****   {
 328              		.loc 1 136 0
 329 001c 3446     		mov	r4, r6
 330 001e 13E0     		b	.L19
 331              	.LVL50:
 332              	.L20:
 139:..\..\..\..\..\..\Dev\Library embedded l2c display\u8g2\csrc/u8g2_selection_list.c ****     y+=line_height;
 333              		.loc 1 139 0 discriminator 3
 334 0020 0F99     		ldr	r1, [sp, #60]
 335 0022 2046     		mov	r0, r4
 336 0024 FFF7FEFF 		bl	u8x8_GetStringLineStart
 337              	.LVL51:
 338 0028 0023     		movs	r3, #0
 339 002a 0293     		str	r3, [sp, #8]
 340 002c 0193     		str	r3, [sp, #4]
 341 002e 0090     		str	r0, [sp]
 342 0030 4B46     		mov	r3, r9
 343 0032 2A46     		mov	r2, r5
 344 0034 5146     		mov	r1, r10
 345 0036 5846     		mov	r0, fp
 346 0038 FFF7FEFF 		bl	u8g2_DrawUTF8Line
 347              	.LVL52:
 140:..\..\..\..\..\..\Dev\Library embedded l2c display\u8g2\csrc/u8g2_selection_list.c ****     yy+=line_height;
 348              		.loc 1 140 0 discriminator 3
 349 003c 3D44     		add	r5, r5, r7
 350              	.LVL53:
 351 003e ADB2     		uxth	r5, r5
 352              	.LVL54:
 141:..\..\..\..\..\..\Dev\Library embedded l2c display\u8g2\csrc/u8g2_selection_list.c ****   }
 353              		.loc 1 141 0 discriminator 3
 354 0040 3E44     		add	r6, r6, r7
 355              	.LVL55:
 356 0042 B6B2     		uxth	r6, r6
 357              	.LVL56:
 136:..\..\..\..\..\..\Dev\Library embedded l2c display\u8g2\csrc/u8g2_selection_list.c ****   {
 358              		.loc 1 136 0 discriminator 3
 359 0044 0134     		adds	r4, r4, #1
 360              	.LVL57:
 361 0046 E4B2     		uxtb	r4, r4
 362              	.LVL58:
 363              	.L19:
 136:..\..\..\..\..\..\Dev\Library embedded l2c display\u8g2\csrc/u8g2_selection_list.c ****   {
 364              		.loc 1 136 0 is_stmt 0 discriminator 1
 365 0048 4445     		cmp	r4, r8
 366 004a E9D3     		bcc	.L20
 144:..\..\..\..\..\..\Dev\Library embedded l2c display\u8g2\csrc/u8g2_selection_list.c **** 
 367              		.loc 1 144 0 is_stmt 1
 368 004c 3046     		mov	r0, r6
 369 004e 05B0     		add	sp, sp, #20
 370              		.cfi_def_cfa_offset 36
 371              		@ sp needed
 372 0050 BDE8F08F 		pop	{r4, r5, r6, r7, r8, r9, r10, fp, pc}
 373              		.cfi_endproc
 374              	.LFE1:
 375              		.size	u8g2_DrawUTF8Lines, .-u8g2_DrawUTF8Lines
 376              		.section	.text.u8g2_DrawSelectionList,"ax",%progbits
ARM GAS  C:\Users\Abude\AppData\Local\Temp\ccE1cKY4.s 			page 11


 377              		.align	2
 378              		.global	u8g2_DrawSelectionList
 379              		.thumb
 380              		.thumb_func
 381              		.type	u8g2_DrawSelectionList, %function
 382              	u8g2_DrawSelectionList:
 383              	.LFB3:
 181:..\..\..\..\..\..\Dev\Library embedded l2c display\u8g2\csrc/u8g2_selection_list.c **** 
 182:..\..\..\..\..\..\Dev\Library embedded l2c display\u8g2\csrc/u8g2_selection_list.c **** void u8g2_DrawSelectionList(u8g2_t *u8g2, u8sl_t *u8sl, u8g2_uint_t y, const char *s)
 183:..\..\..\..\..\..\Dev\Library embedded l2c display\u8g2\csrc/u8g2_selection_list.c **** {
 384              		.loc 1 183 0
 385              		.cfi_startproc
 386              		@ args = 0, pretend = 0, frame = 0
 387              		@ frame_needed = 0, uses_anonymous_args = 0
 388              	.LVL59:
 389 0000 2DE9F041 		push	{r4, r5, r6, r7, r8, lr}
 390              		.cfi_def_cfa_offset 24
 391              		.cfi_offset 4, -24
 392              		.cfi_offset 5, -20
 393              		.cfi_offset 6, -16
 394              		.cfi_offset 7, -12
 395              		.cfi_offset 8, -8
 396              		.cfi_offset 14, -4
 397 0004 82B0     		sub	sp, sp, #8
 398              		.cfi_def_cfa_offset 32
 399 0006 8046     		mov	r8, r0
 400 0008 0E46     		mov	r6, r1
 401 000a 1546     		mov	r5, r2
 402 000c 1F46     		mov	r7, r3
 403              	.LVL60:
 184:..\..\..\..\..\..\Dev\Library embedded l2c display\u8g2\csrc/u8g2_selection_list.c ****   uint8_t i;
 185:..\..\..\..\..\..\Dev\Library embedded l2c display\u8g2\csrc/u8g2_selection_list.c ****   for( i = 0; i < u8sl->visible; i++ )
 404              		.loc 1 185 0
 405 000e 0024     		movs	r4, #0
 406 0010 0CE0     		b	.L23
 407              	.LVL61:
 408              	.L24:
 186:..\..\..\..\..\..\Dev\Library embedded l2c display\u8g2\csrc/u8g2_selection_list.c ****   {
 187:..\..\..\..\..\..\Dev\Library embedded l2c display\u8g2\csrc/u8g2_selection_list.c ****     y += u8g2_draw_selection_list_line(u8g2, u8sl, y, i+u8sl->first_pos, s);
 409              		.loc 1 187 0 discriminator 3
 410 0012 B378     		ldrb	r3, [r6, #2]	@ zero_extendqisi2
 411 0014 2344     		add	r3, r3, r4
 412 0016 0097     		str	r7, [sp]
 413 0018 DBB2     		uxtb	r3, r3
 414 001a 2A46     		mov	r2, r5
 415 001c 3146     		mov	r1, r6
 416 001e 4046     		mov	r0, r8
 417 0020 FFF7FEFF 		bl	u8g2_draw_selection_list_line
 418              	.LVL62:
 419 0024 2844     		add	r0, r0, r5
 420 0026 85B2     		uxth	r5, r0
 421              	.LVL63:
 185:..\..\..\..\..\..\Dev\Library embedded l2c display\u8g2\csrc/u8g2_selection_list.c ****   {
 422              		.loc 1 185 0 discriminator 3
 423 0028 0134     		adds	r4, r4, #1
 424              	.LVL64:
 425 002a E4B2     		uxtb	r4, r4
ARM GAS  C:\Users\Abude\AppData\Local\Temp\ccE1cKY4.s 			page 12


 426              	.LVL65:
 427              	.L23:
 185:..\..\..\..\..\..\Dev\Library embedded l2c display\u8g2\csrc/u8g2_selection_list.c ****   {
 428              		.loc 1 185 0 is_stmt 0 discriminator 1
 429 002c 3378     		ldrb	r3, [r6]	@ zero_extendqisi2
 430 002e 9C42     		cmp	r4, r3
 431 0030 EFD3     		bcc	.L24
 188:..\..\..\..\..\..\Dev\Library embedded l2c display\u8g2\csrc/u8g2_selection_list.c ****   }
 189:..\..\..\..\..\..\Dev\Library embedded l2c display\u8g2\csrc/u8g2_selection_list.c **** }
 432              		.loc 1 189 0 is_stmt 1
 433 0032 02B0     		add	sp, sp, #8
 434              		.cfi_def_cfa_offset 24
 435              		@ sp needed
 436 0034 BDE8F081 		pop	{r4, r5, r6, r7, r8, pc}
 437              		.cfi_endproc
 438              	.LFE3:
 439              		.size	u8g2_DrawSelectionList, .-u8g2_DrawSelectionList
 440              		.section	.text.u8g2_UserInterfaceSelectionList,"ax",%progbits
 441              		.align	2
 442              		.global	u8g2_UserInterfaceSelectionList
 443              		.thumb
 444              		.thumb_func
 445              		.type	u8g2_UserInterfaceSelectionList, %function
 446              	u8g2_UserInterfaceSelectionList:
 447              	.LFB4:
 190:..\..\..\..\..\..\Dev\Library embedded l2c display\u8g2\csrc/u8g2_selection_list.c **** 
 191:..\..\..\..\..\..\Dev\Library embedded l2c display\u8g2\csrc/u8g2_selection_list.c **** 
 192:..\..\..\..\..\..\Dev\Library embedded l2c display\u8g2\csrc/u8g2_selection_list.c **** /*
 193:..\..\..\..\..\..\Dev\Library embedded l2c display\u8g2\csrc/u8g2_selection_list.c ****   title: 		NULL for no title, valid str for title line. Can contain mutliple lines, separated by '\
 194:..\..\..\..\..\..\Dev\Library embedded l2c display\u8g2\csrc/u8g2_selection_list.c ****   start_pos: 	default position for the cursor, first line is 1.
 195:..\..\..\..\..\..\Dev\Library embedded l2c display\u8g2\csrc/u8g2_selection_list.c ****   sl:			string list (list of strings separated by \n)
 196:..\..\..\..\..\..\Dev\Library embedded l2c display\u8g2\csrc/u8g2_selection_list.c ****   returns 0 if user has pressed the home key
 197:..\..\..\..\..\..\Dev\Library embedded l2c display\u8g2\csrc/u8g2_selection_list.c ****   returns the selected line if user has pressed the select key
 198:..\..\..\..\..\..\Dev\Library embedded l2c display\u8g2\csrc/u8g2_selection_list.c ****   side effects:
 199:..\..\..\..\..\..\Dev\Library embedded l2c display\u8g2\csrc/u8g2_selection_list.c ****     u8g2_SetFontDirection(u8g2, 0);
 200:..\..\..\..\..\..\Dev\Library embedded l2c display\u8g2\csrc/u8g2_selection_list.c ****     u8g2_SetFontPosBaseline(u8g2);
 201:..\..\..\..\..\..\Dev\Library embedded l2c display\u8g2\csrc/u8g2_selection_list.c **** 	
 202:..\..\..\..\..\..\Dev\Library embedded l2c display\u8g2\csrc/u8g2_selection_list.c **** */
 203:..\..\..\..\..\..\Dev\Library embedded l2c display\u8g2\csrc/u8g2_selection_list.c **** uint8_t u8g2_UserInterfaceSelectionList(u8g2_t *u8g2, const char *title, uint8_t start_pos, const c
 204:..\..\..\..\..\..\Dev\Library embedded l2c display\u8g2\csrc/u8g2_selection_list.c **** {
 448              		.loc 1 204 0
 449              		.cfi_startproc
 450              		@ args = 0, pretend = 0, frame = 8
 451              		@ frame_needed = 0, uses_anonymous_args = 0
 452              	.LVL66:
 453 0000 2DE9F043 		push	{r4, r5, r6, r7, r8, r9, lr}
 454              		.cfi_def_cfa_offset 28
 455              		.cfi_offset 4, -28
 456              		.cfi_offset 5, -24
 457              		.cfi_offset 6, -20
 458              		.cfi_offset 7, -16
 459              		.cfi_offset 8, -12
 460              		.cfi_offset 9, -8
 461              		.cfi_offset 14, -4
 462 0004 85B0     		sub	sp, sp, #20
 463              		.cfi_def_cfa_offset 48
 464 0006 0546     		mov	r5, r0
ARM GAS  C:\Users\Abude\AppData\Local\Temp\ccE1cKY4.s 			page 13


 465 0008 8946     		mov	r9, r1
 466 000a 1446     		mov	r4, r2
 467 000c 1F46     		mov	r7, r3
 205:..\..\..\..\..\..\Dev\Library embedded l2c display\u8g2\csrc/u8g2_selection_list.c ****   u8sl_t u8sl;
 206:..\..\..\..\..\..\Dev\Library embedded l2c display\u8g2\csrc/u8g2_selection_list.c ****   u8g2_uint_t yy;
 207:..\..\..\..\..\..\Dev\Library embedded l2c display\u8g2\csrc/u8g2_selection_list.c **** 
 208:..\..\..\..\..\..\Dev\Library embedded l2c display\u8g2\csrc/u8g2_selection_list.c ****   uint8_t event;
 209:..\..\..\..\..\..\Dev\Library embedded l2c display\u8g2\csrc/u8g2_selection_list.c **** 
 210:..\..\..\..\..\..\Dev\Library embedded l2c display\u8g2\csrc/u8g2_selection_list.c ****   u8g2_uint_t line_height = u8g2_GetAscent(u8g2) - u8g2_GetDescent(u8g2)+MY_BORDER_SIZE;
 468              		.loc 1 210 0
 469 000e 90F98E30 		ldrsb	r3, [r0, #142]
 470              	.LVL67:
 471 0012 90F98F80 		ldrsb	r8, [r0, #143]
 472 0016 C8EB0308 		rsb	r8, r8, r3
 473 001a 08F10108 		add	r8, r8, #1
 474 001e 1FFA88F8 		uxth	r8, r8
 475              	.LVL68:
 211:..\..\..\..\..\..\Dev\Library embedded l2c display\u8g2\csrc/u8g2_selection_list.c **** 
 212:..\..\..\..\..\..\Dev\Library embedded l2c display\u8g2\csrc/u8g2_selection_list.c ****   uint8_t title_lines = u8x8_GetStringLineCnt(title);
 476              		.loc 1 212 0
 477 0022 0846     		mov	r0, r1
 478              	.LVL69:
 479 0024 FFF7FEFF 		bl	u8x8_GetStringLineCnt
 480              	.LVL70:
 481 0028 0646     		mov	r6, r0
 482              	.LVL71:
 213:..\..\..\..\..\..\Dev\Library embedded l2c display\u8g2\csrc/u8g2_selection_list.c ****   uint8_t display_lines;
 214:..\..\..\..\..\..\Dev\Library embedded l2c display\u8g2\csrc/u8g2_selection_list.c **** 
 215:..\..\..\..\..\..\Dev\Library embedded l2c display\u8g2\csrc/u8g2_selection_list.c ****   
 216:..\..\..\..\..\..\Dev\Library embedded l2c display\u8g2\csrc/u8g2_selection_list.c ****   if ( start_pos > 0 )	/* issue 112 */
 483              		.loc 1 216 0
 484 002a 0CB1     		cbz	r4, .L27
 217:..\..\..\..\..\..\Dev\Library embedded l2c display\u8g2\csrc/u8g2_selection_list.c ****     start_pos--;		/* issue 112 */
 485              		.loc 1 217 0
 486 002c 013C     		subs	r4, r4, #1
 487 002e E4B2     		uxtb	r4, r4
 488              	.LVL72:
 489              	.L27:
 218:..\..\..\..\..\..\Dev\Library embedded l2c display\u8g2\csrc/u8g2_selection_list.c **** 
 219:..\..\..\..\..\..\Dev\Library embedded l2c display\u8g2\csrc/u8g2_selection_list.c **** 
 220:..\..\..\..\..\..\Dev\Library embedded l2c display\u8g2\csrc/u8g2_selection_list.c ****   if ( title_lines > 0 )
 490              		.loc 1 220 0
 491 0030 4EB1     		cbz	r6, .L28
 221:..\..\..\..\..\..\Dev\Library embedded l2c display\u8g2\csrc/u8g2_selection_list.c ****   {
 222:..\..\..\..\..\..\Dev\Library embedded l2c display\u8g2\csrc/u8g2_selection_list.c **** 	display_lines = (u8g2_GetDisplayHeight(u8g2)-3) / line_height;
 492              		.loc 1 222 0
 493 0032 B5F84630 		ldrh	r3, [r5, #70]
 494 0036 033B     		subs	r3, r3, #3
 495 0038 93FBF8F3 		sdiv	r3, r3, r8
 496 003c DBB2     		uxtb	r3, r3
 497              	.LVL73:
 223:..\..\..\..\..\..\Dev\Library embedded l2c display\u8g2\csrc/u8g2_selection_list.c **** 	u8sl.visible = display_lines;
 224:..\..\..\..\..\..\Dev\Library embedded l2c display\u8g2\csrc/u8g2_selection_list.c **** 	u8sl.visible -= title_lines;
 498              		.loc 1 224 0
 499 003e 9B1B     		subs	r3, r3, r6
 500              	.LVL74:
 501 0040 8DF80830 		strb	r3, [sp, #8]
ARM GAS  C:\Users\Abude\AppData\Local\Temp\ccE1cKY4.s 			page 14


 502 0044 05E0     		b	.L29
 503              	.LVL75:
 504              	.L28:
 225:..\..\..\..\..\..\Dev\Library embedded l2c display\u8g2\csrc/u8g2_selection_list.c ****   }
 226:..\..\..\..\..\..\Dev\Library embedded l2c display\u8g2\csrc/u8g2_selection_list.c ****   else
 227:..\..\..\..\..\..\Dev\Library embedded l2c display\u8g2\csrc/u8g2_selection_list.c ****   {
 228:..\..\..\..\..\..\Dev\Library embedded l2c display\u8g2\csrc/u8g2_selection_list.c **** 	display_lines = u8g2_GetDisplayHeight(u8g2) / line_height;
 505              		.loc 1 228 0
 506 0046 B5F84630 		ldrh	r3, [r5, #70]
 507 004a B3FBF8F3 		udiv	r3, r3, r8
 508              	.LVL76:
 229:..\..\..\..\..\..\Dev\Library embedded l2c display\u8g2\csrc/u8g2_selection_list.c **** 	u8sl.visible = display_lines;
 509              		.loc 1 229 0
 510 004e 8DF80830 		strb	r3, [sp, #8]
 511              	.LVL77:
 512              	.L29:
 230:..\..\..\..\..\..\Dev\Library embedded l2c display\u8g2\csrc/u8g2_selection_list.c ****   }
 231:..\..\..\..\..\..\Dev\Library embedded l2c display\u8g2\csrc/u8g2_selection_list.c **** 
 232:..\..\..\..\..\..\Dev\Library embedded l2c display\u8g2\csrc/u8g2_selection_list.c ****   u8sl.total = u8x8_GetStringLineCnt(sl);
 513              		.loc 1 232 0
 514 0052 3846     		mov	r0, r7
 515 0054 FFF7FEFF 		bl	u8x8_GetStringLineCnt
 516              	.LVL78:
 517 0058 8DF80900 		strb	r0, [sp, #9]
 233:..\..\..\..\..\..\Dev\Library embedded l2c display\u8g2\csrc/u8g2_selection_list.c ****   u8sl.first_pos = 0;
 518              		.loc 1 233 0
 519 005c 0023     		movs	r3, #0
 520 005e 8DF80A30 		strb	r3, [sp, #10]
 234:..\..\..\..\..\..\Dev\Library embedded l2c display\u8g2\csrc/u8g2_selection_list.c ****   u8sl.current_pos = start_pos;
 521              		.loc 1 234 0
 522 0062 8DF80B40 		strb	r4, [sp, #11]
 235:..\..\..\..\..\..\Dev\Library embedded l2c display\u8g2\csrc/u8g2_selection_list.c **** 
 236:..\..\..\..\..\..\Dev\Library embedded l2c display\u8g2\csrc/u8g2_selection_list.c ****   if ( u8sl.current_pos >= u8sl.total )
 523              		.loc 1 236 0
 524 0066 8442     		cmp	r4, r0
 525 0068 02D3     		bcc	.L30
 237:..\..\..\..\..\..\Dev\Library embedded l2c display\u8g2\csrc/u8g2_selection_list.c ****     u8sl.current_pos = u8sl.total-1;
 526              		.loc 1 237 0
 527 006a 0138     		subs	r0, r0, #1
 528 006c 8DF80B00 		strb	r0, [sp, #11]
 529              	.L30:
 238:..\..\..\..\..\..\Dev\Library embedded l2c display\u8g2\csrc/u8g2_selection_list.c ****   if ( u8sl.first_pos+u8sl.visible <= u8sl.current_pos )
 530              		.loc 1 238 0
 531 0070 9DF80820 		ldrb	r2, [sp, #8]	@ zero_extendqisi2
 532 0074 9DF80B30 		ldrb	r3, [sp, #11]	@ zero_extendqisi2
 533 0078 9A42     		cmp	r2, r3
 534 007a 03DC     		bgt	.L31
 239:..\..\..\..\..\..\Dev\Library embedded l2c display\u8g2\csrc/u8g2_selection_list.c ****     u8sl.first_pos = u8sl.current_pos-u8sl.visible+1;
 535              		.loc 1 239 0
 536 007c 9B1A     		subs	r3, r3, r2
 537 007e 0133     		adds	r3, r3, #1
 538 0080 8DF80A30 		strb	r3, [sp, #10]
 539              	.L31:
 240:..\..\..\..\..\..\Dev\Library embedded l2c display\u8g2\csrc/u8g2_selection_list.c **** 
 241:..\..\..\..\..\..\Dev\Library embedded l2c display\u8g2\csrc/u8g2_selection_list.c ****   u8g2_SetFontPosBaseline(u8g2);
 540              		.loc 1 241 0
 541 0084 2846     		mov	r0, r5
ARM GAS  C:\Users\Abude\AppData\Local\Temp\ccE1cKY4.s 			page 15


 542 0086 FFF7FEFF 		bl	u8g2_SetFontPosBaseline
 543              	.LVL79:
 544              	.L32:
 242:..\..\..\..\..\..\Dev\Library embedded l2c display\u8g2\csrc/u8g2_selection_list.c ****   
 243:..\..\..\..\..\..\Dev\Library embedded l2c display\u8g2\csrc/u8g2_selection_list.c ****   for(;;)
 244:..\..\..\..\..\..\Dev\Library embedded l2c display\u8g2\csrc/u8g2_selection_list.c ****   {
 245:..\..\..\..\..\..\Dev\Library embedded l2c display\u8g2\csrc/u8g2_selection_list.c ****       u8g2_FirstPage(u8g2);
 545              		.loc 1 245 0
 546 008a 2846     		mov	r0, r5
 547 008c FFF7FEFF 		bl	u8g2_FirstPage
 548              	.LVL80:
 549              	.L34:
 246:..\..\..\..\..\..\Dev\Library embedded l2c display\u8g2\csrc/u8g2_selection_list.c ****       do
 247:..\..\..\..\..\..\Dev\Library embedded l2c display\u8g2\csrc/u8g2_selection_list.c ****       {
 248:..\..\..\..\..\..\Dev\Library embedded l2c display\u8g2\csrc/u8g2_selection_list.c ****         yy = u8g2_GetAscent(u8g2);
 550              		.loc 1 248 0
 551 0090 95F98E40 		ldrsb	r4, [r5, #142]
 552 0094 A4B2     		uxth	r4, r4
 553              	.LVL81:
 249:..\..\..\..\..\..\Dev\Library embedded l2c display\u8g2\csrc/u8g2_selection_list.c ****         if ( title_lines > 0 )
 554              		.loc 1 249 0
 555 0096 DEB1     		cbz	r6, .L33
 250:..\..\..\..\..\..\Dev\Library embedded l2c display\u8g2\csrc/u8g2_selection_list.c ****         {
 251:..\..\..\..\..\..\Dev\Library embedded l2c display\u8g2\csrc/u8g2_selection_list.c ****           yy += u8g2_DrawUTF8Lines(u8g2, 0, yy, u8g2_GetDisplayWidth(u8g2), line_height, title);
 556              		.loc 1 251 0
 557 0098 B5F84430 		ldrh	r3, [r5, #68]
 558 009c CDF80490 		str	r9, [sp, #4]
 559 00a0 CDF80080 		str	r8, [sp]
 560 00a4 2246     		mov	r2, r4
 561 00a6 0021     		movs	r1, #0
 562 00a8 2846     		mov	r0, r5
 563 00aa FFF7FEFF 		bl	u8g2_DrawUTF8Lines
 564              	.LVL82:
 565 00ae 2044     		add	r0, r0, r4
 566 00b0 84B2     		uxth	r4, r0
 567              	.LVL83:
 252:..\..\..\..\..\..\Dev\Library embedded l2c display\u8g2\csrc/u8g2_selection_list.c **** 		
 253:..\..\..\..\..\..\Dev\Library embedded l2c display\u8g2\csrc/u8g2_selection_list.c **** 	  u8g2_DrawHLine(u8g2, 0, yy-line_height- u8g2_GetDescent(u8g2) + 1, u8g2_GetDisplayWidth(u8g2));
 568              		.loc 1 253 0
 569 00b2 95F98F20 		ldrsb	r2, [r5, #143]
 570 00b6 C8EB0403 		rsb	r3, r8, r4
 571 00ba 9A1A     		subs	r2, r3, r2
 572 00bc 0132     		adds	r2, r2, #1
 573 00be B5F84430 		ldrh	r3, [r5, #68]
 574 00c2 92B2     		uxth	r2, r2
 575 00c4 0021     		movs	r1, #0
 576 00c6 2846     		mov	r0, r5
 577 00c8 FFF7FEFF 		bl	u8g2_DrawHLine
 578              	.LVL84:
 254:..\..\..\..\..\..\Dev\Library embedded l2c display\u8g2\csrc/u8g2_selection_list.c **** 		
 255:..\..\..\..\..\..\Dev\Library embedded l2c display\u8g2\csrc/u8g2_selection_list.c **** 	  yy += 3;
 579              		.loc 1 255 0
 580 00cc 0334     		adds	r4, r4, #3
 581              	.LVL85:
 582 00ce A4B2     		uxth	r4, r4
 583              	.LVL86:
 584              	.L33:
ARM GAS  C:\Users\Abude\AppData\Local\Temp\ccE1cKY4.s 			page 16


 256:..\..\..\..\..\..\Dev\Library embedded l2c display\u8g2\csrc/u8g2_selection_list.c ****         }
 257:..\..\..\..\..\..\Dev\Library embedded l2c display\u8g2\csrc/u8g2_selection_list.c ****         u8g2_DrawSelectionList(u8g2, &u8sl, yy, sl);
 585              		.loc 1 257 0
 586 00d0 3B46     		mov	r3, r7
 587 00d2 2246     		mov	r2, r4
 588 00d4 02A9     		add	r1, sp, #8
 589 00d6 2846     		mov	r0, r5
 590 00d8 FFF7FEFF 		bl	u8g2_DrawSelectionList
 591              	.LVL87:
 258:..\..\..\..\..\..\Dev\Library embedded l2c display\u8g2\csrc/u8g2_selection_list.c ****       } while( u8g2_NextPage(u8g2) );
 592              		.loc 1 258 0
 593 00dc 2846     		mov	r0, r5
 594 00de FFF7FEFF 		bl	u8g2_NextPage
 595              	.LVL88:
 596 00e2 0446     		mov	r4, r0
 597              	.LVL89:
 598 00e4 0028     		cmp	r0, #0
 599 00e6 D3D1     		bne	.L34
 600              	.L41:
 259:..\..\..\..\..\..\Dev\Library embedded l2c display\u8g2\csrc/u8g2_selection_list.c ****       
 260:..\..\..\..\..\..\Dev\Library embedded l2c display\u8g2\csrc/u8g2_selection_list.c **** #ifdef U8G2_REF_MAN_PIC
 261:..\..\..\..\..\..\Dev\Library embedded l2c display\u8g2\csrc/u8g2_selection_list.c ****       return 0;
 262:..\..\..\..\..\..\Dev\Library embedded l2c display\u8g2\csrc/u8g2_selection_list.c **** #endif
 263:..\..\..\..\..\..\Dev\Library embedded l2c display\u8g2\csrc/u8g2_selection_list.c **** 
 264:..\..\..\..\..\..\Dev\Library embedded l2c display\u8g2\csrc/u8g2_selection_list.c **** 
 265:..\..\..\..\..\..\Dev\Library embedded l2c display\u8g2\csrc/u8g2_selection_list.c ****       for(;;)
 266:..\..\..\..\..\..\Dev\Library embedded l2c display\u8g2\csrc/u8g2_selection_list.c ****       {
 267:..\..\..\..\..\..\Dev\Library embedded l2c display\u8g2\csrc/u8g2_selection_list.c ****         event = u8x8_GetMenuEvent(u8g2_GetU8x8(u8g2));
 601              		.loc 1 267 0
 602 00e8 2846     		mov	r0, r5
 603 00ea FFF7FEFF 		bl	u8x8_GetMenuEvent
 604              	.LVL90:
 268:..\..\..\..\..\..\Dev\Library embedded l2c display\u8g2\csrc/u8g2_selection_list.c ****         if ( event == U8X8_MSG_GPIO_MENU_SELECT )
 605              		.loc 1 268 0
 606 00ee 5028     		cmp	r0, #80
 607 00f0 04D1     		bne	.L35
 269:..\..\..\..\..\..\Dev\Library embedded l2c display\u8g2\csrc/u8g2_selection_list.c ****           return u8sl.current_pos+1;		/* +1, issue 112 */
 608              		.loc 1 269 0
 609 00f2 9DF80B40 		ldrb	r4, [sp, #11]	@ zero_extendqisi2
 610 00f6 0134     		adds	r4, r4, #1
 611 00f8 E4B2     		uxtb	r4, r4
 612 00fa 11E0     		b	.L36
 613              	.L35:
 270:..\..\..\..\..\..\Dev\Library embedded l2c display\u8g2\csrc/u8g2_selection_list.c ****         else if ( event == U8X8_MSG_GPIO_MENU_HOME )
 614              		.loc 1 270 0
 615 00fc 5328     		cmp	r0, #83
 616 00fe 0FD0     		beq	.L36
 271:..\..\..\..\..\..\Dev\Library embedded l2c display\u8g2\csrc/u8g2_selection_list.c ****           return 0;				/* issue 112: return 0 instead of start_pos */
 272:..\..\..\..\..\..\Dev\Library embedded l2c display\u8g2\csrc/u8g2_selection_list.c ****         else if ( event == U8X8_MSG_GPIO_MENU_NEXT || event == U8X8_MSG_GPIO_MENU_DOWN )
 617              		.loc 1 272 0
 618 0100 5128     		cmp	r0, #81
 619 0102 01D0     		beq	.L37
 620              		.loc 1 272 0 is_stmt 0 discriminator 1
 621 0104 5528     		cmp	r0, #85
 622 0106 03D1     		bne	.L38
 623              	.L37:
 273:..\..\..\..\..\..\Dev\Library embedded l2c display\u8g2\csrc/u8g2_selection_list.c ****         {
ARM GAS  C:\Users\Abude\AppData\Local\Temp\ccE1cKY4.s 			page 17


 274:..\..\..\..\..\..\Dev\Library embedded l2c display\u8g2\csrc/u8g2_selection_list.c ****           u8sl_Next(&u8sl);
 624              		.loc 1 274 0 is_stmt 1
 625 0108 02A8     		add	r0, sp, #8
 626              	.LVL91:
 627 010a FFF7FEFF 		bl	u8sl_Next
 628              	.LVL92:
 275:..\..\..\..\..\..\Dev\Library embedded l2c display\u8g2\csrc/u8g2_selection_list.c ****           break;
 629              		.loc 1 275 0
 630 010e BCE7     		b	.L32
 631              	.LVL93:
 632              	.L38:
 276:..\..\..\..\..\..\Dev\Library embedded l2c display\u8g2\csrc/u8g2_selection_list.c ****         }
 277:..\..\..\..\..\..\Dev\Library embedded l2c display\u8g2\csrc/u8g2_selection_list.c ****         else if ( event == U8X8_MSG_GPIO_MENU_PREV || event == U8X8_MSG_GPIO_MENU_UP )
 633              		.loc 1 277 0
 634 0110 5228     		cmp	r0, #82
 635 0112 01D0     		beq	.L40
 636              		.loc 1 277 0 is_stmt 0 discriminator 1
 637 0114 5428     		cmp	r0, #84
 638 0116 E7D1     		bne	.L41
 639              	.L40:
 278:..\..\..\..\..\..\Dev\Library embedded l2c display\u8g2\csrc/u8g2_selection_list.c ****         {
 279:..\..\..\..\..\..\Dev\Library embedded l2c display\u8g2\csrc/u8g2_selection_list.c ****           u8sl_Prev(&u8sl);
 640              		.loc 1 279 0 is_stmt 1
 641 0118 02A8     		add	r0, sp, #8
 642              	.LVL94:
 643 011a FFF7FEFF 		bl	u8sl_Prev
 644              	.LVL95:
 280:..\..\..\..\..\..\Dev\Library embedded l2c display\u8g2\csrc/u8g2_selection_list.c ****           break;
 645              		.loc 1 280 0
 646 011e B4E7     		b	.L32
 647              	.LVL96:
 648              	.L36:
 281:..\..\..\..\..\..\Dev\Library embedded l2c display\u8g2\csrc/u8g2_selection_list.c ****         }
 282:..\..\..\..\..\..\Dev\Library embedded l2c display\u8g2\csrc/u8g2_selection_list.c ****       }
 283:..\..\..\..\..\..\Dev\Library embedded l2c display\u8g2\csrc/u8g2_selection_list.c ****   }
 284:..\..\..\..\..\..\Dev\Library embedded l2c display\u8g2\csrc/u8g2_selection_list.c **** }
 649              		.loc 1 284 0
 650 0120 2046     		mov	r0, r4
 651              	.LVL97:
 652 0122 05B0     		add	sp, sp, #20
 653              		.cfi_def_cfa_offset 28
 654              		@ sp needed
 655 0124 BDE8F083 		pop	{r4, r5, r6, r7, r8, r9, pc}
 656              		.cfi_endproc
 657              	.LFE4:
 658              		.size	u8g2_UserInterfaceSelectionList, .-u8g2_UserInterfaceSelectionList
 659              		.section	.rodata.str1.4,"aMS",%progbits,1
 660              		.align	2
 661              	.LC0:
 662 0000 00       		.ascii	"\000"
 663              		.text
 664              	.Letext0:
 665              		.file 2 "c:\\program files (x86)\\cypress\\psoc creator\\4.4\\psoc creator\\import\\gnu\\arm\\5.4.
 666              		.file 3 "c:\\program files (x86)\\cypress\\psoc creator\\4.4\\psoc creator\\import\\gnu\\arm\\5.4.
 667              		.file 4 "c:\\dev\\library embedded l2c display\\u8g2\\csrc\\u8x8.h"
 668              		.file 5 "c:\\dev\\library embedded l2c display\\u8g2\\csrc\\u8g2.h"