ARM GAS  C:\Users\Abude\AppData\Local\Temp\ccndXIr0.s 			page 1


   1              		.syntax unified
   2              		.cpu cortex-m3
   3              		.fpu softvfp
   4              		.eabi_attribute 20, 1
   5              		.eabi_attribute 21, 1
   6              		.eabi_attribute 23, 3
   7              		.eabi_attribute 24, 1
   8              		.eabi_attribute 25, 1
   9              		.eabi_attribute 26, 1
  10              		.eabi_attribute 30, 1
  11              		.eabi_attribute 34, 1
  12              		.eabi_attribute 18, 4
  13              		.thumb
  14              		.syntax unified
  15              		.file	"u8g2_d_memory.c"
  16              		.text
  17              	.Ltext0:
  18              		.cfi_sections	.debug_frame
  19              		.section	.text.u8g2_m_16_4_1,"ax",%progbits
  20              		.align	2
  21              		.global	u8g2_m_16_4_1
  22              		.thumb
  23              		.thumb_func
  24              		.type	u8g2_m_16_4_1, %function
  25              	u8g2_m_16_4_1:
  26              	.LFB0:
  27              		.file 1 "..\\..\\..\\..\\..\\..\\Dev\\Library embedded l2c display\\u8g2\\csrc\\u8g2_d_memory.c"
   1:..\..\..\..\..\..\Dev\Library embedded l2c display\u8g2\csrc/u8g2_d_memory.c **** /* u8g2_d_memory.c */
   2:..\..\..\..\..\..\Dev\Library embedded l2c display\u8g2\csrc/u8g2_d_memory.c **** /* generated code, codebuild, u8g2 project */
   3:..\..\..\..\..\..\Dev\Library embedded l2c display\u8g2\csrc/u8g2_d_memory.c **** 
   4:..\..\..\..\..\..\Dev\Library embedded l2c display\u8g2\csrc/u8g2_d_memory.c **** #include "u8g2.h"
   5:..\..\..\..\..\..\Dev\Library embedded l2c display\u8g2\csrc/u8g2_d_memory.c **** 
   6:..\..\..\..\..\..\Dev\Library embedded l2c display\u8g2\csrc/u8g2_d_memory.c **** uint8_t *u8g2_m_16_4_1(uint8_t *page_cnt)
   7:..\..\..\..\..\..\Dev\Library embedded l2c display\u8g2\csrc/u8g2_d_memory.c **** {
  28              		.loc 1 7 0
  29              		.cfi_startproc
  30              		@ args = 0, pretend = 0, frame = 0
  31              		@ frame_needed = 0, uses_anonymous_args = 0
  32              		@ link register save eliminated.
  33              	.LVL0:
   8:..\..\..\..\..\..\Dev\Library embedded l2c display\u8g2\csrc/u8g2_d_memory.c ****   #ifdef U8G2_USE_DYNAMIC_ALLOC
   9:..\..\..\..\..\..\Dev\Library embedded l2c display\u8g2\csrc/u8g2_d_memory.c ****   *page_cnt = 1;
  10:..\..\..\..\..\..\Dev\Library embedded l2c display\u8g2\csrc/u8g2_d_memory.c ****   return 0;
  11:..\..\..\..\..\..\Dev\Library embedded l2c display\u8g2\csrc/u8g2_d_memory.c ****   #else
  12:..\..\..\..\..\..\Dev\Library embedded l2c display\u8g2\csrc/u8g2_d_memory.c ****   static uint8_t buf[128];
  13:..\..\..\..\..\..\Dev\Library embedded l2c display\u8g2\csrc/u8g2_d_memory.c ****   *page_cnt = 1;
  34              		.loc 1 13 0
  35 0000 0123     		movs	r3, #1
  36 0002 0370     		strb	r3, [r0]
  14:..\..\..\..\..\..\Dev\Library embedded l2c display\u8g2\csrc/u8g2_d_memory.c ****   return buf;
  15:..\..\..\..\..\..\Dev\Library embedded l2c display\u8g2\csrc/u8g2_d_memory.c ****   #endif
  16:..\..\..\..\..\..\Dev\Library embedded l2c display\u8g2\csrc/u8g2_d_memory.c **** }
  37              		.loc 1 16 0
  38 0004 0048     		ldr	r0, .L2
  39              	.LVL1:
  40 0006 7047     		bx	lr
  41              	.L3:
ARM GAS  C:\Users\Abude\AppData\Local\Temp\ccndXIr0.s 			page 2


  42              		.align	2
  43              	.L2:
  44 0008 00000000 		.word	.LANCHOR0
  45              		.cfi_endproc
  46              	.LFE0:
  47              		.size	u8g2_m_16_4_1, .-u8g2_m_16_4_1
  48              		.section	.text.u8g2_m_16_4_2,"ax",%progbits
  49              		.align	2
  50              		.global	u8g2_m_16_4_2
  51              		.thumb
  52              		.thumb_func
  53              		.type	u8g2_m_16_4_2, %function
  54              	u8g2_m_16_4_2:
  55              	.LFB1:
  17:..\..\..\..\..\..\Dev\Library embedded l2c display\u8g2\csrc/u8g2_d_memory.c **** uint8_t *u8g2_m_16_4_2(uint8_t *page_cnt)
  18:..\..\..\..\..\..\Dev\Library embedded l2c display\u8g2\csrc/u8g2_d_memory.c **** {
  56              		.loc 1 18 0
  57              		.cfi_startproc
  58              		@ args = 0, pretend = 0, frame = 0
  59              		@ frame_needed = 0, uses_anonymous_args = 0
  60              		@ link register save eliminated.
  61              	.LVL2:
  19:..\..\..\..\..\..\Dev\Library embedded l2c display\u8g2\csrc/u8g2_d_memory.c ****   #ifdef U8G2_USE_DYNAMIC_ALLOC
  20:..\..\..\..\..\..\Dev\Library embedded l2c display\u8g2\csrc/u8g2_d_memory.c ****   *page_cnt = 2;
  21:..\..\..\..\..\..\Dev\Library embedded l2c display\u8g2\csrc/u8g2_d_memory.c ****   return 0;
  22:..\..\..\..\..\..\Dev\Library embedded l2c display\u8g2\csrc/u8g2_d_memory.c ****   #else
  23:..\..\..\..\..\..\Dev\Library embedded l2c display\u8g2\csrc/u8g2_d_memory.c ****   static uint8_t buf[256];
  24:..\..\..\..\..\..\Dev\Library embedded l2c display\u8g2\csrc/u8g2_d_memory.c ****   *page_cnt = 2;
  62              		.loc 1 24 0
  63 0000 0223     		movs	r3, #2
  64 0002 0370     		strb	r3, [r0]
  25:..\..\..\..\..\..\Dev\Library embedded l2c display\u8g2\csrc/u8g2_d_memory.c ****   return buf;
  26:..\..\..\..\..\..\Dev\Library embedded l2c display\u8g2\csrc/u8g2_d_memory.c ****   #endif
  27:..\..\..\..\..\..\Dev\Library embedded l2c display\u8g2\csrc/u8g2_d_memory.c **** }
  65              		.loc 1 27 0
  66 0004 0048     		ldr	r0, .L5
  67              	.LVL3:
  68 0006 7047     		bx	lr
  69              	.L6:
  70              		.align	2
  71              	.L5:
  72 0008 80000000 		.word	.LANCHOR0+128
  73              		.cfi_endproc
  74              	.LFE1:
  75              		.size	u8g2_m_16_4_2, .-u8g2_m_16_4_2
  76              		.section	.text.u8g2_m_16_4_f,"ax",%progbits
  77              		.align	2
  78              		.global	u8g2_m_16_4_f
  79              		.thumb
  80              		.thumb_func
  81              		.type	u8g2_m_16_4_f, %function
  82              	u8g2_m_16_4_f:
  83              	.LFB2:
  28:..\..\..\..\..\..\Dev\Library embedded l2c display\u8g2\csrc/u8g2_d_memory.c **** uint8_t *u8g2_m_16_4_f(uint8_t *page_cnt)
  29:..\..\..\..\..\..\Dev\Library embedded l2c display\u8g2\csrc/u8g2_d_memory.c **** {
  84              		.loc 1 29 0
  85              		.cfi_startproc
ARM GAS  C:\Users\Abude\AppData\Local\Temp\ccndXIr0.s 			page 3


  86              		@ args = 0, pretend = 0, frame = 0
  87              		@ frame_needed = 0, uses_anonymous_args = 0
  88              		@ link register save eliminated.
  89              	.LVL4:
  30:..\..\..\..\..\..\Dev\Library embedded l2c display\u8g2\csrc/u8g2_d_memory.c ****   #ifdef U8G2_USE_DYNAMIC_ALLOC
  31:..\..\..\..\..\..\Dev\Library embedded l2c display\u8g2\csrc/u8g2_d_memory.c ****   *page_cnt = 4;
  32:..\..\..\..\..\..\Dev\Library embedded l2c display\u8g2\csrc/u8g2_d_memory.c ****   return 0;
  33:..\..\..\..\..\..\Dev\Library embedded l2c display\u8g2\csrc/u8g2_d_memory.c ****   #else
  34:..\..\..\..\..\..\Dev\Library embedded l2c display\u8g2\csrc/u8g2_d_memory.c ****   static uint8_t buf[512];
  35:..\..\..\..\..\..\Dev\Library embedded l2c display\u8g2\csrc/u8g2_d_memory.c ****   *page_cnt = 4;
  90              		.loc 1 35 0
  91 0000 0423     		movs	r3, #4
  92 0002 0370     		strb	r3, [r0]
  36:..\..\..\..\..\..\Dev\Library embedded l2c display\u8g2\csrc/u8g2_d_memory.c ****   return buf;
  37:..\..\..\..\..\..\Dev\Library embedded l2c display\u8g2\csrc/u8g2_d_memory.c ****   #endif
  38:..\..\..\..\..\..\Dev\Library embedded l2c display\u8g2\csrc/u8g2_d_memory.c **** }
  93              		.loc 1 38 0
  94 0004 0048     		ldr	r0, .L8
  95              	.LVL5:
  96 0006 7047     		bx	lr
  97              	.L9:
  98              		.align	2
  99              	.L8:
 100 0008 80010000 		.word	.LANCHOR0+384
 101              		.cfi_endproc
 102              	.LFE2:
 103              		.size	u8g2_m_16_4_f, .-u8g2_m_16_4_f
 104              		.section	.text.u8g2_m_16_8_1,"ax",%progbits
 105              		.align	2
 106              		.global	u8g2_m_16_8_1
 107              		.thumb
 108              		.thumb_func
 109              		.type	u8g2_m_16_8_1, %function
 110              	u8g2_m_16_8_1:
 111              	.LFB3:
  39:..\..\..\..\..\..\Dev\Library embedded l2c display\u8g2\csrc/u8g2_d_memory.c **** uint8_t *u8g2_m_16_8_1(uint8_t *page_cnt)
  40:..\..\..\..\..\..\Dev\Library embedded l2c display\u8g2\csrc/u8g2_d_memory.c **** {
 112              		.loc 1 40 0
 113              		.cfi_startproc
 114              		@ args = 0, pretend = 0, frame = 0
 115              		@ frame_needed = 0, uses_anonymous_args = 0
 116              		@ link register save eliminated.
 117              	.LVL6:
  41:..\..\..\..\..\..\Dev\Library embedded l2c display\u8g2\csrc/u8g2_d_memory.c ****   #ifdef U8G2_USE_DYNAMIC_ALLOC
  42:..\..\..\..\..\..\Dev\Library embedded l2c display\u8g2\csrc/u8g2_d_memory.c ****   *page_cnt = 1;
  43:..\..\..\..\..\..\Dev\Library embedded l2c display\u8g2\csrc/u8g2_d_memory.c ****   return 0;
  44:..\..\..\..\..\..\Dev\Library embedded l2c display\u8g2\csrc/u8g2_d_memory.c ****   #else
  45:..\..\..\..\..\..\Dev\Library embedded l2c display\u8g2\csrc/u8g2_d_memory.c ****   static uint8_t buf[128];
  46:..\..\..\..\..\..\Dev\Library embedded l2c display\u8g2\csrc/u8g2_d_memory.c ****   *page_cnt = 1;
 118              		.loc 1 46 0
 119 0000 0123     		movs	r3, #1
 120 0002 0370     		strb	r3, [r0]
  47:..\..\..\..\..\..\Dev\Library embedded l2c display\u8g2\csrc/u8g2_d_memory.c ****   return buf;
  48:..\..\..\..\..\..\Dev\Library embedded l2c display\u8g2\csrc/u8g2_d_memory.c ****   #endif
  49:..\..\..\..\..\..\Dev\Library embedded l2c display\u8g2\csrc/u8g2_d_memory.c **** }
 121              		.loc 1 49 0
 122 0004 0048     		ldr	r0, .L11
ARM GAS  C:\Users\Abude\AppData\Local\Temp\ccndXIr0.s 			page 4


 123              	.LVL7:
 124 0006 7047     		bx	lr
 125              	.L12:
 126              		.align	2
 127              	.L11:
 128 0008 80030000 		.word	.LANCHOR0+896
 129              		.cfi_endproc
 130              	.LFE3:
 131              		.size	u8g2_m_16_8_1, .-u8g2_m_16_8_1
 132              		.section	.text.u8g2_m_16_8_2,"ax",%progbits
 133              		.align	2
 134              		.global	u8g2_m_16_8_2
 135              		.thumb
 136              		.thumb_func
 137              		.type	u8g2_m_16_8_2, %function
 138              	u8g2_m_16_8_2:
 139              	.LFB4:
  50:..\..\..\..\..\..\Dev\Library embedded l2c display\u8g2\csrc/u8g2_d_memory.c **** uint8_t *u8g2_m_16_8_2(uint8_t *page_cnt)
  51:..\..\..\..\..\..\Dev\Library embedded l2c display\u8g2\csrc/u8g2_d_memory.c **** {
 140              		.loc 1 51 0
 141              		.cfi_startproc
 142              		@ args = 0, pretend = 0, frame = 0
 143              		@ frame_needed = 0, uses_anonymous_args = 0
 144              		@ link register save eliminated.
 145              	.LVL8:
  52:..\..\..\..\..\..\Dev\Library embedded l2c display\u8g2\csrc/u8g2_d_memory.c ****   #ifdef U8G2_USE_DYNAMIC_ALLOC
  53:..\..\..\..\..\..\Dev\Library embedded l2c display\u8g2\csrc/u8g2_d_memory.c ****   *page_cnt = 2;
  54:..\..\..\..\..\..\Dev\Library embedded l2c display\u8g2\csrc/u8g2_d_memory.c ****   return 0;
  55:..\..\..\..\..\..\Dev\Library embedded l2c display\u8g2\csrc/u8g2_d_memory.c ****   #else
  56:..\..\..\..\..\..\Dev\Library embedded l2c display\u8g2\csrc/u8g2_d_memory.c ****   static uint8_t buf[256];
  57:..\..\..\..\..\..\Dev\Library embedded l2c display\u8g2\csrc/u8g2_d_memory.c ****   *page_cnt = 2;
 146              		.loc 1 57 0
 147 0000 0223     		movs	r3, #2
 148 0002 0370     		strb	r3, [r0]
  58:..\..\..\..\..\..\Dev\Library embedded l2c display\u8g2\csrc/u8g2_d_memory.c ****   return buf;
  59:..\..\..\..\..\..\Dev\Library embedded l2c display\u8g2\csrc/u8g2_d_memory.c ****   #endif
  60:..\..\..\..\..\..\Dev\Library embedded l2c display\u8g2\csrc/u8g2_d_memory.c **** }
 149              		.loc 1 60 0
 150 0004 0048     		ldr	r0, .L14
 151              	.LVL9:
 152 0006 7047     		bx	lr
 153              	.L15:
 154              		.align	2
 155              	.L14:
 156 0008 00040000 		.word	.LANCHOR0+1024
 157              		.cfi_endproc
 158              	.LFE4:
 159              		.size	u8g2_m_16_8_2, .-u8g2_m_16_8_2
 160              		.section	.text.u8g2_m_16_8_f,"ax",%progbits
 161              		.align	2
 162              		.global	u8g2_m_16_8_f
 163              		.thumb
 164              		.thumb_func
 165              		.type	u8g2_m_16_8_f, %function
 166              	u8g2_m_16_8_f:
 167              	.LFB5:
  61:..\..\..\..\..\..\Dev\Library embedded l2c display\u8g2\csrc/u8g2_d_memory.c **** uint8_t *u8g2_m_16_8_f(uint8_t *page_cnt)
ARM GAS  C:\Users\Abude\AppData\Local\Temp\ccndXIr0.s 			page 5


  62:..\..\..\..\..\..\Dev\Library embedded l2c display\u8g2\csrc/u8g2_d_memory.c **** {
 168              		.loc 1 62 0
 169              		.cfi_startproc
 170              		@ args = 0, pretend = 0, frame = 0
 171              		@ frame_needed = 0, uses_anonymous_args = 0
 172              		@ link register save eliminated.
 173              	.LVL10:
  63:..\..\..\..\..\..\Dev\Library embedded l2c display\u8g2\csrc/u8g2_d_memory.c ****   #ifdef U8G2_USE_DYNAMIC_ALLOC
  64:..\..\..\..\..\..\Dev\Library embedded l2c display\u8g2\csrc/u8g2_d_memory.c ****   *page_cnt = 8;
  65:..\..\..\..\..\..\Dev\Library embedded l2c display\u8g2\csrc/u8g2_d_memory.c ****   return 0;
  66:..\..\..\..\..\..\Dev\Library embedded l2c display\u8g2\csrc/u8g2_d_memory.c ****   #else
  67:..\..\..\..\..\..\Dev\Library embedded l2c display\u8g2\csrc/u8g2_d_memory.c ****   static uint8_t buf[1024];
  68:..\..\..\..\..\..\Dev\Library embedded l2c display\u8g2\csrc/u8g2_d_memory.c ****   *page_cnt = 8;
 174              		.loc 1 68 0
 175 0000 0823     		movs	r3, #8
 176 0002 0370     		strb	r3, [r0]
  69:..\..\..\..\..\..\Dev\Library embedded l2c display\u8g2\csrc/u8g2_d_memory.c ****   return buf;
  70:..\..\..\..\..\..\Dev\Library embedded l2c display\u8g2\csrc/u8g2_d_memory.c ****   #endif
  71:..\..\..\..\..\..\Dev\Library embedded l2c display\u8g2\csrc/u8g2_d_memory.c **** }
 177              		.loc 1 71 0
 178 0004 0048     		ldr	r0, .L17
 179              	.LVL11:
 180 0006 7047     		bx	lr
 181              	.L18:
 182              		.align	2
 183              	.L17:
 184 0008 00050000 		.word	.LANCHOR0+1280
 185              		.cfi_endproc
 186              	.LFE5:
 187              		.size	u8g2_m_16_8_f, .-u8g2_m_16_8_f
 188              		.section	.text.u8g2_m_255_2_1,"ax",%progbits
 189              		.align	2
 190              		.global	u8g2_m_255_2_1
 191              		.thumb
 192              		.thumb_func
 193              		.type	u8g2_m_255_2_1, %function
 194              	u8g2_m_255_2_1:
 195              	.LFB6:
  72:..\..\..\..\..\..\Dev\Library embedded l2c display\u8g2\csrc/u8g2_d_memory.c **** uint8_t *u8g2_m_255_2_1(uint8_t *page_cnt)
  73:..\..\..\..\..\..\Dev\Library embedded l2c display\u8g2\csrc/u8g2_d_memory.c **** {
 196              		.loc 1 73 0
 197              		.cfi_startproc
 198              		@ args = 0, pretend = 0, frame = 0
 199              		@ frame_needed = 0, uses_anonymous_args = 0
 200              		@ link register save eliminated.
 201              	.LVL12:
  74:..\..\..\..\..\..\Dev\Library embedded l2c display\u8g2\csrc/u8g2_d_memory.c ****   #ifdef U8G2_USE_DYNAMIC_ALLOC
  75:..\..\..\..\..\..\Dev\Library embedded l2c display\u8g2\csrc/u8g2_d_memory.c ****   *page_cnt = 1;
  76:..\..\..\..\..\..\Dev\Library embedded l2c display\u8g2\csrc/u8g2_d_memory.c ****   return 0;
  77:..\..\..\..\..\..\Dev\Library embedded l2c display\u8g2\csrc/u8g2_d_memory.c ****   #else
  78:..\..\..\..\..\..\Dev\Library embedded l2c display\u8g2\csrc/u8g2_d_memory.c ****   static uint8_t buf[2040];
  79:..\..\..\..\..\..\Dev\Library embedded l2c display\u8g2\csrc/u8g2_d_memory.c ****   *page_cnt = 1;
 202              		.loc 1 79 0
 203 0000 0123     		movs	r3, #1
 204 0002 0370     		strb	r3, [r0]
  80:..\..\..\..\..\..\Dev\Library embedded l2c display\u8g2\csrc/u8g2_d_memory.c ****   return buf;
  81:..\..\..\..\..\..\Dev\Library embedded l2c display\u8g2\csrc/u8g2_d_memory.c ****   #endif
ARM GAS  C:\Users\Abude\AppData\Local\Temp\ccndXIr0.s 			page 6


  82:..\..\..\..\..\..\Dev\Library embedded l2c display\u8g2\csrc/u8g2_d_memory.c **** }
 205              		.loc 1 82 0
 206 0004 0048     		ldr	r0, .L20
 207              	.LVL13:
 208 0006 7047     		bx	lr
 209              	.L21:
 210              		.align	2
 211              	.L20:
 212 0008 00090000 		.word	.LANCHOR0+2304
 213              		.cfi_endproc
 214              	.LFE6:
 215              		.size	u8g2_m_255_2_1, .-u8g2_m_255_2_1
 216              		.section	.text.u8g2_m_255_2_2,"ax",%progbits
 217              		.align	2
 218              		.global	u8g2_m_255_2_2
 219              		.thumb
 220              		.thumb_func
 221              		.type	u8g2_m_255_2_2, %function
 222              	u8g2_m_255_2_2:
 223              	.LFB7:
  83:..\..\..\..\..\..\Dev\Library embedded l2c display\u8g2\csrc/u8g2_d_memory.c **** uint8_t *u8g2_m_255_2_2(uint8_t *page_cnt)
  84:..\..\..\..\..\..\Dev\Library embedded l2c display\u8g2\csrc/u8g2_d_memory.c **** {
 224              		.loc 1 84 0
 225              		.cfi_startproc
 226              		@ args = 0, pretend = 0, frame = 0
 227              		@ frame_needed = 0, uses_anonymous_args = 0
 228              		@ link register save eliminated.
 229              	.LVL14:
  85:..\..\..\..\..\..\Dev\Library embedded l2c display\u8g2\csrc/u8g2_d_memory.c ****   #ifdef U8G2_USE_DYNAMIC_ALLOC
  86:..\..\..\..\..\..\Dev\Library embedded l2c display\u8g2\csrc/u8g2_d_memory.c ****   *page_cnt = 2;
  87:..\..\..\..\..\..\Dev\Library embedded l2c display\u8g2\csrc/u8g2_d_memory.c ****   return 0;
  88:..\..\..\..\..\..\Dev\Library embedded l2c display\u8g2\csrc/u8g2_d_memory.c ****   #else
  89:..\..\..\..\..\..\Dev\Library embedded l2c display\u8g2\csrc/u8g2_d_memory.c ****   static uint8_t buf[4080];
  90:..\..\..\..\..\..\Dev\Library embedded l2c display\u8g2\csrc/u8g2_d_memory.c ****   *page_cnt = 2;
 230              		.loc 1 90 0
 231 0000 0223     		movs	r3, #2
 232 0002 0370     		strb	r3, [r0]
  91:..\..\..\..\..\..\Dev\Library embedded l2c display\u8g2\csrc/u8g2_d_memory.c ****   return buf;
  92:..\..\..\..\..\..\Dev\Library embedded l2c display\u8g2\csrc/u8g2_d_memory.c ****   #endif
  93:..\..\..\..\..\..\Dev\Library embedded l2c display\u8g2\csrc/u8g2_d_memory.c **** }
 233              		.loc 1 93 0
 234 0004 0048     		ldr	r0, .L23
 235              	.LVL15:
 236 0006 7047     		bx	lr
 237              	.L24:
 238              		.align	2
 239              	.L23:
 240 0008 F8100000 		.word	.LANCHOR1
 241              		.cfi_endproc
 242              	.LFE7:
 243              		.size	u8g2_m_255_2_2, .-u8g2_m_255_2_2
 244              		.section	.text.u8g2_m_255_2_f,"ax",%progbits
 245              		.align	2
 246              		.global	u8g2_m_255_2_f
 247              		.thumb
 248              		.thumb_func
 249              		.type	u8g2_m_255_2_f, %function
ARM GAS  C:\Users\Abude\AppData\Local\Temp\ccndXIr0.s 			page 7


 250              	u8g2_m_255_2_f:
 251              	.LFB8:
  94:..\..\..\..\..\..\Dev\Library embedded l2c display\u8g2\csrc/u8g2_d_memory.c **** uint8_t *u8g2_m_255_2_f(uint8_t *page_cnt)
  95:..\..\..\..\..\..\Dev\Library embedded l2c display\u8g2\csrc/u8g2_d_memory.c **** {
 252              		.loc 1 95 0
 253              		.cfi_startproc
 254              		@ args = 0, pretend = 0, frame = 0
 255              		@ frame_needed = 0, uses_anonymous_args = 0
 256              		@ link register save eliminated.
 257              	.LVL16:
  96:..\..\..\..\..\..\Dev\Library embedded l2c display\u8g2\csrc/u8g2_d_memory.c ****   #ifdef U8G2_USE_DYNAMIC_ALLOC
  97:..\..\..\..\..\..\Dev\Library embedded l2c display\u8g2\csrc/u8g2_d_memory.c ****   *page_cnt = 2;
  98:..\..\..\..\..\..\Dev\Library embedded l2c display\u8g2\csrc/u8g2_d_memory.c ****   return 0;
  99:..\..\..\..\..\..\Dev\Library embedded l2c display\u8g2\csrc/u8g2_d_memory.c ****   #else
 100:..\..\..\..\..\..\Dev\Library embedded l2c display\u8g2\csrc/u8g2_d_memory.c ****   static uint8_t buf[4080];
 101:..\..\..\..\..\..\Dev\Library embedded l2c display\u8g2\csrc/u8g2_d_memory.c ****   *page_cnt = 2;
 258              		.loc 1 101 0
 259 0000 0223     		movs	r3, #2
 260 0002 0370     		strb	r3, [r0]
 102:..\..\..\..\..\..\Dev\Library embedded l2c display\u8g2\csrc/u8g2_d_memory.c ****   return buf;
 103:..\..\..\..\..\..\Dev\Library embedded l2c display\u8g2\csrc/u8g2_d_memory.c ****   #endif
 104:..\..\..\..\..\..\Dev\Library embedded l2c display\u8g2\csrc/u8g2_d_memory.c **** }
 261              		.loc 1 104 0
 262 0004 0048     		ldr	r0, .L26
 263              	.LVL17:
 264 0006 7047     		bx	lr
 265              	.L27:
 266              		.align	2
 267              	.L26:
 268 0008 E8200000 		.word	.LANCHOR1+4080
 269              		.cfi_endproc
 270              	.LFE8:
 271              		.size	u8g2_m_255_2_f, .-u8g2_m_255_2_f
 272              		.section	.text.u8g2_m_9_5_1,"ax",%progbits
 273              		.align	2
 274              		.global	u8g2_m_9_5_1
 275              		.thumb
 276              		.thumb_func
 277              		.type	u8g2_m_9_5_1, %function
 278              	u8g2_m_9_5_1:
 279              	.LFB9:
 105:..\..\..\..\..\..\Dev\Library embedded l2c display\u8g2\csrc/u8g2_d_memory.c **** uint8_t *u8g2_m_9_5_1(uint8_t *page_cnt)
 106:..\..\..\..\..\..\Dev\Library embedded l2c display\u8g2\csrc/u8g2_d_memory.c **** {
 280              		.loc 1 106 0
 281              		.cfi_startproc
 282              		@ args = 0, pretend = 0, frame = 0
 283              		@ frame_needed = 0, uses_anonymous_args = 0
 284              		@ link register save eliminated.
 285              	.LVL18:
 107:..\..\..\..\..\..\Dev\Library embedded l2c display\u8g2\csrc/u8g2_d_memory.c ****   #ifdef U8G2_USE_DYNAMIC_ALLOC
 108:..\..\..\..\..\..\Dev\Library embedded l2c display\u8g2\csrc/u8g2_d_memory.c ****   *page_cnt = 1;
 109:..\..\..\..\..\..\Dev\Library embedded l2c display\u8g2\csrc/u8g2_d_memory.c ****   return 0;
 110:..\..\..\..\..\..\Dev\Library embedded l2c display\u8g2\csrc/u8g2_d_memory.c ****   #else
 111:..\..\..\..\..\..\Dev\Library embedded l2c display\u8g2\csrc/u8g2_d_memory.c ****   static uint8_t buf[72];
 112:..\..\..\..\..\..\Dev\Library embedded l2c display\u8g2\csrc/u8g2_d_memory.c ****   *page_cnt = 1;
 286              		.loc 1 112 0
 287 0000 0123     		movs	r3, #1
ARM GAS  C:\Users\Abude\AppData\Local\Temp\ccndXIr0.s 			page 8


 288 0002 0370     		strb	r3, [r0]
 113:..\..\..\..\..\..\Dev\Library embedded l2c display\u8g2\csrc/u8g2_d_memory.c ****   return buf;
 114:..\..\..\..\..\..\Dev\Library embedded l2c display\u8g2\csrc/u8g2_d_memory.c ****   #endif
 115:..\..\..\..\..\..\Dev\Library embedded l2c display\u8g2\csrc/u8g2_d_memory.c **** }
 289              		.loc 1 115 0
 290 0004 0048     		ldr	r0, .L29
 291              	.LVL19:
 292 0006 7047     		bx	lr
 293              	.L30:
 294              		.align	2
 295              	.L29:
 296 0008 D8300000 		.word	.LANCHOR2+3816
 297              		.cfi_endproc
 298              	.LFE9:
 299              		.size	u8g2_m_9_5_1, .-u8g2_m_9_5_1
 300              		.section	.text.u8g2_m_9_5_2,"ax",%progbits
 301              		.align	2
 302              		.global	u8g2_m_9_5_2
 303              		.thumb
 304              		.thumb_func
 305              		.type	u8g2_m_9_5_2, %function
 306              	u8g2_m_9_5_2:
 307              	.LFB10:
 116:..\..\..\..\..\..\Dev\Library embedded l2c display\u8g2\csrc/u8g2_d_memory.c **** uint8_t *u8g2_m_9_5_2(uint8_t *page_cnt)
 117:..\..\..\..\..\..\Dev\Library embedded l2c display\u8g2\csrc/u8g2_d_memory.c **** {
 308              		.loc 1 117 0
 309              		.cfi_startproc
 310              		@ args = 0, pretend = 0, frame = 0
 311              		@ frame_needed = 0, uses_anonymous_args = 0
 312              		@ link register save eliminated.
 313              	.LVL20:
 118:..\..\..\..\..\..\Dev\Library embedded l2c display\u8g2\csrc/u8g2_d_memory.c ****   #ifdef U8G2_USE_DYNAMIC_ALLOC
 119:..\..\..\..\..\..\Dev\Library embedded l2c display\u8g2\csrc/u8g2_d_memory.c ****   *page_cnt = 2;
 120:..\..\..\..\..\..\Dev\Library embedded l2c display\u8g2\csrc/u8g2_d_memory.c ****   return 0;
 121:..\..\..\..\..\..\Dev\Library embedded l2c display\u8g2\csrc/u8g2_d_memory.c ****   #else
 122:..\..\..\..\..\..\Dev\Library embedded l2c display\u8g2\csrc/u8g2_d_memory.c ****   static uint8_t buf[144];
 123:..\..\..\..\..\..\Dev\Library embedded l2c display\u8g2\csrc/u8g2_d_memory.c ****   *page_cnt = 2;
 314              		.loc 1 123 0
 315 0000 0223     		movs	r3, #2
 316 0002 0370     		strb	r3, [r0]
 124:..\..\..\..\..\..\Dev\Library embedded l2c display\u8g2\csrc/u8g2_d_memory.c ****   return buf;
 125:..\..\..\..\..\..\Dev\Library embedded l2c display\u8g2\csrc/u8g2_d_memory.c ****   #endif
 126:..\..\..\..\..\..\Dev\Library embedded l2c display\u8g2\csrc/u8g2_d_memory.c **** }
 317              		.loc 1 126 0
 318 0004 0048     		ldr	r0, .L32
 319              	.LVL21:
 320 0006 7047     		bx	lr
 321              	.L33:
 322              		.align	2
 323              	.L32:
 324 0008 20310000 		.word	.LANCHOR2+3888
 325              		.cfi_endproc
 326              	.LFE10:
 327              		.size	u8g2_m_9_5_2, .-u8g2_m_9_5_2
 328              		.section	.text.u8g2_m_9_5_f,"ax",%progbits
 329              		.align	2
 330              		.global	u8g2_m_9_5_f
ARM GAS  C:\Users\Abude\AppData\Local\Temp\ccndXIr0.s 			page 9


 331              		.thumb
 332              		.thumb_func
 333              		.type	u8g2_m_9_5_f, %function
 334              	u8g2_m_9_5_f:
 335              	.LFB11:
 127:..\..\..\..\..\..\Dev\Library embedded l2c display\u8g2\csrc/u8g2_d_memory.c **** uint8_t *u8g2_m_9_5_f(uint8_t *page_cnt)
 128:..\..\..\..\..\..\Dev\Library embedded l2c display\u8g2\csrc/u8g2_d_memory.c **** {
 336              		.loc 1 128 0
 337              		.cfi_startproc
 338              		@ args = 0, pretend = 0, frame = 0
 339              		@ frame_needed = 0, uses_anonymous_args = 0
 340              		@ link register save eliminated.
 341              	.LVL22:
 129:..\..\..\..\..\..\Dev\Library embedded l2c display\u8g2\csrc/u8g2_d_memory.c ****   #ifdef U8G2_USE_DYNAMIC_ALLOC
 130:..\..\..\..\..\..\Dev\Library embedded l2c display\u8g2\csrc/u8g2_d_memory.c ****   *page_cnt = 5;
 131:..\..\..\..\..\..\Dev\Library embedded l2c display\u8g2\csrc/u8g2_d_memory.c ****   return 0;
 132:..\..\..\..\..\..\Dev\Library embedded l2c display\u8g2\csrc/u8g2_d_memory.c ****   #else
 133:..\..\..\..\..\..\Dev\Library embedded l2c display\u8g2\csrc/u8g2_d_memory.c ****   static uint8_t buf[360];
 134:..\..\..\..\..\..\Dev\Library embedded l2c display\u8g2\csrc/u8g2_d_memory.c ****   *page_cnt = 5;
 342              		.loc 1 134 0
 343 0000 0523     		movs	r3, #5
 344 0002 0370     		strb	r3, [r0]
 135:..\..\..\..\..\..\Dev\Library embedded l2c display\u8g2\csrc/u8g2_d_memory.c ****   return buf;
 136:..\..\..\..\..\..\Dev\Library embedded l2c display\u8g2\csrc/u8g2_d_memory.c ****   #endif
 137:..\..\..\..\..\..\Dev\Library embedded l2c display\u8g2\csrc/u8g2_d_memory.c **** }
 345              		.loc 1 137 0
 346 0004 0048     		ldr	r0, .L35
 347              	.LVL23:
 348 0006 7047     		bx	lr
 349              	.L36:
 350              		.align	2
 351              	.L35:
 352 0008 B0310000 		.word	.LANCHOR2+4032
 353              		.cfi_endproc
 354              	.LFE11:
 355              		.size	u8g2_m_9_5_f, .-u8g2_m_9_5_f
 356              		.section	.text.u8g2_m_8_4_1,"ax",%progbits
 357              		.align	2
 358              		.global	u8g2_m_8_4_1
 359              		.thumb
 360              		.thumb_func
 361              		.type	u8g2_m_8_4_1, %function
 362              	u8g2_m_8_4_1:
 363              	.LFB12:
 138:..\..\..\..\..\..\Dev\Library embedded l2c display\u8g2\csrc/u8g2_d_memory.c **** uint8_t *u8g2_m_8_4_1(uint8_t *page_cnt)
 139:..\..\..\..\..\..\Dev\Library embedded l2c display\u8g2\csrc/u8g2_d_memory.c **** {
 364              		.loc 1 139 0
 365              		.cfi_startproc
 366              		@ args = 0, pretend = 0, frame = 0
 367              		@ frame_needed = 0, uses_anonymous_args = 0
 368              		@ link register save eliminated.
 369              	.LVL24:
 140:..\..\..\..\..\..\Dev\Library embedded l2c display\u8g2\csrc/u8g2_d_memory.c ****   #ifdef U8G2_USE_DYNAMIC_ALLOC
 141:..\..\..\..\..\..\Dev\Library embedded l2c display\u8g2\csrc/u8g2_d_memory.c ****   *page_cnt = 1;
 142:..\..\..\..\..\..\Dev\Library embedded l2c display\u8g2\csrc/u8g2_d_memory.c ****   return 0;
 143:..\..\..\..\..\..\Dev\Library embedded l2c display\u8g2\csrc/u8g2_d_memory.c ****   #else
 144:..\..\..\..\..\..\Dev\Library embedded l2c display\u8g2\csrc/u8g2_d_memory.c ****   static uint8_t buf[64];
ARM GAS  C:\Users\Abude\AppData\Local\Temp\ccndXIr0.s 			page 10


 145:..\..\..\..\..\..\Dev\Library embedded l2c display\u8g2\csrc/u8g2_d_memory.c ****   *page_cnt = 1;
 370              		.loc 1 145 0
 371 0000 0123     		movs	r3, #1
 372 0002 0370     		strb	r3, [r0]
 146:..\..\..\..\..\..\Dev\Library embedded l2c display\u8g2\csrc/u8g2_d_memory.c ****   return buf;
 147:..\..\..\..\..\..\Dev\Library embedded l2c display\u8g2\csrc/u8g2_d_memory.c ****   #endif
 148:..\..\..\..\..\..\Dev\Library embedded l2c display\u8g2\csrc/u8g2_d_memory.c **** }
 373              		.loc 1 148 0
 374 0004 0048     		ldr	r0, .L38
 375              	.LVL25:
 376 0006 7047     		bx	lr
 377              	.L39:
 378              		.align	2
 379              	.L38:
 380 0008 18330000 		.word	.LANCHOR3+48
 381              		.cfi_endproc
 382              	.LFE12:
 383              		.size	u8g2_m_8_4_1, .-u8g2_m_8_4_1
 384              		.section	.text.u8g2_m_8_4_2,"ax",%progbits
 385              		.align	2
 386              		.global	u8g2_m_8_4_2
 387              		.thumb
 388              		.thumb_func
 389              		.type	u8g2_m_8_4_2, %function
 390              	u8g2_m_8_4_2:
 391              	.LFB13:
 149:..\..\..\..\..\..\Dev\Library embedded l2c display\u8g2\csrc/u8g2_d_memory.c **** uint8_t *u8g2_m_8_4_2(uint8_t *page_cnt)
 150:..\..\..\..\..\..\Dev\Library embedded l2c display\u8g2\csrc/u8g2_d_memory.c **** {
 392              		.loc 1 150 0
 393              		.cfi_startproc
 394              		@ args = 0, pretend = 0, frame = 0
 395              		@ frame_needed = 0, uses_anonymous_args = 0
 396              		@ link register save eliminated.
 397              	.LVL26:
 151:..\..\..\..\..\..\Dev\Library embedded l2c display\u8g2\csrc/u8g2_d_memory.c ****   #ifdef U8G2_USE_DYNAMIC_ALLOC
 152:..\..\..\..\..\..\Dev\Library embedded l2c display\u8g2\csrc/u8g2_d_memory.c ****   *page_cnt = 2;
 153:..\..\..\..\..\..\Dev\Library embedded l2c display\u8g2\csrc/u8g2_d_memory.c ****   return 0;
 154:..\..\..\..\..\..\Dev\Library embedded l2c display\u8g2\csrc/u8g2_d_memory.c ****   #else
 155:..\..\..\..\..\..\Dev\Library embedded l2c display\u8g2\csrc/u8g2_d_memory.c ****   static uint8_t buf[128];
 156:..\..\..\..\..\..\Dev\Library embedded l2c display\u8g2\csrc/u8g2_d_memory.c ****   *page_cnt = 2;
 398              		.loc 1 156 0
 399 0000 0223     		movs	r3, #2
 400 0002 0370     		strb	r3, [r0]
 157:..\..\..\..\..\..\Dev\Library embedded l2c display\u8g2\csrc/u8g2_d_memory.c ****   return buf;
 158:..\..\..\..\..\..\Dev\Library embedded l2c display\u8g2\csrc/u8g2_d_memory.c ****   #endif
 159:..\..\..\..\..\..\Dev\Library embedded l2c display\u8g2\csrc/u8g2_d_memory.c **** }
 401              		.loc 1 159 0
 402 0004 0048     		ldr	r0, .L41
 403              	.LVL27:
 404 0006 7047     		bx	lr
 405              	.L42:
 406              		.align	2
 407              	.L41:
 408 0008 58330000 		.word	.LANCHOR3+112
 409              		.cfi_endproc
 410              	.LFE13:
 411              		.size	u8g2_m_8_4_2, .-u8g2_m_8_4_2
ARM GAS  C:\Users\Abude\AppData\Local\Temp\ccndXIr0.s 			page 11


 412              		.section	.text.u8g2_m_8_4_f,"ax",%progbits
 413              		.align	2
 414              		.global	u8g2_m_8_4_f
 415              		.thumb
 416              		.thumb_func
 417              		.type	u8g2_m_8_4_f, %function
 418              	u8g2_m_8_4_f:
 419              	.LFB14:
 160:..\..\..\..\..\..\Dev\Library embedded l2c display\u8g2\csrc/u8g2_d_memory.c **** uint8_t *u8g2_m_8_4_f(uint8_t *page_cnt)
 161:..\..\..\..\..\..\Dev\Library embedded l2c display\u8g2\csrc/u8g2_d_memory.c **** {
 420              		.loc 1 161 0
 421              		.cfi_startproc
 422              		@ args = 0, pretend = 0, frame = 0
 423              		@ frame_needed = 0, uses_anonymous_args = 0
 424              		@ link register save eliminated.
 425              	.LVL28:
 162:..\..\..\..\..\..\Dev\Library embedded l2c display\u8g2\csrc/u8g2_d_memory.c ****   #ifdef U8G2_USE_DYNAMIC_ALLOC
 163:..\..\..\..\..\..\Dev\Library embedded l2c display\u8g2\csrc/u8g2_d_memory.c ****   *page_cnt = 4;
 164:..\..\..\..\..\..\Dev\Library embedded l2c display\u8g2\csrc/u8g2_d_memory.c ****   return 0;
 165:..\..\..\..\..\..\Dev\Library embedded l2c display\u8g2\csrc/u8g2_d_memory.c ****   #else
 166:..\..\..\..\..\..\Dev\Library embedded l2c display\u8g2\csrc/u8g2_d_memory.c ****   static uint8_t buf[256];
 167:..\..\..\..\..\..\Dev\Library embedded l2c display\u8g2\csrc/u8g2_d_memory.c ****   *page_cnt = 4;
 426              		.loc 1 167 0
 427 0000 0423     		movs	r3, #4
 428 0002 0370     		strb	r3, [r0]
 168:..\..\..\..\..\..\Dev\Library embedded l2c display\u8g2\csrc/u8g2_d_memory.c ****   return buf;
 169:..\..\..\..\..\..\Dev\Library embedded l2c display\u8g2\csrc/u8g2_d_memory.c ****   #endif
 170:..\..\..\..\..\..\Dev\Library embedded l2c display\u8g2\csrc/u8g2_d_memory.c **** }
 429              		.loc 1 170 0
 430 0004 0048     		ldr	r0, .L44
 431              	.LVL29:
 432 0006 7047     		bx	lr
 433              	.L45:
 434              		.align	2
 435              	.L44:
 436 0008 D8330000 		.word	.LANCHOR3+240
 437              		.cfi_endproc
 438              	.LFE14:
 439              		.size	u8g2_m_8_4_f, .-u8g2_m_8_4_f
 440              		.section	.text.u8g2_m_8_16_1,"ax",%progbits
 441              		.align	2
 442              		.global	u8g2_m_8_16_1
 443              		.thumb
 444              		.thumb_func
 445              		.type	u8g2_m_8_16_1, %function
 446              	u8g2_m_8_16_1:
 447              	.LFB15:
 171:..\..\..\..\..\..\Dev\Library embedded l2c display\u8g2\csrc/u8g2_d_memory.c **** uint8_t *u8g2_m_8_16_1(uint8_t *page_cnt)
 172:..\..\..\..\..\..\Dev\Library embedded l2c display\u8g2\csrc/u8g2_d_memory.c **** {
 448              		.loc 1 172 0
 449              		.cfi_startproc
 450              		@ args = 0, pretend = 0, frame = 0
 451              		@ frame_needed = 0, uses_anonymous_args = 0
 452              		@ link register save eliminated.
 453              	.LVL30:
 173:..\..\..\..\..\..\Dev\Library embedded l2c display\u8g2\csrc/u8g2_d_memory.c ****   #ifdef U8G2_USE_DYNAMIC_ALLOC
 174:..\..\..\..\..\..\Dev\Library embedded l2c display\u8g2\csrc/u8g2_d_memory.c ****   *page_cnt = 1;
ARM GAS  C:\Users\Abude\AppData\Local\Temp\ccndXIr0.s 			page 12


 175:..\..\..\..\..\..\Dev\Library embedded l2c display\u8g2\csrc/u8g2_d_memory.c ****   return 0;
 176:..\..\..\..\..\..\Dev\Library embedded l2c display\u8g2\csrc/u8g2_d_memory.c ****   #else
 177:..\..\..\..\..\..\Dev\Library embedded l2c display\u8g2\csrc/u8g2_d_memory.c ****   static uint8_t buf[64];
 178:..\..\..\..\..\..\Dev\Library embedded l2c display\u8g2\csrc/u8g2_d_memory.c ****   *page_cnt = 1;
 454              		.loc 1 178 0
 455 0000 0123     		movs	r3, #1
 456 0002 0370     		strb	r3, [r0]
 179:..\..\..\..\..\..\Dev\Library embedded l2c display\u8g2\csrc/u8g2_d_memory.c ****   return buf;
 180:..\..\..\..\..\..\Dev\Library embedded l2c display\u8g2\csrc/u8g2_d_memory.c ****   #endif
 181:..\..\..\..\..\..\Dev\Library embedded l2c display\u8g2\csrc/u8g2_d_memory.c **** }
 457              		.loc 1 181 0
 458 0004 0048     		ldr	r0, .L47
 459              	.LVL31:
 460 0006 7047     		bx	lr
 461              	.L48:
 462              		.align	2
 463              	.L47:
 464 0008 D8340000 		.word	.LANCHOR3+496
 465              		.cfi_endproc
 466              	.LFE15:
 467              		.size	u8g2_m_8_16_1, .-u8g2_m_8_16_1
 468              		.section	.text.u8g2_m_8_16_2,"ax",%progbits
 469              		.align	2
 470              		.global	u8g2_m_8_16_2
 471              		.thumb
 472              		.thumb_func
 473              		.type	u8g2_m_8_16_2, %function
 474              	u8g2_m_8_16_2:
 475              	.LFB16:
 182:..\..\..\..\..\..\Dev\Library embedded l2c display\u8g2\csrc/u8g2_d_memory.c **** uint8_t *u8g2_m_8_16_2(uint8_t *page_cnt)
 183:..\..\..\..\..\..\Dev\Library embedded l2c display\u8g2\csrc/u8g2_d_memory.c **** {
 476              		.loc 1 183 0
 477              		.cfi_startproc
 478              		@ args = 0, pretend = 0, frame = 0
 479              		@ frame_needed = 0, uses_anonymous_args = 0
 480              		@ link register save eliminated.
 481              	.LVL32:
 184:..\..\..\..\..\..\Dev\Library embedded l2c display\u8g2\csrc/u8g2_d_memory.c ****   #ifdef U8G2_USE_DYNAMIC_ALLOC
 185:..\..\..\..\..\..\Dev\Library embedded l2c display\u8g2\csrc/u8g2_d_memory.c ****   *page_cnt = 2;
 186:..\..\..\..\..\..\Dev\Library embedded l2c display\u8g2\csrc/u8g2_d_memory.c ****   return 0;
 187:..\..\..\..\..\..\Dev\Library embedded l2c display\u8g2\csrc/u8g2_d_memory.c ****   #else
 188:..\..\..\..\..\..\Dev\Library embedded l2c display\u8g2\csrc/u8g2_d_memory.c ****   static uint8_t buf[128];
 189:..\..\..\..\..\..\Dev\Library embedded l2c display\u8g2\csrc/u8g2_d_memory.c ****   *page_cnt = 2;
 482              		.loc 1 189 0
 483 0000 0223     		movs	r3, #2
 484 0002 0370     		strb	r3, [r0]
 190:..\..\..\..\..\..\Dev\Library embedded l2c display\u8g2\csrc/u8g2_d_memory.c ****   return buf;
 191:..\..\..\..\..\..\Dev\Library embedded l2c display\u8g2\csrc/u8g2_d_memory.c ****   #endif
 192:..\..\..\..\..\..\Dev\Library embedded l2c display\u8g2\csrc/u8g2_d_memory.c **** }
 485              		.loc 1 192 0
 486 0004 0048     		ldr	r0, .L50
 487              	.LVL33:
 488 0006 7047     		bx	lr
 489              	.L51:
 490              		.align	2
 491              	.L50:
 492 0008 18350000 		.word	.LANCHOR3+560
ARM GAS  C:\Users\Abude\AppData\Local\Temp\ccndXIr0.s 			page 13


 493              		.cfi_endproc
 494              	.LFE16:
 495              		.size	u8g2_m_8_16_2, .-u8g2_m_8_16_2
 496              		.section	.text.u8g2_m_8_16_f,"ax",%progbits
 497              		.align	2
 498              		.global	u8g2_m_8_16_f
 499              		.thumb
 500              		.thumb_func
 501              		.type	u8g2_m_8_16_f, %function
 502              	u8g2_m_8_16_f:
 503              	.LFB17:
 193:..\..\..\..\..\..\Dev\Library embedded l2c display\u8g2\csrc/u8g2_d_memory.c **** uint8_t *u8g2_m_8_16_f(uint8_t *page_cnt)
 194:..\..\..\..\..\..\Dev\Library embedded l2c display\u8g2\csrc/u8g2_d_memory.c **** {
 504              		.loc 1 194 0
 505              		.cfi_startproc
 506              		@ args = 0, pretend = 0, frame = 0
 507              		@ frame_needed = 0, uses_anonymous_args = 0
 508              		@ link register save eliminated.
 509              	.LVL34:
 195:..\..\..\..\..\..\Dev\Library embedded l2c display\u8g2\csrc/u8g2_d_memory.c ****   #ifdef U8G2_USE_DYNAMIC_ALLOC
 196:..\..\..\..\..\..\Dev\Library embedded l2c display\u8g2\csrc/u8g2_d_memory.c ****   *page_cnt = 16;
 197:..\..\..\..\..\..\Dev\Library embedded l2c display\u8g2\csrc/u8g2_d_memory.c ****   return 0;
 198:..\..\..\..\..\..\Dev\Library embedded l2c display\u8g2\csrc/u8g2_d_memory.c ****   #else
 199:..\..\..\..\..\..\Dev\Library embedded l2c display\u8g2\csrc/u8g2_d_memory.c ****   static uint8_t buf[1024];
 200:..\..\..\..\..\..\Dev\Library embedded l2c display\u8g2\csrc/u8g2_d_memory.c ****   *page_cnt = 16;
 510              		.loc 1 200 0
 511 0000 1023     		movs	r3, #16
 512 0002 0370     		strb	r3, [r0]
 201:..\..\..\..\..\..\Dev\Library embedded l2c display\u8g2\csrc/u8g2_d_memory.c ****   return buf;
 202:..\..\..\..\..\..\Dev\Library embedded l2c display\u8g2\csrc/u8g2_d_memory.c ****   #endif
 203:..\..\..\..\..\..\Dev\Library embedded l2c display\u8g2\csrc/u8g2_d_memory.c **** }
 513              		.loc 1 203 0
 514 0004 0048     		ldr	r0, .L53
 515              	.LVL35:
 516 0006 7047     		bx	lr
 517              	.L54:
 518              		.align	2
 519              	.L53:
 520 0008 98350000 		.word	.LANCHOR3+688
 521              		.cfi_endproc
 522              	.LFE17:
 523              		.size	u8g2_m_8_16_f, .-u8g2_m_8_16_f
 524              		.section	.text.u8g2_m_12_12_1,"ax",%progbits
 525              		.align	2
 526              		.global	u8g2_m_12_12_1
 527              		.thumb
 528              		.thumb_func
 529              		.type	u8g2_m_12_12_1, %function
 530              	u8g2_m_12_12_1:
 531              	.LFB18:
 204:..\..\..\..\..\..\Dev\Library embedded l2c display\u8g2\csrc/u8g2_d_memory.c **** uint8_t *u8g2_m_12_12_1(uint8_t *page_cnt)
 205:..\..\..\..\..\..\Dev\Library embedded l2c display\u8g2\csrc/u8g2_d_memory.c **** {
 532              		.loc 1 205 0
 533              		.cfi_startproc
 534              		@ args = 0, pretend = 0, frame = 0
 535              		@ frame_needed = 0, uses_anonymous_args = 0
 536              		@ link register save eliminated.
ARM GAS  C:\Users\Abude\AppData\Local\Temp\ccndXIr0.s 			page 14


 537              	.LVL36:
 206:..\..\..\..\..\..\Dev\Library embedded l2c display\u8g2\csrc/u8g2_d_memory.c ****   #ifdef U8G2_USE_DYNAMIC_ALLOC
 207:..\..\..\..\..\..\Dev\Library embedded l2c display\u8g2\csrc/u8g2_d_memory.c ****   *page_cnt = 1;
 208:..\..\..\..\..\..\Dev\Library embedded l2c display\u8g2\csrc/u8g2_d_memory.c ****   return 0;
 209:..\..\..\..\..\..\Dev\Library embedded l2c display\u8g2\csrc/u8g2_d_memory.c ****   #else
 210:..\..\..\..\..\..\Dev\Library embedded l2c display\u8g2\csrc/u8g2_d_memory.c ****   static uint8_t buf[96];
 211:..\..\..\..\..\..\Dev\Library embedded l2c display\u8g2\csrc/u8g2_d_memory.c ****   *page_cnt = 1;
 538              		.loc 1 211 0
 539 0000 0123     		movs	r3, #1
 540 0002 0370     		strb	r3, [r0]
 212:..\..\..\..\..\..\Dev\Library embedded l2c display\u8g2\csrc/u8g2_d_memory.c ****   return buf;
 213:..\..\..\..\..\..\Dev\Library embedded l2c display\u8g2\csrc/u8g2_d_memory.c ****   #endif
 214:..\..\..\..\..\..\Dev\Library embedded l2c display\u8g2\csrc/u8g2_d_memory.c **** }
 541              		.loc 1 214 0
 542 0004 0048     		ldr	r0, .L56
 543              	.LVL37:
 544 0006 7047     		bx	lr
 545              	.L57:
 546              		.align	2
 547              	.L56:
 548 0008 98390000 		.word	.LANCHOR3+1712
 549              		.cfi_endproc
 550              	.LFE18:
 551              		.size	u8g2_m_12_12_1, .-u8g2_m_12_12_1
 552              		.section	.text.u8g2_m_12_12_2,"ax",%progbits
 553              		.align	2
 554              		.global	u8g2_m_12_12_2
 555              		.thumb
 556              		.thumb_func
 557              		.type	u8g2_m_12_12_2, %function
 558              	u8g2_m_12_12_2:
 559              	.LFB19:
 215:..\..\..\..\..\..\Dev\Library embedded l2c display\u8g2\csrc/u8g2_d_memory.c **** uint8_t *u8g2_m_12_12_2(uint8_t *page_cnt)
 216:..\..\..\..\..\..\Dev\Library embedded l2c display\u8g2\csrc/u8g2_d_memory.c **** {
 560              		.loc 1 216 0
 561              		.cfi_startproc
 562              		@ args = 0, pretend = 0, frame = 0
 563              		@ frame_needed = 0, uses_anonymous_args = 0
 564              		@ link register save eliminated.
 565              	.LVL38:
 217:..\..\..\..\..\..\Dev\Library embedded l2c display\u8g2\csrc/u8g2_d_memory.c ****   #ifdef U8G2_USE_DYNAMIC_ALLOC
 218:..\..\..\..\..\..\Dev\Library embedded l2c display\u8g2\csrc/u8g2_d_memory.c ****   *page_cnt = 2;
 219:..\..\..\..\..\..\Dev\Library embedded l2c display\u8g2\csrc/u8g2_d_memory.c ****   return 0;
 220:..\..\..\..\..\..\Dev\Library embedded l2c display\u8g2\csrc/u8g2_d_memory.c ****   #else
 221:..\..\..\..\..\..\Dev\Library embedded l2c display\u8g2\csrc/u8g2_d_memory.c ****   static uint8_t buf[192];
 222:..\..\..\..\..\..\Dev\Library embedded l2c display\u8g2\csrc/u8g2_d_memory.c ****   *page_cnt = 2;
 566              		.loc 1 222 0
 567 0000 0223     		movs	r3, #2
 568 0002 0370     		strb	r3, [r0]
 223:..\..\..\..\..\..\Dev\Library embedded l2c display\u8g2\csrc/u8g2_d_memory.c ****   return buf;
 224:..\..\..\..\..\..\Dev\Library embedded l2c display\u8g2\csrc/u8g2_d_memory.c ****   #endif
 225:..\..\..\..\..\..\Dev\Library embedded l2c display\u8g2\csrc/u8g2_d_memory.c **** }
 569              		.loc 1 225 0
 570 0004 0048     		ldr	r0, .L59
 571              	.LVL39:
 572 0006 7047     		bx	lr
 573              	.L60:
ARM GAS  C:\Users\Abude\AppData\Local\Temp\ccndXIr0.s 			page 15


 574              		.align	2
 575              	.L59:
 576 0008 F8390000 		.word	.LANCHOR3+1808
 577              		.cfi_endproc
 578              	.LFE19:
 579              		.size	u8g2_m_12_12_2, .-u8g2_m_12_12_2
 580              		.section	.text.u8g2_m_12_12_f,"ax",%progbits
 581              		.align	2
 582              		.global	u8g2_m_12_12_f
 583              		.thumb
 584              		.thumb_func
 585              		.type	u8g2_m_12_12_f, %function
 586              	u8g2_m_12_12_f:
 587              	.LFB20:
 226:..\..\..\..\..\..\Dev\Library embedded l2c display\u8g2\csrc/u8g2_d_memory.c **** uint8_t *u8g2_m_12_12_f(uint8_t *page_cnt)
 227:..\..\..\..\..\..\Dev\Library embedded l2c display\u8g2\csrc/u8g2_d_memory.c **** {
 588              		.loc 1 227 0
 589              		.cfi_startproc
 590              		@ args = 0, pretend = 0, frame = 0
 591              		@ frame_needed = 0, uses_anonymous_args = 0
 592              		@ link register save eliminated.
 593              	.LVL40:
 228:..\..\..\..\..\..\Dev\Library embedded l2c display\u8g2\csrc/u8g2_d_memory.c ****   #ifdef U8G2_USE_DYNAMIC_ALLOC
 229:..\..\..\..\..\..\Dev\Library embedded l2c display\u8g2\csrc/u8g2_d_memory.c ****   *page_cnt = 12;
 230:..\..\..\..\..\..\Dev\Library embedded l2c display\u8g2\csrc/u8g2_d_memory.c ****   return 0;
 231:..\..\..\..\..\..\Dev\Library embedded l2c display\u8g2\csrc/u8g2_d_memory.c ****   #else
 232:..\..\..\..\..\..\Dev\Library embedded l2c display\u8g2\csrc/u8g2_d_memory.c ****   static uint8_t buf[1152];
 233:..\..\..\..\..\..\Dev\Library embedded l2c display\u8g2\csrc/u8g2_d_memory.c ****   *page_cnt = 12;
 594              		.loc 1 233 0
 595 0000 0C23     		movs	r3, #12
 596 0002 0370     		strb	r3, [r0]
 234:..\..\..\..\..\..\Dev\Library embedded l2c display\u8g2\csrc/u8g2_d_memory.c ****   return buf;
 235:..\..\..\..\..\..\Dev\Library embedded l2c display\u8g2\csrc/u8g2_d_memory.c ****   #endif
 236:..\..\..\..\..\..\Dev\Library embedded l2c display\u8g2\csrc/u8g2_d_memory.c **** }
 597              		.loc 1 236 0
 598 0004 0048     		ldr	r0, .L62
 599              	.LVL41:
 600 0006 7047     		bx	lr
 601              	.L63:
 602              		.align	2
 603              	.L62:
 604 0008 B83A0000 		.word	.LANCHOR3+2000
 605              		.cfi_endproc
 606              	.LFE20:
 607              		.size	u8g2_m_12_12_f, .-u8g2_m_12_12_f
 608              		.section	.text.u8g2_m_10_16_1,"ax",%progbits
 609              		.align	2
 610              		.global	u8g2_m_10_16_1
 611              		.thumb
 612              		.thumb_func
 613              		.type	u8g2_m_10_16_1, %function
 614              	u8g2_m_10_16_1:
 615              	.LFB21:
 237:..\..\..\..\..\..\Dev\Library embedded l2c display\u8g2\csrc/u8g2_d_memory.c **** uint8_t *u8g2_m_10_16_1(uint8_t *page_cnt)
 238:..\..\..\..\..\..\Dev\Library embedded l2c display\u8g2\csrc/u8g2_d_memory.c **** {
 616              		.loc 1 238 0
 617              		.cfi_startproc
ARM GAS  C:\Users\Abude\AppData\Local\Temp\ccndXIr0.s 			page 16


 618              		@ args = 0, pretend = 0, frame = 0
 619              		@ frame_needed = 0, uses_anonymous_args = 0
 620              		@ link register save eliminated.
 621              	.LVL42:
 239:..\..\..\..\..\..\Dev\Library embedded l2c display\u8g2\csrc/u8g2_d_memory.c ****   #ifdef U8G2_USE_DYNAMIC_ALLOC
 240:..\..\..\..\..\..\Dev\Library embedded l2c display\u8g2\csrc/u8g2_d_memory.c ****   *page_cnt = 1;
 241:..\..\..\..\..\..\Dev\Library embedded l2c display\u8g2\csrc/u8g2_d_memory.c ****   return 0;
 242:..\..\..\..\..\..\Dev\Library embedded l2c display\u8g2\csrc/u8g2_d_memory.c ****   #else
 243:..\..\..\..\..\..\Dev\Library embedded l2c display\u8g2\csrc/u8g2_d_memory.c ****   static uint8_t buf[80];
 244:..\..\..\..\..\..\Dev\Library embedded l2c display\u8g2\csrc/u8g2_d_memory.c ****   *page_cnt = 1;
 622              		.loc 1 244 0
 623 0000 0123     		movs	r3, #1
 624 0002 0370     		strb	r3, [r0]
 245:..\..\..\..\..\..\Dev\Library embedded l2c display\u8g2\csrc/u8g2_d_memory.c ****   return buf;
 246:..\..\..\..\..\..\Dev\Library embedded l2c display\u8g2\csrc/u8g2_d_memory.c ****   #endif
 247:..\..\..\..\..\..\Dev\Library embedded l2c display\u8g2\csrc/u8g2_d_memory.c **** }
 625              		.loc 1 247 0
 626 0004 0048     		ldr	r0, .L65
 627              	.LVL43:
 628 0006 7047     		bx	lr
 629              	.L66:
 630              		.align	2
 631              	.L65:
 632 0008 383F0000 		.word	.LANCHOR3+3152
 633              		.cfi_endproc
 634              	.LFE21:
 635              		.size	u8g2_m_10_16_1, .-u8g2_m_10_16_1
 636              		.section	.text.u8g2_m_10_16_2,"ax",%progbits
 637              		.align	2
 638              		.global	u8g2_m_10_16_2
 639              		.thumb
 640              		.thumb_func
 641              		.type	u8g2_m_10_16_2, %function
 642              	u8g2_m_10_16_2:
 643              	.LFB22:
 248:..\..\..\..\..\..\Dev\Library embedded l2c display\u8g2\csrc/u8g2_d_memory.c **** uint8_t *u8g2_m_10_16_2(uint8_t *page_cnt)
 249:..\..\..\..\..\..\Dev\Library embedded l2c display\u8g2\csrc/u8g2_d_memory.c **** {
 644              		.loc 1 249 0
 645              		.cfi_startproc
 646              		@ args = 0, pretend = 0, frame = 0
 647              		@ frame_needed = 0, uses_anonymous_args = 0
 648              		@ link register save eliminated.
 649              	.LVL44:
 250:..\..\..\..\..\..\Dev\Library embedded l2c display\u8g2\csrc/u8g2_d_memory.c ****   #ifdef U8G2_USE_DYNAMIC_ALLOC
 251:..\..\..\..\..\..\Dev\Library embedded l2c display\u8g2\csrc/u8g2_d_memory.c ****   *page_cnt = 2;
 252:..\..\..\..\..\..\Dev\Library embedded l2c display\u8g2\csrc/u8g2_d_memory.c ****   return 0;
 253:..\..\..\..\..\..\Dev\Library embedded l2c display\u8g2\csrc/u8g2_d_memory.c ****   #else
 254:..\..\..\..\..\..\Dev\Library embedded l2c display\u8g2\csrc/u8g2_d_memory.c ****   static uint8_t buf[160];
 255:..\..\..\..\..\..\Dev\Library embedded l2c display\u8g2\csrc/u8g2_d_memory.c ****   *page_cnt = 2;
 650              		.loc 1 255 0
 651 0000 0223     		movs	r3, #2
 652 0002 0370     		strb	r3, [r0]
 256:..\..\..\..\..\..\Dev\Library embedded l2c display\u8g2\csrc/u8g2_d_memory.c ****   return buf;
 257:..\..\..\..\..\..\Dev\Library embedded l2c display\u8g2\csrc/u8g2_d_memory.c ****   #endif
 258:..\..\..\..\..\..\Dev\Library embedded l2c display\u8g2\csrc/u8g2_d_memory.c **** }
 653              		.loc 1 258 0
 654 0004 0048     		ldr	r0, .L68
ARM GAS  C:\Users\Abude\AppData\Local\Temp\ccndXIr0.s 			page 17


 655              	.LVL45:
 656 0006 7047     		bx	lr
 657              	.L69:
 658              		.align	2
 659              	.L68:
 660 0008 883F0000 		.word	.LANCHOR3+3232
 661              		.cfi_endproc
 662              	.LFE22:
 663              		.size	u8g2_m_10_16_2, .-u8g2_m_10_16_2
 664              		.section	.text.u8g2_m_10_16_f,"ax",%progbits
 665              		.align	2
 666              		.global	u8g2_m_10_16_f
 667              		.thumb
 668              		.thumb_func
 669              		.type	u8g2_m_10_16_f, %function
 670              	u8g2_m_10_16_f:
 671              	.LFB23:
 259:..\..\..\..\..\..\Dev\Library embedded l2c display\u8g2\csrc/u8g2_d_memory.c **** uint8_t *u8g2_m_10_16_f(uint8_t *page_cnt)
 260:..\..\..\..\..\..\Dev\Library embedded l2c display\u8g2\csrc/u8g2_d_memory.c **** {
 672              		.loc 1 260 0
 673              		.cfi_startproc
 674              		@ args = 0, pretend = 0, frame = 0
 675              		@ frame_needed = 0, uses_anonymous_args = 0
 676              		@ link register save eliminated.
 677              	.LVL46:
 261:..\..\..\..\..\..\Dev\Library embedded l2c display\u8g2\csrc/u8g2_d_memory.c ****   #ifdef U8G2_USE_DYNAMIC_ALLOC
 262:..\..\..\..\..\..\Dev\Library embedded l2c display\u8g2\csrc/u8g2_d_memory.c ****   *page_cnt = 16;
 263:..\..\..\..\..\..\Dev\Library embedded l2c display\u8g2\csrc/u8g2_d_memory.c ****   return 0;
 264:..\..\..\..\..\..\Dev\Library embedded l2c display\u8g2\csrc/u8g2_d_memory.c ****   #else
 265:..\..\..\..\..\..\Dev\Library embedded l2c display\u8g2\csrc/u8g2_d_memory.c ****   static uint8_t buf[1280];
 266:..\..\..\..\..\..\Dev\Library embedded l2c display\u8g2\csrc/u8g2_d_memory.c ****   *page_cnt = 16;
 678              		.loc 1 266 0
 679 0000 1023     		movs	r3, #16
 680 0002 0370     		strb	r3, [r0]
 267:..\..\..\..\..\..\Dev\Library embedded l2c display\u8g2\csrc/u8g2_d_memory.c ****   return buf;
 268:..\..\..\..\..\..\Dev\Library embedded l2c display\u8g2\csrc/u8g2_d_memory.c ****   #endif
 269:..\..\..\..\..\..\Dev\Library embedded l2c display\u8g2\csrc/u8g2_d_memory.c **** }
 681              		.loc 1 269 0
 682 0004 0048     		ldr	r0, .L71
 683              	.LVL47:
 684 0006 7047     		bx	lr
 685              	.L72:
 686              		.align	2
 687              	.L71:
 688 0008 28400000 		.word	.LANCHOR3+3392
 689              		.cfi_endproc
 690              	.LFE23:
 691              		.size	u8g2_m_10_16_f, .-u8g2_m_10_16_f
 692              		.section	.text.u8g2_m_16_16_1,"ax",%progbits
 693              		.align	2
 694              		.global	u8g2_m_16_16_1
 695              		.thumb
 696              		.thumb_func
 697              		.type	u8g2_m_16_16_1, %function
 698              	u8g2_m_16_16_1:
 699              	.LFB24:
 270:..\..\..\..\..\..\Dev\Library embedded l2c display\u8g2\csrc/u8g2_d_memory.c **** uint8_t *u8g2_m_16_16_1(uint8_t *page_cnt)
ARM GAS  C:\Users\Abude\AppData\Local\Temp\ccndXIr0.s 			page 18


 271:..\..\..\..\..\..\Dev\Library embedded l2c display\u8g2\csrc/u8g2_d_memory.c **** {
 700              		.loc 1 271 0
 701              		.cfi_startproc
 702              		@ args = 0, pretend = 0, frame = 0
 703              		@ frame_needed = 0, uses_anonymous_args = 0
 704              		@ link register save eliminated.
 705              	.LVL48:
 272:..\..\..\..\..\..\Dev\Library embedded l2c display\u8g2\csrc/u8g2_d_memory.c ****   #ifdef U8G2_USE_DYNAMIC_ALLOC
 273:..\..\..\..\..\..\Dev\Library embedded l2c display\u8g2\csrc/u8g2_d_memory.c ****   *page_cnt = 1;
 274:..\..\..\..\..\..\Dev\Library embedded l2c display\u8g2\csrc/u8g2_d_memory.c ****   return 0;
 275:..\..\..\..\..\..\Dev\Library embedded l2c display\u8g2\csrc/u8g2_d_memory.c ****   #else
 276:..\..\..\..\..\..\Dev\Library embedded l2c display\u8g2\csrc/u8g2_d_memory.c ****   static uint8_t buf[128];
 277:..\..\..\..\..\..\Dev\Library embedded l2c display\u8g2\csrc/u8g2_d_memory.c ****   *page_cnt = 1;
 706              		.loc 1 277 0
 707 0000 0123     		movs	r3, #1
 708 0002 0370     		strb	r3, [r0]
 278:..\..\..\..\..\..\Dev\Library embedded l2c display\u8g2\csrc/u8g2_d_memory.c ****   return buf;
 279:..\..\..\..\..\..\Dev\Library embedded l2c display\u8g2\csrc/u8g2_d_memory.c ****   #endif
 280:..\..\..\..\..\..\Dev\Library embedded l2c display\u8g2\csrc/u8g2_d_memory.c **** }
 709              		.loc 1 280 0
 710 0004 0048     		ldr	r0, .L74
 711              	.LVL49:
 712 0006 7047     		bx	lr
 713              	.L75:
 714              		.align	2
 715              	.L74:
 716 0008 28450000 		.word	.LANCHOR4+328
 717              		.cfi_endproc
 718              	.LFE24:
 719              		.size	u8g2_m_16_16_1, .-u8g2_m_16_16_1
 720              		.section	.text.u8g2_m_16_16_2,"ax",%progbits
 721              		.align	2
 722              		.global	u8g2_m_16_16_2
 723              		.thumb
 724              		.thumb_func
 725              		.type	u8g2_m_16_16_2, %function
 726              	u8g2_m_16_16_2:
 727              	.LFB25:
 281:..\..\..\..\..\..\Dev\Library embedded l2c display\u8g2\csrc/u8g2_d_memory.c **** uint8_t *u8g2_m_16_16_2(uint8_t *page_cnt)
 282:..\..\..\..\..\..\Dev\Library embedded l2c display\u8g2\csrc/u8g2_d_memory.c **** {
 728              		.loc 1 282 0
 729              		.cfi_startproc
 730              		@ args = 0, pretend = 0, frame = 0
 731              		@ frame_needed = 0, uses_anonymous_args = 0
 732              		@ link register save eliminated.
 733              	.LVL50:
 283:..\..\..\..\..\..\Dev\Library embedded l2c display\u8g2\csrc/u8g2_d_memory.c ****   #ifdef U8G2_USE_DYNAMIC_ALLOC
 284:..\..\..\..\..\..\Dev\Library embedded l2c display\u8g2\csrc/u8g2_d_memory.c ****   *page_cnt = 2;
 285:..\..\..\..\..\..\Dev\Library embedded l2c display\u8g2\csrc/u8g2_d_memory.c ****   return 0;
 286:..\..\..\..\..\..\Dev\Library embedded l2c display\u8g2\csrc/u8g2_d_memory.c ****   #else
 287:..\..\..\..\..\..\Dev\Library embedded l2c display\u8g2\csrc/u8g2_d_memory.c ****   static uint8_t buf[256];
 288:..\..\..\..\..\..\Dev\Library embedded l2c display\u8g2\csrc/u8g2_d_memory.c ****   *page_cnt = 2;
 734              		.loc 1 288 0
 735 0000 0223     		movs	r3, #2
 736 0002 0370     		strb	r3, [r0]
 289:..\..\..\..\..\..\Dev\Library embedded l2c display\u8g2\csrc/u8g2_d_memory.c ****   return buf;
 290:..\..\..\..\..\..\Dev\Library embedded l2c display\u8g2\csrc/u8g2_d_memory.c ****   #endif
ARM GAS  C:\Users\Abude\AppData\Local\Temp\ccndXIr0.s 			page 19


 291:..\..\..\..\..\..\Dev\Library embedded l2c display\u8g2\csrc/u8g2_d_memory.c **** }
 737              		.loc 1 291 0
 738 0004 0048     		ldr	r0, .L77
 739              	.LVL51:
 740 0006 7047     		bx	lr
 741              	.L78:
 742              		.align	2
 743              	.L77:
 744 0008 A8450000 		.word	.LANCHOR4+456
 745              		.cfi_endproc
 746              	.LFE25:
 747              		.size	u8g2_m_16_16_2, .-u8g2_m_16_16_2
 748              		.section	.text.u8g2_m_16_16_f,"ax",%progbits
 749              		.align	2
 750              		.global	u8g2_m_16_16_f
 751              		.thumb
 752              		.thumb_func
 753              		.type	u8g2_m_16_16_f, %function
 754              	u8g2_m_16_16_f:
 755              	.LFB26:
 292:..\..\..\..\..\..\Dev\Library embedded l2c display\u8g2\csrc/u8g2_d_memory.c **** uint8_t *u8g2_m_16_16_f(uint8_t *page_cnt)
 293:..\..\..\..\..\..\Dev\Library embedded l2c display\u8g2\csrc/u8g2_d_memory.c **** {
 756              		.loc 1 293 0
 757              		.cfi_startproc
 758              		@ args = 0, pretend = 0, frame = 0
 759              		@ frame_needed = 0, uses_anonymous_args = 0
 760              		@ link register save eliminated.
 761              	.LVL52:
 294:..\..\..\..\..\..\Dev\Library embedded l2c display\u8g2\csrc/u8g2_d_memory.c ****   #ifdef U8G2_USE_DYNAMIC_ALLOC
 295:..\..\..\..\..\..\Dev\Library embedded l2c display\u8g2\csrc/u8g2_d_memory.c ****   *page_cnt = 16;
 296:..\..\..\..\..\..\Dev\Library embedded l2c display\u8g2\csrc/u8g2_d_memory.c ****   return 0;
 297:..\..\..\..\..\..\Dev\Library embedded l2c display\u8g2\csrc/u8g2_d_memory.c ****   #else
 298:..\..\..\..\..\..\Dev\Library embedded l2c display\u8g2\csrc/u8g2_d_memory.c ****   static uint8_t buf[2048];
 299:..\..\..\..\..\..\Dev\Library embedded l2c display\u8g2\csrc/u8g2_d_memory.c ****   *page_cnt = 16;
 762              		.loc 1 299 0
 763 0000 1023     		movs	r3, #16
 764 0002 0370     		strb	r3, [r0]
 300:..\..\..\..\..\..\Dev\Library embedded l2c display\u8g2\csrc/u8g2_d_memory.c ****   return buf;
 301:..\..\..\..\..\..\Dev\Library embedded l2c display\u8g2\csrc/u8g2_d_memory.c ****   #endif
 302:..\..\..\..\..\..\Dev\Library embedded l2c display\u8g2\csrc/u8g2_d_memory.c **** }
 765              		.loc 1 302 0
 766 0004 0048     		ldr	r0, .L80
 767              	.LVL53:
 768 0006 7047     		bx	lr
 769              	.L81:
 770              		.align	2
 771              	.L80:
 772 0008 A8460000 		.word	.LANCHOR4+712
 773              		.cfi_endproc
 774              	.LFE26:
 775              		.size	u8g2_m_16_16_f, .-u8g2_m_16_16_f
 776              		.section	.text.u8g2_m_20_20_1,"ax",%progbits
 777              		.align	2
 778              		.global	u8g2_m_20_20_1
 779              		.thumb
 780              		.thumb_func
 781              		.type	u8g2_m_20_20_1, %function
ARM GAS  C:\Users\Abude\AppData\Local\Temp\ccndXIr0.s 			page 20


 782              	u8g2_m_20_20_1:
 783              	.LFB27:
 303:..\..\..\..\..\..\Dev\Library embedded l2c display\u8g2\csrc/u8g2_d_memory.c **** uint8_t *u8g2_m_20_20_1(uint8_t *page_cnt)
 304:..\..\..\..\..\..\Dev\Library embedded l2c display\u8g2\csrc/u8g2_d_memory.c **** {
 784              		.loc 1 304 0
 785              		.cfi_startproc
 786              		@ args = 0, pretend = 0, frame = 0
 787              		@ frame_needed = 0, uses_anonymous_args = 0
 788              		@ link register save eliminated.
 789              	.LVL54:
 305:..\..\..\..\..\..\Dev\Library embedded l2c display\u8g2\csrc/u8g2_d_memory.c ****   #ifdef U8G2_USE_DYNAMIC_ALLOC
 306:..\..\..\..\..\..\Dev\Library embedded l2c display\u8g2\csrc/u8g2_d_memory.c ****   *page_cnt = 1;
 307:..\..\..\..\..\..\Dev\Library embedded l2c display\u8g2\csrc/u8g2_d_memory.c ****   return 0;
 308:..\..\..\..\..\..\Dev\Library embedded l2c display\u8g2\csrc/u8g2_d_memory.c ****   #else
 309:..\..\..\..\..\..\Dev\Library embedded l2c display\u8g2\csrc/u8g2_d_memory.c ****   static uint8_t buf[160];
 310:..\..\..\..\..\..\Dev\Library embedded l2c display\u8g2\csrc/u8g2_d_memory.c ****   *page_cnt = 1;
 790              		.loc 1 310 0
 791 0000 0123     		movs	r3, #1
 792 0002 0370     		strb	r3, [r0]
 311:..\..\..\..\..\..\Dev\Library embedded l2c display\u8g2\csrc/u8g2_d_memory.c ****   return buf;
 312:..\..\..\..\..\..\Dev\Library embedded l2c display\u8g2\csrc/u8g2_d_memory.c ****   #endif
 313:..\..\..\..\..\..\Dev\Library embedded l2c display\u8g2\csrc/u8g2_d_memory.c **** }
 793              		.loc 1 313 0
 794 0004 0048     		ldr	r0, .L83
 795              	.LVL55:
 796 0006 7047     		bx	lr
 797              	.L84:
 798              		.align	2
 799              	.L83:
 800 0008 A84E0000 		.word	.LANCHOR4+2760
 801              		.cfi_endproc
 802              	.LFE27:
 803              		.size	u8g2_m_20_20_1, .-u8g2_m_20_20_1
 804              		.section	.text.u8g2_m_20_20_2,"ax",%progbits
 805              		.align	2
 806              		.global	u8g2_m_20_20_2
 807              		.thumb
 808              		.thumb_func
 809              		.type	u8g2_m_20_20_2, %function
 810              	u8g2_m_20_20_2:
 811              	.LFB28:
 314:..\..\..\..\..\..\Dev\Library embedded l2c display\u8g2\csrc/u8g2_d_memory.c **** uint8_t *u8g2_m_20_20_2(uint8_t *page_cnt)
 315:..\..\..\..\..\..\Dev\Library embedded l2c display\u8g2\csrc/u8g2_d_memory.c **** {
 812              		.loc 1 315 0
 813              		.cfi_startproc
 814              		@ args = 0, pretend = 0, frame = 0
 815              		@ frame_needed = 0, uses_anonymous_args = 0
 816              		@ link register save eliminated.
 817              	.LVL56:
 316:..\..\..\..\..\..\Dev\Library embedded l2c display\u8g2\csrc/u8g2_d_memory.c ****   #ifdef U8G2_USE_DYNAMIC_ALLOC
 317:..\..\..\..\..\..\Dev\Library embedded l2c display\u8g2\csrc/u8g2_d_memory.c ****   *page_cnt = 2;
 318:..\..\..\..\..\..\Dev\Library embedded l2c display\u8g2\csrc/u8g2_d_memory.c ****   return 0;
 319:..\..\..\..\..\..\Dev\Library embedded l2c display\u8g2\csrc/u8g2_d_memory.c ****   #else
 320:..\..\..\..\..\..\Dev\Library embedded l2c display\u8g2\csrc/u8g2_d_memory.c ****   static uint8_t buf[320];
 321:..\..\..\..\..\..\Dev\Library embedded l2c display\u8g2\csrc/u8g2_d_memory.c ****   *page_cnt = 2;
 818              		.loc 1 321 0
 819 0000 0223     		movs	r3, #2
ARM GAS  C:\Users\Abude\AppData\Local\Temp\ccndXIr0.s 			page 21


 820 0002 0370     		strb	r3, [r0]
 322:..\..\..\..\..\..\Dev\Library embedded l2c display\u8g2\csrc/u8g2_d_memory.c ****   return buf;
 323:..\..\..\..\..\..\Dev\Library embedded l2c display\u8g2\csrc/u8g2_d_memory.c ****   #endif
 324:..\..\..\..\..\..\Dev\Library embedded l2c display\u8g2\csrc/u8g2_d_memory.c **** }
 821              		.loc 1 324 0
 822 0004 0048     		ldr	r0, .L86
 823              	.LVL57:
 824 0006 7047     		bx	lr
 825              	.L87:
 826              		.align	2
 827              	.L86:
 828 0008 484F0000 		.word	.LANCHOR4+2920
 829              		.cfi_endproc
 830              	.LFE28:
 831              		.size	u8g2_m_20_20_2, .-u8g2_m_20_20_2
 832              		.section	.text.u8g2_m_20_20_f,"ax",%progbits
 833              		.align	2
 834              		.global	u8g2_m_20_20_f
 835              		.thumb
 836              		.thumb_func
 837              		.type	u8g2_m_20_20_f, %function
 838              	u8g2_m_20_20_f:
 839              	.LFB29:
 325:..\..\..\..\..\..\Dev\Library embedded l2c display\u8g2\csrc/u8g2_d_memory.c **** uint8_t *u8g2_m_20_20_f(uint8_t *page_cnt)
 326:..\..\..\..\..\..\Dev\Library embedded l2c display\u8g2\csrc/u8g2_d_memory.c **** {
 840              		.loc 1 326 0
 841              		.cfi_startproc
 842              		@ args = 0, pretend = 0, frame = 0
 843              		@ frame_needed = 0, uses_anonymous_args = 0
 844              		@ link register save eliminated.
 845              	.LVL58:
 327:..\..\..\..\..\..\Dev\Library embedded l2c display\u8g2\csrc/u8g2_d_memory.c ****   #ifdef U8G2_USE_DYNAMIC_ALLOC
 328:..\..\..\..\..\..\Dev\Library embedded l2c display\u8g2\csrc/u8g2_d_memory.c ****   *page_cnt = 20;
 329:..\..\..\..\..\..\Dev\Library embedded l2c display\u8g2\csrc/u8g2_d_memory.c ****   return 0;
 330:..\..\..\..\..\..\Dev\Library embedded l2c display\u8g2\csrc/u8g2_d_memory.c ****   #else
 331:..\..\..\..\..\..\Dev\Library embedded l2c display\u8g2\csrc/u8g2_d_memory.c ****   static uint8_t buf[3200];
 332:..\..\..\..\..\..\Dev\Library embedded l2c display\u8g2\csrc/u8g2_d_memory.c ****   *page_cnt = 20;
 846              		.loc 1 332 0
 847 0000 1423     		movs	r3, #20
 848 0002 0370     		strb	r3, [r0]
 333:..\..\..\..\..\..\Dev\Library embedded l2c display\u8g2\csrc/u8g2_d_memory.c ****   return buf;
 334:..\..\..\..\..\..\Dev\Library embedded l2c display\u8g2\csrc/u8g2_d_memory.c ****   #endif
 335:..\..\..\..\..\..\Dev\Library embedded l2c display\u8g2\csrc/u8g2_d_memory.c **** }
 849              		.loc 1 335 0
 850 0004 0048     		ldr	r0, .L89
 851              	.LVL59:
 852 0006 7047     		bx	lr
 853              	.L90:
 854              		.align	2
 855              	.L89:
 856 0008 88500000 		.word	.LANCHOR4+3240
 857              		.cfi_endproc
 858              	.LFE29:
 859              		.size	u8g2_m_20_20_f, .-u8g2_m_20_20_f
 860              		.section	.text.u8g2_m_32_8_1,"ax",%progbits
 861              		.align	2
 862              		.global	u8g2_m_32_8_1
ARM GAS  C:\Users\Abude\AppData\Local\Temp\ccndXIr0.s 			page 22


 863              		.thumb
 864              		.thumb_func
 865              		.type	u8g2_m_32_8_1, %function
 866              	u8g2_m_32_8_1:
 867              	.LFB30:
 336:..\..\..\..\..\..\Dev\Library embedded l2c display\u8g2\csrc/u8g2_d_memory.c **** uint8_t *u8g2_m_32_8_1(uint8_t *page_cnt)
 337:..\..\..\..\..\..\Dev\Library embedded l2c display\u8g2\csrc/u8g2_d_memory.c **** {
 868              		.loc 1 337 0
 869              		.cfi_startproc
 870              		@ args = 0, pretend = 0, frame = 0
 871              		@ frame_needed = 0, uses_anonymous_args = 0
 872              		@ link register save eliminated.
 873              	.LVL60:
 338:..\..\..\..\..\..\Dev\Library embedded l2c display\u8g2\csrc/u8g2_d_memory.c ****   #ifdef U8G2_USE_DYNAMIC_ALLOC
 339:..\..\..\..\..\..\Dev\Library embedded l2c display\u8g2\csrc/u8g2_d_memory.c ****   *page_cnt = 1;
 340:..\..\..\..\..\..\Dev\Library embedded l2c display\u8g2\csrc/u8g2_d_memory.c ****   return 0;
 341:..\..\..\..\..\..\Dev\Library embedded l2c display\u8g2\csrc/u8g2_d_memory.c ****   #else
 342:..\..\..\..\..\..\Dev\Library embedded l2c display\u8g2\csrc/u8g2_d_memory.c ****   static uint8_t buf[256];
 343:..\..\..\..\..\..\Dev\Library embedded l2c display\u8g2\csrc/u8g2_d_memory.c ****   *page_cnt = 1;
 874              		.loc 1 343 0
 875 0000 0123     		movs	r3, #1
 876 0002 0370     		strb	r3, [r0]
 344:..\..\..\..\..\..\Dev\Library embedded l2c display\u8g2\csrc/u8g2_d_memory.c ****   return buf;
 345:..\..\..\..\..\..\Dev\Library embedded l2c display\u8g2\csrc/u8g2_d_memory.c ****   #endif
 346:..\..\..\..\..\..\Dev\Library embedded l2c display\u8g2\csrc/u8g2_d_memory.c **** }
 877              		.loc 1 346 0
 878 0004 0048     		ldr	r0, .L92
 879              	.LVL61:
 880 0006 7047     		bx	lr
 881              	.L93:
 882              		.align	2
 883              	.L92:
 884 0008 085D0000 		.word	.LANCHOR5+2096
 885              		.cfi_endproc
 886              	.LFE30:
 887              		.size	u8g2_m_32_8_1, .-u8g2_m_32_8_1
 888              		.section	.text.u8g2_m_32_8_2,"ax",%progbits
 889              		.align	2
 890              		.global	u8g2_m_32_8_2
 891              		.thumb
 892              		.thumb_func
 893              		.type	u8g2_m_32_8_2, %function
 894              	u8g2_m_32_8_2:
 895              	.LFB31:
 347:..\..\..\..\..\..\Dev\Library embedded l2c display\u8g2\csrc/u8g2_d_memory.c **** uint8_t *u8g2_m_32_8_2(uint8_t *page_cnt)
 348:..\..\..\..\..\..\Dev\Library embedded l2c display\u8g2\csrc/u8g2_d_memory.c **** {
 896              		.loc 1 348 0
 897              		.cfi_startproc
 898              		@ args = 0, pretend = 0, frame = 0
 899              		@ frame_needed = 0, uses_anonymous_args = 0
 900              		@ link register save eliminated.
 901              	.LVL62:
 349:..\..\..\..\..\..\Dev\Library embedded l2c display\u8g2\csrc/u8g2_d_memory.c ****   #ifdef U8G2_USE_DYNAMIC_ALLOC
 350:..\..\..\..\..\..\Dev\Library embedded l2c display\u8g2\csrc/u8g2_d_memory.c ****   *page_cnt = 2;
 351:..\..\..\..\..\..\Dev\Library embedded l2c display\u8g2\csrc/u8g2_d_memory.c ****   return 0;
 352:..\..\..\..\..\..\Dev\Library embedded l2c display\u8g2\csrc/u8g2_d_memory.c ****   #else
 353:..\..\..\..\..\..\Dev\Library embedded l2c display\u8g2\csrc/u8g2_d_memory.c ****   static uint8_t buf[512];
ARM GAS  C:\Users\Abude\AppData\Local\Temp\ccndXIr0.s 			page 23


 354:..\..\..\..\..\..\Dev\Library embedded l2c display\u8g2\csrc/u8g2_d_memory.c ****   *page_cnt = 2;
 902              		.loc 1 354 0
 903 0000 0223     		movs	r3, #2
 904 0002 0370     		strb	r3, [r0]
 355:..\..\..\..\..\..\Dev\Library embedded l2c display\u8g2\csrc/u8g2_d_memory.c ****   return buf;
 356:..\..\..\..\..\..\Dev\Library embedded l2c display\u8g2\csrc/u8g2_d_memory.c ****   #endif
 357:..\..\..\..\..\..\Dev\Library embedded l2c display\u8g2\csrc/u8g2_d_memory.c **** }
 905              		.loc 1 357 0
 906 0004 0048     		ldr	r0, .L95
 907              	.LVL63:
 908 0006 7047     		bx	lr
 909              	.L96:
 910              		.align	2
 911              	.L95:
 912 0008 085E0000 		.word	.LANCHOR5+2352
 913              		.cfi_endproc
 914              	.LFE31:
 915              		.size	u8g2_m_32_8_2, .-u8g2_m_32_8_2
 916              		.section	.text.u8g2_m_32_8_f,"ax",%progbits
 917              		.align	2
 918              		.global	u8g2_m_32_8_f
 919              		.thumb
 920              		.thumb_func
 921              		.type	u8g2_m_32_8_f, %function
 922              	u8g2_m_32_8_f:
 923              	.LFB32:
 358:..\..\..\..\..\..\Dev\Library embedded l2c display\u8g2\csrc/u8g2_d_memory.c **** uint8_t *u8g2_m_32_8_f(uint8_t *page_cnt)
 359:..\..\..\..\..\..\Dev\Library embedded l2c display\u8g2\csrc/u8g2_d_memory.c **** {
 924              		.loc 1 359 0
 925              		.cfi_startproc
 926              		@ args = 0, pretend = 0, frame = 0
 927              		@ frame_needed = 0, uses_anonymous_args = 0
 928              		@ link register save eliminated.
 929              	.LVL64:
 360:..\..\..\..\..\..\Dev\Library embedded l2c display\u8g2\csrc/u8g2_d_memory.c ****   #ifdef U8G2_USE_DYNAMIC_ALLOC
 361:..\..\..\..\..\..\Dev\Library embedded l2c display\u8g2\csrc/u8g2_d_memory.c ****   *page_cnt = 8;
 362:..\..\..\..\..\..\Dev\Library embedded l2c display\u8g2\csrc/u8g2_d_memory.c ****   return 0;
 363:..\..\..\..\..\..\Dev\Library embedded l2c display\u8g2\csrc/u8g2_d_memory.c ****   #else
 364:..\..\..\..\..\..\Dev\Library embedded l2c display\u8g2\csrc/u8g2_d_memory.c ****   static uint8_t buf[2048];
 365:..\..\..\..\..\..\Dev\Library embedded l2c display\u8g2\csrc/u8g2_d_memory.c ****   *page_cnt = 8;
 930              		.loc 1 365 0
 931 0000 0823     		movs	r3, #8
 932 0002 0370     		strb	r3, [r0]
 366:..\..\..\..\..\..\Dev\Library embedded l2c display\u8g2\csrc/u8g2_d_memory.c ****   return buf;
 367:..\..\..\..\..\..\Dev\Library embedded l2c display\u8g2\csrc/u8g2_d_memory.c ****   #endif
 368:..\..\..\..\..\..\Dev\Library embedded l2c display\u8g2\csrc/u8g2_d_memory.c **** }
 933              		.loc 1 368 0
 934 0004 0048     		ldr	r0, .L98
 935              	.LVL65:
 936 0006 7047     		bx	lr
 937              	.L99:
 938              		.align	2
 939              	.L98:
 940 0008 08600000 		.word	.LANCHOR5+2864
 941              		.cfi_endproc
 942              	.LFE32:
 943              		.size	u8g2_m_32_8_f, .-u8g2_m_32_8_f
ARM GAS  C:\Users\Abude\AppData\Local\Temp\ccndXIr0.s 			page 24


 944              		.section	.text.u8g2_m_13_8_1,"ax",%progbits
 945              		.align	2
 946              		.global	u8g2_m_13_8_1
 947              		.thumb
 948              		.thumb_func
 949              		.type	u8g2_m_13_8_1, %function
 950              	u8g2_m_13_8_1:
 951              	.LFB33:
 369:..\..\..\..\..\..\Dev\Library embedded l2c display\u8g2\csrc/u8g2_d_memory.c **** uint8_t *u8g2_m_13_8_1(uint8_t *page_cnt)
 370:..\..\..\..\..\..\Dev\Library embedded l2c display\u8g2\csrc/u8g2_d_memory.c **** {
 952              		.loc 1 370 0
 953              		.cfi_startproc
 954              		@ args = 0, pretend = 0, frame = 0
 955              		@ frame_needed = 0, uses_anonymous_args = 0
 956              		@ link register save eliminated.
 957              	.LVL66:
 371:..\..\..\..\..\..\Dev\Library embedded l2c display\u8g2\csrc/u8g2_d_memory.c ****   #ifdef U8G2_USE_DYNAMIC_ALLOC
 372:..\..\..\..\..\..\Dev\Library embedded l2c display\u8g2\csrc/u8g2_d_memory.c ****   *page_cnt = 1;
 373:..\..\..\..\..\..\Dev\Library embedded l2c display\u8g2\csrc/u8g2_d_memory.c ****   return 0;
 374:..\..\..\..\..\..\Dev\Library embedded l2c display\u8g2\csrc/u8g2_d_memory.c ****   #else
 375:..\..\..\..\..\..\Dev\Library embedded l2c display\u8g2\csrc/u8g2_d_memory.c ****   static uint8_t buf[104];
 376:..\..\..\..\..\..\Dev\Library embedded l2c display\u8g2\csrc/u8g2_d_memory.c ****   *page_cnt = 1;
 958              		.loc 1 376 0
 959 0000 0123     		movs	r3, #1
 960 0002 0370     		strb	r3, [r0]
 377:..\..\..\..\..\..\Dev\Library embedded l2c display\u8g2\csrc/u8g2_d_memory.c ****   return buf;
 378:..\..\..\..\..\..\Dev\Library embedded l2c display\u8g2\csrc/u8g2_d_memory.c ****   #endif
 379:..\..\..\..\..\..\Dev\Library embedded l2c display\u8g2\csrc/u8g2_d_memory.c **** }
 961              		.loc 1 379 0
 962 0004 0048     		ldr	r0, .L101
 963              	.LVL67:
 964 0006 7047     		bx	lr
 965              	.L102:
 966              		.align	2
 967              	.L101:
 968 0008 08680000 		.word	.LANCHOR6+568
 969              		.cfi_endproc
 970              	.LFE33:
 971              		.size	u8g2_m_13_8_1, .-u8g2_m_13_8_1
 972              		.section	.text.u8g2_m_13_8_2,"ax",%progbits
 973              		.align	2
 974              		.global	u8g2_m_13_8_2
 975              		.thumb
 976              		.thumb_func
 977              		.type	u8g2_m_13_8_2, %function
 978              	u8g2_m_13_8_2:
 979              	.LFB34:
 380:..\..\..\..\..\..\Dev\Library embedded l2c display\u8g2\csrc/u8g2_d_memory.c **** uint8_t *u8g2_m_13_8_2(uint8_t *page_cnt)
 381:..\..\..\..\..\..\Dev\Library embedded l2c display\u8g2\csrc/u8g2_d_memory.c **** {
 980              		.loc 1 381 0
 981              		.cfi_startproc
 982              		@ args = 0, pretend = 0, frame = 0
 983              		@ frame_needed = 0, uses_anonymous_args = 0
 984              		@ link register save eliminated.
 985              	.LVL68:
 382:..\..\..\..\..\..\Dev\Library embedded l2c display\u8g2\csrc/u8g2_d_memory.c ****   #ifdef U8G2_USE_DYNAMIC_ALLOC
 383:..\..\..\..\..\..\Dev\Library embedded l2c display\u8g2\csrc/u8g2_d_memory.c ****   *page_cnt = 2;
ARM GAS  C:\Users\Abude\AppData\Local\Temp\ccndXIr0.s 			page 25


 384:..\..\..\..\..\..\Dev\Library embedded l2c display\u8g2\csrc/u8g2_d_memory.c ****   return 0;
 385:..\..\..\..\..\..\Dev\Library embedded l2c display\u8g2\csrc/u8g2_d_memory.c ****   #else
 386:..\..\..\..\..\..\Dev\Library embedded l2c display\u8g2\csrc/u8g2_d_memory.c ****   static uint8_t buf[208];
 387:..\..\..\..\..\..\Dev\Library embedded l2c display\u8g2\csrc/u8g2_d_memory.c ****   *page_cnt = 2;
 986              		.loc 1 387 0
 987 0000 0223     		movs	r3, #2
 988 0002 0370     		strb	r3, [r0]
 388:..\..\..\..\..\..\Dev\Library embedded l2c display\u8g2\csrc/u8g2_d_memory.c ****   return buf;
 389:..\..\..\..\..\..\Dev\Library embedded l2c display\u8g2\csrc/u8g2_d_memory.c ****   #endif
 390:..\..\..\..\..\..\Dev\Library embedded l2c display\u8g2\csrc/u8g2_d_memory.c **** }
 989              		.loc 1 390 0
 990 0004 0048     		ldr	r0, .L104
 991              	.LVL69:
 992 0006 7047     		bx	lr
 993              	.L105:
 994              		.align	2
 995              	.L104:
 996 0008 70680000 		.word	.LANCHOR6+672
 997              		.cfi_endproc
 998              	.LFE34:
 999              		.size	u8g2_m_13_8_2, .-u8g2_m_13_8_2
 1000              		.section	.text.u8g2_m_13_8_f,"ax",%progbits
 1001              		.align	2
 1002              		.global	u8g2_m_13_8_f
 1003              		.thumb
 1004              		.thumb_func
 1005              		.type	u8g2_m_13_8_f, %function
 1006              	u8g2_m_13_8_f:
 1007              	.LFB35:
 391:..\..\..\..\..\..\Dev\Library embedded l2c display\u8g2\csrc/u8g2_d_memory.c **** uint8_t *u8g2_m_13_8_f(uint8_t *page_cnt)
 392:..\..\..\..\..\..\Dev\Library embedded l2c display\u8g2\csrc/u8g2_d_memory.c **** {
 1008              		.loc 1 392 0
 1009              		.cfi_startproc
 1010              		@ args = 0, pretend = 0, frame = 0
 1011              		@ frame_needed = 0, uses_anonymous_args = 0
 1012              		@ link register save eliminated.
 1013              	.LVL70:
 393:..\..\..\..\..\..\Dev\Library embedded l2c display\u8g2\csrc/u8g2_d_memory.c ****   #ifdef U8G2_USE_DYNAMIC_ALLOC
 394:..\..\..\..\..\..\Dev\Library embedded l2c display\u8g2\csrc/u8g2_d_memory.c ****   *page_cnt = 8;
 395:..\..\..\..\..\..\Dev\Library embedded l2c display\u8g2\csrc/u8g2_d_memory.c ****   return 0;
 396:..\..\..\..\..\..\Dev\Library embedded l2c display\u8g2\csrc/u8g2_d_memory.c ****   #else
 397:..\..\..\..\..\..\Dev\Library embedded l2c display\u8g2\csrc/u8g2_d_memory.c ****   static uint8_t buf[832];
 398:..\..\..\..\..\..\Dev\Library embedded l2c display\u8g2\csrc/u8g2_d_memory.c ****   *page_cnt = 8;
 1014              		.loc 1 398 0
 1015 0000 0823     		movs	r3, #8
 1016 0002 0370     		strb	r3, [r0]
 399:..\..\..\..\..\..\Dev\Library embedded l2c display\u8g2\csrc/u8g2_d_memory.c ****   return buf;
 400:..\..\..\..\..\..\Dev\Library embedded l2c display\u8g2\csrc/u8g2_d_memory.c ****   #endif
 401:..\..\..\..\..\..\Dev\Library embedded l2c display\u8g2\csrc/u8g2_d_memory.c **** }
 1017              		.loc 1 401 0
 1018 0004 0048     		ldr	r0, .L107
 1019              	.LVL71:
 1020 0006 7047     		bx	lr
 1021              	.L108:
 1022              		.align	2
 1023              	.L107:
 1024 0008 40690000 		.word	.LANCHOR6+880
ARM GAS  C:\Users\Abude\AppData\Local\Temp\ccndXIr0.s 			page 26


 1025              		.cfi_endproc
 1026              	.LFE35:
 1027              		.size	u8g2_m_13_8_f, .-u8g2_m_13_8_f
 1028              		.section	.text.u8g2_m_8_6_1,"ax",%progbits
 1029              		.align	2
 1030              		.global	u8g2_m_8_6_1
 1031              		.thumb
 1032              		.thumb_func
 1033              		.type	u8g2_m_8_6_1, %function
 1034              	u8g2_m_8_6_1:
 1035              	.LFB36:
 402:..\..\..\..\..\..\Dev\Library embedded l2c display\u8g2\csrc/u8g2_d_memory.c **** uint8_t *u8g2_m_8_6_1(uint8_t *page_cnt)
 403:..\..\..\..\..\..\Dev\Library embedded l2c display\u8g2\csrc/u8g2_d_memory.c **** {
 1036              		.loc 1 403 0
 1037              		.cfi_startproc
 1038              		@ args = 0, pretend = 0, frame = 0
 1039              		@ frame_needed = 0, uses_anonymous_args = 0
 1040              		@ link register save eliminated.
 1041              	.LVL72:
 404:..\..\..\..\..\..\Dev\Library embedded l2c display\u8g2\csrc/u8g2_d_memory.c ****   #ifdef U8G2_USE_DYNAMIC_ALLOC
 405:..\..\..\..\..\..\Dev\Library embedded l2c display\u8g2\csrc/u8g2_d_memory.c ****   *page_cnt = 1;
 406:..\..\..\..\..\..\Dev\Library embedded l2c display\u8g2\csrc/u8g2_d_memory.c ****   return 0;
 407:..\..\..\..\..\..\Dev\Library embedded l2c display\u8g2\csrc/u8g2_d_memory.c ****   #else
 408:..\..\..\..\..\..\Dev\Library embedded l2c display\u8g2\csrc/u8g2_d_memory.c ****   static uint8_t buf[64];
 409:..\..\..\..\..\..\Dev\Library embedded l2c display\u8g2\csrc/u8g2_d_memory.c ****   *page_cnt = 1;
 1042              		.loc 1 409 0
 1043 0000 0123     		movs	r3, #1
 1044 0002 0370     		strb	r3, [r0]
 410:..\..\..\..\..\..\Dev\Library embedded l2c display\u8g2\csrc/u8g2_d_memory.c ****   return buf;
 411:..\..\..\..\..\..\Dev\Library embedded l2c display\u8g2\csrc/u8g2_d_memory.c ****   #endif
 412:..\..\..\..\..\..\Dev\Library embedded l2c display\u8g2\csrc/u8g2_d_memory.c **** }
 1045              		.loc 1 412 0
 1046 0004 0048     		ldr	r0, .L110
 1047              	.LVL73:
 1048 0006 7047     		bx	lr
 1049              	.L111:
 1050              		.align	2
 1051              	.L110:
 1052 0008 806C0000 		.word	.LANCHOR6+1712
 1053              		.cfi_endproc
 1054              	.LFE36:
 1055              		.size	u8g2_m_8_6_1, .-u8g2_m_8_6_1
 1056              		.section	.text.u8g2_m_8_6_2,"ax",%progbits
 1057              		.align	2
 1058              		.global	u8g2_m_8_6_2
 1059              		.thumb
 1060              		.thumb_func
 1061              		.type	u8g2_m_8_6_2, %function
 1062              	u8g2_m_8_6_2:
 1063              	.LFB37:
 413:..\..\..\..\..\..\Dev\Library embedded l2c display\u8g2\csrc/u8g2_d_memory.c **** uint8_t *u8g2_m_8_6_2(uint8_t *page_cnt)
 414:..\..\..\..\..\..\Dev\Library embedded l2c display\u8g2\csrc/u8g2_d_memory.c **** {
 1064              		.loc 1 414 0
 1065              		.cfi_startproc
 1066              		@ args = 0, pretend = 0, frame = 0
 1067              		@ frame_needed = 0, uses_anonymous_args = 0
 1068              		@ link register save eliminated.
ARM GAS  C:\Users\Abude\AppData\Local\Temp\ccndXIr0.s 			page 27


 1069              	.LVL74:
 415:..\..\..\..\..\..\Dev\Library embedded l2c display\u8g2\csrc/u8g2_d_memory.c ****   #ifdef U8G2_USE_DYNAMIC_ALLOC
 416:..\..\..\..\..\..\Dev\Library embedded l2c display\u8g2\csrc/u8g2_d_memory.c ****   *page_cnt = 2;
 417:..\..\..\..\..\..\Dev\Library embedded l2c display\u8g2\csrc/u8g2_d_memory.c ****   return 0;
 418:..\..\..\..\..\..\Dev\Library embedded l2c display\u8g2\csrc/u8g2_d_memory.c ****   #else
 419:..\..\..\..\..\..\Dev\Library embedded l2c display\u8g2\csrc/u8g2_d_memory.c ****   static uint8_t buf[128];
 420:..\..\..\..\..\..\Dev\Library embedded l2c display\u8g2\csrc/u8g2_d_memory.c ****   *page_cnt = 2;
 1070              		.loc 1 420 0
 1071 0000 0223     		movs	r3, #2
 1072 0002 0370     		strb	r3, [r0]
 421:..\..\..\..\..\..\Dev\Library embedded l2c display\u8g2\csrc/u8g2_d_memory.c ****   return buf;
 422:..\..\..\..\..\..\Dev\Library embedded l2c display\u8g2\csrc/u8g2_d_memory.c ****   #endif
 423:..\..\..\..\..\..\Dev\Library embedded l2c display\u8g2\csrc/u8g2_d_memory.c **** }
 1073              		.loc 1 423 0
 1074 0004 0048     		ldr	r0, .L113
 1075              	.LVL75:
 1076 0006 7047     		bx	lr
 1077              	.L114:
 1078              		.align	2
 1079              	.L113:
 1080 0008 C06C0000 		.word	.LANCHOR6+1776
 1081              		.cfi_endproc
 1082              	.LFE37:
 1083              		.size	u8g2_m_8_6_2, .-u8g2_m_8_6_2
 1084              		.section	.text.u8g2_m_8_6_f,"ax",%progbits
 1085              		.align	2
 1086              		.global	u8g2_m_8_6_f
 1087              		.thumb
 1088              		.thumb_func
 1089              		.type	u8g2_m_8_6_f, %function
 1090              	u8g2_m_8_6_f:
 1091              	.LFB38:
 424:..\..\..\..\..\..\Dev\Library embedded l2c display\u8g2\csrc/u8g2_d_memory.c **** uint8_t *u8g2_m_8_6_f(uint8_t *page_cnt)
 425:..\..\..\..\..\..\Dev\Library embedded l2c display\u8g2\csrc/u8g2_d_memory.c **** {
 1092              		.loc 1 425 0
 1093              		.cfi_startproc
 1094              		@ args = 0, pretend = 0, frame = 0
 1095              		@ frame_needed = 0, uses_anonymous_args = 0
 1096              		@ link register save eliminated.
 1097              	.LVL76:
 426:..\..\..\..\..\..\Dev\Library embedded l2c display\u8g2\csrc/u8g2_d_memory.c ****   #ifdef U8G2_USE_DYNAMIC_ALLOC
 427:..\..\..\..\..\..\Dev\Library embedded l2c display\u8g2\csrc/u8g2_d_memory.c ****   *page_cnt = 6;
 428:..\..\..\..\..\..\Dev\Library embedded l2c display\u8g2\csrc/u8g2_d_memory.c ****   return 0;
 429:..\..\..\..\..\..\Dev\Library embedded l2c display\u8g2\csrc/u8g2_d_memory.c ****   #else
 430:..\..\..\..\..\..\Dev\Library embedded l2c display\u8g2\csrc/u8g2_d_memory.c ****   static uint8_t buf[384];
 431:..\..\..\..\..\..\Dev\Library embedded l2c display\u8g2\csrc/u8g2_d_memory.c ****   *page_cnt = 6;
 1098              		.loc 1 431 0
 1099 0000 0623     		movs	r3, #6
 1100 0002 0370     		strb	r3, [r0]
 432:..\..\..\..\..\..\Dev\Library embedded l2c display\u8g2\csrc/u8g2_d_memory.c ****   return buf;
 433:..\..\..\..\..\..\Dev\Library embedded l2c display\u8g2\csrc/u8g2_d_memory.c ****   #endif
 434:..\..\..\..\..\..\Dev\Library embedded l2c display\u8g2\csrc/u8g2_d_memory.c **** }
 1101              		.loc 1 434 0
 1102 0004 0048     		ldr	r0, .L116
 1103              	.LVL77:
 1104 0006 7047     		bx	lr
 1105              	.L117:
ARM GAS  C:\Users\Abude\AppData\Local\Temp\ccndXIr0.s 			page 28


 1106              		.align	2
 1107              	.L116:
 1108 0008 406D0000 		.word	.LANCHOR6+1904
 1109              		.cfi_endproc
 1110              	.LFE38:
 1111              		.size	u8g2_m_8_6_f, .-u8g2_m_8_6_f
 1112              		.section	.text.u8g2_m_6_8_1,"ax",%progbits
 1113              		.align	2
 1114              		.global	u8g2_m_6_8_1
 1115              		.thumb
 1116              		.thumb_func
 1117              		.type	u8g2_m_6_8_1, %function
 1118              	u8g2_m_6_8_1:
 1119              	.LFB39:
 435:..\..\..\..\..\..\Dev\Library embedded l2c display\u8g2\csrc/u8g2_d_memory.c **** uint8_t *u8g2_m_6_8_1(uint8_t *page_cnt)
 436:..\..\..\..\..\..\Dev\Library embedded l2c display\u8g2\csrc/u8g2_d_memory.c **** {
 1120              		.loc 1 436 0
 1121              		.cfi_startproc
 1122              		@ args = 0, pretend = 0, frame = 0
 1123              		@ frame_needed = 0, uses_anonymous_args = 0
 1124              		@ link register save eliminated.
 1125              	.LVL78:
 437:..\..\..\..\..\..\Dev\Library embedded l2c display\u8g2\csrc/u8g2_d_memory.c ****   #ifdef U8G2_USE_DYNAMIC_ALLOC
 438:..\..\..\..\..\..\Dev\Library embedded l2c display\u8g2\csrc/u8g2_d_memory.c ****   *page_cnt = 1;
 439:..\..\..\..\..\..\Dev\Library embedded l2c display\u8g2\csrc/u8g2_d_memory.c ****   return 0;
 440:..\..\..\..\..\..\Dev\Library embedded l2c display\u8g2\csrc/u8g2_d_memory.c ****   #else
 441:..\..\..\..\..\..\Dev\Library embedded l2c display\u8g2\csrc/u8g2_d_memory.c ****   static uint8_t buf[48];
 442:..\..\..\..\..\..\Dev\Library embedded l2c display\u8g2\csrc/u8g2_d_memory.c ****   *page_cnt = 1;
 1126              		.loc 1 442 0
 1127 0000 0123     		movs	r3, #1
 1128 0002 0370     		strb	r3, [r0]
 443:..\..\..\..\..\..\Dev\Library embedded l2c display\u8g2\csrc/u8g2_d_memory.c ****   return buf;
 444:..\..\..\..\..\..\Dev\Library embedded l2c display\u8g2\csrc/u8g2_d_memory.c ****   #endif
 445:..\..\..\..\..\..\Dev\Library embedded l2c display\u8g2\csrc/u8g2_d_memory.c **** }
 1129              		.loc 1 445 0
 1130 0004 0048     		ldr	r0, .L119
 1131              	.LVL79:
 1132 0006 7047     		bx	lr
 1133              	.L120:
 1134              		.align	2
 1135              	.L119:
 1136 0008 C06E0000 		.word	.LANCHOR6+2288
 1137              		.cfi_endproc
 1138              	.LFE39:
 1139              		.size	u8g2_m_6_8_1, .-u8g2_m_6_8_1
 1140              		.section	.text.u8g2_m_6_8_2,"ax",%progbits
 1141              		.align	2
 1142              		.global	u8g2_m_6_8_2
 1143              		.thumb
 1144              		.thumb_func
 1145              		.type	u8g2_m_6_8_2, %function
 1146              	u8g2_m_6_8_2:
 1147              	.LFB40:
 446:..\..\..\..\..\..\Dev\Library embedded l2c display\u8g2\csrc/u8g2_d_memory.c **** uint8_t *u8g2_m_6_8_2(uint8_t *page_cnt)
 447:..\..\..\..\..\..\Dev\Library embedded l2c display\u8g2\csrc/u8g2_d_memory.c **** {
 1148              		.loc 1 447 0
 1149              		.cfi_startproc
ARM GAS  C:\Users\Abude\AppData\Local\Temp\ccndXIr0.s 			page 29


 1150              		@ args = 0, pretend = 0, frame = 0
 1151              		@ frame_needed = 0, uses_anonymous_args = 0
 1152              		@ link register save eliminated.
 1153              	.LVL80:
 448:..\..\..\..\..\..\Dev\Library embedded l2c display\u8g2\csrc/u8g2_d_memory.c ****   #ifdef U8G2_USE_DYNAMIC_ALLOC
 449:..\..\..\..\..\..\Dev\Library embedded l2c display\u8g2\csrc/u8g2_d_memory.c ****   *page_cnt = 2;
 450:..\..\..\..\..\..\Dev\Library embedded l2c display\u8g2\csrc/u8g2_d_memory.c ****   return 0;
 451:..\..\..\..\..\..\Dev\Library embedded l2c display\u8g2\csrc/u8g2_d_memory.c ****   #else
 452:..\..\..\..\..\..\Dev\Library embedded l2c display\u8g2\csrc/u8g2_d_memory.c ****   static uint8_t buf[96];
 453:..\..\..\..\..\..\Dev\Library embedded l2c display\u8g2\csrc/u8g2_d_memory.c ****   *page_cnt = 2;
 1154              		.loc 1 453 0
 1155 0000 0223     		movs	r3, #2
 1156 0002 0370     		strb	r3, [r0]
 454:..\..\..\..\..\..\Dev\Library embedded l2c display\u8g2\csrc/u8g2_d_memory.c ****   return buf;
 455:..\..\..\..\..\..\Dev\Library embedded l2c display\u8g2\csrc/u8g2_d_memory.c ****   #endif
 456:..\..\..\..\..\..\Dev\Library embedded l2c display\u8g2\csrc/u8g2_d_memory.c **** }
 1157              		.loc 1 456 0
 1158 0004 0048     		ldr	r0, .L122
 1159              	.LVL81:
 1160 0006 7047     		bx	lr
 1161              	.L123:
 1162              		.align	2
 1163              	.L122:
 1164 0008 F06E0000 		.word	.LANCHOR6+2336
 1165              		.cfi_endproc
 1166              	.LFE40:
 1167              		.size	u8g2_m_6_8_2, .-u8g2_m_6_8_2
 1168              		.section	.text.u8g2_m_6_8_f,"ax",%progbits
 1169              		.align	2
 1170              		.global	u8g2_m_6_8_f
 1171              		.thumb
 1172              		.thumb_func
 1173              		.type	u8g2_m_6_8_f, %function
 1174              	u8g2_m_6_8_f:
 1175              	.LFB41:
 457:..\..\..\..\..\..\Dev\Library embedded l2c display\u8g2\csrc/u8g2_d_memory.c **** uint8_t *u8g2_m_6_8_f(uint8_t *page_cnt)
 458:..\..\..\..\..\..\Dev\Library embedded l2c display\u8g2\csrc/u8g2_d_memory.c **** {
 1176              		.loc 1 458 0
 1177              		.cfi_startproc
 1178              		@ args = 0, pretend = 0, frame = 0
 1179              		@ frame_needed = 0, uses_anonymous_args = 0
 1180              		@ link register save eliminated.
 1181              	.LVL82:
 459:..\..\..\..\..\..\Dev\Library embedded l2c display\u8g2\csrc/u8g2_d_memory.c ****   #ifdef U8G2_USE_DYNAMIC_ALLOC
 460:..\..\..\..\..\..\Dev\Library embedded l2c display\u8g2\csrc/u8g2_d_memory.c ****   *page_cnt = 8;
 461:..\..\..\..\..\..\Dev\Library embedded l2c display\u8g2\csrc/u8g2_d_memory.c ****   return 0;
 462:..\..\..\..\..\..\Dev\Library embedded l2c display\u8g2\csrc/u8g2_d_memory.c ****   #else
 463:..\..\..\..\..\..\Dev\Library embedded l2c display\u8g2\csrc/u8g2_d_memory.c ****   static uint8_t buf[384];
 464:..\..\..\..\..\..\Dev\Library embedded l2c display\u8g2\csrc/u8g2_d_memory.c ****   *page_cnt = 8;
 1182              		.loc 1 464 0
 1183 0000 0823     		movs	r3, #8
 1184 0002 0370     		strb	r3, [r0]
 465:..\..\..\..\..\..\Dev\Library embedded l2c display\u8g2\csrc/u8g2_d_memory.c ****   return buf;
 466:..\..\..\..\..\..\Dev\Library embedded l2c display\u8g2\csrc/u8g2_d_memory.c ****   #endif
 467:..\..\..\..\..\..\Dev\Library embedded l2c display\u8g2\csrc/u8g2_d_memory.c **** }
 1185              		.loc 1 467 0
 1186 0004 0048     		ldr	r0, .L125
ARM GAS  C:\Users\Abude\AppData\Local\Temp\ccndXIr0.s 			page 30


 1187              	.LVL83:
 1188 0006 7047     		bx	lr
 1189              	.L126:
 1190              		.align	2
 1191              	.L125:
 1192 0008 506F0000 		.word	.LANCHOR6+2432
 1193              		.cfi_endproc
 1194              	.LFE41:
 1195              		.size	u8g2_m_6_8_f, .-u8g2_m_6_8_f
 1196              		.section	.text.u8g2_m_12_2_1,"ax",%progbits
 1197              		.align	2
 1198              		.global	u8g2_m_12_2_1
 1199              		.thumb
 1200              		.thumb_func
 1201              		.type	u8g2_m_12_2_1, %function
 1202              	u8g2_m_12_2_1:
 1203              	.LFB42:
 468:..\..\..\..\..\..\Dev\Library embedded l2c display\u8g2\csrc/u8g2_d_memory.c **** uint8_t *u8g2_m_12_2_1(uint8_t *page_cnt)
 469:..\..\..\..\..\..\Dev\Library embedded l2c display\u8g2\csrc/u8g2_d_memory.c **** {
 1204              		.loc 1 469 0
 1205              		.cfi_startproc
 1206              		@ args = 0, pretend = 0, frame = 0
 1207              		@ frame_needed = 0, uses_anonymous_args = 0
 1208              		@ link register save eliminated.
 1209              	.LVL84:
 470:..\..\..\..\..\..\Dev\Library embedded l2c display\u8g2\csrc/u8g2_d_memory.c ****   #ifdef U8G2_USE_DYNAMIC_ALLOC
 471:..\..\..\..\..\..\Dev\Library embedded l2c display\u8g2\csrc/u8g2_d_memory.c ****   *page_cnt = 1;
 472:..\..\..\..\..\..\Dev\Library embedded l2c display\u8g2\csrc/u8g2_d_memory.c ****   return 0;
 473:..\..\..\..\..\..\Dev\Library embedded l2c display\u8g2\csrc/u8g2_d_memory.c ****   #else
 474:..\..\..\..\..\..\Dev\Library embedded l2c display\u8g2\csrc/u8g2_d_memory.c ****   static uint8_t buf[96];
 475:..\..\..\..\..\..\Dev\Library embedded l2c display\u8g2\csrc/u8g2_d_memory.c ****   *page_cnt = 1;
 1210              		.loc 1 475 0
 1211 0000 0123     		movs	r3, #1
 1212 0002 0370     		strb	r3, [r0]
 476:..\..\..\..\..\..\Dev\Library embedded l2c display\u8g2\csrc/u8g2_d_memory.c ****   return buf;
 477:..\..\..\..\..\..\Dev\Library embedded l2c display\u8g2\csrc/u8g2_d_memory.c ****   #endif
 478:..\..\..\..\..\..\Dev\Library embedded l2c display\u8g2\csrc/u8g2_d_memory.c **** }
 1213              		.loc 1 478 0
 1214 0004 0048     		ldr	r0, .L128
 1215              	.LVL85:
 1216 0006 7047     		bx	lr
 1217              	.L129:
 1218              		.align	2
 1219              	.L128:
 1220 0008 D0700000 		.word	.LANCHOR6+2816
 1221              		.cfi_endproc
 1222              	.LFE42:
 1223              		.size	u8g2_m_12_2_1, .-u8g2_m_12_2_1
 1224              		.section	.text.u8g2_m_12_2_2,"ax",%progbits
 1225              		.align	2
 1226              		.global	u8g2_m_12_2_2
 1227              		.thumb
 1228              		.thumb_func
 1229              		.type	u8g2_m_12_2_2, %function
 1230              	u8g2_m_12_2_2:
 1231              	.LFB43:
 479:..\..\..\..\..\..\Dev\Library embedded l2c display\u8g2\csrc/u8g2_d_memory.c **** uint8_t *u8g2_m_12_2_2(uint8_t *page_cnt)
ARM GAS  C:\Users\Abude\AppData\Local\Temp\ccndXIr0.s 			page 31


 480:..\..\..\..\..\..\Dev\Library embedded l2c display\u8g2\csrc/u8g2_d_memory.c **** {
 1232              		.loc 1 480 0
 1233              		.cfi_startproc
 1234              		@ args = 0, pretend = 0, frame = 0
 1235              		@ frame_needed = 0, uses_anonymous_args = 0
 1236              		@ link register save eliminated.
 1237              	.LVL86:
 481:..\..\..\..\..\..\Dev\Library embedded l2c display\u8g2\csrc/u8g2_d_memory.c ****   #ifdef U8G2_USE_DYNAMIC_ALLOC
 482:..\..\..\..\..\..\Dev\Library embedded l2c display\u8g2\csrc/u8g2_d_memory.c ****   *page_cnt = 2;
 483:..\..\..\..\..\..\Dev\Library embedded l2c display\u8g2\csrc/u8g2_d_memory.c ****   return 0;
 484:..\..\..\..\..\..\Dev\Library embedded l2c display\u8g2\csrc/u8g2_d_memory.c ****   #else
 485:..\..\..\..\..\..\Dev\Library embedded l2c display\u8g2\csrc/u8g2_d_memory.c ****   static uint8_t buf[192];
 486:..\..\..\..\..\..\Dev\Library embedded l2c display\u8g2\csrc/u8g2_d_memory.c ****   *page_cnt = 2;
 1238              		.loc 1 486 0
 1239 0000 0223     		movs	r3, #2
 1240 0002 0370     		strb	r3, [r0]
 487:..\..\..\..\..\..\Dev\Library embedded l2c display\u8g2\csrc/u8g2_d_memory.c ****   return buf;
 488:..\..\..\..\..\..\Dev\Library embedded l2c display\u8g2\csrc/u8g2_d_memory.c ****   #endif
 489:..\..\..\..\..\..\Dev\Library embedded l2c display\u8g2\csrc/u8g2_d_memory.c **** }
 1241              		.loc 1 489 0
 1242 0004 0048     		ldr	r0, .L131
 1243              	.LVL87:
 1244 0006 7047     		bx	lr
 1245              	.L132:
 1246              		.align	2
 1247              	.L131:
 1248 0008 30710000 		.word	.LANCHOR6+2912
 1249              		.cfi_endproc
 1250              	.LFE43:
 1251              		.size	u8g2_m_12_2_2, .-u8g2_m_12_2_2
 1252              		.section	.text.u8g2_m_12_2_f,"ax",%progbits
 1253              		.align	2
 1254              		.global	u8g2_m_12_2_f
 1255              		.thumb
 1256              		.thumb_func
 1257              		.type	u8g2_m_12_2_f, %function
 1258              	u8g2_m_12_2_f:
 1259              	.LFB44:
 490:..\..\..\..\..\..\Dev\Library embedded l2c display\u8g2\csrc/u8g2_d_memory.c **** uint8_t *u8g2_m_12_2_f(uint8_t *page_cnt)
 491:..\..\..\..\..\..\Dev\Library embedded l2c display\u8g2\csrc/u8g2_d_memory.c **** {
 1260              		.loc 1 491 0
 1261              		.cfi_startproc
 1262              		@ args = 0, pretend = 0, frame = 0
 1263              		@ frame_needed = 0, uses_anonymous_args = 0
 1264              		@ link register save eliminated.
 1265              	.LVL88:
 492:..\..\..\..\..\..\Dev\Library embedded l2c display\u8g2\csrc/u8g2_d_memory.c ****   #ifdef U8G2_USE_DYNAMIC_ALLOC
 493:..\..\..\..\..\..\Dev\Library embedded l2c display\u8g2\csrc/u8g2_d_memory.c ****   *page_cnt = 2;
 494:..\..\..\..\..\..\Dev\Library embedded l2c display\u8g2\csrc/u8g2_d_memory.c ****   return 0;
 495:..\..\..\..\..\..\Dev\Library embedded l2c display\u8g2\csrc/u8g2_d_memory.c ****   #else
 496:..\..\..\..\..\..\Dev\Library embedded l2c display\u8g2\csrc/u8g2_d_memory.c ****   static uint8_t buf[192];
 497:..\..\..\..\..\..\Dev\Library embedded l2c display\u8g2\csrc/u8g2_d_memory.c ****   *page_cnt = 2;
 1266              		.loc 1 497 0
 1267 0000 0223     		movs	r3, #2
 1268 0002 0370     		strb	r3, [r0]
 498:..\..\..\..\..\..\Dev\Library embedded l2c display\u8g2\csrc/u8g2_d_memory.c ****   return buf;
 499:..\..\..\..\..\..\Dev\Library embedded l2c display\u8g2\csrc/u8g2_d_memory.c ****   #endif
ARM GAS  C:\Users\Abude\AppData\Local\Temp\ccndXIr0.s 			page 32


 500:..\..\..\..\..\..\Dev\Library embedded l2c display\u8g2\csrc/u8g2_d_memory.c **** }
 1269              		.loc 1 500 0
 1270 0004 0048     		ldr	r0, .L134
 1271              	.LVL89:
 1272 0006 7047     		bx	lr
 1273              	.L135:
 1274              		.align	2
 1275              	.L134:
 1276 0008 F0710000 		.word	.LANCHOR6+3104
 1277              		.cfi_endproc
 1278              	.LFE44:
 1279              		.size	u8g2_m_12_2_f, .-u8g2_m_12_2_f
 1280              		.section	.text.u8g2_m_16_12_1,"ax",%progbits
 1281              		.align	2
 1282              		.global	u8g2_m_16_12_1
 1283              		.thumb
 1284              		.thumb_func
 1285              		.type	u8g2_m_16_12_1, %function
 1286              	u8g2_m_16_12_1:
 1287              	.LFB45:
 501:..\..\..\..\..\..\Dev\Library embedded l2c display\u8g2\csrc/u8g2_d_memory.c **** uint8_t *u8g2_m_16_12_1(uint8_t *page_cnt)
 502:..\..\..\..\..\..\Dev\Library embedded l2c display\u8g2\csrc/u8g2_d_memory.c **** {
 1288              		.loc 1 502 0
 1289              		.cfi_startproc
 1290              		@ args = 0, pretend = 0, frame = 0
 1291              		@ frame_needed = 0, uses_anonymous_args = 0
 1292              		@ link register save eliminated.
 1293              	.LVL90:
 503:..\..\..\..\..\..\Dev\Library embedded l2c display\u8g2\csrc/u8g2_d_memory.c ****   #ifdef U8G2_USE_DYNAMIC_ALLOC
 504:..\..\..\..\..\..\Dev\Library embedded l2c display\u8g2\csrc/u8g2_d_memory.c ****   *page_cnt = 1;
 505:..\..\..\..\..\..\Dev\Library embedded l2c display\u8g2\csrc/u8g2_d_memory.c ****   return 0;
 506:..\..\..\..\..\..\Dev\Library embedded l2c display\u8g2\csrc/u8g2_d_memory.c ****   #else
 507:..\..\..\..\..\..\Dev\Library embedded l2c display\u8g2\csrc/u8g2_d_memory.c ****   static uint8_t buf[128];
 508:..\..\..\..\..\..\Dev\Library embedded l2c display\u8g2\csrc/u8g2_d_memory.c ****   *page_cnt = 1;
 1294              		.loc 1 508 0
 1295 0000 0123     		movs	r3, #1
 1296 0002 0370     		strb	r3, [r0]
 509:..\..\..\..\..\..\Dev\Library embedded l2c display\u8g2\csrc/u8g2_d_memory.c ****   return buf;
 510:..\..\..\..\..\..\Dev\Library embedded l2c display\u8g2\csrc/u8g2_d_memory.c ****   #endif
 511:..\..\..\..\..\..\Dev\Library embedded l2c display\u8g2\csrc/u8g2_d_memory.c **** }
 1297              		.loc 1 511 0
 1298 0004 0048     		ldr	r0, .L137
 1299              	.LVL91:
 1300 0006 7047     		bx	lr
 1301              	.L138:
 1302              		.align	2
 1303              	.L137:
 1304 0008 B0720000 		.word	.LANCHOR6+3296
 1305              		.cfi_endproc
 1306              	.LFE45:
 1307              		.size	u8g2_m_16_12_1, .-u8g2_m_16_12_1
 1308              		.section	.text.u8g2_m_16_12_2,"ax",%progbits
 1309              		.align	2
 1310              		.global	u8g2_m_16_12_2
 1311              		.thumb
 1312              		.thumb_func
 1313              		.type	u8g2_m_16_12_2, %function
ARM GAS  C:\Users\Abude\AppData\Local\Temp\ccndXIr0.s 			page 33


 1314              	u8g2_m_16_12_2:
 1315              	.LFB46:
 512:..\..\..\..\..\..\Dev\Library embedded l2c display\u8g2\csrc/u8g2_d_memory.c **** uint8_t *u8g2_m_16_12_2(uint8_t *page_cnt)
 513:..\..\..\..\..\..\Dev\Library embedded l2c display\u8g2\csrc/u8g2_d_memory.c **** {
 1316              		.loc 1 513 0
 1317              		.cfi_startproc
 1318              		@ args = 0, pretend = 0, frame = 0
 1319              		@ frame_needed = 0, uses_anonymous_args = 0
 1320              		@ link register save eliminated.
 1321              	.LVL92:
 514:..\..\..\..\..\..\Dev\Library embedded l2c display\u8g2\csrc/u8g2_d_memory.c ****   #ifdef U8G2_USE_DYNAMIC_ALLOC
 515:..\..\..\..\..\..\Dev\Library embedded l2c display\u8g2\csrc/u8g2_d_memory.c ****   *page_cnt = 2;
 516:..\..\..\..\..\..\Dev\Library embedded l2c display\u8g2\csrc/u8g2_d_memory.c ****   return 0;
 517:..\..\..\..\..\..\Dev\Library embedded l2c display\u8g2\csrc/u8g2_d_memory.c ****   #else
 518:..\..\..\..\..\..\Dev\Library embedded l2c display\u8g2\csrc/u8g2_d_memory.c ****   static uint8_t buf[256];
 519:..\..\..\..\..\..\Dev\Library embedded l2c display\u8g2\csrc/u8g2_d_memory.c ****   *page_cnt = 2;
 1322              		.loc 1 519 0
 1323 0000 0223     		movs	r3, #2
 1324 0002 0370     		strb	r3, [r0]
 520:..\..\..\..\..\..\Dev\Library embedded l2c display\u8g2\csrc/u8g2_d_memory.c ****   return buf;
 521:..\..\..\..\..\..\Dev\Library embedded l2c display\u8g2\csrc/u8g2_d_memory.c ****   #endif
 522:..\..\..\..\..\..\Dev\Library embedded l2c display\u8g2\csrc/u8g2_d_memory.c **** }
 1325              		.loc 1 522 0
 1326 0004 0048     		ldr	r0, .L140
 1327              	.LVL93:
 1328 0006 7047     		bx	lr
 1329              	.L141:
 1330              		.align	2
 1331              	.L140:
 1332 0008 30730000 		.word	.LANCHOR6+3424
 1333              		.cfi_endproc
 1334              	.LFE46:
 1335              		.size	u8g2_m_16_12_2, .-u8g2_m_16_12_2
 1336              		.section	.text.u8g2_m_16_12_f,"ax",%progbits
 1337              		.align	2
 1338              		.global	u8g2_m_16_12_f
 1339              		.thumb
 1340              		.thumb_func
 1341              		.type	u8g2_m_16_12_f, %function
 1342              	u8g2_m_16_12_f:
 1343              	.LFB47:
 523:..\..\..\..\..\..\Dev\Library embedded l2c display\u8g2\csrc/u8g2_d_memory.c **** uint8_t *u8g2_m_16_12_f(uint8_t *page_cnt)
 524:..\..\..\..\..\..\Dev\Library embedded l2c display\u8g2\csrc/u8g2_d_memory.c **** {
 1344              		.loc 1 524 0
 1345              		.cfi_startproc
 1346              		@ args = 0, pretend = 0, frame = 0
 1347              		@ frame_needed = 0, uses_anonymous_args = 0
 1348              		@ link register save eliminated.
 1349              	.LVL94:
 525:..\..\..\..\..\..\Dev\Library embedded l2c display\u8g2\csrc/u8g2_d_memory.c ****   #ifdef U8G2_USE_DYNAMIC_ALLOC
 526:..\..\..\..\..\..\Dev\Library embedded l2c display\u8g2\csrc/u8g2_d_memory.c ****   *page_cnt = 12;
 527:..\..\..\..\..\..\Dev\Library embedded l2c display\u8g2\csrc/u8g2_d_memory.c ****   return 0;
 528:..\..\..\..\..\..\Dev\Library embedded l2c display\u8g2\csrc/u8g2_d_memory.c ****   #else
 529:..\..\..\..\..\..\Dev\Library embedded l2c display\u8g2\csrc/u8g2_d_memory.c ****   static uint8_t buf[1536];
 530:..\..\..\..\..\..\Dev\Library embedded l2c display\u8g2\csrc/u8g2_d_memory.c ****   *page_cnt = 12;
 1350              		.loc 1 530 0
 1351 0000 0C23     		movs	r3, #12
ARM GAS  C:\Users\Abude\AppData\Local\Temp\ccndXIr0.s 			page 34


 1352 0002 0370     		strb	r3, [r0]
 531:..\..\..\..\..\..\Dev\Library embedded l2c display\u8g2\csrc/u8g2_d_memory.c ****   return buf;
 532:..\..\..\..\..\..\Dev\Library embedded l2c display\u8g2\csrc/u8g2_d_memory.c ****   #endif
 533:..\..\..\..\..\..\Dev\Library embedded l2c display\u8g2\csrc/u8g2_d_memory.c **** }
 1353              		.loc 1 533 0
 1354 0004 0048     		ldr	r0, .L143
 1355              	.LVL95:
 1356 0006 7047     		bx	lr
 1357              	.L144:
 1358              		.align	2
 1359              	.L143:
 1360 0008 30740000 		.word	.LANCHOR6+3680
 1361              		.cfi_endproc
 1362              	.LFE47:
 1363              		.size	u8g2_m_16_12_f, .-u8g2_m_16_12_f
 1364              		.section	.text.u8g2_m_32_4_1,"ax",%progbits
 1365              		.align	2
 1366              		.global	u8g2_m_32_4_1
 1367              		.thumb
 1368              		.thumb_func
 1369              		.type	u8g2_m_32_4_1, %function
 1370              	u8g2_m_32_4_1:
 1371              	.LFB48:
 534:..\..\..\..\..\..\Dev\Library embedded l2c display\u8g2\csrc/u8g2_d_memory.c **** uint8_t *u8g2_m_32_4_1(uint8_t *page_cnt)
 535:..\..\..\..\..\..\Dev\Library embedded l2c display\u8g2\csrc/u8g2_d_memory.c **** {
 1372              		.loc 1 535 0
 1373              		.cfi_startproc
 1374              		@ args = 0, pretend = 0, frame = 0
 1375              		@ frame_needed = 0, uses_anonymous_args = 0
 1376              		@ link register save eliminated.
 1377              	.LVL96:
 536:..\..\..\..\..\..\Dev\Library embedded l2c display\u8g2\csrc/u8g2_d_memory.c ****   #ifdef U8G2_USE_DYNAMIC_ALLOC
 537:..\..\..\..\..\..\Dev\Library embedded l2c display\u8g2\csrc/u8g2_d_memory.c ****   *page_cnt = 1;
 538:..\..\..\..\..\..\Dev\Library embedded l2c display\u8g2\csrc/u8g2_d_memory.c ****   return 0;
 539:..\..\..\..\..\..\Dev\Library embedded l2c display\u8g2\csrc/u8g2_d_memory.c ****   #else
 540:..\..\..\..\..\..\Dev\Library embedded l2c display\u8g2\csrc/u8g2_d_memory.c ****   static uint8_t buf[256];
 541:..\..\..\..\..\..\Dev\Library embedded l2c display\u8g2\csrc/u8g2_d_memory.c ****   *page_cnt = 1;
 1378              		.loc 1 541 0
 1379 0000 0123     		movs	r3, #1
 1380 0002 0370     		strb	r3, [r0]
 542:..\..\..\..\..\..\Dev\Library embedded l2c display\u8g2\csrc/u8g2_d_memory.c ****   return buf;
 543:..\..\..\..\..\..\Dev\Library embedded l2c display\u8g2\csrc/u8g2_d_memory.c ****   #endif
 544:..\..\..\..\..\..\Dev\Library embedded l2c display\u8g2\csrc/u8g2_d_memory.c **** }
 1381              		.loc 1 544 0
 1382 0004 0048     		ldr	r0, .L146
 1383              	.LVL97:
 1384 0006 7047     		bx	lr
 1385              	.L147:
 1386              		.align	2
 1387              	.L146:
 1388 0008 307A0000 		.word	.LANCHOR7+872
 1389              		.cfi_endproc
 1390              	.LFE48:
 1391              		.size	u8g2_m_32_4_1, .-u8g2_m_32_4_1
 1392              		.section	.text.u8g2_m_32_4_2,"ax",%progbits
 1393              		.align	2
 1394              		.global	u8g2_m_32_4_2
ARM GAS  C:\Users\Abude\AppData\Local\Temp\ccndXIr0.s 			page 35


 1395              		.thumb
 1396              		.thumb_func
 1397              		.type	u8g2_m_32_4_2, %function
 1398              	u8g2_m_32_4_2:
 1399              	.LFB49:
 545:..\..\..\..\..\..\Dev\Library embedded l2c display\u8g2\csrc/u8g2_d_memory.c **** uint8_t *u8g2_m_32_4_2(uint8_t *page_cnt)
 546:..\..\..\..\..\..\Dev\Library embedded l2c display\u8g2\csrc/u8g2_d_memory.c **** {
 1400              		.loc 1 546 0
 1401              		.cfi_startproc
 1402              		@ args = 0, pretend = 0, frame = 0
 1403              		@ frame_needed = 0, uses_anonymous_args = 0
 1404              		@ link register save eliminated.
 1405              	.LVL98:
 547:..\..\..\..\..\..\Dev\Library embedded l2c display\u8g2\csrc/u8g2_d_memory.c ****   #ifdef U8G2_USE_DYNAMIC_ALLOC
 548:..\..\..\..\..\..\Dev\Library embedded l2c display\u8g2\csrc/u8g2_d_memory.c ****   *page_cnt = 2;
 549:..\..\..\..\..\..\Dev\Library embedded l2c display\u8g2\csrc/u8g2_d_memory.c ****   return 0;
 550:..\..\..\..\..\..\Dev\Library embedded l2c display\u8g2\csrc/u8g2_d_memory.c ****   #else
 551:..\..\..\..\..\..\Dev\Library embedded l2c display\u8g2\csrc/u8g2_d_memory.c ****   static uint8_t buf[512];
 552:..\..\..\..\..\..\Dev\Library embedded l2c display\u8g2\csrc/u8g2_d_memory.c ****   *page_cnt = 2;
 1406              		.loc 1 552 0
 1407 0000 0223     		movs	r3, #2
 1408 0002 0370     		strb	r3, [r0]
 553:..\..\..\..\..\..\Dev\Library embedded l2c display\u8g2\csrc/u8g2_d_memory.c ****   return buf;
 554:..\..\..\..\..\..\Dev\Library embedded l2c display\u8g2\csrc/u8g2_d_memory.c ****   #endif
 555:..\..\..\..\..\..\Dev\Library embedded l2c display\u8g2\csrc/u8g2_d_memory.c **** }
 1409              		.loc 1 555 0
 1410 0004 0048     		ldr	r0, .L149
 1411              	.LVL99:
 1412 0006 7047     		bx	lr
 1413              	.L150:
 1414              		.align	2
 1415              	.L149:
 1416 0008 307B0000 		.word	.LANCHOR7+1128
 1417              		.cfi_endproc
 1418              	.LFE49:
 1419              		.size	u8g2_m_32_4_2, .-u8g2_m_32_4_2
 1420              		.section	.text.u8g2_m_32_4_f,"ax",%progbits
 1421              		.align	2
 1422              		.global	u8g2_m_32_4_f
 1423              		.thumb
 1424              		.thumb_func
 1425              		.type	u8g2_m_32_4_f, %function
 1426              	u8g2_m_32_4_f:
 1427              	.LFB50:
 556:..\..\..\..\..\..\Dev\Library embedded l2c display\u8g2\csrc/u8g2_d_memory.c **** uint8_t *u8g2_m_32_4_f(uint8_t *page_cnt)
 557:..\..\..\..\..\..\Dev\Library embedded l2c display\u8g2\csrc/u8g2_d_memory.c **** {
 1428              		.loc 1 557 0
 1429              		.cfi_startproc
 1430              		@ args = 0, pretend = 0, frame = 0
 1431              		@ frame_needed = 0, uses_anonymous_args = 0
 1432              		@ link register save eliminated.
 1433              	.LVL100:
 558:..\..\..\..\..\..\Dev\Library embedded l2c display\u8g2\csrc/u8g2_d_memory.c ****   #ifdef U8G2_USE_DYNAMIC_ALLOC
 559:..\..\..\..\..\..\Dev\Library embedded l2c display\u8g2\csrc/u8g2_d_memory.c ****   *page_cnt = 4;
 560:..\..\..\..\..\..\Dev\Library embedded l2c display\u8g2\csrc/u8g2_d_memory.c ****   return 0;
 561:..\..\..\..\..\..\Dev\Library embedded l2c display\u8g2\csrc/u8g2_d_memory.c ****   #else
 562:..\..\..\..\..\..\Dev\Library embedded l2c display\u8g2\csrc/u8g2_d_memory.c ****   static uint8_t buf[1024];
ARM GAS  C:\Users\Abude\AppData\Local\Temp\ccndXIr0.s 			page 36


 563:..\..\..\..\..\..\Dev\Library embedded l2c display\u8g2\csrc/u8g2_d_memory.c ****   *page_cnt = 4;
 1434              		.loc 1 563 0
 1435 0000 0423     		movs	r3, #4
 1436 0002 0370     		strb	r3, [r0]
 564:..\..\..\..\..\..\Dev\Library embedded l2c display\u8g2\csrc/u8g2_d_memory.c ****   return buf;
 565:..\..\..\..\..\..\Dev\Library embedded l2c display\u8g2\csrc/u8g2_d_memory.c ****   #endif
 566:..\..\..\..\..\..\Dev\Library embedded l2c display\u8g2\csrc/u8g2_d_memory.c **** }
 1437              		.loc 1 566 0
 1438 0004 0048     		ldr	r0, .L152
 1439              	.LVL101:
 1440 0006 7047     		bx	lr
 1441              	.L153:
 1442              		.align	2
 1443              	.L152:
 1444 0008 307D0000 		.word	.LANCHOR7+1640
 1445              		.cfi_endproc
 1446              	.LFE50:
 1447              		.size	u8g2_m_32_4_f, .-u8g2_m_32_4_f
 1448              		.section	.text.u8g2_m_12_8_1,"ax",%progbits
 1449              		.align	2
 1450              		.global	u8g2_m_12_8_1
 1451              		.thumb
 1452              		.thumb_func
 1453              		.type	u8g2_m_12_8_1, %function
 1454              	u8g2_m_12_8_1:
 1455              	.LFB51:
 567:..\..\..\..\..\..\Dev\Library embedded l2c display\u8g2\csrc/u8g2_d_memory.c **** uint8_t *u8g2_m_12_8_1(uint8_t *page_cnt)
 568:..\..\..\..\..\..\Dev\Library embedded l2c display\u8g2\csrc/u8g2_d_memory.c **** {
 1456              		.loc 1 568 0
 1457              		.cfi_startproc
 1458              		@ args = 0, pretend = 0, frame = 0
 1459              		@ frame_needed = 0, uses_anonymous_args = 0
 1460              		@ link register save eliminated.
 1461              	.LVL102:
 569:..\..\..\..\..\..\Dev\Library embedded l2c display\u8g2\csrc/u8g2_d_memory.c ****   #ifdef U8G2_USE_DYNAMIC_ALLOC
 570:..\..\..\..\..\..\Dev\Library embedded l2c display\u8g2\csrc/u8g2_d_memory.c ****   *page_cnt = 1;
 571:..\..\..\..\..\..\Dev\Library embedded l2c display\u8g2\csrc/u8g2_d_memory.c ****   return 0;
 572:..\..\..\..\..\..\Dev\Library embedded l2c display\u8g2\csrc/u8g2_d_memory.c ****   #else
 573:..\..\..\..\..\..\Dev\Library embedded l2c display\u8g2\csrc/u8g2_d_memory.c ****   static uint8_t buf[96];
 574:..\..\..\..\..\..\Dev\Library embedded l2c display\u8g2\csrc/u8g2_d_memory.c ****   *page_cnt = 1;
 1462              		.loc 1 574 0
 1463 0000 0123     		movs	r3, #1
 1464 0002 0370     		strb	r3, [r0]
 575:..\..\..\..\..\..\Dev\Library embedded l2c display\u8g2\csrc/u8g2_d_memory.c ****   return buf;
 576:..\..\..\..\..\..\Dev\Library embedded l2c display\u8g2\csrc/u8g2_d_memory.c ****   #endif
 577:..\..\..\..\..\..\Dev\Library embedded l2c display\u8g2\csrc/u8g2_d_memory.c **** }
 1465              		.loc 1 577 0
 1466 0004 0048     		ldr	r0, .L155
 1467              	.LVL103:
 1468 0006 7047     		bx	lr
 1469              	.L156:
 1470              		.align	2
 1471              	.L155:
 1472 0008 30810000 		.word	.LANCHOR7+2664
 1473              		.cfi_endproc
 1474              	.LFE51:
 1475              		.size	u8g2_m_12_8_1, .-u8g2_m_12_8_1
ARM GAS  C:\Users\Abude\AppData\Local\Temp\ccndXIr0.s 			page 37


 1476              		.section	.text.u8g2_m_12_8_2,"ax",%progbits
 1477              		.align	2
 1478              		.global	u8g2_m_12_8_2
 1479              		.thumb
 1480              		.thumb_func
 1481              		.type	u8g2_m_12_8_2, %function
 1482              	u8g2_m_12_8_2:
 1483              	.LFB52:
 578:..\..\..\..\..\..\Dev\Library embedded l2c display\u8g2\csrc/u8g2_d_memory.c **** uint8_t *u8g2_m_12_8_2(uint8_t *page_cnt)
 579:..\..\..\..\..\..\Dev\Library embedded l2c display\u8g2\csrc/u8g2_d_memory.c **** {
 1484              		.loc 1 579 0
 1485              		.cfi_startproc
 1486              		@ args = 0, pretend = 0, frame = 0
 1487              		@ frame_needed = 0, uses_anonymous_args = 0
 1488              		@ link register save eliminated.
 1489              	.LVL104:
 580:..\..\..\..\..\..\Dev\Library embedded l2c display\u8g2\csrc/u8g2_d_memory.c ****   #ifdef U8G2_USE_DYNAMIC_ALLOC
 581:..\..\..\..\..\..\Dev\Library embedded l2c display\u8g2\csrc/u8g2_d_memory.c ****   *page_cnt = 2;
 582:..\..\..\..\..\..\Dev\Library embedded l2c display\u8g2\csrc/u8g2_d_memory.c ****   return 0;
 583:..\..\..\..\..\..\Dev\Library embedded l2c display\u8g2\csrc/u8g2_d_memory.c ****   #else
 584:..\..\..\..\..\..\Dev\Library embedded l2c display\u8g2\csrc/u8g2_d_memory.c ****   static uint8_t buf[192];
 585:..\..\..\..\..\..\Dev\Library embedded l2c display\u8g2\csrc/u8g2_d_memory.c ****   *page_cnt = 2;
 1490              		.loc 1 585 0
 1491 0000 0223     		movs	r3, #2
 1492 0002 0370     		strb	r3, [r0]
 586:..\..\..\..\..\..\Dev\Library embedded l2c display\u8g2\csrc/u8g2_d_memory.c ****   return buf;
 587:..\..\..\..\..\..\Dev\Library embedded l2c display\u8g2\csrc/u8g2_d_memory.c ****   #endif
 588:..\..\..\..\..\..\Dev\Library embedded l2c display\u8g2\csrc/u8g2_d_memory.c **** }
 1493              		.loc 1 588 0
 1494 0004 0048     		ldr	r0, .L158
 1495              	.LVL105:
 1496 0006 7047     		bx	lr
 1497              	.L159:
 1498              		.align	2
 1499              	.L158:
 1500 0008 90810000 		.word	.LANCHOR7+2760
 1501              		.cfi_endproc
 1502              	.LFE52:
 1503              		.size	u8g2_m_12_8_2, .-u8g2_m_12_8_2
 1504              		.section	.text.u8g2_m_12_8_f,"ax",%progbits
 1505              		.align	2
 1506              		.global	u8g2_m_12_8_f
 1507              		.thumb
 1508              		.thumb_func
 1509              		.type	u8g2_m_12_8_f, %function
 1510              	u8g2_m_12_8_f:
 1511              	.LFB53:
 589:..\..\..\..\..\..\Dev\Library embedded l2c display\u8g2\csrc/u8g2_d_memory.c **** uint8_t *u8g2_m_12_8_f(uint8_t *page_cnt)
 590:..\..\..\..\..\..\Dev\Library embedded l2c display\u8g2\csrc/u8g2_d_memory.c **** {
 1512              		.loc 1 590 0
 1513              		.cfi_startproc
 1514              		@ args = 0, pretend = 0, frame = 0
 1515              		@ frame_needed = 0, uses_anonymous_args = 0
 1516              		@ link register save eliminated.
 1517              	.LVL106:
 591:..\..\..\..\..\..\Dev\Library embedded l2c display\u8g2\csrc/u8g2_d_memory.c ****   #ifdef U8G2_USE_DYNAMIC_ALLOC
 592:..\..\..\..\..\..\Dev\Library embedded l2c display\u8g2\csrc/u8g2_d_memory.c ****   *page_cnt = 8;
ARM GAS  C:\Users\Abude\AppData\Local\Temp\ccndXIr0.s 			page 38


 593:..\..\..\..\..\..\Dev\Library embedded l2c display\u8g2\csrc/u8g2_d_memory.c ****   return 0;
 594:..\..\..\..\..\..\Dev\Library embedded l2c display\u8g2\csrc/u8g2_d_memory.c ****   #else
 595:..\..\..\..\..\..\Dev\Library embedded l2c display\u8g2\csrc/u8g2_d_memory.c ****   static uint8_t buf[768];
 596:..\..\..\..\..\..\Dev\Library embedded l2c display\u8g2\csrc/u8g2_d_memory.c ****   *page_cnt = 8;
 1518              		.loc 1 596 0
 1519 0000 0823     		movs	r3, #8
 1520 0002 0370     		strb	r3, [r0]
 597:..\..\..\..\..\..\Dev\Library embedded l2c display\u8g2\csrc/u8g2_d_memory.c ****   return buf;
 598:..\..\..\..\..\..\Dev\Library embedded l2c display\u8g2\csrc/u8g2_d_memory.c ****   #endif
 599:..\..\..\..\..\..\Dev\Library embedded l2c display\u8g2\csrc/u8g2_d_memory.c **** }
 1521              		.loc 1 599 0
 1522 0004 0048     		ldr	r0, .L161
 1523              	.LVL107:
 1524 0006 7047     		bx	lr
 1525              	.L162:
 1526              		.align	2
 1527              	.L161:
 1528 0008 50820000 		.word	.LANCHOR7+2952
 1529              		.cfi_endproc
 1530              	.LFE53:
 1531              		.size	u8g2_m_12_8_f, .-u8g2_m_12_8_f
 1532              		.section	.text.u8g2_m_24_4_1,"ax",%progbits
 1533              		.align	2
 1534              		.global	u8g2_m_24_4_1
 1535              		.thumb
 1536              		.thumb_func
 1537              		.type	u8g2_m_24_4_1, %function
 1538              	u8g2_m_24_4_1:
 1539              	.LFB54:
 600:..\..\..\..\..\..\Dev\Library embedded l2c display\u8g2\csrc/u8g2_d_memory.c **** uint8_t *u8g2_m_24_4_1(uint8_t *page_cnt)
 601:..\..\..\..\..\..\Dev\Library embedded l2c display\u8g2\csrc/u8g2_d_memory.c **** {
 1540              		.loc 1 601 0
 1541              		.cfi_startproc
 1542              		@ args = 0, pretend = 0, frame = 0
 1543              		@ frame_needed = 0, uses_anonymous_args = 0
 1544              		@ link register save eliminated.
 1545              	.LVL108:
 602:..\..\..\..\..\..\Dev\Library embedded l2c display\u8g2\csrc/u8g2_d_memory.c ****   #ifdef U8G2_USE_DYNAMIC_ALLOC
 603:..\..\..\..\..\..\Dev\Library embedded l2c display\u8g2\csrc/u8g2_d_memory.c ****   *page_cnt = 1;
 604:..\..\..\..\..\..\Dev\Library embedded l2c display\u8g2\csrc/u8g2_d_memory.c ****   return 0;
 605:..\..\..\..\..\..\Dev\Library embedded l2c display\u8g2\csrc/u8g2_d_memory.c ****   #else
 606:..\..\..\..\..\..\Dev\Library embedded l2c display\u8g2\csrc/u8g2_d_memory.c ****   static uint8_t buf[192];
 607:..\..\..\..\..\..\Dev\Library embedded l2c display\u8g2\csrc/u8g2_d_memory.c ****   *page_cnt = 1;
 1546              		.loc 1 607 0
 1547 0000 0123     		movs	r3, #1
 1548 0002 0370     		strb	r3, [r0]
 608:..\..\..\..\..\..\Dev\Library embedded l2c display\u8g2\csrc/u8g2_d_memory.c ****   return buf;
 609:..\..\..\..\..\..\Dev\Library embedded l2c display\u8g2\csrc/u8g2_d_memory.c ****   #endif
 610:..\..\..\..\..\..\Dev\Library embedded l2c display\u8g2\csrc/u8g2_d_memory.c **** }
 1549              		.loc 1 610 0
 1550 0004 0048     		ldr	r0, .L164
 1551              	.LVL109:
 1552 0006 7047     		bx	lr
 1553              	.L165:
 1554              		.align	2
 1555              	.L164:
 1556 0008 50850000 		.word	.LANCHOR7+3720
ARM GAS  C:\Users\Abude\AppData\Local\Temp\ccndXIr0.s 			page 39


 1557              		.cfi_endproc
 1558              	.LFE54:
 1559              		.size	u8g2_m_24_4_1, .-u8g2_m_24_4_1
 1560              		.section	.text.u8g2_m_24_4_2,"ax",%progbits
 1561              		.align	2
 1562              		.global	u8g2_m_24_4_2
 1563              		.thumb
 1564              		.thumb_func
 1565              		.type	u8g2_m_24_4_2, %function
 1566              	u8g2_m_24_4_2:
 1567              	.LFB55:
 611:..\..\..\..\..\..\Dev\Library embedded l2c display\u8g2\csrc/u8g2_d_memory.c **** uint8_t *u8g2_m_24_4_2(uint8_t *page_cnt)
 612:..\..\..\..\..\..\Dev\Library embedded l2c display\u8g2\csrc/u8g2_d_memory.c **** {
 1568              		.loc 1 612 0
 1569              		.cfi_startproc
 1570              		@ args = 0, pretend = 0, frame = 0
 1571              		@ frame_needed = 0, uses_anonymous_args = 0
 1572              		@ link register save eliminated.
 1573              	.LVL110:
 613:..\..\..\..\..\..\Dev\Library embedded l2c display\u8g2\csrc/u8g2_d_memory.c ****   #ifdef U8G2_USE_DYNAMIC_ALLOC
 614:..\..\..\..\..\..\Dev\Library embedded l2c display\u8g2\csrc/u8g2_d_memory.c ****   *page_cnt = 2;
 615:..\..\..\..\..\..\Dev\Library embedded l2c display\u8g2\csrc/u8g2_d_memory.c ****   return 0;
 616:..\..\..\..\..\..\Dev\Library embedded l2c display\u8g2\csrc/u8g2_d_memory.c ****   #else
 617:..\..\..\..\..\..\Dev\Library embedded l2c display\u8g2\csrc/u8g2_d_memory.c ****   static uint8_t buf[384];
 618:..\..\..\..\..\..\Dev\Library embedded l2c display\u8g2\csrc/u8g2_d_memory.c ****   *page_cnt = 2;
 1574              		.loc 1 618 0
 1575 0000 0223     		movs	r3, #2
 1576 0002 0370     		strb	r3, [r0]
 619:..\..\..\..\..\..\Dev\Library embedded l2c display\u8g2\csrc/u8g2_d_memory.c ****   return buf;
 620:..\..\..\..\..\..\Dev\Library embedded l2c display\u8g2\csrc/u8g2_d_memory.c ****   #endif
 621:..\..\..\..\..\..\Dev\Library embedded l2c display\u8g2\csrc/u8g2_d_memory.c **** }
 1577              		.loc 1 621 0
 1578 0004 0048     		ldr	r0, .L167
 1579              	.LVL111:
 1580 0006 7047     		bx	lr
 1581              	.L168:
 1582              		.align	2
 1583              	.L167:
 1584 0008 10860000 		.word	.LANCHOR7+3912
 1585              		.cfi_endproc
 1586              	.LFE55:
 1587              		.size	u8g2_m_24_4_2, .-u8g2_m_24_4_2
 1588              		.section	.text.u8g2_m_24_4_f,"ax",%progbits
 1589              		.align	2
 1590              		.global	u8g2_m_24_4_f
 1591              		.thumb
 1592              		.thumb_func
 1593              		.type	u8g2_m_24_4_f, %function
 1594              	u8g2_m_24_4_f:
 1595              	.LFB56:
 622:..\..\..\..\..\..\Dev\Library embedded l2c display\u8g2\csrc/u8g2_d_memory.c **** uint8_t *u8g2_m_24_4_f(uint8_t *page_cnt)
 623:..\..\..\..\..\..\Dev\Library embedded l2c display\u8g2\csrc/u8g2_d_memory.c **** {
 1596              		.loc 1 623 0
 1597              		.cfi_startproc
 1598              		@ args = 0, pretend = 0, frame = 0
 1599              		@ frame_needed = 0, uses_anonymous_args = 0
 1600              		@ link register save eliminated.
ARM GAS  C:\Users\Abude\AppData\Local\Temp\ccndXIr0.s 			page 40


 1601              	.LVL112:
 624:..\..\..\..\..\..\Dev\Library embedded l2c display\u8g2\csrc/u8g2_d_memory.c ****   #ifdef U8G2_USE_DYNAMIC_ALLOC
 625:..\..\..\..\..\..\Dev\Library embedded l2c display\u8g2\csrc/u8g2_d_memory.c ****   *page_cnt = 4;
 626:..\..\..\..\..\..\Dev\Library embedded l2c display\u8g2\csrc/u8g2_d_memory.c ****   return 0;
 627:..\..\..\..\..\..\Dev\Library embedded l2c display\u8g2\csrc/u8g2_d_memory.c ****   #else
 628:..\..\..\..\..\..\Dev\Library embedded l2c display\u8g2\csrc/u8g2_d_memory.c ****   static uint8_t buf[768];
 629:..\..\..\..\..\..\Dev\Library embedded l2c display\u8g2\csrc/u8g2_d_memory.c ****   *page_cnt = 4;
 1602              		.loc 1 629 0
 1603 0000 0423     		movs	r3, #4
 1604 0002 0370     		strb	r3, [r0]
 630:..\..\..\..\..\..\Dev\Library embedded l2c display\u8g2\csrc/u8g2_d_memory.c ****   return buf;
 631:..\..\..\..\..\..\Dev\Library embedded l2c display\u8g2\csrc/u8g2_d_memory.c ****   #endif
 632:..\..\..\..\..\..\Dev\Library embedded l2c display\u8g2\csrc/u8g2_d_memory.c **** }
 1605              		.loc 1 632 0
 1606 0004 0048     		ldr	r0, .L170
 1607              	.LVL113:
 1608 0006 7047     		bx	lr
 1609              	.L171:
 1610              		.align	2
 1611              	.L170:
 1612 0008 90870000 		.word	.LANCHOR8-48
 1613              		.cfi_endproc
 1614              	.LFE56:
 1615              		.size	u8g2_m_24_4_f, .-u8g2_m_24_4_f
 1616              		.section	.text.u8g2_m_50_30_1,"ax",%progbits
 1617              		.align	2
 1618              		.global	u8g2_m_50_30_1
 1619              		.thumb
 1620              		.thumb_func
 1621              		.type	u8g2_m_50_30_1, %function
 1622              	u8g2_m_50_30_1:
 1623              	.LFB57:
 633:..\..\..\..\..\..\Dev\Library embedded l2c display\u8g2\csrc/u8g2_d_memory.c **** uint8_t *u8g2_m_50_30_1(uint8_t *page_cnt)
 634:..\..\..\..\..\..\Dev\Library embedded l2c display\u8g2\csrc/u8g2_d_memory.c **** {
 1624              		.loc 1 634 0
 1625              		.cfi_startproc
 1626              		@ args = 0, pretend = 0, frame = 0
 1627              		@ frame_needed = 0, uses_anonymous_args = 0
 1628              		@ link register save eliminated.
 1629              	.LVL114:
 635:..\..\..\..\..\..\Dev\Library embedded l2c display\u8g2\csrc/u8g2_d_memory.c ****   #ifdef U8G2_USE_DYNAMIC_ALLOC
 636:..\..\..\..\..\..\Dev\Library embedded l2c display\u8g2\csrc/u8g2_d_memory.c ****   *page_cnt = 1;
 637:..\..\..\..\..\..\Dev\Library embedded l2c display\u8g2\csrc/u8g2_d_memory.c ****   return 0;
 638:..\..\..\..\..\..\Dev\Library embedded l2c display\u8g2\csrc/u8g2_d_memory.c ****   #else
 639:..\..\..\..\..\..\Dev\Library embedded l2c display\u8g2\csrc/u8g2_d_memory.c ****   static uint8_t buf[400];
 640:..\..\..\..\..\..\Dev\Library embedded l2c display\u8g2\csrc/u8g2_d_memory.c ****   *page_cnt = 1;
 1630              		.loc 1 640 0
 1631 0000 0123     		movs	r3, #1
 1632 0002 0370     		strb	r3, [r0]
 641:..\..\..\..\..\..\Dev\Library embedded l2c display\u8g2\csrc/u8g2_d_memory.c ****   return buf;
 642:..\..\..\..\..\..\Dev\Library embedded l2c display\u8g2\csrc/u8g2_d_memory.c ****   #endif
 643:..\..\..\..\..\..\Dev\Library embedded l2c display\u8g2\csrc/u8g2_d_memory.c **** }
 1633              		.loc 1 643 0
 1634 0004 0048     		ldr	r0, .L173
 1635              	.LVL115:
 1636 0006 7047     		bx	lr
 1637              	.L174:
ARM GAS  C:\Users\Abude\AppData\Local\Temp\ccndXIr0.s 			page 41


 1638              		.align	2
 1639              	.L173:
 1640 0008 908A0000 		.word	.LANCHOR8+720
 1641              		.cfi_endproc
 1642              	.LFE57:
 1643              		.size	u8g2_m_50_30_1, .-u8g2_m_50_30_1
 1644              		.section	.text.u8g2_m_50_30_2,"ax",%progbits
 1645              		.align	2
 1646              		.global	u8g2_m_50_30_2
 1647              		.thumb
 1648              		.thumb_func
 1649              		.type	u8g2_m_50_30_2, %function
 1650              	u8g2_m_50_30_2:
 1651              	.LFB58:
 644:..\..\..\..\..\..\Dev\Library embedded l2c display\u8g2\csrc/u8g2_d_memory.c **** uint8_t *u8g2_m_50_30_2(uint8_t *page_cnt)
 645:..\..\..\..\..\..\Dev\Library embedded l2c display\u8g2\csrc/u8g2_d_memory.c **** {
 1652              		.loc 1 645 0
 1653              		.cfi_startproc
 1654              		@ args = 0, pretend = 0, frame = 0
 1655              		@ frame_needed = 0, uses_anonymous_args = 0
 1656              		@ link register save eliminated.
 1657              	.LVL116:
 646:..\..\..\..\..\..\Dev\Library embedded l2c display\u8g2\csrc/u8g2_d_memory.c ****   #ifdef U8G2_USE_DYNAMIC_ALLOC
 647:..\..\..\..\..\..\Dev\Library embedded l2c display\u8g2\csrc/u8g2_d_memory.c ****   *page_cnt = 2;
 648:..\..\..\..\..\..\Dev\Library embedded l2c display\u8g2\csrc/u8g2_d_memory.c ****   return 0;
 649:..\..\..\..\..\..\Dev\Library embedded l2c display\u8g2\csrc/u8g2_d_memory.c ****   #else
 650:..\..\..\..\..\..\Dev\Library embedded l2c display\u8g2\csrc/u8g2_d_memory.c ****   static uint8_t buf[800];
 651:..\..\..\..\..\..\Dev\Library embedded l2c display\u8g2\csrc/u8g2_d_memory.c ****   *page_cnt = 2;
 1658              		.loc 1 651 0
 1659 0000 0223     		movs	r3, #2
 1660 0002 0370     		strb	r3, [r0]
 652:..\..\..\..\..\..\Dev\Library embedded l2c display\u8g2\csrc/u8g2_d_memory.c ****   return buf;
 653:..\..\..\..\..\..\Dev\Library embedded l2c display\u8g2\csrc/u8g2_d_memory.c ****   #endif
 654:..\..\..\..\..\..\Dev\Library embedded l2c display\u8g2\csrc/u8g2_d_memory.c **** }
 1661              		.loc 1 654 0
 1662 0004 0048     		ldr	r0, .L176
 1663              	.LVL117:
 1664 0006 7047     		bx	lr
 1665              	.L177:
 1666              		.align	2
 1667              	.L176:
 1668 0008 208C0000 		.word	.LANCHOR8+1120
 1669              		.cfi_endproc
 1670              	.LFE58:
 1671              		.size	u8g2_m_50_30_2, .-u8g2_m_50_30_2
 1672              		.section	.text.u8g2_m_50_30_f,"ax",%progbits
 1673              		.align	2
 1674              		.global	u8g2_m_50_30_f
 1675              		.thumb
 1676              		.thumb_func
 1677              		.type	u8g2_m_50_30_f, %function
 1678              	u8g2_m_50_30_f:
 1679              	.LFB59:
 655:..\..\..\..\..\..\Dev\Library embedded l2c display\u8g2\csrc/u8g2_d_memory.c **** uint8_t *u8g2_m_50_30_f(uint8_t *page_cnt)
 656:..\..\..\..\..\..\Dev\Library embedded l2c display\u8g2\csrc/u8g2_d_memory.c **** {
 1680              		.loc 1 656 0
 1681              		.cfi_startproc
ARM GAS  C:\Users\Abude\AppData\Local\Temp\ccndXIr0.s 			page 42


 1682              		@ args = 0, pretend = 0, frame = 0
 1683              		@ frame_needed = 0, uses_anonymous_args = 0
 1684              		@ link register save eliminated.
 1685              	.LVL118:
 657:..\..\..\..\..\..\Dev\Library embedded l2c display\u8g2\csrc/u8g2_d_memory.c ****   #ifdef U8G2_USE_DYNAMIC_ALLOC
 658:..\..\..\..\..\..\Dev\Library embedded l2c display\u8g2\csrc/u8g2_d_memory.c ****   *page_cnt = 30;
 659:..\..\..\..\..\..\Dev\Library embedded l2c display\u8g2\csrc/u8g2_d_memory.c ****   return 0;
 660:..\..\..\..\..\..\Dev\Library embedded l2c display\u8g2\csrc/u8g2_d_memory.c ****   #else
 661:..\..\..\..\..\..\Dev\Library embedded l2c display\u8g2\csrc/u8g2_d_memory.c ****   static uint8_t buf[12000];
 662:..\..\..\..\..\..\Dev\Library embedded l2c display\u8g2\csrc/u8g2_d_memory.c ****   *page_cnt = 30;
 1686              		.loc 1 662 0
 1687 0000 1E23     		movs	r3, #30
 1688 0002 0370     		strb	r3, [r0]
 663:..\..\..\..\..\..\Dev\Library embedded l2c display\u8g2\csrc/u8g2_d_memory.c ****   return buf;
 664:..\..\..\..\..\..\Dev\Library embedded l2c display\u8g2\csrc/u8g2_d_memory.c ****   #endif
 665:..\..\..\..\..\..\Dev\Library embedded l2c display\u8g2\csrc/u8g2_d_memory.c **** }
 1689              		.loc 1 665 0
 1690 0004 0048     		ldr	r0, .L179
 1691              	.LVL119:
 1692 0006 7047     		bx	lr
 1693              	.L180:
 1694              		.align	2
 1695              	.L179:
 1696 0008 408F0000 		.word	.LANCHOR8+1920
 1697              		.cfi_endproc
 1698              	.LFE59:
 1699              		.size	u8g2_m_50_30_f, .-u8g2_m_50_30_f
 1700              		.section	.text.u8g2_m_18_21_1,"ax",%progbits
 1701              		.align	2
 1702              		.global	u8g2_m_18_21_1
 1703              		.thumb
 1704              		.thumb_func
 1705              		.type	u8g2_m_18_21_1, %function
 1706              	u8g2_m_18_21_1:
 1707              	.LFB60:
 666:..\..\..\..\..\..\Dev\Library embedded l2c display\u8g2\csrc/u8g2_d_memory.c **** uint8_t *u8g2_m_18_21_1(uint8_t *page_cnt)
 667:..\..\..\..\..\..\Dev\Library embedded l2c display\u8g2\csrc/u8g2_d_memory.c **** {
 1708              		.loc 1 667 0
 1709              		.cfi_startproc
 1710              		@ args = 0, pretend = 0, frame = 0
 1711              		@ frame_needed = 0, uses_anonymous_args = 0
 1712              		@ link register save eliminated.
 1713              	.LVL120:
 668:..\..\..\..\..\..\Dev\Library embedded l2c display\u8g2\csrc/u8g2_d_memory.c ****   #ifdef U8G2_USE_DYNAMIC_ALLOC
 669:..\..\..\..\..\..\Dev\Library embedded l2c display\u8g2\csrc/u8g2_d_memory.c ****   *page_cnt = 1;
 670:..\..\..\..\..\..\Dev\Library embedded l2c display\u8g2\csrc/u8g2_d_memory.c ****   return 0;
 671:..\..\..\..\..\..\Dev\Library embedded l2c display\u8g2\csrc/u8g2_d_memory.c ****   #else
 672:..\..\..\..\..\..\Dev\Library embedded l2c display\u8g2\csrc/u8g2_d_memory.c ****   static uint8_t buf[144];
 673:..\..\..\..\..\..\Dev\Library embedded l2c display\u8g2\csrc/u8g2_d_memory.c ****   *page_cnt = 1;
 1714              		.loc 1 673 0
 1715 0000 0123     		movs	r3, #1
 1716 0002 0370     		strb	r3, [r0]
 674:..\..\..\..\..\..\Dev\Library embedded l2c display\u8g2\csrc/u8g2_d_memory.c ****   return buf;
 675:..\..\..\..\..\..\Dev\Library embedded l2c display\u8g2\csrc/u8g2_d_memory.c ****   #endif
 676:..\..\..\..\..\..\Dev\Library embedded l2c display\u8g2\csrc/u8g2_d_memory.c **** }
 1717              		.loc 1 676 0
 1718 0004 0048     		ldr	r0, .L182
ARM GAS  C:\Users\Abude\AppData\Local\Temp\ccndXIr0.s 			page 43


 1719              	.LVL121:
 1720 0006 7047     		bx	lr
 1721              	.L183:
 1722              		.align	2
 1723              	.L182:
 1724 0008 20BE0000 		.word	.LANCHOR9+888
 1725              		.cfi_endproc
 1726              	.LFE60:
 1727              		.size	u8g2_m_18_21_1, .-u8g2_m_18_21_1
 1728              		.section	.text.u8g2_m_18_21_2,"ax",%progbits
 1729              		.align	2
 1730              		.global	u8g2_m_18_21_2
 1731              		.thumb
 1732              		.thumb_func
 1733              		.type	u8g2_m_18_21_2, %function
 1734              	u8g2_m_18_21_2:
 1735              	.LFB61:
 677:..\..\..\..\..\..\Dev\Library embedded l2c display\u8g2\csrc/u8g2_d_memory.c **** uint8_t *u8g2_m_18_21_2(uint8_t *page_cnt)
 678:..\..\..\..\..\..\Dev\Library embedded l2c display\u8g2\csrc/u8g2_d_memory.c **** {
 1736              		.loc 1 678 0
 1737              		.cfi_startproc
 1738              		@ args = 0, pretend = 0, frame = 0
 1739              		@ frame_needed = 0, uses_anonymous_args = 0
 1740              		@ link register save eliminated.
 1741              	.LVL122:
 679:..\..\..\..\..\..\Dev\Library embedded l2c display\u8g2\csrc/u8g2_d_memory.c ****   #ifdef U8G2_USE_DYNAMIC_ALLOC
 680:..\..\..\..\..\..\Dev\Library embedded l2c display\u8g2\csrc/u8g2_d_memory.c ****   *page_cnt = 2;
 681:..\..\..\..\..\..\Dev\Library embedded l2c display\u8g2\csrc/u8g2_d_memory.c ****   return 0;
 682:..\..\..\..\..\..\Dev\Library embedded l2c display\u8g2\csrc/u8g2_d_memory.c ****   #else
 683:..\..\..\..\..\..\Dev\Library embedded l2c display\u8g2\csrc/u8g2_d_memory.c ****   static uint8_t buf[288];
 684:..\..\..\..\..\..\Dev\Library embedded l2c display\u8g2\csrc/u8g2_d_memory.c ****   *page_cnt = 2;
 1742              		.loc 1 684 0
 1743 0000 0223     		movs	r3, #2
 1744 0002 0370     		strb	r3, [r0]
 685:..\..\..\..\..\..\Dev\Library embedded l2c display\u8g2\csrc/u8g2_d_memory.c ****   return buf;
 686:..\..\..\..\..\..\Dev\Library embedded l2c display\u8g2\csrc/u8g2_d_memory.c ****   #endif
 687:..\..\..\..\..\..\Dev\Library embedded l2c display\u8g2\csrc/u8g2_d_memory.c **** }
 1745              		.loc 1 687 0
 1746 0004 0048     		ldr	r0, .L185
 1747              	.LVL123:
 1748 0006 7047     		bx	lr
 1749              	.L186:
 1750              		.align	2
 1751              	.L185:
 1752 0008 B0BE0000 		.word	.LANCHOR9+1032
 1753              		.cfi_endproc
 1754              	.LFE61:
 1755              		.size	u8g2_m_18_21_2, .-u8g2_m_18_21_2
 1756              		.section	.text.u8g2_m_18_21_f,"ax",%progbits
 1757              		.align	2
 1758              		.global	u8g2_m_18_21_f
 1759              		.thumb
 1760              		.thumb_func
 1761              		.type	u8g2_m_18_21_f, %function
 1762              	u8g2_m_18_21_f:
 1763              	.LFB62:
 688:..\..\..\..\..\..\Dev\Library embedded l2c display\u8g2\csrc/u8g2_d_memory.c **** uint8_t *u8g2_m_18_21_f(uint8_t *page_cnt)
ARM GAS  C:\Users\Abude\AppData\Local\Temp\ccndXIr0.s 			page 44


 689:..\..\..\..\..\..\Dev\Library embedded l2c display\u8g2\csrc/u8g2_d_memory.c **** {
 1764              		.loc 1 689 0
 1765              		.cfi_startproc
 1766              		@ args = 0, pretend = 0, frame = 0
 1767              		@ frame_needed = 0, uses_anonymous_args = 0
 1768              		@ link register save eliminated.
 1769              	.LVL124:
 690:..\..\..\..\..\..\Dev\Library embedded l2c display\u8g2\csrc/u8g2_d_memory.c ****   #ifdef U8G2_USE_DYNAMIC_ALLOC
 691:..\..\..\..\..\..\Dev\Library embedded l2c display\u8g2\csrc/u8g2_d_memory.c ****   *page_cnt = 21;
 692:..\..\..\..\..\..\Dev\Library embedded l2c display\u8g2\csrc/u8g2_d_memory.c ****   return 0;
 693:..\..\..\..\..\..\Dev\Library embedded l2c display\u8g2\csrc/u8g2_d_memory.c ****   #else
 694:..\..\..\..\..\..\Dev\Library embedded l2c display\u8g2\csrc/u8g2_d_memory.c ****   static uint8_t buf[3024];
 695:..\..\..\..\..\..\Dev\Library embedded l2c display\u8g2\csrc/u8g2_d_memory.c ****   *page_cnt = 21;
 1770              		.loc 1 695 0
 1771 0000 1523     		movs	r3, #21
 1772 0002 0370     		strb	r3, [r0]
 696:..\..\..\..\..\..\Dev\Library embedded l2c display\u8g2\csrc/u8g2_d_memory.c ****   return buf;
 697:..\..\..\..\..\..\Dev\Library embedded l2c display\u8g2\csrc/u8g2_d_memory.c ****   #endif
 698:..\..\..\..\..\..\Dev\Library embedded l2c display\u8g2\csrc/u8g2_d_memory.c **** }
 1773              		.loc 1 698 0
 1774 0004 0048     		ldr	r0, .L188
 1775              	.LVL125:
 1776 0006 7047     		bx	lr
 1777              	.L189:
 1778              		.align	2
 1779              	.L188:
 1780 0008 D0BF0000 		.word	.LANCHOR9+1320
 1781              		.cfi_endproc
 1782              	.LFE62:
 1783              		.size	u8g2_m_18_21_f, .-u8g2_m_18_21_f
 1784              		.section	.text.u8g2_m_11_6_1,"ax",%progbits
 1785              		.align	2
 1786              		.global	u8g2_m_11_6_1
 1787              		.thumb
 1788              		.thumb_func
 1789              		.type	u8g2_m_11_6_1, %function
 1790              	u8g2_m_11_6_1:
 1791              	.LFB63:
 699:..\..\..\..\..\..\Dev\Library embedded l2c display\u8g2\csrc/u8g2_d_memory.c **** uint8_t *u8g2_m_11_6_1(uint8_t *page_cnt)
 700:..\..\..\..\..\..\Dev\Library embedded l2c display\u8g2\csrc/u8g2_d_memory.c **** {
 1792              		.loc 1 700 0
 1793              		.cfi_startproc
 1794              		@ args = 0, pretend = 0, frame = 0
 1795              		@ frame_needed = 0, uses_anonymous_args = 0
 1796              		@ link register save eliminated.
 1797              	.LVL126:
 701:..\..\..\..\..\..\Dev\Library embedded l2c display\u8g2\csrc/u8g2_d_memory.c ****   #ifdef U8G2_USE_DYNAMIC_ALLOC
 702:..\..\..\..\..\..\Dev\Library embedded l2c display\u8g2\csrc/u8g2_d_memory.c ****   *page_cnt = 1;
 703:..\..\..\..\..\..\Dev\Library embedded l2c display\u8g2\csrc/u8g2_d_memory.c ****   return 0;
 704:..\..\..\..\..\..\Dev\Library embedded l2c display\u8g2\csrc/u8g2_d_memory.c ****   #else
 705:..\..\..\..\..\..\Dev\Library embedded l2c display\u8g2\csrc/u8g2_d_memory.c ****   static uint8_t buf[88];
 706:..\..\..\..\..\..\Dev\Library embedded l2c display\u8g2\csrc/u8g2_d_memory.c ****   *page_cnt = 1;
 1798              		.loc 1 706 0
 1799 0000 0123     		movs	r3, #1
 1800 0002 0370     		strb	r3, [r0]
 707:..\..\..\..\..\..\Dev\Library embedded l2c display\u8g2\csrc/u8g2_d_memory.c ****   return buf;
 708:..\..\..\..\..\..\Dev\Library embedded l2c display\u8g2\csrc/u8g2_d_memory.c ****   #endif
ARM GAS  C:\Users\Abude\AppData\Local\Temp\ccndXIr0.s 			page 45


 709:..\..\..\..\..\..\Dev\Library embedded l2c display\u8g2\csrc/u8g2_d_memory.c **** }
 1801              		.loc 1 709 0
 1802 0004 0048     		ldr	r0, .L191
 1803              	.LVL127:
 1804 0006 7047     		bx	lr
 1805              	.L192:
 1806              		.align	2
 1807              	.L191:
 1808 0008 A0CB0000 		.word	.LANCHOR10
 1809              		.cfi_endproc
 1810              	.LFE63:
 1811              		.size	u8g2_m_11_6_1, .-u8g2_m_11_6_1
 1812              		.section	.text.u8g2_m_11_6_2,"ax",%progbits
 1813              		.align	2
 1814              		.global	u8g2_m_11_6_2
 1815              		.thumb
 1816              		.thumb_func
 1817              		.type	u8g2_m_11_6_2, %function
 1818              	u8g2_m_11_6_2:
 1819              	.LFB64:
 710:..\..\..\..\..\..\Dev\Library embedded l2c display\u8g2\csrc/u8g2_d_memory.c **** uint8_t *u8g2_m_11_6_2(uint8_t *page_cnt)
 711:..\..\..\..\..\..\Dev\Library embedded l2c display\u8g2\csrc/u8g2_d_memory.c **** {
 1820              		.loc 1 711 0
 1821              		.cfi_startproc
 1822              		@ args = 0, pretend = 0, frame = 0
 1823              		@ frame_needed = 0, uses_anonymous_args = 0
 1824              		@ link register save eliminated.
 1825              	.LVL128:
 712:..\..\..\..\..\..\Dev\Library embedded l2c display\u8g2\csrc/u8g2_d_memory.c ****   #ifdef U8G2_USE_DYNAMIC_ALLOC
 713:..\..\..\..\..\..\Dev\Library embedded l2c display\u8g2\csrc/u8g2_d_memory.c ****   *page_cnt = 2;
 714:..\..\..\..\..\..\Dev\Library embedded l2c display\u8g2\csrc/u8g2_d_memory.c ****   return 0;
 715:..\..\..\..\..\..\Dev\Library embedded l2c display\u8g2\csrc/u8g2_d_memory.c ****   #else
 716:..\..\..\..\..\..\Dev\Library embedded l2c display\u8g2\csrc/u8g2_d_memory.c ****   static uint8_t buf[176];
 717:..\..\..\..\..\..\Dev\Library embedded l2c display\u8g2\csrc/u8g2_d_memory.c ****   *page_cnt = 2;
 1826              		.loc 1 717 0
 1827 0000 0223     		movs	r3, #2
 1828 0002 0370     		strb	r3, [r0]
 718:..\..\..\..\..\..\Dev\Library embedded l2c display\u8g2\csrc/u8g2_d_memory.c ****   return buf;
 719:..\..\..\..\..\..\Dev\Library embedded l2c display\u8g2\csrc/u8g2_d_memory.c ****   #endif
 720:..\..\..\..\..\..\Dev\Library embedded l2c display\u8g2\csrc/u8g2_d_memory.c **** }
 1829              		.loc 1 720 0
 1830 0004 0048     		ldr	r0, .L194
 1831              	.LVL129:
 1832 0006 7047     		bx	lr
 1833              	.L195:
 1834              		.align	2
 1835              	.L194:
 1836 0008 F8CB0000 		.word	.LANCHOR10+88
 1837              		.cfi_endproc
 1838              	.LFE64:
 1839              		.size	u8g2_m_11_6_2, .-u8g2_m_11_6_2
 1840              		.section	.text.u8g2_m_11_6_f,"ax",%progbits
 1841              		.align	2
 1842              		.global	u8g2_m_11_6_f
 1843              		.thumb
 1844              		.thumb_func
 1845              		.type	u8g2_m_11_6_f, %function
ARM GAS  C:\Users\Abude\AppData\Local\Temp\ccndXIr0.s 			page 46


 1846              	u8g2_m_11_6_f:
 1847              	.LFB65:
 721:..\..\..\..\..\..\Dev\Library embedded l2c display\u8g2\csrc/u8g2_d_memory.c **** uint8_t *u8g2_m_11_6_f(uint8_t *page_cnt)
 722:..\..\..\..\..\..\Dev\Library embedded l2c display\u8g2\csrc/u8g2_d_memory.c **** {
 1848              		.loc 1 722 0
 1849              		.cfi_startproc
 1850              		@ args = 0, pretend = 0, frame = 0
 1851              		@ frame_needed = 0, uses_anonymous_args = 0
 1852              		@ link register save eliminated.
 1853              	.LVL130:
 723:..\..\..\..\..\..\Dev\Library embedded l2c display\u8g2\csrc/u8g2_d_memory.c ****   #ifdef U8G2_USE_DYNAMIC_ALLOC
 724:..\..\..\..\..\..\Dev\Library embedded l2c display\u8g2\csrc/u8g2_d_memory.c ****   *page_cnt = 6;
 725:..\..\..\..\..\..\Dev\Library embedded l2c display\u8g2\csrc/u8g2_d_memory.c ****   return 0;
 726:..\..\..\..\..\..\Dev\Library embedded l2c display\u8g2\csrc/u8g2_d_memory.c ****   #else
 727:..\..\..\..\..\..\Dev\Library embedded l2c display\u8g2\csrc/u8g2_d_memory.c ****   static uint8_t buf[528];
 728:..\..\..\..\..\..\Dev\Library embedded l2c display\u8g2\csrc/u8g2_d_memory.c ****   *page_cnt = 6;
 1854              		.loc 1 728 0
 1855 0000 0623     		movs	r3, #6
 1856 0002 0370     		strb	r3, [r0]
 729:..\..\..\..\..\..\Dev\Library embedded l2c display\u8g2\csrc/u8g2_d_memory.c ****   return buf;
 730:..\..\..\..\..\..\Dev\Library embedded l2c display\u8g2\csrc/u8g2_d_memory.c ****   #endif
 731:..\..\..\..\..\..\Dev\Library embedded l2c display\u8g2\csrc/u8g2_d_memory.c **** }
 1857              		.loc 1 731 0
 1858 0004 0048     		ldr	r0, .L197
 1859              	.LVL131:
 1860 0006 7047     		bx	lr
 1861              	.L198:
 1862              		.align	2
 1863              	.L197:
 1864 0008 A8CC0000 		.word	.LANCHOR10+264
 1865              		.cfi_endproc
 1866              	.LFE65:
 1867              		.size	u8g2_m_11_6_f, .-u8g2_m_11_6_f
 1868              		.section	.text.u8g2_m_12_9_1,"ax",%progbits
 1869              		.align	2
 1870              		.global	u8g2_m_12_9_1
 1871              		.thumb
 1872              		.thumb_func
 1873              		.type	u8g2_m_12_9_1, %function
 1874              	u8g2_m_12_9_1:
 1875              	.LFB66:
 732:..\..\..\..\..\..\Dev\Library embedded l2c display\u8g2\csrc/u8g2_d_memory.c **** uint8_t *u8g2_m_12_9_1(uint8_t *page_cnt)
 733:..\..\..\..\..\..\Dev\Library embedded l2c display\u8g2\csrc/u8g2_d_memory.c **** {
 1876              		.loc 1 733 0
 1877              		.cfi_startproc
 1878              		@ args = 0, pretend = 0, frame = 0
 1879              		@ frame_needed = 0, uses_anonymous_args = 0
 1880              		@ link register save eliminated.
 1881              	.LVL132:
 734:..\..\..\..\..\..\Dev\Library embedded l2c display\u8g2\csrc/u8g2_d_memory.c ****   #ifdef U8G2_USE_DYNAMIC_ALLOC
 735:..\..\..\..\..\..\Dev\Library embedded l2c display\u8g2\csrc/u8g2_d_memory.c ****   *page_cnt = 1;
 736:..\..\..\..\..\..\Dev\Library embedded l2c display\u8g2\csrc/u8g2_d_memory.c ****   return 0;
 737:..\..\..\..\..\..\Dev\Library embedded l2c display\u8g2\csrc/u8g2_d_memory.c ****   #else
 738:..\..\..\..\..\..\Dev\Library embedded l2c display\u8g2\csrc/u8g2_d_memory.c ****   static uint8_t buf[96];
 739:..\..\..\..\..\..\Dev\Library embedded l2c display\u8g2\csrc/u8g2_d_memory.c ****   *page_cnt = 1;
 1882              		.loc 1 739 0
 1883 0000 0123     		movs	r3, #1
ARM GAS  C:\Users\Abude\AppData\Local\Temp\ccndXIr0.s 			page 47


 1884 0002 0370     		strb	r3, [r0]
 740:..\..\..\..\..\..\Dev\Library embedded l2c display\u8g2\csrc/u8g2_d_memory.c ****   return buf;
 741:..\..\..\..\..\..\Dev\Library embedded l2c display\u8g2\csrc/u8g2_d_memory.c ****   #endif
 742:..\..\..\..\..\..\Dev\Library embedded l2c display\u8g2\csrc/u8g2_d_memory.c **** }
 1885              		.loc 1 742 0
 1886 0004 0048     		ldr	r0, .L200
 1887              	.LVL133:
 1888 0006 7047     		bx	lr
 1889              	.L201:
 1890              		.align	2
 1891              	.L200:
 1892 0008 B8CE0000 		.word	.LANCHOR10+792
 1893              		.cfi_endproc
 1894              	.LFE66:
 1895              		.size	u8g2_m_12_9_1, .-u8g2_m_12_9_1
 1896              		.section	.text.u8g2_m_12_9_2,"ax",%progbits
 1897              		.align	2
 1898              		.global	u8g2_m_12_9_2
 1899              		.thumb
 1900              		.thumb_func
 1901              		.type	u8g2_m_12_9_2, %function
 1902              	u8g2_m_12_9_2:
 1903              	.LFB67:
 743:..\..\..\..\..\..\Dev\Library embedded l2c display\u8g2\csrc/u8g2_d_memory.c **** uint8_t *u8g2_m_12_9_2(uint8_t *page_cnt)
 744:..\..\..\..\..\..\Dev\Library embedded l2c display\u8g2\csrc/u8g2_d_memory.c **** {
 1904              		.loc 1 744 0
 1905              		.cfi_startproc
 1906              		@ args = 0, pretend = 0, frame = 0
 1907              		@ frame_needed = 0, uses_anonymous_args = 0
 1908              		@ link register save eliminated.
 1909              	.LVL134:
 745:..\..\..\..\..\..\Dev\Library embedded l2c display\u8g2\csrc/u8g2_d_memory.c ****   #ifdef U8G2_USE_DYNAMIC_ALLOC
 746:..\..\..\..\..\..\Dev\Library embedded l2c display\u8g2\csrc/u8g2_d_memory.c ****   *page_cnt = 2;
 747:..\..\..\..\..\..\Dev\Library embedded l2c display\u8g2\csrc/u8g2_d_memory.c ****   return 0;
 748:..\..\..\..\..\..\Dev\Library embedded l2c display\u8g2\csrc/u8g2_d_memory.c ****   #else
 749:..\..\..\..\..\..\Dev\Library embedded l2c display\u8g2\csrc/u8g2_d_memory.c ****   static uint8_t buf[192];
 750:..\..\..\..\..\..\Dev\Library embedded l2c display\u8g2\csrc/u8g2_d_memory.c ****   *page_cnt = 2;
 1910              		.loc 1 750 0
 1911 0000 0223     		movs	r3, #2
 1912 0002 0370     		strb	r3, [r0]
 751:..\..\..\..\..\..\Dev\Library embedded l2c display\u8g2\csrc/u8g2_d_memory.c ****   return buf;
 752:..\..\..\..\..\..\Dev\Library embedded l2c display\u8g2\csrc/u8g2_d_memory.c ****   #endif
 753:..\..\..\..\..\..\Dev\Library embedded l2c display\u8g2\csrc/u8g2_d_memory.c **** }
 1913              		.loc 1 753 0
 1914 0004 0048     		ldr	r0, .L203
 1915              	.LVL135:
 1916 0006 7047     		bx	lr
 1917              	.L204:
 1918              		.align	2
 1919              	.L203:
 1920 0008 18CF0000 		.word	.LANCHOR10+888
 1921              		.cfi_endproc
 1922              	.LFE67:
 1923              		.size	u8g2_m_12_9_2, .-u8g2_m_12_9_2
 1924              		.section	.text.u8g2_m_12_9_f,"ax",%progbits
 1925              		.align	2
 1926              		.global	u8g2_m_12_9_f
ARM GAS  C:\Users\Abude\AppData\Local\Temp\ccndXIr0.s 			page 48


 1927              		.thumb
 1928              		.thumb_func
 1929              		.type	u8g2_m_12_9_f, %function
 1930              	u8g2_m_12_9_f:
 1931              	.LFB68:
 754:..\..\..\..\..\..\Dev\Library embedded l2c display\u8g2\csrc/u8g2_d_memory.c **** uint8_t *u8g2_m_12_9_f(uint8_t *page_cnt)
 755:..\..\..\..\..\..\Dev\Library embedded l2c display\u8g2\csrc/u8g2_d_memory.c **** {
 1932              		.loc 1 755 0
 1933              		.cfi_startproc
 1934              		@ args = 0, pretend = 0, frame = 0
 1935              		@ frame_needed = 0, uses_anonymous_args = 0
 1936              		@ link register save eliminated.
 1937              	.LVL136:
 756:..\..\..\..\..\..\Dev\Library embedded l2c display\u8g2\csrc/u8g2_d_memory.c ****   #ifdef U8G2_USE_DYNAMIC_ALLOC
 757:..\..\..\..\..\..\Dev\Library embedded l2c display\u8g2\csrc/u8g2_d_memory.c ****   *page_cnt = 9;
 758:..\..\..\..\..\..\Dev\Library embedded l2c display\u8g2\csrc/u8g2_d_memory.c ****   return 0;
 759:..\..\..\..\..\..\Dev\Library embedded l2c display\u8g2\csrc/u8g2_d_memory.c ****   #else
 760:..\..\..\..\..\..\Dev\Library embedded l2c display\u8g2\csrc/u8g2_d_memory.c ****   static uint8_t buf[864];
 761:..\..\..\..\..\..\Dev\Library embedded l2c display\u8g2\csrc/u8g2_d_memory.c ****   *page_cnt = 9;
 1938              		.loc 1 761 0
 1939 0000 0923     		movs	r3, #9
 1940 0002 0370     		strb	r3, [r0]
 762:..\..\..\..\..\..\Dev\Library embedded l2c display\u8g2\csrc/u8g2_d_memory.c ****   return buf;
 763:..\..\..\..\..\..\Dev\Library embedded l2c display\u8g2\csrc/u8g2_d_memory.c ****   #endif
 764:..\..\..\..\..\..\Dev\Library embedded l2c display\u8g2\csrc/u8g2_d_memory.c **** }
 1941              		.loc 1 764 0
 1942 0004 0048     		ldr	r0, .L206
 1943              	.LVL137:
 1944 0006 7047     		bx	lr
 1945              	.L207:
 1946              		.align	2
 1947              	.L206:
 1948 0008 D8CF0000 		.word	.LANCHOR10+1080
 1949              		.cfi_endproc
 1950              	.LFE68:
 1951              		.size	u8g2_m_12_9_f, .-u8g2_m_12_9_f
 1952              		.section	.text.u8g2_m_24_8_1,"ax",%progbits
 1953              		.align	2
 1954              		.global	u8g2_m_24_8_1
 1955              		.thumb
 1956              		.thumb_func
 1957              		.type	u8g2_m_24_8_1, %function
 1958              	u8g2_m_24_8_1:
 1959              	.LFB69:
 765:..\..\..\..\..\..\Dev\Library embedded l2c display\u8g2\csrc/u8g2_d_memory.c **** uint8_t *u8g2_m_24_8_1(uint8_t *page_cnt)
 766:..\..\..\..\..\..\Dev\Library embedded l2c display\u8g2\csrc/u8g2_d_memory.c **** {
 1960              		.loc 1 766 0
 1961              		.cfi_startproc
 1962              		@ args = 0, pretend = 0, frame = 0
 1963              		@ frame_needed = 0, uses_anonymous_args = 0
 1964              		@ link register save eliminated.
 1965              	.LVL138:
 767:..\..\..\..\..\..\Dev\Library embedded l2c display\u8g2\csrc/u8g2_d_memory.c ****   #ifdef U8G2_USE_DYNAMIC_ALLOC
 768:..\..\..\..\..\..\Dev\Library embedded l2c display\u8g2\csrc/u8g2_d_memory.c ****   *page_cnt = 1;
 769:..\..\..\..\..\..\Dev\Library embedded l2c display\u8g2\csrc/u8g2_d_memory.c ****   return 0;
 770:..\..\..\..\..\..\Dev\Library embedded l2c display\u8g2\csrc/u8g2_d_memory.c ****   #else
 771:..\..\..\..\..\..\Dev\Library embedded l2c display\u8g2\csrc/u8g2_d_memory.c ****   static uint8_t buf[192];
ARM GAS  C:\Users\Abude\AppData\Local\Temp\ccndXIr0.s 			page 49


 772:..\..\..\..\..\..\Dev\Library embedded l2c display\u8g2\csrc/u8g2_d_memory.c ****   *page_cnt = 1;
 1966              		.loc 1 772 0
 1967 0000 0123     		movs	r3, #1
 1968 0002 0370     		strb	r3, [r0]
 773:..\..\..\..\..\..\Dev\Library embedded l2c display\u8g2\csrc/u8g2_d_memory.c ****   return buf;
 774:..\..\..\..\..\..\Dev\Library embedded l2c display\u8g2\csrc/u8g2_d_memory.c ****   #endif
 775:..\..\..\..\..\..\Dev\Library embedded l2c display\u8g2\csrc/u8g2_d_memory.c **** }
 1969              		.loc 1 775 0
 1970 0004 0048     		ldr	r0, .L209
 1971              	.LVL139:
 1972 0006 7047     		bx	lr
 1973              	.L210:
 1974              		.align	2
 1975              	.L209:
 1976 0008 38D30000 		.word	.LANCHOR10+1944
 1977              		.cfi_endproc
 1978              	.LFE69:
 1979              		.size	u8g2_m_24_8_1, .-u8g2_m_24_8_1
 1980              		.section	.text.u8g2_m_24_8_2,"ax",%progbits
 1981              		.align	2
 1982              		.global	u8g2_m_24_8_2
 1983              		.thumb
 1984              		.thumb_func
 1985              		.type	u8g2_m_24_8_2, %function
 1986              	u8g2_m_24_8_2:
 1987              	.LFB70:
 776:..\..\..\..\..\..\Dev\Library embedded l2c display\u8g2\csrc/u8g2_d_memory.c **** uint8_t *u8g2_m_24_8_2(uint8_t *page_cnt)
 777:..\..\..\..\..\..\Dev\Library embedded l2c display\u8g2\csrc/u8g2_d_memory.c **** {
 1988              		.loc 1 777 0
 1989              		.cfi_startproc
 1990              		@ args = 0, pretend = 0, frame = 0
 1991              		@ frame_needed = 0, uses_anonymous_args = 0
 1992              		@ link register save eliminated.
 1993              	.LVL140:
 778:..\..\..\..\..\..\Dev\Library embedded l2c display\u8g2\csrc/u8g2_d_memory.c ****   #ifdef U8G2_USE_DYNAMIC_ALLOC
 779:..\..\..\..\..\..\Dev\Library embedded l2c display\u8g2\csrc/u8g2_d_memory.c ****   *page_cnt = 2;
 780:..\..\..\..\..\..\Dev\Library embedded l2c display\u8g2\csrc/u8g2_d_memory.c ****   return 0;
 781:..\..\..\..\..\..\Dev\Library embedded l2c display\u8g2\csrc/u8g2_d_memory.c ****   #else
 782:..\..\..\..\..\..\Dev\Library embedded l2c display\u8g2\csrc/u8g2_d_memory.c ****   static uint8_t buf[384];
 783:..\..\..\..\..\..\Dev\Library embedded l2c display\u8g2\csrc/u8g2_d_memory.c ****   *page_cnt = 2;
 1994              		.loc 1 783 0
 1995 0000 0223     		movs	r3, #2
 1996 0002 0370     		strb	r3, [r0]
 784:..\..\..\..\..\..\Dev\Library embedded l2c display\u8g2\csrc/u8g2_d_memory.c ****   return buf;
 785:..\..\..\..\..\..\Dev\Library embedded l2c display\u8g2\csrc/u8g2_d_memory.c ****   #endif
 786:..\..\..\..\..\..\Dev\Library embedded l2c display\u8g2\csrc/u8g2_d_memory.c **** }
 1997              		.loc 1 786 0
 1998 0004 0048     		ldr	r0, .L212
 1999              	.LVL141:
 2000 0006 7047     		bx	lr
 2001              	.L213:
 2002              		.align	2
 2003              	.L212:
 2004 0008 F8D30000 		.word	.LANCHOR10+2136
 2005              		.cfi_endproc
 2006              	.LFE70:
 2007              		.size	u8g2_m_24_8_2, .-u8g2_m_24_8_2
ARM GAS  C:\Users\Abude\AppData\Local\Temp\ccndXIr0.s 			page 50


 2008              		.section	.text.u8g2_m_24_8_f,"ax",%progbits
 2009              		.align	2
 2010              		.global	u8g2_m_24_8_f
 2011              		.thumb
 2012              		.thumb_func
 2013              		.type	u8g2_m_24_8_f, %function
 2014              	u8g2_m_24_8_f:
 2015              	.LFB71:
 787:..\..\..\..\..\..\Dev\Library embedded l2c display\u8g2\csrc/u8g2_d_memory.c **** uint8_t *u8g2_m_24_8_f(uint8_t *page_cnt)
 788:..\..\..\..\..\..\Dev\Library embedded l2c display\u8g2\csrc/u8g2_d_memory.c **** {
 2016              		.loc 1 788 0
 2017              		.cfi_startproc
 2018              		@ args = 0, pretend = 0, frame = 0
 2019              		@ frame_needed = 0, uses_anonymous_args = 0
 2020              		@ link register save eliminated.
 2021              	.LVL142:
 789:..\..\..\..\..\..\Dev\Library embedded l2c display\u8g2\csrc/u8g2_d_memory.c ****   #ifdef U8G2_USE_DYNAMIC_ALLOC
 790:..\..\..\..\..\..\Dev\Library embedded l2c display\u8g2\csrc/u8g2_d_memory.c ****   *page_cnt = 8;
 791:..\..\..\..\..\..\Dev\Library embedded l2c display\u8g2\csrc/u8g2_d_memory.c ****   return 0;
 792:..\..\..\..\..\..\Dev\Library embedded l2c display\u8g2\csrc/u8g2_d_memory.c ****   #else
 793:..\..\..\..\..\..\Dev\Library embedded l2c display\u8g2\csrc/u8g2_d_memory.c ****   static uint8_t buf[1536];
 794:..\..\..\..\..\..\Dev\Library embedded l2c display\u8g2\csrc/u8g2_d_memory.c ****   *page_cnt = 8;
 2022              		.loc 1 794 0
 2023 0000 0823     		movs	r3, #8
 2024 0002 0370     		strb	r3, [r0]
 795:..\..\..\..\..\..\Dev\Library embedded l2c display\u8g2\csrc/u8g2_d_memory.c ****   return buf;
 796:..\..\..\..\..\..\Dev\Library embedded l2c display\u8g2\csrc/u8g2_d_memory.c ****   #endif
 797:..\..\..\..\..\..\Dev\Library embedded l2c display\u8g2\csrc/u8g2_d_memory.c **** }
 2025              		.loc 1 797 0
 2026 0004 0048     		ldr	r0, .L215
 2027              	.LVL143:
 2028 0006 7047     		bx	lr
 2029              	.L216:
 2030              		.align	2
 2031              	.L215:
 2032 0008 78D50000 		.word	.LANCHOR10+2520
 2033              		.cfi_endproc
 2034              	.LFE71:
 2035              		.size	u8g2_m_24_8_f, .-u8g2_m_24_8_f
 2036              		.section	.text.u8g2_m_30_8_1,"ax",%progbits
 2037              		.align	2
 2038              		.global	u8g2_m_30_8_1
 2039              		.thumb
 2040              		.thumb_func
 2041              		.type	u8g2_m_30_8_1, %function
 2042              	u8g2_m_30_8_1:
 2043              	.LFB72:
 798:..\..\..\..\..\..\Dev\Library embedded l2c display\u8g2\csrc/u8g2_d_memory.c **** uint8_t *u8g2_m_30_8_1(uint8_t *page_cnt)
 799:..\..\..\..\..\..\Dev\Library embedded l2c display\u8g2\csrc/u8g2_d_memory.c **** {
 2044              		.loc 1 799 0
 2045              		.cfi_startproc
 2046              		@ args = 0, pretend = 0, frame = 0
 2047              		@ frame_needed = 0, uses_anonymous_args = 0
 2048              		@ link register save eliminated.
 2049              	.LVL144:
 800:..\..\..\..\..\..\Dev\Library embedded l2c display\u8g2\csrc/u8g2_d_memory.c ****   #ifdef U8G2_USE_DYNAMIC_ALLOC
 801:..\..\..\..\..\..\Dev\Library embedded l2c display\u8g2\csrc/u8g2_d_memory.c ****   *page_cnt = 1;
ARM GAS  C:\Users\Abude\AppData\Local\Temp\ccndXIr0.s 			page 51


 802:..\..\..\..\..\..\Dev\Library embedded l2c display\u8g2\csrc/u8g2_d_memory.c ****   return 0;
 803:..\..\..\..\..\..\Dev\Library embedded l2c display\u8g2\csrc/u8g2_d_memory.c ****   #else
 804:..\..\..\..\..\..\Dev\Library embedded l2c display\u8g2\csrc/u8g2_d_memory.c ****   static uint8_t buf[240];
 805:..\..\..\..\..\..\Dev\Library embedded l2c display\u8g2\csrc/u8g2_d_memory.c ****   *page_cnt = 1;
 2050              		.loc 1 805 0
 2051 0000 0123     		movs	r3, #1
 2052 0002 0370     		strb	r3, [r0]
 806:..\..\..\..\..\..\Dev\Library embedded l2c display\u8g2\csrc/u8g2_d_memory.c ****   return buf;
 807:..\..\..\..\..\..\Dev\Library embedded l2c display\u8g2\csrc/u8g2_d_memory.c ****   #endif
 808:..\..\..\..\..\..\Dev\Library embedded l2c display\u8g2\csrc/u8g2_d_memory.c **** }
 2053              		.loc 1 808 0
 2054 0004 0048     		ldr	r0, .L218
 2055              	.LVL145:
 2056 0006 7047     		bx	lr
 2057              	.L219:
 2058              		.align	2
 2059              	.L218:
 2060 0008 78DB0000 		.word	.LANCHOR10+4056
 2061              		.cfi_endproc
 2062              	.LFE72:
 2063              		.size	u8g2_m_30_8_1, .-u8g2_m_30_8_1
 2064              		.section	.text.u8g2_m_30_8_2,"ax",%progbits
 2065              		.align	2
 2066              		.global	u8g2_m_30_8_2
 2067              		.thumb
 2068              		.thumb_func
 2069              		.type	u8g2_m_30_8_2, %function
 2070              	u8g2_m_30_8_2:
 2071              	.LFB73:
 809:..\..\..\..\..\..\Dev\Library embedded l2c display\u8g2\csrc/u8g2_d_memory.c **** uint8_t *u8g2_m_30_8_2(uint8_t *page_cnt)
 810:..\..\..\..\..\..\Dev\Library embedded l2c display\u8g2\csrc/u8g2_d_memory.c **** {
 2072              		.loc 1 810 0
 2073              		.cfi_startproc
 2074              		@ args = 0, pretend = 0, frame = 0
 2075              		@ frame_needed = 0, uses_anonymous_args = 0
 2076              		@ link register save eliminated.
 2077              	.LVL146:
 811:..\..\..\..\..\..\Dev\Library embedded l2c display\u8g2\csrc/u8g2_d_memory.c ****   #ifdef U8G2_USE_DYNAMIC_ALLOC
 812:..\..\..\..\..\..\Dev\Library embedded l2c display\u8g2\csrc/u8g2_d_memory.c ****   *page_cnt = 2;
 813:..\..\..\..\..\..\Dev\Library embedded l2c display\u8g2\csrc/u8g2_d_memory.c ****   return 0;
 814:..\..\..\..\..\..\Dev\Library embedded l2c display\u8g2\csrc/u8g2_d_memory.c ****   #else
 815:..\..\..\..\..\..\Dev\Library embedded l2c display\u8g2\csrc/u8g2_d_memory.c ****   static uint8_t buf[480];
 816:..\..\..\..\..\..\Dev\Library embedded l2c display\u8g2\csrc/u8g2_d_memory.c ****   *page_cnt = 2;
 2078              		.loc 1 816 0
 2079 0000 0223     		movs	r3, #2
 2080 0002 0370     		strb	r3, [r0]
 817:..\..\..\..\..\..\Dev\Library embedded l2c display\u8g2\csrc/u8g2_d_memory.c ****   return buf;
 818:..\..\..\..\..\..\Dev\Library embedded l2c display\u8g2\csrc/u8g2_d_memory.c ****   #endif
 819:..\..\..\..\..\..\Dev\Library embedded l2c display\u8g2\csrc/u8g2_d_memory.c **** }
 2081              		.loc 1 819 0
 2082 0004 0048     		ldr	r0, .L221
 2083              	.LVL147:
 2084 0006 7047     		bx	lr
 2085              	.L222:
 2086              		.align	2
 2087              	.L221:
 2088 0008 68DC0000 		.word	.LANCHOR11-48
ARM GAS  C:\Users\Abude\AppData\Local\Temp\ccndXIr0.s 			page 52


 2089              		.cfi_endproc
 2090              	.LFE73:
 2091              		.size	u8g2_m_30_8_2, .-u8g2_m_30_8_2
 2092              		.section	.text.u8g2_m_30_8_f,"ax",%progbits
 2093              		.align	2
 2094              		.global	u8g2_m_30_8_f
 2095              		.thumb
 2096              		.thumb_func
 2097              		.type	u8g2_m_30_8_f, %function
 2098              	u8g2_m_30_8_f:
 2099              	.LFB74:
 820:..\..\..\..\..\..\Dev\Library embedded l2c display\u8g2\csrc/u8g2_d_memory.c **** uint8_t *u8g2_m_30_8_f(uint8_t *page_cnt)
 821:..\..\..\..\..\..\Dev\Library embedded l2c display\u8g2\csrc/u8g2_d_memory.c **** {
 2100              		.loc 1 821 0
 2101              		.cfi_startproc
 2102              		@ args = 0, pretend = 0, frame = 0
 2103              		@ frame_needed = 0, uses_anonymous_args = 0
 2104              		@ link register save eliminated.
 2105              	.LVL148:
 822:..\..\..\..\..\..\Dev\Library embedded l2c display\u8g2\csrc/u8g2_d_memory.c ****   #ifdef U8G2_USE_DYNAMIC_ALLOC
 823:..\..\..\..\..\..\Dev\Library embedded l2c display\u8g2\csrc/u8g2_d_memory.c ****   *page_cnt = 8;
 824:..\..\..\..\..\..\Dev\Library embedded l2c display\u8g2\csrc/u8g2_d_memory.c ****   return 0;
 825:..\..\..\..\..\..\Dev\Library embedded l2c display\u8g2\csrc/u8g2_d_memory.c ****   #else
 826:..\..\..\..\..\..\Dev\Library embedded l2c display\u8g2\csrc/u8g2_d_memory.c ****   static uint8_t buf[1920];
 827:..\..\..\..\..\..\Dev\Library embedded l2c display\u8g2\csrc/u8g2_d_memory.c ****   *page_cnt = 8;
 2106              		.loc 1 827 0
 2107 0000 0823     		movs	r3, #8
 2108 0002 0370     		strb	r3, [r0]
 828:..\..\..\..\..\..\Dev\Library embedded l2c display\u8g2\csrc/u8g2_d_memory.c ****   return buf;
 829:..\..\..\..\..\..\Dev\Library embedded l2c display\u8g2\csrc/u8g2_d_memory.c ****   #endif
 830:..\..\..\..\..\..\Dev\Library embedded l2c display\u8g2\csrc/u8g2_d_memory.c **** }
 2109              		.loc 1 830 0
 2110 0004 0048     		ldr	r0, .L224
 2111              	.LVL149:
 2112 0006 7047     		bx	lr
 2113              	.L225:
 2114              		.align	2
 2115              	.L224:
 2116 0008 48DE0000 		.word	.LANCHOR11+432
 2117              		.cfi_endproc
 2118              	.LFE74:
 2119              		.size	u8g2_m_30_8_f, .-u8g2_m_30_8_f
 2120              		.section	.text.u8g2_m_30_15_1,"ax",%progbits
 2121              		.align	2
 2122              		.global	u8g2_m_30_15_1
 2123              		.thumb
 2124              		.thumb_func
 2125              		.type	u8g2_m_30_15_1, %function
 2126              	u8g2_m_30_15_1:
 2127              	.LFB75:
 831:..\..\..\..\..\..\Dev\Library embedded l2c display\u8g2\csrc/u8g2_d_memory.c **** uint8_t *u8g2_m_30_15_1(uint8_t *page_cnt)
 832:..\..\..\..\..\..\Dev\Library embedded l2c display\u8g2\csrc/u8g2_d_memory.c **** {
 2128              		.loc 1 832 0
 2129              		.cfi_startproc
 2130              		@ args = 0, pretend = 0, frame = 0
 2131              		@ frame_needed = 0, uses_anonymous_args = 0
 2132              		@ link register save eliminated.
ARM GAS  C:\Users\Abude\AppData\Local\Temp\ccndXIr0.s 			page 53


 2133              	.LVL150:
 833:..\..\..\..\..\..\Dev\Library embedded l2c display\u8g2\csrc/u8g2_d_memory.c ****   #ifdef U8G2_USE_DYNAMIC_ALLOC
 834:..\..\..\..\..\..\Dev\Library embedded l2c display\u8g2\csrc/u8g2_d_memory.c ****   *page_cnt = 1;
 835:..\..\..\..\..\..\Dev\Library embedded l2c display\u8g2\csrc/u8g2_d_memory.c ****   return 0;
 836:..\..\..\..\..\..\Dev\Library embedded l2c display\u8g2\csrc/u8g2_d_memory.c ****   #else
 837:..\..\..\..\..\..\Dev\Library embedded l2c display\u8g2\csrc/u8g2_d_memory.c ****   static uint8_t buf[240];
 838:..\..\..\..\..\..\Dev\Library embedded l2c display\u8g2\csrc/u8g2_d_memory.c ****   *page_cnt = 1;
 2134              		.loc 1 838 0
 2135 0000 0123     		movs	r3, #1
 2136 0002 0370     		strb	r3, [r0]
 839:..\..\..\..\..\..\Dev\Library embedded l2c display\u8g2\csrc/u8g2_d_memory.c ****   return buf;
 840:..\..\..\..\..\..\Dev\Library embedded l2c display\u8g2\csrc/u8g2_d_memory.c ****   #endif
 841:..\..\..\..\..\..\Dev\Library embedded l2c display\u8g2\csrc/u8g2_d_memory.c **** }
 2137              		.loc 1 841 0
 2138 0004 0048     		ldr	r0, .L227
 2139              	.LVL151:
 2140 0006 7047     		bx	lr
 2141              	.L228:
 2142              		.align	2
 2143              	.L227:
 2144 0008 C8E50000 		.word	.LANCHOR11+2352
 2145              		.cfi_endproc
 2146              	.LFE75:
 2147              		.size	u8g2_m_30_15_1, .-u8g2_m_30_15_1
 2148              		.section	.text.u8g2_m_30_15_2,"ax",%progbits
 2149              		.align	2
 2150              		.global	u8g2_m_30_15_2
 2151              		.thumb
 2152              		.thumb_func
 2153              		.type	u8g2_m_30_15_2, %function
 2154              	u8g2_m_30_15_2:
 2155              	.LFB76:
 842:..\..\..\..\..\..\Dev\Library embedded l2c display\u8g2\csrc/u8g2_d_memory.c **** uint8_t *u8g2_m_30_15_2(uint8_t *page_cnt)
 843:..\..\..\..\..\..\Dev\Library embedded l2c display\u8g2\csrc/u8g2_d_memory.c **** {
 2156              		.loc 1 843 0
 2157              		.cfi_startproc
 2158              		@ args = 0, pretend = 0, frame = 0
 2159              		@ frame_needed = 0, uses_anonymous_args = 0
 2160              		@ link register save eliminated.
 2161              	.LVL152:
 844:..\..\..\..\..\..\Dev\Library embedded l2c display\u8g2\csrc/u8g2_d_memory.c ****   #ifdef U8G2_USE_DYNAMIC_ALLOC
 845:..\..\..\..\..\..\Dev\Library embedded l2c display\u8g2\csrc/u8g2_d_memory.c ****   *page_cnt = 2;
 846:..\..\..\..\..\..\Dev\Library embedded l2c display\u8g2\csrc/u8g2_d_memory.c ****   return 0;
 847:..\..\..\..\..\..\Dev\Library embedded l2c display\u8g2\csrc/u8g2_d_memory.c ****   #else
 848:..\..\..\..\..\..\Dev\Library embedded l2c display\u8g2\csrc/u8g2_d_memory.c ****   static uint8_t buf[480];
 849:..\..\..\..\..\..\Dev\Library embedded l2c display\u8g2\csrc/u8g2_d_memory.c ****   *page_cnt = 2;
 2162              		.loc 1 849 0
 2163 0000 0223     		movs	r3, #2
 2164 0002 0370     		strb	r3, [r0]
 850:..\..\..\..\..\..\Dev\Library embedded l2c display\u8g2\csrc/u8g2_d_memory.c ****   return buf;
 851:..\..\..\..\..\..\Dev\Library embedded l2c display\u8g2\csrc/u8g2_d_memory.c ****   #endif
 852:..\..\..\..\..\..\Dev\Library embedded l2c display\u8g2\csrc/u8g2_d_memory.c **** }
 2165              		.loc 1 852 0
 2166 0004 0048     		ldr	r0, .L230
 2167              	.LVL153:
 2168 0006 7047     		bx	lr
 2169              	.L231:
ARM GAS  C:\Users\Abude\AppData\Local\Temp\ccndXIr0.s 			page 54


 2170              		.align	2
 2171              	.L230:
 2172 0008 B8E60000 		.word	.LANCHOR11+2592
 2173              		.cfi_endproc
 2174              	.LFE76:
 2175              		.size	u8g2_m_30_15_2, .-u8g2_m_30_15_2
 2176              		.section	.text.u8g2_m_30_15_f,"ax",%progbits
 2177              		.align	2
 2178              		.global	u8g2_m_30_15_f
 2179              		.thumb
 2180              		.thumb_func
 2181              		.type	u8g2_m_30_15_f, %function
 2182              	u8g2_m_30_15_f:
 2183              	.LFB77:
 853:..\..\..\..\..\..\Dev\Library embedded l2c display\u8g2\csrc/u8g2_d_memory.c **** uint8_t *u8g2_m_30_15_f(uint8_t *page_cnt)
 854:..\..\..\..\..\..\Dev\Library embedded l2c display\u8g2\csrc/u8g2_d_memory.c **** {
 2184              		.loc 1 854 0
 2185              		.cfi_startproc
 2186              		@ args = 0, pretend = 0, frame = 0
 2187              		@ frame_needed = 0, uses_anonymous_args = 0
 2188              		@ link register save eliminated.
 2189              	.LVL154:
 855:..\..\..\..\..\..\Dev\Library embedded l2c display\u8g2\csrc/u8g2_d_memory.c ****   #ifdef U8G2_USE_DYNAMIC_ALLOC
 856:..\..\..\..\..\..\Dev\Library embedded l2c display\u8g2\csrc/u8g2_d_memory.c ****   *page_cnt = 15;
 857:..\..\..\..\..\..\Dev\Library embedded l2c display\u8g2\csrc/u8g2_d_memory.c ****   return 0;
 858:..\..\..\..\..\..\Dev\Library embedded l2c display\u8g2\csrc/u8g2_d_memory.c ****   #else
 859:..\..\..\..\..\..\Dev\Library embedded l2c display\u8g2\csrc/u8g2_d_memory.c ****   static uint8_t buf[3600];
 860:..\..\..\..\..\..\Dev\Library embedded l2c display\u8g2\csrc/u8g2_d_memory.c ****   *page_cnt = 15;
 2190              		.loc 1 860 0
 2191 0000 0F23     		movs	r3, #15
 2192 0002 0370     		strb	r3, [r0]
 861:..\..\..\..\..\..\Dev\Library embedded l2c display\u8g2\csrc/u8g2_d_memory.c ****   return buf;
 862:..\..\..\..\..\..\Dev\Library embedded l2c display\u8g2\csrc/u8g2_d_memory.c ****   #endif
 863:..\..\..\..\..\..\Dev\Library embedded l2c display\u8g2\csrc/u8g2_d_memory.c **** }
 2193              		.loc 1 863 0
 2194 0004 0048     		ldr	r0, .L233
 2195              	.LVL155:
 2196 0006 7047     		bx	lr
 2197              	.L234:
 2198              		.align	2
 2199              	.L233:
 2200 0008 98E80000 		.word	.LANCHOR11+3072
 2201              		.cfi_endproc
 2202              	.LFE77:
 2203              		.size	u8g2_m_30_15_f, .-u8g2_m_30_15_f
 2204              		.section	.text.u8g2_m_30_16_1,"ax",%progbits
 2205              		.align	2
 2206              		.global	u8g2_m_30_16_1
 2207              		.thumb
 2208              		.thumb_func
 2209              		.type	u8g2_m_30_16_1, %function
 2210              	u8g2_m_30_16_1:
 2211              	.LFB78:
 864:..\..\..\..\..\..\Dev\Library embedded l2c display\u8g2\csrc/u8g2_d_memory.c **** uint8_t *u8g2_m_30_16_1(uint8_t *page_cnt)
 865:..\..\..\..\..\..\Dev\Library embedded l2c display\u8g2\csrc/u8g2_d_memory.c **** {
 2212              		.loc 1 865 0
 2213              		.cfi_startproc
ARM GAS  C:\Users\Abude\AppData\Local\Temp\ccndXIr0.s 			page 55


 2214              		@ args = 0, pretend = 0, frame = 0
 2215              		@ frame_needed = 0, uses_anonymous_args = 0
 2216              		@ link register save eliminated.
 2217              	.LVL156:
 866:..\..\..\..\..\..\Dev\Library embedded l2c display\u8g2\csrc/u8g2_d_memory.c ****   #ifdef U8G2_USE_DYNAMIC_ALLOC
 867:..\..\..\..\..\..\Dev\Library embedded l2c display\u8g2\csrc/u8g2_d_memory.c ****   *page_cnt = 1;
 868:..\..\..\..\..\..\Dev\Library embedded l2c display\u8g2\csrc/u8g2_d_memory.c ****   return 0;
 869:..\..\..\..\..\..\Dev\Library embedded l2c display\u8g2\csrc/u8g2_d_memory.c ****   #else
 870:..\..\..\..\..\..\Dev\Library embedded l2c display\u8g2\csrc/u8g2_d_memory.c ****   static uint8_t buf[240];
 871:..\..\..\..\..\..\Dev\Library embedded l2c display\u8g2\csrc/u8g2_d_memory.c ****   *page_cnt = 1;
 2218              		.loc 1 871 0
 2219 0000 0123     		movs	r3, #1
 2220 0002 0370     		strb	r3, [r0]
 872:..\..\..\..\..\..\Dev\Library embedded l2c display\u8g2\csrc/u8g2_d_memory.c ****   return buf;
 873:..\..\..\..\..\..\Dev\Library embedded l2c display\u8g2\csrc/u8g2_d_memory.c ****   #endif
 874:..\..\..\..\..\..\Dev\Library embedded l2c display\u8g2\csrc/u8g2_d_memory.c **** }
 2221              		.loc 1 874 0
 2222 0004 0048     		ldr	r0, .L236
 2223              	.LVL157:
 2224 0006 7047     		bx	lr
 2225              	.L237:
 2226              		.align	2
 2227              	.L236:
 2228 0008 A8F60000 		.word	.LANCHOR12+2328
 2229              		.cfi_endproc
 2230              	.LFE78:
 2231              		.size	u8g2_m_30_16_1, .-u8g2_m_30_16_1
 2232              		.section	.text.u8g2_m_30_16_2,"ax",%progbits
 2233              		.align	2
 2234              		.global	u8g2_m_30_16_2
 2235              		.thumb
 2236              		.thumb_func
 2237              		.type	u8g2_m_30_16_2, %function
 2238              	u8g2_m_30_16_2:
 2239              	.LFB79:
 875:..\..\..\..\..\..\Dev\Library embedded l2c display\u8g2\csrc/u8g2_d_memory.c **** uint8_t *u8g2_m_30_16_2(uint8_t *page_cnt)
 876:..\..\..\..\..\..\Dev\Library embedded l2c display\u8g2\csrc/u8g2_d_memory.c **** {
 2240              		.loc 1 876 0
 2241              		.cfi_startproc
 2242              		@ args = 0, pretend = 0, frame = 0
 2243              		@ frame_needed = 0, uses_anonymous_args = 0
 2244              		@ link register save eliminated.
 2245              	.LVL158:
 877:..\..\..\..\..\..\Dev\Library embedded l2c display\u8g2\csrc/u8g2_d_memory.c ****   #ifdef U8G2_USE_DYNAMIC_ALLOC
 878:..\..\..\..\..\..\Dev\Library embedded l2c display\u8g2\csrc/u8g2_d_memory.c ****   *page_cnt = 2;
 879:..\..\..\..\..\..\Dev\Library embedded l2c display\u8g2\csrc/u8g2_d_memory.c ****   return 0;
 880:..\..\..\..\..\..\Dev\Library embedded l2c display\u8g2\csrc/u8g2_d_memory.c ****   #else
 881:..\..\..\..\..\..\Dev\Library embedded l2c display\u8g2\csrc/u8g2_d_memory.c ****   static uint8_t buf[480];
 882:..\..\..\..\..\..\Dev\Library embedded l2c display\u8g2\csrc/u8g2_d_memory.c ****   *page_cnt = 2;
 2246              		.loc 1 882 0
 2247 0000 0223     		movs	r3, #2
 2248 0002 0370     		strb	r3, [r0]
 883:..\..\..\..\..\..\Dev\Library embedded l2c display\u8g2\csrc/u8g2_d_memory.c ****   return buf;
 884:..\..\..\..\..\..\Dev\Library embedded l2c display\u8g2\csrc/u8g2_d_memory.c ****   #endif
 885:..\..\..\..\..\..\Dev\Library embedded l2c display\u8g2\csrc/u8g2_d_memory.c **** }
 2249              		.loc 1 885 0
 2250 0004 0048     		ldr	r0, .L239
ARM GAS  C:\Users\Abude\AppData\Local\Temp\ccndXIr0.s 			page 56


 2251              	.LVL159:
 2252 0006 7047     		bx	lr
 2253              	.L240:
 2254              		.align	2
 2255              	.L239:
 2256 0008 98F70000 		.word	.LANCHOR12+2568
 2257              		.cfi_endproc
 2258              	.LFE79:
 2259              		.size	u8g2_m_30_16_2, .-u8g2_m_30_16_2
 2260              		.section	.text.u8g2_m_30_16_f,"ax",%progbits
 2261              		.align	2
 2262              		.global	u8g2_m_30_16_f
 2263              		.thumb
 2264              		.thumb_func
 2265              		.type	u8g2_m_30_16_f, %function
 2266              	u8g2_m_30_16_f:
 2267              	.LFB80:
 886:..\..\..\..\..\..\Dev\Library embedded l2c display\u8g2\csrc/u8g2_d_memory.c **** uint8_t *u8g2_m_30_16_f(uint8_t *page_cnt)
 887:..\..\..\..\..\..\Dev\Library embedded l2c display\u8g2\csrc/u8g2_d_memory.c **** {
 2268              		.loc 1 887 0
 2269              		.cfi_startproc
 2270              		@ args = 0, pretend = 0, frame = 0
 2271              		@ frame_needed = 0, uses_anonymous_args = 0
 2272              		@ link register save eliminated.
 2273              	.LVL160:
 888:..\..\..\..\..\..\Dev\Library embedded l2c display\u8g2\csrc/u8g2_d_memory.c ****   #ifdef U8G2_USE_DYNAMIC_ALLOC
 889:..\..\..\..\..\..\Dev\Library embedded l2c display\u8g2\csrc/u8g2_d_memory.c ****   *page_cnt = 16;
 890:..\..\..\..\..\..\Dev\Library embedded l2c display\u8g2\csrc/u8g2_d_memory.c ****   return 0;
 891:..\..\..\..\..\..\Dev\Library embedded l2c display\u8g2\csrc/u8g2_d_memory.c ****   #else
 892:..\..\..\..\..\..\Dev\Library embedded l2c display\u8g2\csrc/u8g2_d_memory.c ****   static uint8_t buf[3840];
 893:..\..\..\..\..\..\Dev\Library embedded l2c display\u8g2\csrc/u8g2_d_memory.c ****   *page_cnt = 16;
 2274              		.loc 1 893 0
 2275 0000 1023     		movs	r3, #16
 2276 0002 0370     		strb	r3, [r0]
 894:..\..\..\..\..\..\Dev\Library embedded l2c display\u8g2\csrc/u8g2_d_memory.c ****   return buf;
 895:..\..\..\..\..\..\Dev\Library embedded l2c display\u8g2\csrc/u8g2_d_memory.c ****   #endif
 896:..\..\..\..\..\..\Dev\Library embedded l2c display\u8g2\csrc/u8g2_d_memory.c **** }
 2277              		.loc 1 896 0
 2278 0004 0048     		ldr	r0, .L242
 2279              	.LVL161:
 2280 0006 7047     		bx	lr
 2281              	.L243:
 2282              		.align	2
 2283              	.L242:
 2284 0008 78F90000 		.word	.LANCHOR12+3048
 2285              		.cfi_endproc
 2286              	.LFE80:
 2287              		.size	u8g2_m_30_16_f, .-u8g2_m_30_16_f
 2288              		.section	.text.u8g2_m_20_16_1,"ax",%progbits
 2289              		.align	2
 2290              		.global	u8g2_m_20_16_1
 2291              		.thumb
 2292              		.thumb_func
 2293              		.type	u8g2_m_20_16_1, %function
 2294              	u8g2_m_20_16_1:
 2295              	.LFB81:
 897:..\..\..\..\..\..\Dev\Library embedded l2c display\u8g2\csrc/u8g2_d_memory.c **** uint8_t *u8g2_m_20_16_1(uint8_t *page_cnt)
ARM GAS  C:\Users\Abude\AppData\Local\Temp\ccndXIr0.s 			page 57


 898:..\..\..\..\..\..\Dev\Library embedded l2c display\u8g2\csrc/u8g2_d_memory.c **** {
 2296              		.loc 1 898 0
 2297              		.cfi_startproc
 2298              		@ args = 0, pretend = 0, frame = 0
 2299              		@ frame_needed = 0, uses_anonymous_args = 0
 2300              		@ link register save eliminated.
 2301              	.LVL162:
 899:..\..\..\..\..\..\Dev\Library embedded l2c display\u8g2\csrc/u8g2_d_memory.c ****   #ifdef U8G2_USE_DYNAMIC_ALLOC
 900:..\..\..\..\..\..\Dev\Library embedded l2c display\u8g2\csrc/u8g2_d_memory.c ****   *page_cnt = 1;
 901:..\..\..\..\..\..\Dev\Library embedded l2c display\u8g2\csrc/u8g2_d_memory.c ****   return 0;
 902:..\..\..\..\..\..\Dev\Library embedded l2c display\u8g2\csrc/u8g2_d_memory.c ****   #else
 903:..\..\..\..\..\..\Dev\Library embedded l2c display\u8g2\csrc/u8g2_d_memory.c ****   static uint8_t buf[160];
 904:..\..\..\..\..\..\Dev\Library embedded l2c display\u8g2\csrc/u8g2_d_memory.c ****   *page_cnt = 1;
 2302              		.loc 1 904 0
 2303 0000 0123     		movs	r3, #1
 2304 0002 0370     		strb	r3, [r0]
 905:..\..\..\..\..\..\Dev\Library embedded l2c display\u8g2\csrc/u8g2_d_memory.c ****   return buf;
 906:..\..\..\..\..\..\Dev\Library embedded l2c display\u8g2\csrc/u8g2_d_memory.c ****   #endif
 907:..\..\..\..\..\..\Dev\Library embedded l2c display\u8g2\csrc/u8g2_d_memory.c **** }
 2305              		.loc 1 907 0
 2306 0004 0048     		ldr	r0, .L245
 2307              	.LVL163:
 2308 0006 7047     		bx	lr
 2309              	.L246:
 2310              		.align	2
 2311              	.L245:
 2312 0008 78080100 		.word	.LANCHOR13+2544
 2313              		.cfi_endproc
 2314              	.LFE81:
 2315              		.size	u8g2_m_20_16_1, .-u8g2_m_20_16_1
 2316              		.section	.text.u8g2_m_20_16_2,"ax",%progbits
 2317              		.align	2
 2318              		.global	u8g2_m_20_16_2
 2319              		.thumb
 2320              		.thumb_func
 2321              		.type	u8g2_m_20_16_2, %function
 2322              	u8g2_m_20_16_2:
 2323              	.LFB82:
 908:..\..\..\..\..\..\Dev\Library embedded l2c display\u8g2\csrc/u8g2_d_memory.c **** uint8_t *u8g2_m_20_16_2(uint8_t *page_cnt)
 909:..\..\..\..\..\..\Dev\Library embedded l2c display\u8g2\csrc/u8g2_d_memory.c **** {
 2324              		.loc 1 909 0
 2325              		.cfi_startproc
 2326              		@ args = 0, pretend = 0, frame = 0
 2327              		@ frame_needed = 0, uses_anonymous_args = 0
 2328              		@ link register save eliminated.
 2329              	.LVL164:
 910:..\..\..\..\..\..\Dev\Library embedded l2c display\u8g2\csrc/u8g2_d_memory.c ****   #ifdef U8G2_USE_DYNAMIC_ALLOC
 911:..\..\..\..\..\..\Dev\Library embedded l2c display\u8g2\csrc/u8g2_d_memory.c ****   *page_cnt = 2;
 912:..\..\..\..\..\..\Dev\Library embedded l2c display\u8g2\csrc/u8g2_d_memory.c ****   return 0;
 913:..\..\..\..\..\..\Dev\Library embedded l2c display\u8g2\csrc/u8g2_d_memory.c ****   #else
 914:..\..\..\..\..\..\Dev\Library embedded l2c display\u8g2\csrc/u8g2_d_memory.c ****   static uint8_t buf[320];
 915:..\..\..\..\..\..\Dev\Library embedded l2c display\u8g2\csrc/u8g2_d_memory.c ****   *page_cnt = 2;
 2330              		.loc 1 915 0
 2331 0000 0223     		movs	r3, #2
 2332 0002 0370     		strb	r3, [r0]
 916:..\..\..\..\..\..\Dev\Library embedded l2c display\u8g2\csrc/u8g2_d_memory.c ****   return buf;
 917:..\..\..\..\..\..\Dev\Library embedded l2c display\u8g2\csrc/u8g2_d_memory.c ****   #endif
ARM GAS  C:\Users\Abude\AppData\Local\Temp\ccndXIr0.s 			page 58


 918:..\..\..\..\..\..\Dev\Library embedded l2c display\u8g2\csrc/u8g2_d_memory.c **** }
 2333              		.loc 1 918 0
 2334 0004 0048     		ldr	r0, .L248
 2335              	.LVL165:
 2336 0006 7047     		bx	lr
 2337              	.L249:
 2338              		.align	2
 2339              	.L248:
 2340 0008 18090100 		.word	.LANCHOR13+2704
 2341              		.cfi_endproc
 2342              	.LFE82:
 2343              		.size	u8g2_m_20_16_2, .-u8g2_m_20_16_2
 2344              		.section	.text.u8g2_m_20_16_f,"ax",%progbits
 2345              		.align	2
 2346              		.global	u8g2_m_20_16_f
 2347              		.thumb
 2348              		.thumb_func
 2349              		.type	u8g2_m_20_16_f, %function
 2350              	u8g2_m_20_16_f:
 2351              	.LFB83:
 919:..\..\..\..\..\..\Dev\Library embedded l2c display\u8g2\csrc/u8g2_d_memory.c **** uint8_t *u8g2_m_20_16_f(uint8_t *page_cnt)
 920:..\..\..\..\..\..\Dev\Library embedded l2c display\u8g2\csrc/u8g2_d_memory.c **** {
 2352              		.loc 1 920 0
 2353              		.cfi_startproc
 2354              		@ args = 0, pretend = 0, frame = 0
 2355              		@ frame_needed = 0, uses_anonymous_args = 0
 2356              		@ link register save eliminated.
 2357              	.LVL166:
 921:..\..\..\..\..\..\Dev\Library embedded l2c display\u8g2\csrc/u8g2_d_memory.c ****   #ifdef U8G2_USE_DYNAMIC_ALLOC
 922:..\..\..\..\..\..\Dev\Library embedded l2c display\u8g2\csrc/u8g2_d_memory.c ****   *page_cnt = 16;
 923:..\..\..\..\..\..\Dev\Library embedded l2c display\u8g2\csrc/u8g2_d_memory.c ****   return 0;
 924:..\..\..\..\..\..\Dev\Library embedded l2c display\u8g2\csrc/u8g2_d_memory.c ****   #else
 925:..\..\..\..\..\..\Dev\Library embedded l2c display\u8g2\csrc/u8g2_d_memory.c ****   static uint8_t buf[2560];
 926:..\..\..\..\..\..\Dev\Library embedded l2c display\u8g2\csrc/u8g2_d_memory.c ****   *page_cnt = 16;
 2358              		.loc 1 926 0
 2359 0000 1023     		movs	r3, #16
 2360 0002 0370     		strb	r3, [r0]
 927:..\..\..\..\..\..\Dev\Library embedded l2c display\u8g2\csrc/u8g2_d_memory.c ****   return buf;
 928:..\..\..\..\..\..\Dev\Library embedded l2c display\u8g2\csrc/u8g2_d_memory.c ****   #endif
 929:..\..\..\..\..\..\Dev\Library embedded l2c display\u8g2\csrc/u8g2_d_memory.c **** }
 2361              		.loc 1 929 0
 2362 0004 0048     		ldr	r0, .L251
 2363              	.LVL167:
 2364 0006 7047     		bx	lr
 2365              	.L252:
 2366              		.align	2
 2367              	.L251:
 2368 0008 580A0100 		.word	.LANCHOR13+3024
 2369              		.cfi_endproc
 2370              	.LFE83:
 2371              		.size	u8g2_m_20_16_f, .-u8g2_m_20_16_f
 2372              		.section	.text.u8g2_m_24_12_1,"ax",%progbits
 2373              		.align	2
 2374              		.global	u8g2_m_24_12_1
 2375              		.thumb
 2376              		.thumb_func
 2377              		.type	u8g2_m_24_12_1, %function
ARM GAS  C:\Users\Abude\AppData\Local\Temp\ccndXIr0.s 			page 59


 2378              	u8g2_m_24_12_1:
 2379              	.LFB84:
 930:..\..\..\..\..\..\Dev\Library embedded l2c display\u8g2\csrc/u8g2_d_memory.c **** uint8_t *u8g2_m_24_12_1(uint8_t *page_cnt)
 931:..\..\..\..\..\..\Dev\Library embedded l2c display\u8g2\csrc/u8g2_d_memory.c **** {
 2380              		.loc 1 931 0
 2381              		.cfi_startproc
 2382              		@ args = 0, pretend = 0, frame = 0
 2383              		@ frame_needed = 0, uses_anonymous_args = 0
 2384              		@ link register save eliminated.
 2385              	.LVL168:
 932:..\..\..\..\..\..\Dev\Library embedded l2c display\u8g2\csrc/u8g2_d_memory.c ****   #ifdef U8G2_USE_DYNAMIC_ALLOC
 933:..\..\..\..\..\..\Dev\Library embedded l2c display\u8g2\csrc/u8g2_d_memory.c ****   *page_cnt = 1;
 934:..\..\..\..\..\..\Dev\Library embedded l2c display\u8g2\csrc/u8g2_d_memory.c ****   return 0;
 935:..\..\..\..\..\..\Dev\Library embedded l2c display\u8g2\csrc/u8g2_d_memory.c ****   #else
 936:..\..\..\..\..\..\Dev\Library embedded l2c display\u8g2\csrc/u8g2_d_memory.c ****   static uint8_t buf[192];
 937:..\..\..\..\..\..\Dev\Library embedded l2c display\u8g2\csrc/u8g2_d_memory.c ****   *page_cnt = 1;
 2386              		.loc 1 937 0
 2387 0000 0123     		movs	r3, #1
 2388 0002 0370     		strb	r3, [r0]
 938:..\..\..\..\..\..\Dev\Library embedded l2c display\u8g2\csrc/u8g2_d_memory.c ****   return buf;
 939:..\..\..\..\..\..\Dev\Library embedded l2c display\u8g2\csrc/u8g2_d_memory.c ****   #endif
 940:..\..\..\..\..\..\Dev\Library embedded l2c display\u8g2\csrc/u8g2_d_memory.c **** }
 2389              		.loc 1 940 0
 2390 0004 0048     		ldr	r0, .L254
 2391              	.LVL169:
 2392 0006 7047     		bx	lr
 2393              	.L255:
 2394              		.align	2
 2395              	.L254:
 2396 0008 58140100 		.word	.LANCHOR14+1240
 2397              		.cfi_endproc
 2398              	.LFE84:
 2399              		.size	u8g2_m_24_12_1, .-u8g2_m_24_12_1
 2400              		.section	.text.u8g2_m_24_12_2,"ax",%progbits
 2401              		.align	2
 2402              		.global	u8g2_m_24_12_2
 2403              		.thumb
 2404              		.thumb_func
 2405              		.type	u8g2_m_24_12_2, %function
 2406              	u8g2_m_24_12_2:
 2407              	.LFB85:
 941:..\..\..\..\..\..\Dev\Library embedded l2c display\u8g2\csrc/u8g2_d_memory.c **** uint8_t *u8g2_m_24_12_2(uint8_t *page_cnt)
 942:..\..\..\..\..\..\Dev\Library embedded l2c display\u8g2\csrc/u8g2_d_memory.c **** {
 2408              		.loc 1 942 0
 2409              		.cfi_startproc
 2410              		@ args = 0, pretend = 0, frame = 0
 2411              		@ frame_needed = 0, uses_anonymous_args = 0
 2412              		@ link register save eliminated.
 2413              	.LVL170:
 943:..\..\..\..\..\..\Dev\Library embedded l2c display\u8g2\csrc/u8g2_d_memory.c ****   #ifdef U8G2_USE_DYNAMIC_ALLOC
 944:..\..\..\..\..\..\Dev\Library embedded l2c display\u8g2\csrc/u8g2_d_memory.c ****   *page_cnt = 2;
 945:..\..\..\..\..\..\Dev\Library embedded l2c display\u8g2\csrc/u8g2_d_memory.c ****   return 0;
 946:..\..\..\..\..\..\Dev\Library embedded l2c display\u8g2\csrc/u8g2_d_memory.c ****   #else
 947:..\..\..\..\..\..\Dev\Library embedded l2c display\u8g2\csrc/u8g2_d_memory.c ****   static uint8_t buf[384];
 948:..\..\..\..\..\..\Dev\Library embedded l2c display\u8g2\csrc/u8g2_d_memory.c ****   *page_cnt = 2;
 2414              		.loc 1 948 0
 2415 0000 0223     		movs	r3, #2
ARM GAS  C:\Users\Abude\AppData\Local\Temp\ccndXIr0.s 			page 60


 2416 0002 0370     		strb	r3, [r0]
 949:..\..\..\..\..\..\Dev\Library embedded l2c display\u8g2\csrc/u8g2_d_memory.c ****   return buf;
 950:..\..\..\..\..\..\Dev\Library embedded l2c display\u8g2\csrc/u8g2_d_memory.c ****   #endif
 951:..\..\..\..\..\..\Dev\Library embedded l2c display\u8g2\csrc/u8g2_d_memory.c **** }
 2417              		.loc 1 951 0
 2418 0004 0048     		ldr	r0, .L257
 2419              	.LVL171:
 2420 0006 7047     		bx	lr
 2421              	.L258:
 2422              		.align	2
 2423              	.L257:
 2424 0008 18150100 		.word	.LANCHOR14+1432
 2425              		.cfi_endproc
 2426              	.LFE85:
 2427              		.size	u8g2_m_24_12_2, .-u8g2_m_24_12_2
 2428              		.section	.text.u8g2_m_24_12_f,"ax",%progbits
 2429              		.align	2
 2430              		.global	u8g2_m_24_12_f
 2431              		.thumb
 2432              		.thumb_func
 2433              		.type	u8g2_m_24_12_f, %function
 2434              	u8g2_m_24_12_f:
 2435              	.LFB86:
 952:..\..\..\..\..\..\Dev\Library embedded l2c display\u8g2\csrc/u8g2_d_memory.c **** uint8_t *u8g2_m_24_12_f(uint8_t *page_cnt)
 953:..\..\..\..\..\..\Dev\Library embedded l2c display\u8g2\csrc/u8g2_d_memory.c **** {
 2436              		.loc 1 953 0
 2437              		.cfi_startproc
 2438              		@ args = 0, pretend = 0, frame = 0
 2439              		@ frame_needed = 0, uses_anonymous_args = 0
 2440              		@ link register save eliminated.
 2441              	.LVL172:
 954:..\..\..\..\..\..\Dev\Library embedded l2c display\u8g2\csrc/u8g2_d_memory.c ****   #ifdef U8G2_USE_DYNAMIC_ALLOC
 955:..\..\..\..\..\..\Dev\Library embedded l2c display\u8g2\csrc/u8g2_d_memory.c ****   *page_cnt = 12;
 956:..\..\..\..\..\..\Dev\Library embedded l2c display\u8g2\csrc/u8g2_d_memory.c ****   return 0;
 957:..\..\..\..\..\..\Dev\Library embedded l2c display\u8g2\csrc/u8g2_d_memory.c ****   #else
 958:..\..\..\..\..\..\Dev\Library embedded l2c display\u8g2\csrc/u8g2_d_memory.c ****   static uint8_t buf[2304];
 959:..\..\..\..\..\..\Dev\Library embedded l2c display\u8g2\csrc/u8g2_d_memory.c ****   *page_cnt = 12;
 2442              		.loc 1 959 0
 2443 0000 0C23     		movs	r3, #12
 2444 0002 0370     		strb	r3, [r0]
 960:..\..\..\..\..\..\Dev\Library embedded l2c display\u8g2\csrc/u8g2_d_memory.c ****   return buf;
 961:..\..\..\..\..\..\Dev\Library embedded l2c display\u8g2\csrc/u8g2_d_memory.c ****   #endif
 962:..\..\..\..\..\..\Dev\Library embedded l2c display\u8g2\csrc/u8g2_d_memory.c **** }
 2445              		.loc 1 962 0
 2446 0004 0048     		ldr	r0, .L260
 2447              	.LVL173:
 2448 0006 7047     		bx	lr
 2449              	.L261:
 2450              		.align	2
 2451              	.L260:
 2452 0008 98160100 		.word	.LANCHOR14+1816
 2453              		.cfi_endproc
 2454              	.LFE86:
 2455              		.size	u8g2_m_24_12_f, .-u8g2_m_24_12_f
 2456              		.section	.text.u8g2_m_20_13_1,"ax",%progbits
 2457              		.align	2
 2458              		.global	u8g2_m_20_13_1
ARM GAS  C:\Users\Abude\AppData\Local\Temp\ccndXIr0.s 			page 61


 2459              		.thumb
 2460              		.thumb_func
 2461              		.type	u8g2_m_20_13_1, %function
 2462              	u8g2_m_20_13_1:
 2463              	.LFB87:
 963:..\..\..\..\..\..\Dev\Library embedded l2c display\u8g2\csrc/u8g2_d_memory.c **** uint8_t *u8g2_m_20_13_1(uint8_t *page_cnt)
 964:..\..\..\..\..\..\Dev\Library embedded l2c display\u8g2\csrc/u8g2_d_memory.c **** {
 2464              		.loc 1 964 0
 2465              		.cfi_startproc
 2466              		@ args = 0, pretend = 0, frame = 0
 2467              		@ frame_needed = 0, uses_anonymous_args = 0
 2468              		@ link register save eliminated.
 2469              	.LVL174:
 965:..\..\..\..\..\..\Dev\Library embedded l2c display\u8g2\csrc/u8g2_d_memory.c ****   #ifdef U8G2_USE_DYNAMIC_ALLOC
 966:..\..\..\..\..\..\Dev\Library embedded l2c display\u8g2\csrc/u8g2_d_memory.c ****   *page_cnt = 1;
 967:..\..\..\..\..\..\Dev\Library embedded l2c display\u8g2\csrc/u8g2_d_memory.c ****   return 0;
 968:..\..\..\..\..\..\Dev\Library embedded l2c display\u8g2\csrc/u8g2_d_memory.c ****   #else
 969:..\..\..\..\..\..\Dev\Library embedded l2c display\u8g2\csrc/u8g2_d_memory.c ****   static uint8_t buf[160];
 970:..\..\..\..\..\..\Dev\Library embedded l2c display\u8g2\csrc/u8g2_d_memory.c ****   *page_cnt = 1;
 2470              		.loc 1 970 0
 2471 0000 0123     		movs	r3, #1
 2472 0002 0370     		strb	r3, [r0]
 971:..\..\..\..\..\..\Dev\Library embedded l2c display\u8g2\csrc/u8g2_d_memory.c ****   return buf;
 972:..\..\..\..\..\..\Dev\Library embedded l2c display\u8g2\csrc/u8g2_d_memory.c ****   #endif
 973:..\..\..\..\..\..\Dev\Library embedded l2c display\u8g2\csrc/u8g2_d_memory.c **** }
 2473              		.loc 1 973 0
 2474 0004 0048     		ldr	r0, .L263
 2475              	.LVL175:
 2476 0006 7047     		bx	lr
 2477              	.L264:
 2478              		.align	2
 2479              	.L263:
 2480 0008 981F0100 		.word	.LANCHOR15-224
 2481              		.cfi_endproc
 2482              	.LFE87:
 2483              		.size	u8g2_m_20_13_1, .-u8g2_m_20_13_1
 2484              		.section	.text.u8g2_m_20_13_2,"ax",%progbits
 2485              		.align	2
 2486              		.global	u8g2_m_20_13_2
 2487              		.thumb
 2488              		.thumb_func
 2489              		.type	u8g2_m_20_13_2, %function
 2490              	u8g2_m_20_13_2:
 2491              	.LFB88:
 974:..\..\..\..\..\..\Dev\Library embedded l2c display\u8g2\csrc/u8g2_d_memory.c **** uint8_t *u8g2_m_20_13_2(uint8_t *page_cnt)
 975:..\..\..\..\..\..\Dev\Library embedded l2c display\u8g2\csrc/u8g2_d_memory.c **** {
 2492              		.loc 1 975 0
 2493              		.cfi_startproc
 2494              		@ args = 0, pretend = 0, frame = 0
 2495              		@ frame_needed = 0, uses_anonymous_args = 0
 2496              		@ link register save eliminated.
 2497              	.LVL176:
 976:..\..\..\..\..\..\Dev\Library embedded l2c display\u8g2\csrc/u8g2_d_memory.c ****   #ifdef U8G2_USE_DYNAMIC_ALLOC
 977:..\..\..\..\..\..\Dev\Library embedded l2c display\u8g2\csrc/u8g2_d_memory.c ****   *page_cnt = 2;
 978:..\..\..\..\..\..\Dev\Library embedded l2c display\u8g2\csrc/u8g2_d_memory.c ****   return 0;
 979:..\..\..\..\..\..\Dev\Library embedded l2c display\u8g2\csrc/u8g2_d_memory.c ****   #else
 980:..\..\..\..\..\..\Dev\Library embedded l2c display\u8g2\csrc/u8g2_d_memory.c ****   static uint8_t buf[320];
ARM GAS  C:\Users\Abude\AppData\Local\Temp\ccndXIr0.s 			page 62


 981:..\..\..\..\..\..\Dev\Library embedded l2c display\u8g2\csrc/u8g2_d_memory.c ****   *page_cnt = 2;
 2498              		.loc 1 981 0
 2499 0000 0223     		movs	r3, #2
 2500 0002 0370     		strb	r3, [r0]
 982:..\..\..\..\..\..\Dev\Library embedded l2c display\u8g2\csrc/u8g2_d_memory.c ****   return buf;
 983:..\..\..\..\..\..\Dev\Library embedded l2c display\u8g2\csrc/u8g2_d_memory.c ****   #endif
 984:..\..\..\..\..\..\Dev\Library embedded l2c display\u8g2\csrc/u8g2_d_memory.c **** }
 2501              		.loc 1 984 0
 2502 0004 0048     		ldr	r0, .L266
 2503              	.LVL177:
 2504 0006 7047     		bx	lr
 2505              	.L267:
 2506              		.align	2
 2507              	.L266:
 2508 0008 38200100 		.word	.LANCHOR15-64
 2509              		.cfi_endproc
 2510              	.LFE88:
 2511              		.size	u8g2_m_20_13_2, .-u8g2_m_20_13_2
 2512              		.section	.text.u8g2_m_20_13_f,"ax",%progbits
 2513              		.align	2
 2514              		.global	u8g2_m_20_13_f
 2515              		.thumb
 2516              		.thumb_func
 2517              		.type	u8g2_m_20_13_f, %function
 2518              	u8g2_m_20_13_f:
 2519              	.LFB89:
 985:..\..\..\..\..\..\Dev\Library embedded l2c display\u8g2\csrc/u8g2_d_memory.c **** uint8_t *u8g2_m_20_13_f(uint8_t *page_cnt)
 986:..\..\..\..\..\..\Dev\Library embedded l2c display\u8g2\csrc/u8g2_d_memory.c **** {
 2520              		.loc 1 986 0
 2521              		.cfi_startproc
 2522              		@ args = 0, pretend = 0, frame = 0
 2523              		@ frame_needed = 0, uses_anonymous_args = 0
 2524              		@ link register save eliminated.
 2525              	.LVL178:
 987:..\..\..\..\..\..\Dev\Library embedded l2c display\u8g2\csrc/u8g2_d_memory.c ****   #ifdef U8G2_USE_DYNAMIC_ALLOC
 988:..\..\..\..\..\..\Dev\Library embedded l2c display\u8g2\csrc/u8g2_d_memory.c ****   *page_cnt = 13;
 989:..\..\..\..\..\..\Dev\Library embedded l2c display\u8g2\csrc/u8g2_d_memory.c ****   return 0;
 990:..\..\..\..\..\..\Dev\Library embedded l2c display\u8g2\csrc/u8g2_d_memory.c ****   #else
 991:..\..\..\..\..\..\Dev\Library embedded l2c display\u8g2\csrc/u8g2_d_memory.c ****   static uint8_t buf[2080];
 992:..\..\..\..\..\..\Dev\Library embedded l2c display\u8g2\csrc/u8g2_d_memory.c ****   *page_cnt = 13;
 2526              		.loc 1 992 0
 2527 0000 0D23     		movs	r3, #13
 2528 0002 0370     		strb	r3, [r0]
 993:..\..\..\..\..\..\Dev\Library embedded l2c display\u8g2\csrc/u8g2_d_memory.c ****   return buf;
 994:..\..\..\..\..\..\Dev\Library embedded l2c display\u8g2\csrc/u8g2_d_memory.c ****   #endif
 995:..\..\..\..\..\..\Dev\Library embedded l2c display\u8g2\csrc/u8g2_d_memory.c **** }
 2529              		.loc 1 995 0
 2530 0004 0048     		ldr	r0, .L269
 2531              	.LVL179:
 2532 0006 7047     		bx	lr
 2533              	.L270:
 2534              		.align	2
 2535              	.L269:
 2536 0008 78210100 		.word	.LANCHOR15+256
 2537              		.cfi_endproc
 2538              	.LFE89:
 2539              		.size	u8g2_m_20_13_f, .-u8g2_m_20_13_f
ARM GAS  C:\Users\Abude\AppData\Local\Temp\ccndXIr0.s 			page 63


 2540              		.section	.text.u8g2_m_30_20_1,"ax",%progbits
 2541              		.align	2
 2542              		.global	u8g2_m_30_20_1
 2543              		.thumb
 2544              		.thumb_func
 2545              		.type	u8g2_m_30_20_1, %function
 2546              	u8g2_m_30_20_1:
 2547              	.LFB90:
 996:..\..\..\..\..\..\Dev\Library embedded l2c display\u8g2\csrc/u8g2_d_memory.c **** uint8_t *u8g2_m_30_20_1(uint8_t *page_cnt)
 997:..\..\..\..\..\..\Dev\Library embedded l2c display\u8g2\csrc/u8g2_d_memory.c **** {
 2548              		.loc 1 997 0
 2549              		.cfi_startproc
 2550              		@ args = 0, pretend = 0, frame = 0
 2551              		@ frame_needed = 0, uses_anonymous_args = 0
 2552              		@ link register save eliminated.
 2553              	.LVL180:
 998:..\..\..\..\..\..\Dev\Library embedded l2c display\u8g2\csrc/u8g2_d_memory.c ****   #ifdef U8G2_USE_DYNAMIC_ALLOC
 999:..\..\..\..\..\..\Dev\Library embedded l2c display\u8g2\csrc/u8g2_d_memory.c ****   *page_cnt = 1;
1000:..\..\..\..\..\..\Dev\Library embedded l2c display\u8g2\csrc/u8g2_d_memory.c ****   return 0;
1001:..\..\..\..\..\..\Dev\Library embedded l2c display\u8g2\csrc/u8g2_d_memory.c ****   #else
1002:..\..\..\..\..\..\Dev\Library embedded l2c display\u8g2\csrc/u8g2_d_memory.c ****   static uint8_t buf[240];
1003:..\..\..\..\..\..\Dev\Library embedded l2c display\u8g2\csrc/u8g2_d_memory.c ****   *page_cnt = 1;
 2554              		.loc 1 1003 0
 2555 0000 0123     		movs	r3, #1
 2556 0002 0370     		strb	r3, [r0]
1004:..\..\..\..\..\..\Dev\Library embedded l2c display\u8g2\csrc/u8g2_d_memory.c ****   return buf;
1005:..\..\..\..\..\..\Dev\Library embedded l2c display\u8g2\csrc/u8g2_d_memory.c ****   #endif
1006:..\..\..\..\..\..\Dev\Library embedded l2c display\u8g2\csrc/u8g2_d_memory.c **** }
 2557              		.loc 1 1006 0
 2558 0004 0048     		ldr	r0, .L272
 2559              	.LVL181:
 2560 0006 7047     		bx	lr
 2561              	.L273:
 2562              		.align	2
 2563              	.L272:
 2564 0008 98290100 		.word	.LANCHOR15+2336
 2565              		.cfi_endproc
 2566              	.LFE90:
 2567              		.size	u8g2_m_30_20_1, .-u8g2_m_30_20_1
 2568              		.section	.text.u8g2_m_30_20_2,"ax",%progbits
 2569              		.align	2
 2570              		.global	u8g2_m_30_20_2
 2571              		.thumb
 2572              		.thumb_func
 2573              		.type	u8g2_m_30_20_2, %function
 2574              	u8g2_m_30_20_2:
 2575              	.LFB91:
1007:..\..\..\..\..\..\Dev\Library embedded l2c display\u8g2\csrc/u8g2_d_memory.c **** uint8_t *u8g2_m_30_20_2(uint8_t *page_cnt)
1008:..\..\..\..\..\..\Dev\Library embedded l2c display\u8g2\csrc/u8g2_d_memory.c **** {
 2576              		.loc 1 1008 0
 2577              		.cfi_startproc
 2578              		@ args = 0, pretend = 0, frame = 0
 2579              		@ frame_needed = 0, uses_anonymous_args = 0
 2580              		@ link register save eliminated.
 2581              	.LVL182:
1009:..\..\..\..\..\..\Dev\Library embedded l2c display\u8g2\csrc/u8g2_d_memory.c ****   #ifdef U8G2_USE_DYNAMIC_ALLOC
1010:..\..\..\..\..\..\Dev\Library embedded l2c display\u8g2\csrc/u8g2_d_memory.c ****   *page_cnt = 2;
ARM GAS  C:\Users\Abude\AppData\Local\Temp\ccndXIr0.s 			page 64


1011:..\..\..\..\..\..\Dev\Library embedded l2c display\u8g2\csrc/u8g2_d_memory.c ****   return 0;
1012:..\..\..\..\..\..\Dev\Library embedded l2c display\u8g2\csrc/u8g2_d_memory.c ****   #else
1013:..\..\..\..\..\..\Dev\Library embedded l2c display\u8g2\csrc/u8g2_d_memory.c ****   static uint8_t buf[480];
1014:..\..\..\..\..\..\Dev\Library embedded l2c display\u8g2\csrc/u8g2_d_memory.c ****   *page_cnt = 2;
 2582              		.loc 1 1014 0
 2583 0000 0223     		movs	r3, #2
 2584 0002 0370     		strb	r3, [r0]
1015:..\..\..\..\..\..\Dev\Library embedded l2c display\u8g2\csrc/u8g2_d_memory.c ****   return buf;
1016:..\..\..\..\..\..\Dev\Library embedded l2c display\u8g2\csrc/u8g2_d_memory.c ****   #endif
1017:..\..\..\..\..\..\Dev\Library embedded l2c display\u8g2\csrc/u8g2_d_memory.c **** }
 2585              		.loc 1 1017 0
 2586 0004 0048     		ldr	r0, .L275
 2587              	.LVL183:
 2588 0006 7047     		bx	lr
 2589              	.L276:
 2590              		.align	2
 2591              	.L275:
 2592 0008 882A0100 		.word	.LANCHOR15+2576
 2593              		.cfi_endproc
 2594              	.LFE91:
 2595              		.size	u8g2_m_30_20_2, .-u8g2_m_30_20_2
 2596              		.section	.text.u8g2_m_30_20_f,"ax",%progbits
 2597              		.align	2
 2598              		.global	u8g2_m_30_20_f
 2599              		.thumb
 2600              		.thumb_func
 2601              		.type	u8g2_m_30_20_f, %function
 2602              	u8g2_m_30_20_f:
 2603              	.LFB92:
1018:..\..\..\..\..\..\Dev\Library embedded l2c display\u8g2\csrc/u8g2_d_memory.c **** uint8_t *u8g2_m_30_20_f(uint8_t *page_cnt)
1019:..\..\..\..\..\..\Dev\Library embedded l2c display\u8g2\csrc/u8g2_d_memory.c **** {
 2604              		.loc 1 1019 0
 2605              		.cfi_startproc
 2606              		@ args = 0, pretend = 0, frame = 0
 2607              		@ frame_needed = 0, uses_anonymous_args = 0
 2608              		@ link register save eliminated.
 2609              	.LVL184:
1020:..\..\..\..\..\..\Dev\Library embedded l2c display\u8g2\csrc/u8g2_d_memory.c ****   #ifdef U8G2_USE_DYNAMIC_ALLOC
1021:..\..\..\..\..\..\Dev\Library embedded l2c display\u8g2\csrc/u8g2_d_memory.c ****   *page_cnt = 20;
1022:..\..\..\..\..\..\Dev\Library embedded l2c display\u8g2\csrc/u8g2_d_memory.c ****   return 0;
1023:..\..\..\..\..\..\Dev\Library embedded l2c display\u8g2\csrc/u8g2_d_memory.c ****   #else
1024:..\..\..\..\..\..\Dev\Library embedded l2c display\u8g2\csrc/u8g2_d_memory.c ****   static uint8_t buf[4800];
1025:..\..\..\..\..\..\Dev\Library embedded l2c display\u8g2\csrc/u8g2_d_memory.c ****   *page_cnt = 20;
 2610              		.loc 1 1025 0
 2611 0000 1423     		movs	r3, #20
 2612 0002 0370     		strb	r3, [r0]
1026:..\..\..\..\..\..\Dev\Library embedded l2c display\u8g2\csrc/u8g2_d_memory.c ****   return buf;
1027:..\..\..\..\..\..\Dev\Library embedded l2c display\u8g2\csrc/u8g2_d_memory.c ****   #endif
1028:..\..\..\..\..\..\Dev\Library embedded l2c display\u8g2\csrc/u8g2_d_memory.c **** }
 2613              		.loc 1 1028 0
 2614 0004 0048     		ldr	r0, .L278
 2615              	.LVL185:
 2616 0006 7047     		bx	lr
 2617              	.L279:
 2618              		.align	2
 2619              	.L278:
 2620 0008 682C0100 		.word	.LANCHOR15+3056
ARM GAS  C:\Users\Abude\AppData\Local\Temp\ccndXIr0.s 			page 65


 2621              		.cfi_endproc
 2622              	.LFE92:
 2623              		.size	u8g2_m_30_20_f, .-u8g2_m_30_20_f
 2624              		.section	.text.u8g2_m_32_16_1,"ax",%progbits
 2625              		.align	2
 2626              		.global	u8g2_m_32_16_1
 2627              		.thumb
 2628              		.thumb_func
 2629              		.type	u8g2_m_32_16_1, %function
 2630              	u8g2_m_32_16_1:
 2631              	.LFB93:
1029:..\..\..\..\..\..\Dev\Library embedded l2c display\u8g2\csrc/u8g2_d_memory.c **** uint8_t *u8g2_m_32_16_1(uint8_t *page_cnt)
1030:..\..\..\..\..\..\Dev\Library embedded l2c display\u8g2\csrc/u8g2_d_memory.c **** {
 2632              		.loc 1 1030 0
 2633              		.cfi_startproc
 2634              		@ args = 0, pretend = 0, frame = 0
 2635              		@ frame_needed = 0, uses_anonymous_args = 0
 2636              		@ link register save eliminated.
 2637              	.LVL186:
1031:..\..\..\..\..\..\Dev\Library embedded l2c display\u8g2\csrc/u8g2_d_memory.c ****   #ifdef U8G2_USE_DYNAMIC_ALLOC
1032:..\..\..\..\..\..\Dev\Library embedded l2c display\u8g2\csrc/u8g2_d_memory.c ****   *page_cnt = 1;
1033:..\..\..\..\..\..\Dev\Library embedded l2c display\u8g2\csrc/u8g2_d_memory.c ****   return 0;
1034:..\..\..\..\..\..\Dev\Library embedded l2c display\u8g2\csrc/u8g2_d_memory.c ****   #else
1035:..\..\..\..\..\..\Dev\Library embedded l2c display\u8g2\csrc/u8g2_d_memory.c ****   static uint8_t buf[256];
1036:..\..\..\..\..\..\Dev\Library embedded l2c display\u8g2\csrc/u8g2_d_memory.c ****   *page_cnt = 1;
 2638              		.loc 1 1036 0
 2639 0000 0123     		movs	r3, #1
 2640 0002 0370     		strb	r3, [r0]
1037:..\..\..\..\..\..\Dev\Library embedded l2c display\u8g2\csrc/u8g2_d_memory.c ****   return buf;
1038:..\..\..\..\..\..\Dev\Library embedded l2c display\u8g2\csrc/u8g2_d_memory.c ****   #endif
1039:..\..\..\..\..\..\Dev\Library embedded l2c display\u8g2\csrc/u8g2_d_memory.c **** }
 2641              		.loc 1 1039 0
 2642 0004 0048     		ldr	r0, .L281
 2643              	.LVL187:
 2644 0006 7047     		bx	lr
 2645              	.L282:
 2646              		.align	2
 2647              	.L281:
 2648 0008 283F0100 		.word	.LANCHOR16+3512
 2649              		.cfi_endproc
 2650              	.LFE93:
 2651              		.size	u8g2_m_32_16_1, .-u8g2_m_32_16_1
 2652              		.section	.text.u8g2_m_32_16_2,"ax",%progbits
 2653              		.align	2
 2654              		.global	u8g2_m_32_16_2
 2655              		.thumb
 2656              		.thumb_func
 2657              		.type	u8g2_m_32_16_2, %function
 2658              	u8g2_m_32_16_2:
 2659              	.LFB94:
1040:..\..\..\..\..\..\Dev\Library embedded l2c display\u8g2\csrc/u8g2_d_memory.c **** uint8_t *u8g2_m_32_16_2(uint8_t *page_cnt)
1041:..\..\..\..\..\..\Dev\Library embedded l2c display\u8g2\csrc/u8g2_d_memory.c **** {
 2660              		.loc 1 1041 0
 2661              		.cfi_startproc
 2662              		@ args = 0, pretend = 0, frame = 0
 2663              		@ frame_needed = 0, uses_anonymous_args = 0
 2664              		@ link register save eliminated.
ARM GAS  C:\Users\Abude\AppData\Local\Temp\ccndXIr0.s 			page 66


 2665              	.LVL188:
1042:..\..\..\..\..\..\Dev\Library embedded l2c display\u8g2\csrc/u8g2_d_memory.c ****   #ifdef U8G2_USE_DYNAMIC_ALLOC
1043:..\..\..\..\..\..\Dev\Library embedded l2c display\u8g2\csrc/u8g2_d_memory.c ****   *page_cnt = 2;
1044:..\..\..\..\..\..\Dev\Library embedded l2c display\u8g2\csrc/u8g2_d_memory.c ****   return 0;
1045:..\..\..\..\..\..\Dev\Library embedded l2c display\u8g2\csrc/u8g2_d_memory.c ****   #else
1046:..\..\..\..\..\..\Dev\Library embedded l2c display\u8g2\csrc/u8g2_d_memory.c ****   static uint8_t buf[512];
1047:..\..\..\..\..\..\Dev\Library embedded l2c display\u8g2\csrc/u8g2_d_memory.c ****   *page_cnt = 2;
 2666              		.loc 1 1047 0
 2667 0000 0223     		movs	r3, #2
 2668 0002 0370     		strb	r3, [r0]
1048:..\..\..\..\..\..\Dev\Library embedded l2c display\u8g2\csrc/u8g2_d_memory.c ****   return buf;
1049:..\..\..\..\..\..\Dev\Library embedded l2c display\u8g2\csrc/u8g2_d_memory.c ****   #endif
1050:..\..\..\..\..\..\Dev\Library embedded l2c display\u8g2\csrc/u8g2_d_memory.c **** }
 2669              		.loc 1 1050 0
 2670 0004 0048     		ldr	r0, .L284
 2671              	.LVL189:
 2672 0006 7047     		bx	lr
 2673              	.L285:
 2674              		.align	2
 2675              	.L284:
 2676 0008 28400100 		.word	.LANCHOR16+3768
 2677              		.cfi_endproc
 2678              	.LFE94:
 2679              		.size	u8g2_m_32_16_2, .-u8g2_m_32_16_2
 2680              		.section	.text.u8g2_m_32_16_f,"ax",%progbits
 2681              		.align	2
 2682              		.global	u8g2_m_32_16_f
 2683              		.thumb
 2684              		.thumb_func
 2685              		.type	u8g2_m_32_16_f, %function
 2686              	u8g2_m_32_16_f:
 2687              	.LFB95:
1051:..\..\..\..\..\..\Dev\Library embedded l2c display\u8g2\csrc/u8g2_d_memory.c **** uint8_t *u8g2_m_32_16_f(uint8_t *page_cnt)
1052:..\..\..\..\..\..\Dev\Library embedded l2c display\u8g2\csrc/u8g2_d_memory.c **** {
 2688              		.loc 1 1052 0
 2689              		.cfi_startproc
 2690              		@ args = 0, pretend = 0, frame = 0
 2691              		@ frame_needed = 0, uses_anonymous_args = 0
 2692              		@ link register save eliminated.
 2693              	.LVL190:
1053:..\..\..\..\..\..\Dev\Library embedded l2c display\u8g2\csrc/u8g2_d_memory.c ****   #ifdef U8G2_USE_DYNAMIC_ALLOC
1054:..\..\..\..\..\..\Dev\Library embedded l2c display\u8g2\csrc/u8g2_d_memory.c ****   *page_cnt = 16;
1055:..\..\..\..\..\..\Dev\Library embedded l2c display\u8g2\csrc/u8g2_d_memory.c ****   return 0;
1056:..\..\..\..\..\..\Dev\Library embedded l2c display\u8g2\csrc/u8g2_d_memory.c ****   #else
1057:..\..\..\..\..\..\Dev\Library embedded l2c display\u8g2\csrc/u8g2_d_memory.c ****   static uint8_t buf[4096];
1058:..\..\..\..\..\..\Dev\Library embedded l2c display\u8g2\csrc/u8g2_d_memory.c ****   *page_cnt = 16;
 2694              		.loc 1 1058 0
 2695 0000 1023     		movs	r3, #16
 2696 0002 0370     		strb	r3, [r0]
1059:..\..\..\..\..\..\Dev\Library embedded l2c display\u8g2\csrc/u8g2_d_memory.c ****   return buf;
1060:..\..\..\..\..\..\Dev\Library embedded l2c display\u8g2\csrc/u8g2_d_memory.c ****   #endif
1061:..\..\..\..\..\..\Dev\Library embedded l2c display\u8g2\csrc/u8g2_d_memory.c **** }
 2697              		.loc 1 1061 0
 2698 0004 0048     		ldr	r0, .L287
 2699              	.LVL191:
 2700 0006 7047     		bx	lr
 2701              	.L288:
ARM GAS  C:\Users\Abude\AppData\Local\Temp\ccndXIr0.s 			page 67


 2702              		.align	2
 2703              	.L287:
 2704 0008 28420100 		.word	.LANCHOR17-64
 2705              		.cfi_endproc
 2706              	.LFE95:
 2707              		.size	u8g2_m_32_16_f, .-u8g2_m_32_16_f
 2708              		.section	.text.u8g2_m_40_30_1,"ax",%progbits
 2709              		.align	2
 2710              		.global	u8g2_m_40_30_1
 2711              		.thumb
 2712              		.thumb_func
 2713              		.type	u8g2_m_40_30_1, %function
 2714              	u8g2_m_40_30_1:
 2715              	.LFB96:
1062:..\..\..\..\..\..\Dev\Library embedded l2c display\u8g2\csrc/u8g2_d_memory.c **** uint8_t *u8g2_m_40_30_1(uint8_t *page_cnt)
1063:..\..\..\..\..\..\Dev\Library embedded l2c display\u8g2\csrc/u8g2_d_memory.c **** {
 2716              		.loc 1 1063 0
 2717              		.cfi_startproc
 2718              		@ args = 0, pretend = 0, frame = 0
 2719              		@ frame_needed = 0, uses_anonymous_args = 0
 2720              		@ link register save eliminated.
 2721              	.LVL192:
1064:..\..\..\..\..\..\Dev\Library embedded l2c display\u8g2\csrc/u8g2_d_memory.c ****   #ifdef U8G2_USE_DYNAMIC_ALLOC
1065:..\..\..\..\..\..\Dev\Library embedded l2c display\u8g2\csrc/u8g2_d_memory.c ****   *page_cnt = 1;
1066:..\..\..\..\..\..\Dev\Library embedded l2c display\u8g2\csrc/u8g2_d_memory.c ****   return 0;
1067:..\..\..\..\..\..\Dev\Library embedded l2c display\u8g2\csrc/u8g2_d_memory.c ****   #else
1068:..\..\..\..\..\..\Dev\Library embedded l2c display\u8g2\csrc/u8g2_d_memory.c ****   static uint8_t buf[320];
1069:..\..\..\..\..\..\Dev\Library embedded l2c display\u8g2\csrc/u8g2_d_memory.c ****   *page_cnt = 1;
 2722              		.loc 1 1069 0
 2723 0000 0123     		movs	r3, #1
 2724 0002 0370     		strb	r3, [r0]
1070:..\..\..\..\..\..\Dev\Library embedded l2c display\u8g2\csrc/u8g2_d_memory.c ****   return buf;
1071:..\..\..\..\..\..\Dev\Library embedded l2c display\u8g2\csrc/u8g2_d_memory.c ****   #endif
1072:..\..\..\..\..\..\Dev\Library embedded l2c display\u8g2\csrc/u8g2_d_memory.c **** }
 2725              		.loc 1 1072 0
 2726 0004 0048     		ldr	r0, .L290
 2727              	.LVL193:
 2728 0006 7047     		bx	lr
 2729              	.L291:
 2730              		.align	2
 2731              	.L290:
 2732 0008 28520100 		.word	.LANCHOR17+4032
 2733              		.cfi_endproc
 2734              	.LFE96:
 2735              		.size	u8g2_m_40_30_1, .-u8g2_m_40_30_1
 2736              		.section	.text.u8g2_m_40_30_2,"ax",%progbits
 2737              		.align	2
 2738              		.global	u8g2_m_40_30_2
 2739              		.thumb
 2740              		.thumb_func
 2741              		.type	u8g2_m_40_30_2, %function
 2742              	u8g2_m_40_30_2:
 2743              	.LFB97:
1073:..\..\..\..\..\..\Dev\Library embedded l2c display\u8g2\csrc/u8g2_d_memory.c **** uint8_t *u8g2_m_40_30_2(uint8_t *page_cnt)
1074:..\..\..\..\..\..\Dev\Library embedded l2c display\u8g2\csrc/u8g2_d_memory.c **** {
 2744              		.loc 1 1074 0
 2745              		.cfi_startproc
ARM GAS  C:\Users\Abude\AppData\Local\Temp\ccndXIr0.s 			page 68


 2746              		@ args = 0, pretend = 0, frame = 0
 2747              		@ frame_needed = 0, uses_anonymous_args = 0
 2748              		@ link register save eliminated.
 2749              	.LVL194:
1075:..\..\..\..\..\..\Dev\Library embedded l2c display\u8g2\csrc/u8g2_d_memory.c ****   #ifdef U8G2_USE_DYNAMIC_ALLOC
1076:..\..\..\..\..\..\Dev\Library embedded l2c display\u8g2\csrc/u8g2_d_memory.c ****   *page_cnt = 2;
1077:..\..\..\..\..\..\Dev\Library embedded l2c display\u8g2\csrc/u8g2_d_memory.c ****   return 0;
1078:..\..\..\..\..\..\Dev\Library embedded l2c display\u8g2\csrc/u8g2_d_memory.c ****   #else
1079:..\..\..\..\..\..\Dev\Library embedded l2c display\u8g2\csrc/u8g2_d_memory.c ****   static uint8_t buf[640];
1080:..\..\..\..\..\..\Dev\Library embedded l2c display\u8g2\csrc/u8g2_d_memory.c ****   *page_cnt = 2;
 2750              		.loc 1 1080 0
 2751 0000 0223     		movs	r3, #2
 2752 0002 0370     		strb	r3, [r0]
1081:..\..\..\..\..\..\Dev\Library embedded l2c display\u8g2\csrc/u8g2_d_memory.c ****   return buf;
1082:..\..\..\..\..\..\Dev\Library embedded l2c display\u8g2\csrc/u8g2_d_memory.c ****   #endif
1083:..\..\..\..\..\..\Dev\Library embedded l2c display\u8g2\csrc/u8g2_d_memory.c **** }
 2753              		.loc 1 1083 0
 2754 0004 0048     		ldr	r0, .L293
 2755              	.LVL195:
 2756 0006 7047     		bx	lr
 2757              	.L294:
 2758              		.align	2
 2759              	.L293:
 2760 0008 68530100 		.word	.LANCHOR18+8
 2761              		.cfi_endproc
 2762              	.LFE97:
 2763              		.size	u8g2_m_40_30_2, .-u8g2_m_40_30_2
 2764              		.section	.text.u8g2_m_40_30_f,"ax",%progbits
 2765              		.align	2
 2766              		.global	u8g2_m_40_30_f
 2767              		.thumb
 2768              		.thumb_func
 2769              		.type	u8g2_m_40_30_f, %function
 2770              	u8g2_m_40_30_f:
 2771              	.LFB98:
1084:..\..\..\..\..\..\Dev\Library embedded l2c display\u8g2\csrc/u8g2_d_memory.c **** uint8_t *u8g2_m_40_30_f(uint8_t *page_cnt)
1085:..\..\..\..\..\..\Dev\Library embedded l2c display\u8g2\csrc/u8g2_d_memory.c **** {
 2772              		.loc 1 1085 0
 2773              		.cfi_startproc
 2774              		@ args = 0, pretend = 0, frame = 0
 2775              		@ frame_needed = 0, uses_anonymous_args = 0
 2776              		@ link register save eliminated.
 2777              	.LVL196:
1086:..\..\..\..\..\..\Dev\Library embedded l2c display\u8g2\csrc/u8g2_d_memory.c ****   #ifdef U8G2_USE_DYNAMIC_ALLOC
1087:..\..\..\..\..\..\Dev\Library embedded l2c display\u8g2\csrc/u8g2_d_memory.c ****   *page_cnt = 30;
1088:..\..\..\..\..\..\Dev\Library embedded l2c display\u8g2\csrc/u8g2_d_memory.c ****   return 0;
1089:..\..\..\..\..\..\Dev\Library embedded l2c display\u8g2\csrc/u8g2_d_memory.c ****   #else
1090:..\..\..\..\..\..\Dev\Library embedded l2c display\u8g2\csrc/u8g2_d_memory.c ****   static uint8_t buf[9600];
1091:..\..\..\..\..\..\Dev\Library embedded l2c display\u8g2\csrc/u8g2_d_memory.c ****   *page_cnt = 30;
 2778              		.loc 1 1091 0
 2779 0000 1E23     		movs	r3, #30
 2780 0002 0370     		strb	r3, [r0]
1092:..\..\..\..\..\..\Dev\Library embedded l2c display\u8g2\csrc/u8g2_d_memory.c ****   return buf;
1093:..\..\..\..\..\..\Dev\Library embedded l2c display\u8g2\csrc/u8g2_d_memory.c ****   #endif
1094:..\..\..\..\..\..\Dev\Library embedded l2c display\u8g2\csrc/u8g2_d_memory.c **** }
 2781              		.loc 1 1094 0
 2782 0004 0048     		ldr	r0, .L296
ARM GAS  C:\Users\Abude\AppData\Local\Temp\ccndXIr0.s 			page 69


 2783              	.LVL197:
 2784 0006 7047     		bx	lr
 2785              	.L297:
 2786              		.align	2
 2787              	.L296:
 2788 0008 E8550100 		.word	.LANCHOR18+648
 2789              		.cfi_endproc
 2790              	.LFE98:
 2791              		.size	u8g2_m_40_30_f, .-u8g2_m_40_30_f
 2792              		.section	.text.u8g2_m_20_8_1,"ax",%progbits
 2793              		.align	2
 2794              		.global	u8g2_m_20_8_1
 2795              		.thumb
 2796              		.thumb_func
 2797              		.type	u8g2_m_20_8_1, %function
 2798              	u8g2_m_20_8_1:
 2799              	.LFB99:
1095:..\..\..\..\..\..\Dev\Library embedded l2c display\u8g2\csrc/u8g2_d_memory.c **** uint8_t *u8g2_m_20_8_1(uint8_t *page_cnt)
1096:..\..\..\..\..\..\Dev\Library embedded l2c display\u8g2\csrc/u8g2_d_memory.c **** {
 2800              		.loc 1 1096 0
 2801              		.cfi_startproc
 2802              		@ args = 0, pretend = 0, frame = 0
 2803              		@ frame_needed = 0, uses_anonymous_args = 0
 2804              		@ link register save eliminated.
 2805              	.LVL198:
1097:..\..\..\..\..\..\Dev\Library embedded l2c display\u8g2\csrc/u8g2_d_memory.c ****   #ifdef U8G2_USE_DYNAMIC_ALLOC
1098:..\..\..\..\..\..\Dev\Library embedded l2c display\u8g2\csrc/u8g2_d_memory.c ****   *page_cnt = 1;
1099:..\..\..\..\..\..\Dev\Library embedded l2c display\u8g2\csrc/u8g2_d_memory.c ****   return 0;
1100:..\..\..\..\..\..\Dev\Library embedded l2c display\u8g2\csrc/u8g2_d_memory.c ****   #else
1101:..\..\..\..\..\..\Dev\Library embedded l2c display\u8g2\csrc/u8g2_d_memory.c ****   static uint8_t buf[160];
1102:..\..\..\..\..\..\Dev\Library embedded l2c display\u8g2\csrc/u8g2_d_memory.c ****   *page_cnt = 1;
 2806              		.loc 1 1102 0
 2807 0000 0123     		movs	r3, #1
 2808 0002 0370     		strb	r3, [r0]
1103:..\..\..\..\..\..\Dev\Library embedded l2c display\u8g2\csrc/u8g2_d_memory.c ****   return buf;
1104:..\..\..\..\..\..\Dev\Library embedded l2c display\u8g2\csrc/u8g2_d_memory.c ****   #endif
1105:..\..\..\..\..\..\Dev\Library embedded l2c display\u8g2\csrc/u8g2_d_memory.c **** }
 2809              		.loc 1 1105 0
 2810 0004 0048     		ldr	r0, .L299
 2811              	.LVL199:
 2812 0006 7047     		bx	lr
 2813              	.L300:
 2814              		.align	2
 2815              	.L299:
 2816 0008 687B0100 		.word	.LANCHOR19+1560
 2817              		.cfi_endproc
 2818              	.LFE99:
 2819              		.size	u8g2_m_20_8_1, .-u8g2_m_20_8_1
 2820              		.section	.text.u8g2_m_20_8_2,"ax",%progbits
 2821              		.align	2
 2822              		.global	u8g2_m_20_8_2
 2823              		.thumb
 2824              		.thumb_func
 2825              		.type	u8g2_m_20_8_2, %function
 2826              	u8g2_m_20_8_2:
 2827              	.LFB100:
1106:..\..\..\..\..\..\Dev\Library embedded l2c display\u8g2\csrc/u8g2_d_memory.c **** uint8_t *u8g2_m_20_8_2(uint8_t *page_cnt)
ARM GAS  C:\Users\Abude\AppData\Local\Temp\ccndXIr0.s 			page 70


1107:..\..\..\..\..\..\Dev\Library embedded l2c display\u8g2\csrc/u8g2_d_memory.c **** {
 2828              		.loc 1 1107 0
 2829              		.cfi_startproc
 2830              		@ args = 0, pretend = 0, frame = 0
 2831              		@ frame_needed = 0, uses_anonymous_args = 0
 2832              		@ link register save eliminated.
 2833              	.LVL200:
1108:..\..\..\..\..\..\Dev\Library embedded l2c display\u8g2\csrc/u8g2_d_memory.c ****   #ifdef U8G2_USE_DYNAMIC_ALLOC
1109:..\..\..\..\..\..\Dev\Library embedded l2c display\u8g2\csrc/u8g2_d_memory.c ****   *page_cnt = 2;
1110:..\..\..\..\..\..\Dev\Library embedded l2c display\u8g2\csrc/u8g2_d_memory.c ****   return 0;
1111:..\..\..\..\..\..\Dev\Library embedded l2c display\u8g2\csrc/u8g2_d_memory.c ****   #else
1112:..\..\..\..\..\..\Dev\Library embedded l2c display\u8g2\csrc/u8g2_d_memory.c ****   static uint8_t buf[320];
1113:..\..\..\..\..\..\Dev\Library embedded l2c display\u8g2\csrc/u8g2_d_memory.c ****   *page_cnt = 2;
 2834              		.loc 1 1113 0
 2835 0000 0223     		movs	r3, #2
 2836 0002 0370     		strb	r3, [r0]
1114:..\..\..\..\..\..\Dev\Library embedded l2c display\u8g2\csrc/u8g2_d_memory.c ****   return buf;
1115:..\..\..\..\..\..\Dev\Library embedded l2c display\u8g2\csrc/u8g2_d_memory.c ****   #endif
1116:..\..\..\..\..\..\Dev\Library embedded l2c display\u8g2\csrc/u8g2_d_memory.c **** }
 2837              		.loc 1 1116 0
 2838 0004 0048     		ldr	r0, .L302
 2839              	.LVL201:
 2840 0006 7047     		bx	lr
 2841              	.L303:
 2842              		.align	2
 2843              	.L302:
 2844 0008 087C0100 		.word	.LANCHOR19+1720
 2845              		.cfi_endproc
 2846              	.LFE100:
 2847              		.size	u8g2_m_20_8_2, .-u8g2_m_20_8_2
 2848              		.section	.text.u8g2_m_20_8_f,"ax",%progbits
 2849              		.align	2
 2850              		.global	u8g2_m_20_8_f
 2851              		.thumb
 2852              		.thumb_func
 2853              		.type	u8g2_m_20_8_f, %function
 2854              	u8g2_m_20_8_f:
 2855              	.LFB101:
1117:..\..\..\..\..\..\Dev\Library embedded l2c display\u8g2\csrc/u8g2_d_memory.c **** uint8_t *u8g2_m_20_8_f(uint8_t *page_cnt)
1118:..\..\..\..\..\..\Dev\Library embedded l2c display\u8g2\csrc/u8g2_d_memory.c **** {
 2856              		.loc 1 1118 0
 2857              		.cfi_startproc
 2858              		@ args = 0, pretend = 0, frame = 0
 2859              		@ frame_needed = 0, uses_anonymous_args = 0
 2860              		@ link register save eliminated.
 2861              	.LVL202:
1119:..\..\..\..\..\..\Dev\Library embedded l2c display\u8g2\csrc/u8g2_d_memory.c ****   #ifdef U8G2_USE_DYNAMIC_ALLOC
1120:..\..\..\..\..\..\Dev\Library embedded l2c display\u8g2\csrc/u8g2_d_memory.c ****   *page_cnt = 8;
1121:..\..\..\..\..\..\Dev\Library embedded l2c display\u8g2\csrc/u8g2_d_memory.c ****   return 0;
1122:..\..\..\..\..\..\Dev\Library embedded l2c display\u8g2\csrc/u8g2_d_memory.c ****   #else
1123:..\..\..\..\..\..\Dev\Library embedded l2c display\u8g2\csrc/u8g2_d_memory.c ****   static uint8_t buf[1280];
1124:..\..\..\..\..\..\Dev\Library embedded l2c display\u8g2\csrc/u8g2_d_memory.c ****   *page_cnt = 8;
 2862              		.loc 1 1124 0
 2863 0000 0823     		movs	r3, #8
 2864 0002 0370     		strb	r3, [r0]
1125:..\..\..\..\..\..\Dev\Library embedded l2c display\u8g2\csrc/u8g2_d_memory.c ****   return buf;
1126:..\..\..\..\..\..\Dev\Library embedded l2c display\u8g2\csrc/u8g2_d_memory.c ****   #endif
ARM GAS  C:\Users\Abude\AppData\Local\Temp\ccndXIr0.s 			page 71


1127:..\..\..\..\..\..\Dev\Library embedded l2c display\u8g2\csrc/u8g2_d_memory.c **** }
 2865              		.loc 1 1127 0
 2866 0004 0048     		ldr	r0, .L305
 2867              	.LVL203:
 2868 0006 7047     		bx	lr
 2869              	.L306:
 2870              		.align	2
 2871              	.L305:
 2872 0008 487D0100 		.word	.LANCHOR19+2040
 2873              		.cfi_endproc
 2874              	.LFE101:
 2875              		.size	u8g2_m_20_8_f, .-u8g2_m_20_8_f
 2876              		.section	.text.u8g2_m_17_4_1,"ax",%progbits
 2877              		.align	2
 2878              		.global	u8g2_m_17_4_1
 2879              		.thumb
 2880              		.thumb_func
 2881              		.type	u8g2_m_17_4_1, %function
 2882              	u8g2_m_17_4_1:
 2883              	.LFB102:
1128:..\..\..\..\..\..\Dev\Library embedded l2c display\u8g2\csrc/u8g2_d_memory.c **** uint8_t *u8g2_m_17_4_1(uint8_t *page_cnt)
1129:..\..\..\..\..\..\Dev\Library embedded l2c display\u8g2\csrc/u8g2_d_memory.c **** {
 2884              		.loc 1 1129 0
 2885              		.cfi_startproc
 2886              		@ args = 0, pretend = 0, frame = 0
 2887              		@ frame_needed = 0, uses_anonymous_args = 0
 2888              		@ link register save eliminated.
 2889              	.LVL204:
1130:..\..\..\..\..\..\Dev\Library embedded l2c display\u8g2\csrc/u8g2_d_memory.c ****   #ifdef U8G2_USE_DYNAMIC_ALLOC
1131:..\..\..\..\..\..\Dev\Library embedded l2c display\u8g2\csrc/u8g2_d_memory.c ****   *page_cnt = 1;
1132:..\..\..\..\..\..\Dev\Library embedded l2c display\u8g2\csrc/u8g2_d_memory.c ****   return 0;
1133:..\..\..\..\..\..\Dev\Library embedded l2c display\u8g2\csrc/u8g2_d_memory.c ****   #else
1134:..\..\..\..\..\..\Dev\Library embedded l2c display\u8g2\csrc/u8g2_d_memory.c ****   static uint8_t buf[136];
1135:..\..\..\..\..\..\Dev\Library embedded l2c display\u8g2\csrc/u8g2_d_memory.c ****   *page_cnt = 1;
 2890              		.loc 1 1135 0
 2891 0000 0123     		movs	r3, #1
 2892 0002 0370     		strb	r3, [r0]
1136:..\..\..\..\..\..\Dev\Library embedded l2c display\u8g2\csrc/u8g2_d_memory.c ****   return buf;
1137:..\..\..\..\..\..\Dev\Library embedded l2c display\u8g2\csrc/u8g2_d_memory.c ****   #endif
1138:..\..\..\..\..\..\Dev\Library embedded l2c display\u8g2\csrc/u8g2_d_memory.c **** }
 2893              		.loc 1 1138 0
 2894 0004 0048     		ldr	r0, .L308
 2895              	.LVL205:
 2896 0006 7047     		bx	lr
 2897              	.L309:
 2898              		.align	2
 2899              	.L308:
 2900 0008 48820100 		.word	.LANCHOR19+3320
 2901              		.cfi_endproc
 2902              	.LFE102:
 2903              		.size	u8g2_m_17_4_1, .-u8g2_m_17_4_1
 2904              		.section	.text.u8g2_m_17_4_2,"ax",%progbits
 2905              		.align	2
 2906              		.global	u8g2_m_17_4_2
 2907              		.thumb
 2908              		.thumb_func
 2909              		.type	u8g2_m_17_4_2, %function
ARM GAS  C:\Users\Abude\AppData\Local\Temp\ccndXIr0.s 			page 72


 2910              	u8g2_m_17_4_2:
 2911              	.LFB103:
1139:..\..\..\..\..\..\Dev\Library embedded l2c display\u8g2\csrc/u8g2_d_memory.c **** uint8_t *u8g2_m_17_4_2(uint8_t *page_cnt)
1140:..\..\..\..\..\..\Dev\Library embedded l2c display\u8g2\csrc/u8g2_d_memory.c **** {
 2912              		.loc 1 1140 0
 2913              		.cfi_startproc
 2914              		@ args = 0, pretend = 0, frame = 0
 2915              		@ frame_needed = 0, uses_anonymous_args = 0
 2916              		@ link register save eliminated.
 2917              	.LVL206:
1141:..\..\..\..\..\..\Dev\Library embedded l2c display\u8g2\csrc/u8g2_d_memory.c ****   #ifdef U8G2_USE_DYNAMIC_ALLOC
1142:..\..\..\..\..\..\Dev\Library embedded l2c display\u8g2\csrc/u8g2_d_memory.c ****   *page_cnt = 2;
1143:..\..\..\..\..\..\Dev\Library embedded l2c display\u8g2\csrc/u8g2_d_memory.c ****   return 0;
1144:..\..\..\..\..\..\Dev\Library embedded l2c display\u8g2\csrc/u8g2_d_memory.c ****   #else
1145:..\..\..\..\..\..\Dev\Library embedded l2c display\u8g2\csrc/u8g2_d_memory.c ****   static uint8_t buf[272];
1146:..\..\..\..\..\..\Dev\Library embedded l2c display\u8g2\csrc/u8g2_d_memory.c ****   *page_cnt = 2;
 2918              		.loc 1 1146 0
 2919 0000 0223     		movs	r3, #2
 2920 0002 0370     		strb	r3, [r0]
1147:..\..\..\..\..\..\Dev\Library embedded l2c display\u8g2\csrc/u8g2_d_memory.c ****   return buf;
1148:..\..\..\..\..\..\Dev\Library embedded l2c display\u8g2\csrc/u8g2_d_memory.c ****   #endif
1149:..\..\..\..\..\..\Dev\Library embedded l2c display\u8g2\csrc/u8g2_d_memory.c **** }
 2921              		.loc 1 1149 0
 2922 0004 0048     		ldr	r0, .L311
 2923              	.LVL207:
 2924 0006 7047     		bx	lr
 2925              	.L312:
 2926              		.align	2
 2927              	.L311:
 2928 0008 D0820100 		.word	.LANCHOR19+3456
 2929              		.cfi_endproc
 2930              	.LFE103:
 2931              		.size	u8g2_m_17_4_2, .-u8g2_m_17_4_2
 2932              		.section	.text.u8g2_m_17_4_f,"ax",%progbits
 2933              		.align	2
 2934              		.global	u8g2_m_17_4_f
 2935              		.thumb
 2936              		.thumb_func
 2937              		.type	u8g2_m_17_4_f, %function
 2938              	u8g2_m_17_4_f:
 2939              	.LFB104:
1150:..\..\..\..\..\..\Dev\Library embedded l2c display\u8g2\csrc/u8g2_d_memory.c **** uint8_t *u8g2_m_17_4_f(uint8_t *page_cnt)
1151:..\..\..\..\..\..\Dev\Library embedded l2c display\u8g2\csrc/u8g2_d_memory.c **** {
 2940              		.loc 1 1151 0
 2941              		.cfi_startproc
 2942              		@ args = 0, pretend = 0, frame = 0
 2943              		@ frame_needed = 0, uses_anonymous_args = 0
 2944              		@ link register save eliminated.
 2945              	.LVL208:
1152:..\..\..\..\..\..\Dev\Library embedded l2c display\u8g2\csrc/u8g2_d_memory.c ****   #ifdef U8G2_USE_DYNAMIC_ALLOC
1153:..\..\..\..\..\..\Dev\Library embedded l2c display\u8g2\csrc/u8g2_d_memory.c ****   *page_cnt = 4;
1154:..\..\..\..\..\..\Dev\Library embedded l2c display\u8g2\csrc/u8g2_d_memory.c ****   return 0;
1155:..\..\..\..\..\..\Dev\Library embedded l2c display\u8g2\csrc/u8g2_d_memory.c ****   #else
1156:..\..\..\..\..\..\Dev\Library embedded l2c display\u8g2\csrc/u8g2_d_memory.c ****   static uint8_t buf[544];
1157:..\..\..\..\..\..\Dev\Library embedded l2c display\u8g2\csrc/u8g2_d_memory.c ****   *page_cnt = 4;
 2946              		.loc 1 1157 0
 2947 0000 0423     		movs	r3, #4
ARM GAS  C:\Users\Abude\AppData\Local\Temp\ccndXIr0.s 			page 73


 2948 0002 0370     		strb	r3, [r0]
1158:..\..\..\..\..\..\Dev\Library embedded l2c display\u8g2\csrc/u8g2_d_memory.c ****   return buf;
1159:..\..\..\..\..\..\Dev\Library embedded l2c display\u8g2\csrc/u8g2_d_memory.c ****   #endif
1160:..\..\..\..\..\..\Dev\Library embedded l2c display\u8g2\csrc/u8g2_d_memory.c **** }
 2949              		.loc 1 1160 0
 2950 0004 0048     		ldr	r0, .L314
 2951              	.LVL209:
 2952 0006 7047     		bx	lr
 2953              	.L315:
 2954              		.align	2
 2955              	.L314:
 2956 0008 E0830100 		.word	.LANCHOR19+3728
 2957              		.cfi_endproc
 2958              	.LFE104:
 2959              		.size	u8g2_m_17_4_f, .-u8g2_m_17_4_f
 2960              		.section	.text.u8g2_m_17_8_1,"ax",%progbits
 2961              		.align	2
 2962              		.global	u8g2_m_17_8_1
 2963              		.thumb
 2964              		.thumb_func
 2965              		.type	u8g2_m_17_8_1, %function
 2966              	u8g2_m_17_8_1:
 2967              	.LFB105:
1161:..\..\..\..\..\..\Dev\Library embedded l2c display\u8g2\csrc/u8g2_d_memory.c **** uint8_t *u8g2_m_17_8_1(uint8_t *page_cnt)
1162:..\..\..\..\..\..\Dev\Library embedded l2c display\u8g2\csrc/u8g2_d_memory.c **** {
 2968              		.loc 1 1162 0
 2969              		.cfi_startproc
 2970              		@ args = 0, pretend = 0, frame = 0
 2971              		@ frame_needed = 0, uses_anonymous_args = 0
 2972              		@ link register save eliminated.
 2973              	.LVL210:
1163:..\..\..\..\..\..\Dev\Library embedded l2c display\u8g2\csrc/u8g2_d_memory.c ****   #ifdef U8G2_USE_DYNAMIC_ALLOC
1164:..\..\..\..\..\..\Dev\Library embedded l2c display\u8g2\csrc/u8g2_d_memory.c ****   *page_cnt = 1;
1165:..\..\..\..\..\..\Dev\Library embedded l2c display\u8g2\csrc/u8g2_d_memory.c ****   return 0;
1166:..\..\..\..\..\..\Dev\Library embedded l2c display\u8g2\csrc/u8g2_d_memory.c ****   #else
1167:..\..\..\..\..\..\Dev\Library embedded l2c display\u8g2\csrc/u8g2_d_memory.c ****   static uint8_t buf[136];
1168:..\..\..\..\..\..\Dev\Library embedded l2c display\u8g2\csrc/u8g2_d_memory.c ****   *page_cnt = 1;
 2974              		.loc 1 1168 0
 2975 0000 0123     		movs	r3, #1
 2976 0002 0370     		strb	r3, [r0]
1169:..\..\..\..\..\..\Dev\Library embedded l2c display\u8g2\csrc/u8g2_d_memory.c ****   return buf;
1170:..\..\..\..\..\..\Dev\Library embedded l2c display\u8g2\csrc/u8g2_d_memory.c ****   #endif
1171:..\..\..\..\..\..\Dev\Library embedded l2c display\u8g2\csrc/u8g2_d_memory.c **** }
 2977              		.loc 1 1171 0
 2978 0004 0048     		ldr	r0, .L317
 2979              	.LVL211:
 2980 0006 7047     		bx	lr
 2981              	.L318:
 2982              		.align	2
 2983              	.L317:
 2984 0008 00860100 		.word	.LANCHOR20-72
 2985              		.cfi_endproc
 2986              	.LFE105:
 2987              		.size	u8g2_m_17_8_1, .-u8g2_m_17_8_1
 2988              		.section	.text.u8g2_m_17_8_2,"ax",%progbits
 2989              		.align	2
 2990              		.global	u8g2_m_17_8_2
ARM GAS  C:\Users\Abude\AppData\Local\Temp\ccndXIr0.s 			page 74


 2991              		.thumb
 2992              		.thumb_func
 2993              		.type	u8g2_m_17_8_2, %function
 2994              	u8g2_m_17_8_2:
 2995              	.LFB106:
1172:..\..\..\..\..\..\Dev\Library embedded l2c display\u8g2\csrc/u8g2_d_memory.c **** uint8_t *u8g2_m_17_8_2(uint8_t *page_cnt)
1173:..\..\..\..\..\..\Dev\Library embedded l2c display\u8g2\csrc/u8g2_d_memory.c **** {
 2996              		.loc 1 1173 0
 2997              		.cfi_startproc
 2998              		@ args = 0, pretend = 0, frame = 0
 2999              		@ frame_needed = 0, uses_anonymous_args = 0
 3000              		@ link register save eliminated.
 3001              	.LVL212:
1174:..\..\..\..\..\..\Dev\Library embedded l2c display\u8g2\csrc/u8g2_d_memory.c ****   #ifdef U8G2_USE_DYNAMIC_ALLOC
1175:..\..\..\..\..\..\Dev\Library embedded l2c display\u8g2\csrc/u8g2_d_memory.c ****   *page_cnt = 2;
1176:..\..\..\..\..\..\Dev\Library embedded l2c display\u8g2\csrc/u8g2_d_memory.c ****   return 0;
1177:..\..\..\..\..\..\Dev\Library embedded l2c display\u8g2\csrc/u8g2_d_memory.c ****   #else
1178:..\..\..\..\..\..\Dev\Library embedded l2c display\u8g2\csrc/u8g2_d_memory.c ****   static uint8_t buf[272];
1179:..\..\..\..\..\..\Dev\Library embedded l2c display\u8g2\csrc/u8g2_d_memory.c ****   *page_cnt = 2;
 3002              		.loc 1 1179 0
 3003 0000 0223     		movs	r3, #2
 3004 0002 0370     		strb	r3, [r0]
1180:..\..\..\..\..\..\Dev\Library embedded l2c display\u8g2\csrc/u8g2_d_memory.c ****   return buf;
1181:..\..\..\..\..\..\Dev\Library embedded l2c display\u8g2\csrc/u8g2_d_memory.c ****   #endif
1182:..\..\..\..\..\..\Dev\Library embedded l2c display\u8g2\csrc/u8g2_d_memory.c **** }
 3005              		.loc 1 1182 0
 3006 0004 0048     		ldr	r0, .L320
 3007              	.LVL213:
 3008 0006 7047     		bx	lr
 3009              	.L321:
 3010              		.align	2
 3011              	.L320:
 3012 0008 88860100 		.word	.LANCHOR20+64
 3013              		.cfi_endproc
 3014              	.LFE106:
 3015              		.size	u8g2_m_17_8_2, .-u8g2_m_17_8_2
 3016              		.section	.text.u8g2_m_17_8_f,"ax",%progbits
 3017              		.align	2
 3018              		.global	u8g2_m_17_8_f
 3019              		.thumb
 3020              		.thumb_func
 3021              		.type	u8g2_m_17_8_f, %function
 3022              	u8g2_m_17_8_f:
 3023              	.LFB107:
1183:..\..\..\..\..\..\Dev\Library embedded l2c display\u8g2\csrc/u8g2_d_memory.c **** uint8_t *u8g2_m_17_8_f(uint8_t *page_cnt)
1184:..\..\..\..\..\..\Dev\Library embedded l2c display\u8g2\csrc/u8g2_d_memory.c **** {
 3024              		.loc 1 1184 0
 3025              		.cfi_startproc
 3026              		@ args = 0, pretend = 0, frame = 0
 3027              		@ frame_needed = 0, uses_anonymous_args = 0
 3028              		@ link register save eliminated.
 3029              	.LVL214:
1185:..\..\..\..\..\..\Dev\Library embedded l2c display\u8g2\csrc/u8g2_d_memory.c ****   #ifdef U8G2_USE_DYNAMIC_ALLOC
1186:..\..\..\..\..\..\Dev\Library embedded l2c display\u8g2\csrc/u8g2_d_memory.c ****   *page_cnt = 8;
1187:..\..\..\..\..\..\Dev\Library embedded l2c display\u8g2\csrc/u8g2_d_memory.c ****   return 0;
1188:..\..\..\..\..\..\Dev\Library embedded l2c display\u8g2\csrc/u8g2_d_memory.c ****   #else
1189:..\..\..\..\..\..\Dev\Library embedded l2c display\u8g2\csrc/u8g2_d_memory.c ****   static uint8_t buf[1088];
ARM GAS  C:\Users\Abude\AppData\Local\Temp\ccndXIr0.s 			page 75


1190:..\..\..\..\..\..\Dev\Library embedded l2c display\u8g2\csrc/u8g2_d_memory.c ****   *page_cnt = 8;
 3030              		.loc 1 1190 0
 3031 0000 0823     		movs	r3, #8
 3032 0002 0370     		strb	r3, [r0]
1191:..\..\..\..\..\..\Dev\Library embedded l2c display\u8g2\csrc/u8g2_d_memory.c ****   return buf;
1192:..\..\..\..\..\..\Dev\Library embedded l2c display\u8g2\csrc/u8g2_d_memory.c ****   #endif
1193:..\..\..\..\..\..\Dev\Library embedded l2c display\u8g2\csrc/u8g2_d_memory.c **** }
 3033              		.loc 1 1193 0
 3034 0004 0048     		ldr	r0, .L323
 3035              	.LVL215:
 3036 0006 7047     		bx	lr
 3037              	.L324:
 3038              		.align	2
 3039              	.L323:
 3040 0008 98870100 		.word	.LANCHOR20+336
 3041              		.cfi_endproc
 3042              	.LFE107:
 3043              		.size	u8g2_m_17_8_f, .-u8g2_m_17_8_f
 3044              		.section	.text.u8g2_m_48_17_1,"ax",%progbits
 3045              		.align	2
 3046              		.global	u8g2_m_48_17_1
 3047              		.thumb
 3048              		.thumb_func
 3049              		.type	u8g2_m_48_17_1, %function
 3050              	u8g2_m_48_17_1:
 3051              	.LFB108:
1194:..\..\..\..\..\..\Dev\Library embedded l2c display\u8g2\csrc/u8g2_d_memory.c **** uint8_t *u8g2_m_48_17_1(uint8_t *page_cnt)
1195:..\..\..\..\..\..\Dev\Library embedded l2c display\u8g2\csrc/u8g2_d_memory.c **** {
 3052              		.loc 1 1195 0
 3053              		.cfi_startproc
 3054              		@ args = 0, pretend = 0, frame = 0
 3055              		@ frame_needed = 0, uses_anonymous_args = 0
 3056              		@ link register save eliminated.
 3057              	.LVL216:
1196:..\..\..\..\..\..\Dev\Library embedded l2c display\u8g2\csrc/u8g2_d_memory.c ****   #ifdef U8G2_USE_DYNAMIC_ALLOC
1197:..\..\..\..\..\..\Dev\Library embedded l2c display\u8g2\csrc/u8g2_d_memory.c ****   *page_cnt = 1;
1198:..\..\..\..\..\..\Dev\Library embedded l2c display\u8g2\csrc/u8g2_d_memory.c ****   return 0;
1199:..\..\..\..\..\..\Dev\Library embedded l2c display\u8g2\csrc/u8g2_d_memory.c ****   #else
1200:..\..\..\..\..\..\Dev\Library embedded l2c display\u8g2\csrc/u8g2_d_memory.c ****   static uint8_t buf[384];
1201:..\..\..\..\..\..\Dev\Library embedded l2c display\u8g2\csrc/u8g2_d_memory.c ****   *page_cnt = 1;
 3058              		.loc 1 1201 0
 3059 0000 0123     		movs	r3, #1
 3060 0002 0370     		strb	r3, [r0]
1202:..\..\..\..\..\..\Dev\Library embedded l2c display\u8g2\csrc/u8g2_d_memory.c ****   return buf;
1203:..\..\..\..\..\..\Dev\Library embedded l2c display\u8g2\csrc/u8g2_d_memory.c ****   #endif
1204:..\..\..\..\..\..\Dev\Library embedded l2c display\u8g2\csrc/u8g2_d_memory.c **** }
 3061              		.loc 1 1204 0
 3062 0004 0048     		ldr	r0, .L326
 3063              	.LVL217:
 3064 0006 7047     		bx	lr
 3065              	.L327:
 3066              		.align	2
 3067              	.L326:
 3068 0008 D88B0100 		.word	.LANCHOR20+1424
 3069              		.cfi_endproc
 3070              	.LFE108:
 3071              		.size	u8g2_m_48_17_1, .-u8g2_m_48_17_1
ARM GAS  C:\Users\Abude\AppData\Local\Temp\ccndXIr0.s 			page 76


 3072              		.section	.text.u8g2_m_48_17_2,"ax",%progbits
 3073              		.align	2
 3074              		.global	u8g2_m_48_17_2
 3075              		.thumb
 3076              		.thumb_func
 3077              		.type	u8g2_m_48_17_2, %function
 3078              	u8g2_m_48_17_2:
 3079              	.LFB109:
1205:..\..\..\..\..\..\Dev\Library embedded l2c display\u8g2\csrc/u8g2_d_memory.c **** uint8_t *u8g2_m_48_17_2(uint8_t *page_cnt)
1206:..\..\..\..\..\..\Dev\Library embedded l2c display\u8g2\csrc/u8g2_d_memory.c **** {
 3080              		.loc 1 1206 0
 3081              		.cfi_startproc
 3082              		@ args = 0, pretend = 0, frame = 0
 3083              		@ frame_needed = 0, uses_anonymous_args = 0
 3084              		@ link register save eliminated.
 3085              	.LVL218:
1207:..\..\..\..\..\..\Dev\Library embedded l2c display\u8g2\csrc/u8g2_d_memory.c ****   #ifdef U8G2_USE_DYNAMIC_ALLOC
1208:..\..\..\..\..\..\Dev\Library embedded l2c display\u8g2\csrc/u8g2_d_memory.c ****   *page_cnt = 2;
1209:..\..\..\..\..\..\Dev\Library embedded l2c display\u8g2\csrc/u8g2_d_memory.c ****   return 0;
1210:..\..\..\..\..\..\Dev\Library embedded l2c display\u8g2\csrc/u8g2_d_memory.c ****   #else
1211:..\..\..\..\..\..\Dev\Library embedded l2c display\u8g2\csrc/u8g2_d_memory.c ****   static uint8_t buf[768];
1212:..\..\..\..\..\..\Dev\Library embedded l2c display\u8g2\csrc/u8g2_d_memory.c ****   *page_cnt = 2;
 3086              		.loc 1 1212 0
 3087 0000 0223     		movs	r3, #2
 3088 0002 0370     		strb	r3, [r0]
1213:..\..\..\..\..\..\Dev\Library embedded l2c display\u8g2\csrc/u8g2_d_memory.c ****   return buf;
1214:..\..\..\..\..\..\Dev\Library embedded l2c display\u8g2\csrc/u8g2_d_memory.c ****   #endif
1215:..\..\..\..\..\..\Dev\Library embedded l2c display\u8g2\csrc/u8g2_d_memory.c **** }
 3089              		.loc 1 1215 0
 3090 0004 0048     		ldr	r0, .L329
 3091              	.LVL219:
 3092 0006 7047     		bx	lr
 3093              	.L330:
 3094              		.align	2
 3095              	.L329:
 3096 0008 588D0100 		.word	.LANCHOR20+1808
 3097              		.cfi_endproc
 3098              	.LFE109:
 3099              		.size	u8g2_m_48_17_2, .-u8g2_m_48_17_2
 3100              		.section	.text.u8g2_m_48_17_f,"ax",%progbits
 3101              		.align	2
 3102              		.global	u8g2_m_48_17_f
 3103              		.thumb
 3104              		.thumb_func
 3105              		.type	u8g2_m_48_17_f, %function
 3106              	u8g2_m_48_17_f:
 3107              	.LFB110:
1216:..\..\..\..\..\..\Dev\Library embedded l2c display\u8g2\csrc/u8g2_d_memory.c **** uint8_t *u8g2_m_48_17_f(uint8_t *page_cnt)
1217:..\..\..\..\..\..\Dev\Library embedded l2c display\u8g2\csrc/u8g2_d_memory.c **** {
 3108              		.loc 1 1217 0
 3109              		.cfi_startproc
 3110              		@ args = 0, pretend = 0, frame = 0
 3111              		@ frame_needed = 0, uses_anonymous_args = 0
 3112              		@ link register save eliminated.
 3113              	.LVL220:
1218:..\..\..\..\..\..\Dev\Library embedded l2c display\u8g2\csrc/u8g2_d_memory.c ****   #ifdef U8G2_USE_DYNAMIC_ALLOC
1219:..\..\..\..\..\..\Dev\Library embedded l2c display\u8g2\csrc/u8g2_d_memory.c ****   *page_cnt = 17;
ARM GAS  C:\Users\Abude\AppData\Local\Temp\ccndXIr0.s 			page 77


1220:..\..\..\..\..\..\Dev\Library embedded l2c display\u8g2\csrc/u8g2_d_memory.c ****   return 0;
1221:..\..\..\..\..\..\Dev\Library embedded l2c display\u8g2\csrc/u8g2_d_memory.c ****   #else
1222:..\..\..\..\..\..\Dev\Library embedded l2c display\u8g2\csrc/u8g2_d_memory.c ****   static uint8_t buf[6528];
1223:..\..\..\..\..\..\Dev\Library embedded l2c display\u8g2\csrc/u8g2_d_memory.c ****   *page_cnt = 17;
 3114              		.loc 1 1223 0
 3115 0000 1123     		movs	r3, #17
 3116 0002 0370     		strb	r3, [r0]
1224:..\..\..\..\..\..\Dev\Library embedded l2c display\u8g2\csrc/u8g2_d_memory.c ****   return buf;
1225:..\..\..\..\..\..\Dev\Library embedded l2c display\u8g2\csrc/u8g2_d_memory.c ****   #endif
1226:..\..\..\..\..\..\Dev\Library embedded l2c display\u8g2\csrc/u8g2_d_memory.c **** }
 3117              		.loc 1 1226 0
 3118 0004 0048     		ldr	r0, .L332
 3119              	.LVL221:
 3120 0006 7047     		bx	lr
 3121              	.L333:
 3122              		.align	2
 3123              	.L332:
 3124 0008 58900100 		.word	.LANCHOR20+2576
 3125              		.cfi_endproc
 3126              	.LFE110:
 3127              		.size	u8g2_m_48_17_f, .-u8g2_m_48_17_f
 3128              		.section	.text.u8g2_m_20_12_1,"ax",%progbits
 3129              		.align	2
 3130              		.global	u8g2_m_20_12_1
 3131              		.thumb
 3132              		.thumb_func
 3133              		.type	u8g2_m_20_12_1, %function
 3134              	u8g2_m_20_12_1:
 3135              	.LFB111:
1227:..\..\..\..\..\..\Dev\Library embedded l2c display\u8g2\csrc/u8g2_d_memory.c **** uint8_t *u8g2_m_20_12_1(uint8_t *page_cnt)
1228:..\..\..\..\..\..\Dev\Library embedded l2c display\u8g2\csrc/u8g2_d_memory.c **** {
 3136              		.loc 1 1228 0
 3137              		.cfi_startproc
 3138              		@ args = 0, pretend = 0, frame = 0
 3139              		@ frame_needed = 0, uses_anonymous_args = 0
 3140              		@ link register save eliminated.
 3141              	.LVL222:
1229:..\..\..\..\..\..\Dev\Library embedded l2c display\u8g2\csrc/u8g2_d_memory.c ****   #ifdef U8G2_USE_DYNAMIC_ALLOC
1230:..\..\..\..\..\..\Dev\Library embedded l2c display\u8g2\csrc/u8g2_d_memory.c ****   *page_cnt = 1;
1231:..\..\..\..\..\..\Dev\Library embedded l2c display\u8g2\csrc/u8g2_d_memory.c ****   return 0;
1232:..\..\..\..\..\..\Dev\Library embedded l2c display\u8g2\csrc/u8g2_d_memory.c ****   #else
1233:..\..\..\..\..\..\Dev\Library embedded l2c display\u8g2\csrc/u8g2_d_memory.c ****   static uint8_t buf[160];
1234:..\..\..\..\..\..\Dev\Library embedded l2c display\u8g2\csrc/u8g2_d_memory.c ****   *page_cnt = 1;
 3142              		.loc 1 1234 0
 3143 0000 0123     		movs	r3, #1
 3144 0002 0370     		strb	r3, [r0]
1235:..\..\..\..\..\..\Dev\Library embedded l2c display\u8g2\csrc/u8g2_d_memory.c ****   return buf;
1236:..\..\..\..\..\..\Dev\Library embedded l2c display\u8g2\csrc/u8g2_d_memory.c ****   #endif
1237:..\..\..\..\..\..\Dev\Library embedded l2c display\u8g2\csrc/u8g2_d_memory.c **** }
 3145              		.loc 1 1237 0
 3146 0004 0048     		ldr	r0, .L335
 3147              	.LVL223:
 3148 0006 7047     		bx	lr
 3149              	.L336:
 3150              		.align	2
 3151              	.L335:
 3152 0008 D8A90100 		.word	.LANCHOR21+416
ARM GAS  C:\Users\Abude\AppData\Local\Temp\ccndXIr0.s 			page 78


 3153              		.cfi_endproc
 3154              	.LFE111:
 3155              		.size	u8g2_m_20_12_1, .-u8g2_m_20_12_1
 3156              		.section	.text.u8g2_m_20_12_2,"ax",%progbits
 3157              		.align	2
 3158              		.global	u8g2_m_20_12_2
 3159              		.thumb
 3160              		.thumb_func
 3161              		.type	u8g2_m_20_12_2, %function
 3162              	u8g2_m_20_12_2:
 3163              	.LFB112:
1238:..\..\..\..\..\..\Dev\Library embedded l2c display\u8g2\csrc/u8g2_d_memory.c **** uint8_t *u8g2_m_20_12_2(uint8_t *page_cnt)
1239:..\..\..\..\..\..\Dev\Library embedded l2c display\u8g2\csrc/u8g2_d_memory.c **** {
 3164              		.loc 1 1239 0
 3165              		.cfi_startproc
 3166              		@ args = 0, pretend = 0, frame = 0
 3167              		@ frame_needed = 0, uses_anonymous_args = 0
 3168              		@ link register save eliminated.
 3169              	.LVL224:
1240:..\..\..\..\..\..\Dev\Library embedded l2c display\u8g2\csrc/u8g2_d_memory.c ****   #ifdef U8G2_USE_DYNAMIC_ALLOC
1241:..\..\..\..\..\..\Dev\Library embedded l2c display\u8g2\csrc/u8g2_d_memory.c ****   *page_cnt = 2;
1242:..\..\..\..\..\..\Dev\Library embedded l2c display\u8g2\csrc/u8g2_d_memory.c ****   return 0;
1243:..\..\..\..\..\..\Dev\Library embedded l2c display\u8g2\csrc/u8g2_d_memory.c ****   #else
1244:..\..\..\..\..\..\Dev\Library embedded l2c display\u8g2\csrc/u8g2_d_memory.c ****   static uint8_t buf[320];
1245:..\..\..\..\..\..\Dev\Library embedded l2c display\u8g2\csrc/u8g2_d_memory.c ****   *page_cnt = 2;
 3170              		.loc 1 1245 0
 3171 0000 0223     		movs	r3, #2
 3172 0002 0370     		strb	r3, [r0]
1246:..\..\..\..\..\..\Dev\Library embedded l2c display\u8g2\csrc/u8g2_d_memory.c ****   return buf;
1247:..\..\..\..\..\..\Dev\Library embedded l2c display\u8g2\csrc/u8g2_d_memory.c ****   #endif
1248:..\..\..\..\..\..\Dev\Library embedded l2c display\u8g2\csrc/u8g2_d_memory.c **** }
 3173              		.loc 1 1248 0
 3174 0004 0048     		ldr	r0, .L338
 3175              	.LVL225:
 3176 0006 7047     		bx	lr
 3177              	.L339:
 3178              		.align	2
 3179              	.L338:
 3180 0008 78AA0100 		.word	.LANCHOR21+576
 3181              		.cfi_endproc
 3182              	.LFE112:
 3183              		.size	u8g2_m_20_12_2, .-u8g2_m_20_12_2
 3184              		.section	.text.u8g2_m_20_12_f,"ax",%progbits
 3185              		.align	2
 3186              		.global	u8g2_m_20_12_f
 3187              		.thumb
 3188              		.thumb_func
 3189              		.type	u8g2_m_20_12_f, %function
 3190              	u8g2_m_20_12_f:
 3191              	.LFB113:
1249:..\..\..\..\..\..\Dev\Library embedded l2c display\u8g2\csrc/u8g2_d_memory.c **** uint8_t *u8g2_m_20_12_f(uint8_t *page_cnt)
1250:..\..\..\..\..\..\Dev\Library embedded l2c display\u8g2\csrc/u8g2_d_memory.c **** {
 3192              		.loc 1 1250 0
 3193              		.cfi_startproc
 3194              		@ args = 0, pretend = 0, frame = 0
 3195              		@ frame_needed = 0, uses_anonymous_args = 0
 3196              		@ link register save eliminated.
ARM GAS  C:\Users\Abude\AppData\Local\Temp\ccndXIr0.s 			page 79


 3197              	.LVL226:
1251:..\..\..\..\..\..\Dev\Library embedded l2c display\u8g2\csrc/u8g2_d_memory.c ****   #ifdef U8G2_USE_DYNAMIC_ALLOC
1252:..\..\..\..\..\..\Dev\Library embedded l2c display\u8g2\csrc/u8g2_d_memory.c ****   *page_cnt = 12;
1253:..\..\..\..\..\..\Dev\Library embedded l2c display\u8g2\csrc/u8g2_d_memory.c ****   return 0;
1254:..\..\..\..\..\..\Dev\Library embedded l2c display\u8g2\csrc/u8g2_d_memory.c ****   #else
1255:..\..\..\..\..\..\Dev\Library embedded l2c display\u8g2\csrc/u8g2_d_memory.c ****   static uint8_t buf[1920];
1256:..\..\..\..\..\..\Dev\Library embedded l2c display\u8g2\csrc/u8g2_d_memory.c ****   *page_cnt = 12;
 3198              		.loc 1 1256 0
 3199 0000 0C23     		movs	r3, #12
 3200 0002 0370     		strb	r3, [r0]
1257:..\..\..\..\..\..\Dev\Library embedded l2c display\u8g2\csrc/u8g2_d_memory.c ****   return buf;
1258:..\..\..\..\..\..\Dev\Library embedded l2c display\u8g2\csrc/u8g2_d_memory.c ****   #endif
1259:..\..\..\..\..\..\Dev\Library embedded l2c display\u8g2\csrc/u8g2_d_memory.c **** }
 3201              		.loc 1 1259 0
 3202 0004 0048     		ldr	r0, .L341
 3203              	.LVL227:
 3204 0006 7047     		bx	lr
 3205              	.L342:
 3206              		.align	2
 3207              	.L341:
 3208 0008 B8AB0100 		.word	.LANCHOR21+896
 3209              		.cfi_endproc
 3210              	.LFE113:
 3211              		.size	u8g2_m_20_12_f, .-u8g2_m_20_12_f
 3212              		.section	.text.u8g2_m_32_20_1,"ax",%progbits
 3213              		.align	2
 3214              		.global	u8g2_m_32_20_1
 3215              		.thumb
 3216              		.thumb_func
 3217              		.type	u8g2_m_32_20_1, %function
 3218              	u8g2_m_32_20_1:
 3219              	.LFB114:
1260:..\..\..\..\..\..\Dev\Library embedded l2c display\u8g2\csrc/u8g2_d_memory.c **** uint8_t *u8g2_m_32_20_1(uint8_t *page_cnt)
1261:..\..\..\..\..\..\Dev\Library embedded l2c display\u8g2\csrc/u8g2_d_memory.c **** {
 3220              		.loc 1 1261 0
 3221              		.cfi_startproc
 3222              		@ args = 0, pretend = 0, frame = 0
 3223              		@ frame_needed = 0, uses_anonymous_args = 0
 3224              		@ link register save eliminated.
 3225              	.LVL228:
1262:..\..\..\..\..\..\Dev\Library embedded l2c display\u8g2\csrc/u8g2_d_memory.c ****   #ifdef U8G2_USE_DYNAMIC_ALLOC
1263:..\..\..\..\..\..\Dev\Library embedded l2c display\u8g2\csrc/u8g2_d_memory.c ****   *page_cnt = 1;
1264:..\..\..\..\..\..\Dev\Library embedded l2c display\u8g2\csrc/u8g2_d_memory.c ****   return 0;
1265:..\..\..\..\..\..\Dev\Library embedded l2c display\u8g2\csrc/u8g2_d_memory.c ****   #else
1266:..\..\..\..\..\..\Dev\Library embedded l2c display\u8g2\csrc/u8g2_d_memory.c ****   static uint8_t buf[256];
1267:..\..\..\..\..\..\Dev\Library embedded l2c display\u8g2\csrc/u8g2_d_memory.c ****   *page_cnt = 1;
 3226              		.loc 1 1267 0
 3227 0000 0123     		movs	r3, #1
 3228 0002 0370     		strb	r3, [r0]
1268:..\..\..\..\..\..\Dev\Library embedded l2c display\u8g2\csrc/u8g2_d_memory.c ****   return buf;
1269:..\..\..\..\..\..\Dev\Library embedded l2c display\u8g2\csrc/u8g2_d_memory.c ****   #endif
1270:..\..\..\..\..\..\Dev\Library embedded l2c display\u8g2\csrc/u8g2_d_memory.c **** }
 3229              		.loc 1 1270 0
 3230 0004 0048     		ldr	r0, .L344
 3231              	.LVL229:
 3232 0006 7047     		bx	lr
 3233              	.L345:
ARM GAS  C:\Users\Abude\AppData\Local\Temp\ccndXIr0.s 			page 80


 3234              		.align	2
 3235              	.L344:
 3236 0008 38B30100 		.word	.LANCHOR21+2816
 3237              		.cfi_endproc
 3238              	.LFE114:
 3239              		.size	u8g2_m_32_20_1, .-u8g2_m_32_20_1
 3240              		.section	.text.u8g2_m_32_20_2,"ax",%progbits
 3241              		.align	2
 3242              		.global	u8g2_m_32_20_2
 3243              		.thumb
 3244              		.thumb_func
 3245              		.type	u8g2_m_32_20_2, %function
 3246              	u8g2_m_32_20_2:
 3247              	.LFB115:
1271:..\..\..\..\..\..\Dev\Library embedded l2c display\u8g2\csrc/u8g2_d_memory.c **** uint8_t *u8g2_m_32_20_2(uint8_t *page_cnt)
1272:..\..\..\..\..\..\Dev\Library embedded l2c display\u8g2\csrc/u8g2_d_memory.c **** {
 3248              		.loc 1 1272 0
 3249              		.cfi_startproc
 3250              		@ args = 0, pretend = 0, frame = 0
 3251              		@ frame_needed = 0, uses_anonymous_args = 0
 3252              		@ link register save eliminated.
 3253              	.LVL230:
1273:..\..\..\..\..\..\Dev\Library embedded l2c display\u8g2\csrc/u8g2_d_memory.c ****   #ifdef U8G2_USE_DYNAMIC_ALLOC
1274:..\..\..\..\..\..\Dev\Library embedded l2c display\u8g2\csrc/u8g2_d_memory.c ****   *page_cnt = 2;
1275:..\..\..\..\..\..\Dev\Library embedded l2c display\u8g2\csrc/u8g2_d_memory.c ****   return 0;
1276:..\..\..\..\..\..\Dev\Library embedded l2c display\u8g2\csrc/u8g2_d_memory.c ****   #else
1277:..\..\..\..\..\..\Dev\Library embedded l2c display\u8g2\csrc/u8g2_d_memory.c ****   static uint8_t buf[512];
1278:..\..\..\..\..\..\Dev\Library embedded l2c display\u8g2\csrc/u8g2_d_memory.c ****   *page_cnt = 2;
 3254              		.loc 1 1278 0
 3255 0000 0223     		movs	r3, #2
 3256 0002 0370     		strb	r3, [r0]
1279:..\..\..\..\..\..\Dev\Library embedded l2c display\u8g2\csrc/u8g2_d_memory.c ****   return buf;
1280:..\..\..\..\..\..\Dev\Library embedded l2c display\u8g2\csrc/u8g2_d_memory.c ****   #endif
1281:..\..\..\..\..\..\Dev\Library embedded l2c display\u8g2\csrc/u8g2_d_memory.c **** }
 3257              		.loc 1 1281 0
 3258 0004 0048     		ldr	r0, .L347
 3259              	.LVL231:
 3260 0006 7047     		bx	lr
 3261              	.L348:
 3262              		.align	2
 3263              	.L347:
 3264 0008 38B40100 		.word	.LANCHOR21+3072
 3265              		.cfi_endproc
 3266              	.LFE115:
 3267              		.size	u8g2_m_32_20_2, .-u8g2_m_32_20_2
 3268              		.section	.text.u8g2_m_32_20_f,"ax",%progbits
 3269              		.align	2
 3270              		.global	u8g2_m_32_20_f
 3271              		.thumb
 3272              		.thumb_func
 3273              		.type	u8g2_m_32_20_f, %function
 3274              	u8g2_m_32_20_f:
 3275              	.LFB116:
1282:..\..\..\..\..\..\Dev\Library embedded l2c display\u8g2\csrc/u8g2_d_memory.c **** uint8_t *u8g2_m_32_20_f(uint8_t *page_cnt)
1283:..\..\..\..\..\..\Dev\Library embedded l2c display\u8g2\csrc/u8g2_d_memory.c **** {
 3276              		.loc 1 1283 0
 3277              		.cfi_startproc
ARM GAS  C:\Users\Abude\AppData\Local\Temp\ccndXIr0.s 			page 81


 3278              		@ args = 0, pretend = 0, frame = 0
 3279              		@ frame_needed = 0, uses_anonymous_args = 0
 3280              		@ link register save eliminated.
 3281              	.LVL232:
1284:..\..\..\..\..\..\Dev\Library embedded l2c display\u8g2\csrc/u8g2_d_memory.c ****   #ifdef U8G2_USE_DYNAMIC_ALLOC
1285:..\..\..\..\..\..\Dev\Library embedded l2c display\u8g2\csrc/u8g2_d_memory.c ****   *page_cnt = 20;
1286:..\..\..\..\..\..\Dev\Library embedded l2c display\u8g2\csrc/u8g2_d_memory.c ****   return 0;
1287:..\..\..\..\..\..\Dev\Library embedded l2c display\u8g2\csrc/u8g2_d_memory.c ****   #else
1288:..\..\..\..\..\..\Dev\Library embedded l2c display\u8g2\csrc/u8g2_d_memory.c ****   static uint8_t buf[5120];
1289:..\..\..\..\..\..\Dev\Library embedded l2c display\u8g2\csrc/u8g2_d_memory.c ****   *page_cnt = 20;
 3282              		.loc 1 1289 0
 3283 0000 1423     		movs	r3, #20
 3284 0002 0370     		strb	r3, [r0]
1290:..\..\..\..\..\..\Dev\Library embedded l2c display\u8g2\csrc/u8g2_d_memory.c ****   return buf;
1291:..\..\..\..\..\..\Dev\Library embedded l2c display\u8g2\csrc/u8g2_d_memory.c ****   #endif
1292:..\..\..\..\..\..\Dev\Library embedded l2c display\u8g2\csrc/u8g2_d_memory.c **** }
 3285              		.loc 1 1292 0
 3286 0004 0048     		ldr	r0, .L350
 3287              	.LVL233:
 3288 0006 7047     		bx	lr
 3289              	.L351:
 3290              		.align	2
 3291              	.L350:
 3292 0008 38B60100 		.word	.LANCHOR21+3584
 3293              		.cfi_endproc
 3294              	.LFE116:
 3295              		.size	u8g2_m_32_20_f, .-u8g2_m_32_20_f
 3296              		.section	.text.u8g2_m_22_13_1,"ax",%progbits
 3297              		.align	2
 3298              		.global	u8g2_m_22_13_1
 3299              		.thumb
 3300              		.thumb_func
 3301              		.type	u8g2_m_22_13_1, %function
 3302              	u8g2_m_22_13_1:
 3303              	.LFB117:
1293:..\..\..\..\..\..\Dev\Library embedded l2c display\u8g2\csrc/u8g2_d_memory.c **** uint8_t *u8g2_m_22_13_1(uint8_t *page_cnt)
1294:..\..\..\..\..\..\Dev\Library embedded l2c display\u8g2\csrc/u8g2_d_memory.c **** {
 3304              		.loc 1 1294 0
 3305              		.cfi_startproc
 3306              		@ args = 0, pretend = 0, frame = 0
 3307              		@ frame_needed = 0, uses_anonymous_args = 0
 3308              		@ link register save eliminated.
 3309              	.LVL234:
1295:..\..\..\..\..\..\Dev\Library embedded l2c display\u8g2\csrc/u8g2_d_memory.c ****   #ifdef U8G2_USE_DYNAMIC_ALLOC
1296:..\..\..\..\..\..\Dev\Library embedded l2c display\u8g2\csrc/u8g2_d_memory.c ****   *page_cnt = 1;
1297:..\..\..\..\..\..\Dev\Library embedded l2c display\u8g2\csrc/u8g2_d_memory.c ****   return 0;
1298:..\..\..\..\..\..\Dev\Library embedded l2c display\u8g2\csrc/u8g2_d_memory.c ****   #else
1299:..\..\..\..\..\..\Dev\Library embedded l2c display\u8g2\csrc/u8g2_d_memory.c ****   static uint8_t buf[176];
1300:..\..\..\..\..\..\Dev\Library embedded l2c display\u8g2\csrc/u8g2_d_memory.c ****   *page_cnt = 1;
 3310              		.loc 1 1300 0
 3311 0000 0123     		movs	r3, #1
 3312 0002 0370     		strb	r3, [r0]
1301:..\..\..\..\..\..\Dev\Library embedded l2c display\u8g2\csrc/u8g2_d_memory.c ****   return buf;
1302:..\..\..\..\..\..\Dev\Library embedded l2c display\u8g2\csrc/u8g2_d_memory.c ****   #endif
1303:..\..\..\..\..\..\Dev\Library embedded l2c display\u8g2\csrc/u8g2_d_memory.c **** }
 3313              		.loc 1 1303 0
 3314 0004 0048     		ldr	r0, .L353
ARM GAS  C:\Users\Abude\AppData\Local\Temp\ccndXIr0.s 			page 82


 3315              	.LVL235:
 3316 0006 7047     		bx	lr
 3317              	.L354:
 3318              		.align	2
 3319              	.L353:
 3320 0008 38CA0100 		.word	.LANCHOR22+16
 3321              		.cfi_endproc
 3322              	.LFE117:
 3323              		.size	u8g2_m_22_13_1, .-u8g2_m_22_13_1
 3324              		.section	.text.u8g2_m_22_13_2,"ax",%progbits
 3325              		.align	2
 3326              		.global	u8g2_m_22_13_2
 3327              		.thumb
 3328              		.thumb_func
 3329              		.type	u8g2_m_22_13_2, %function
 3330              	u8g2_m_22_13_2:
 3331              	.LFB118:
1304:..\..\..\..\..\..\Dev\Library embedded l2c display\u8g2\csrc/u8g2_d_memory.c **** uint8_t *u8g2_m_22_13_2(uint8_t *page_cnt)
1305:..\..\..\..\..\..\Dev\Library embedded l2c display\u8g2\csrc/u8g2_d_memory.c **** {
 3332              		.loc 1 1305 0
 3333              		.cfi_startproc
 3334              		@ args = 0, pretend = 0, frame = 0
 3335              		@ frame_needed = 0, uses_anonymous_args = 0
 3336              		@ link register save eliminated.
 3337              	.LVL236:
1306:..\..\..\..\..\..\Dev\Library embedded l2c display\u8g2\csrc/u8g2_d_memory.c ****   #ifdef U8G2_USE_DYNAMIC_ALLOC
1307:..\..\..\..\..\..\Dev\Library embedded l2c display\u8g2\csrc/u8g2_d_memory.c ****   *page_cnt = 2;
1308:..\..\..\..\..\..\Dev\Library embedded l2c display\u8g2\csrc/u8g2_d_memory.c ****   return 0;
1309:..\..\..\..\..\..\Dev\Library embedded l2c display\u8g2\csrc/u8g2_d_memory.c ****   #else
1310:..\..\..\..\..\..\Dev\Library embedded l2c display\u8g2\csrc/u8g2_d_memory.c ****   static uint8_t buf[352];
1311:..\..\..\..\..\..\Dev\Library embedded l2c display\u8g2\csrc/u8g2_d_memory.c ****   *page_cnt = 2;
 3338              		.loc 1 1311 0
 3339 0000 0223     		movs	r3, #2
 3340 0002 0370     		strb	r3, [r0]
1312:..\..\..\..\..\..\Dev\Library embedded l2c display\u8g2\csrc/u8g2_d_memory.c ****   return buf;
1313:..\..\..\..\..\..\Dev\Library embedded l2c display\u8g2\csrc/u8g2_d_memory.c ****   #endif
1314:..\..\..\..\..\..\Dev\Library embedded l2c display\u8g2\csrc/u8g2_d_memory.c **** }
 3341              		.loc 1 1314 0
 3342 0004 0048     		ldr	r0, .L356
 3343              	.LVL237:
 3344 0006 7047     		bx	lr
 3345              	.L357:
 3346              		.align	2
 3347              	.L356:
 3348 0008 E8CA0100 		.word	.LANCHOR22+192
 3349              		.cfi_endproc
 3350              	.LFE118:
 3351              		.size	u8g2_m_22_13_2, .-u8g2_m_22_13_2
 3352              		.section	.text.u8g2_m_22_13_f,"ax",%progbits
 3353              		.align	2
 3354              		.global	u8g2_m_22_13_f
 3355              		.thumb
 3356              		.thumb_func
 3357              		.type	u8g2_m_22_13_f, %function
 3358              	u8g2_m_22_13_f:
 3359              	.LFB119:
1315:..\..\..\..\..\..\Dev\Library embedded l2c display\u8g2\csrc/u8g2_d_memory.c **** uint8_t *u8g2_m_22_13_f(uint8_t *page_cnt)
ARM GAS  C:\Users\Abude\AppData\Local\Temp\ccndXIr0.s 			page 83


1316:..\..\..\..\..\..\Dev\Library embedded l2c display\u8g2\csrc/u8g2_d_memory.c **** {
 3360              		.loc 1 1316 0
 3361              		.cfi_startproc
 3362              		@ args = 0, pretend = 0, frame = 0
 3363              		@ frame_needed = 0, uses_anonymous_args = 0
 3364              		@ link register save eliminated.
 3365              	.LVL238:
1317:..\..\..\..\..\..\Dev\Library embedded l2c display\u8g2\csrc/u8g2_d_memory.c ****   #ifdef U8G2_USE_DYNAMIC_ALLOC
1318:..\..\..\..\..\..\Dev\Library embedded l2c display\u8g2\csrc/u8g2_d_memory.c ****   *page_cnt = 13;
1319:..\..\..\..\..\..\Dev\Library embedded l2c display\u8g2\csrc/u8g2_d_memory.c ****   return 0;
1320:..\..\..\..\..\..\Dev\Library embedded l2c display\u8g2\csrc/u8g2_d_memory.c ****   #else
1321:..\..\..\..\..\..\Dev\Library embedded l2c display\u8g2\csrc/u8g2_d_memory.c ****   static uint8_t buf[2288];
1322:..\..\..\..\..\..\Dev\Library embedded l2c display\u8g2\csrc/u8g2_d_memory.c ****   *page_cnt = 13;
 3366              		.loc 1 1322 0
 3367 0000 0D23     		movs	r3, #13
 3368 0002 0370     		strb	r3, [r0]
1323:..\..\..\..\..\..\Dev\Library embedded l2c display\u8g2\csrc/u8g2_d_memory.c ****   return buf;
1324:..\..\..\..\..\..\Dev\Library embedded l2c display\u8g2\csrc/u8g2_d_memory.c ****   #endif
1325:..\..\..\..\..\..\Dev\Library embedded l2c display\u8g2\csrc/u8g2_d_memory.c **** }
 3369              		.loc 1 1325 0
 3370 0004 0048     		ldr	r0, .L359
 3371              	.LVL239:
 3372 0006 7047     		bx	lr
 3373              	.L360:
 3374              		.align	2
 3375              	.L359:
 3376 0008 48CC0100 		.word	.LANCHOR22+544
 3377              		.cfi_endproc
 3378              	.LFE119:
 3379              		.size	u8g2_m_22_13_f, .-u8g2_m_22_13_f
 3380              		.section	.text.u8g2_m_19_4_1,"ax",%progbits
 3381              		.align	2
 3382              		.global	u8g2_m_19_4_1
 3383              		.thumb
 3384              		.thumb_func
 3385              		.type	u8g2_m_19_4_1, %function
 3386              	u8g2_m_19_4_1:
 3387              	.LFB120:
1326:..\..\..\..\..\..\Dev\Library embedded l2c display\u8g2\csrc/u8g2_d_memory.c **** uint8_t *u8g2_m_19_4_1(uint8_t *page_cnt)
1327:..\..\..\..\..\..\Dev\Library embedded l2c display\u8g2\csrc/u8g2_d_memory.c **** {
 3388              		.loc 1 1327 0
 3389              		.cfi_startproc
 3390              		@ args = 0, pretend = 0, frame = 0
 3391              		@ frame_needed = 0, uses_anonymous_args = 0
 3392              		@ link register save eliminated.
 3393              	.LVL240:
1328:..\..\..\..\..\..\Dev\Library embedded l2c display\u8g2\csrc/u8g2_d_memory.c ****   #ifdef U8G2_USE_DYNAMIC_ALLOC
1329:..\..\..\..\..\..\Dev\Library embedded l2c display\u8g2\csrc/u8g2_d_memory.c ****   *page_cnt = 1;
1330:..\..\..\..\..\..\Dev\Library embedded l2c display\u8g2\csrc/u8g2_d_memory.c ****   return 0;
1331:..\..\..\..\..\..\Dev\Library embedded l2c display\u8g2\csrc/u8g2_d_memory.c ****   #else
1332:..\..\..\..\..\..\Dev\Library embedded l2c display\u8g2\csrc/u8g2_d_memory.c ****   static uint8_t buf[152];
1333:..\..\..\..\..\..\Dev\Library embedded l2c display\u8g2\csrc/u8g2_d_memory.c ****   *page_cnt = 1;
 3394              		.loc 1 1333 0
 3395 0000 0123     		movs	r3, #1
 3396 0002 0370     		strb	r3, [r0]
1334:..\..\..\..\..\..\Dev\Library embedded l2c display\u8g2\csrc/u8g2_d_memory.c ****   return buf;
1335:..\..\..\..\..\..\Dev\Library embedded l2c display\u8g2\csrc/u8g2_d_memory.c ****   #endif
ARM GAS  C:\Users\Abude\AppData\Local\Temp\ccndXIr0.s 			page 84


1336:..\..\..\..\..\..\Dev\Library embedded l2c display\u8g2\csrc/u8g2_d_memory.c **** }
 3397              		.loc 1 1336 0
 3398 0004 0048     		ldr	r0, .L362
 3399              	.LVL241:
 3400 0006 7047     		bx	lr
 3401              	.L363:
 3402              		.align	2
 3403              	.L362:
 3404 0008 38D50100 		.word	.LANCHOR22+2832
 3405              		.cfi_endproc
 3406              	.LFE120:
 3407              		.size	u8g2_m_19_4_1, .-u8g2_m_19_4_1
 3408              		.section	.text.u8g2_m_19_4_2,"ax",%progbits
 3409              		.align	2
 3410              		.global	u8g2_m_19_4_2
 3411              		.thumb
 3412              		.thumb_func
 3413              		.type	u8g2_m_19_4_2, %function
 3414              	u8g2_m_19_4_2:
 3415              	.LFB121:
1337:..\..\..\..\..\..\Dev\Library embedded l2c display\u8g2\csrc/u8g2_d_memory.c **** uint8_t *u8g2_m_19_4_2(uint8_t *page_cnt)
1338:..\..\..\..\..\..\Dev\Library embedded l2c display\u8g2\csrc/u8g2_d_memory.c **** {
 3416              		.loc 1 1338 0
 3417              		.cfi_startproc
 3418              		@ args = 0, pretend = 0, frame = 0
 3419              		@ frame_needed = 0, uses_anonymous_args = 0
 3420              		@ link register save eliminated.
 3421              	.LVL242:
1339:..\..\..\..\..\..\Dev\Library embedded l2c display\u8g2\csrc/u8g2_d_memory.c ****   #ifdef U8G2_USE_DYNAMIC_ALLOC
1340:..\..\..\..\..\..\Dev\Library embedded l2c display\u8g2\csrc/u8g2_d_memory.c ****   *page_cnt = 2;
1341:..\..\..\..\..\..\Dev\Library embedded l2c display\u8g2\csrc/u8g2_d_memory.c ****   return 0;
1342:..\..\..\..\..\..\Dev\Library embedded l2c display\u8g2\csrc/u8g2_d_memory.c ****   #else
1343:..\..\..\..\..\..\Dev\Library embedded l2c display\u8g2\csrc/u8g2_d_memory.c ****   static uint8_t buf[304];
1344:..\..\..\..\..\..\Dev\Library embedded l2c display\u8g2\csrc/u8g2_d_memory.c ****   *page_cnt = 2;
 3422              		.loc 1 1344 0
 3423 0000 0223     		movs	r3, #2
 3424 0002 0370     		strb	r3, [r0]
1345:..\..\..\..\..\..\Dev\Library embedded l2c display\u8g2\csrc/u8g2_d_memory.c ****   return buf;
1346:..\..\..\..\..\..\Dev\Library embedded l2c display\u8g2\csrc/u8g2_d_memory.c ****   #endif
1347:..\..\..\..\..\..\Dev\Library embedded l2c display\u8g2\csrc/u8g2_d_memory.c **** }
 3425              		.loc 1 1347 0
 3426 0004 0048     		ldr	r0, .L365
 3427              	.LVL243:
 3428 0006 7047     		bx	lr
 3429              	.L366:
 3430              		.align	2
 3431              	.L365:
 3432 0008 D0D50100 		.word	.LANCHOR22+2984
 3433              		.cfi_endproc
 3434              	.LFE121:
 3435              		.size	u8g2_m_19_4_2, .-u8g2_m_19_4_2
 3436              		.section	.text.u8g2_m_19_4_f,"ax",%progbits
 3437              		.align	2
 3438              		.global	u8g2_m_19_4_f
 3439              		.thumb
 3440              		.thumb_func
 3441              		.type	u8g2_m_19_4_f, %function
ARM GAS  C:\Users\Abude\AppData\Local\Temp\ccndXIr0.s 			page 85


 3442              	u8g2_m_19_4_f:
 3443              	.LFB122:
1348:..\..\..\..\..\..\Dev\Library embedded l2c display\u8g2\csrc/u8g2_d_memory.c **** uint8_t *u8g2_m_19_4_f(uint8_t *page_cnt)
1349:..\..\..\..\..\..\Dev\Library embedded l2c display\u8g2\csrc/u8g2_d_memory.c **** {
 3444              		.loc 1 1349 0
 3445              		.cfi_startproc
 3446              		@ args = 0, pretend = 0, frame = 0
 3447              		@ frame_needed = 0, uses_anonymous_args = 0
 3448              		@ link register save eliminated.
 3449              	.LVL244:
1350:..\..\..\..\..\..\Dev\Library embedded l2c display\u8g2\csrc/u8g2_d_memory.c ****   #ifdef U8G2_USE_DYNAMIC_ALLOC
1351:..\..\..\..\..\..\Dev\Library embedded l2c display\u8g2\csrc/u8g2_d_memory.c ****   *page_cnt = 4;
1352:..\..\..\..\..\..\Dev\Library embedded l2c display\u8g2\csrc/u8g2_d_memory.c ****   return 0;
1353:..\..\..\..\..\..\Dev\Library embedded l2c display\u8g2\csrc/u8g2_d_memory.c ****   #else
1354:..\..\..\..\..\..\Dev\Library embedded l2c display\u8g2\csrc/u8g2_d_memory.c ****   static uint8_t buf[608];
1355:..\..\..\..\..\..\Dev\Library embedded l2c display\u8g2\csrc/u8g2_d_memory.c ****   *page_cnt = 4;
 3450              		.loc 1 1355 0
 3451 0000 0423     		movs	r3, #4
 3452 0002 0370     		strb	r3, [r0]
1356:..\..\..\..\..\..\Dev\Library embedded l2c display\u8g2\csrc/u8g2_d_memory.c ****   return buf;
1357:..\..\..\..\..\..\Dev\Library embedded l2c display\u8g2\csrc/u8g2_d_memory.c ****   #endif
1358:..\..\..\..\..\..\Dev\Library embedded l2c display\u8g2\csrc/u8g2_d_memory.c **** }
 3453              		.loc 1 1358 0
 3454 0004 0048     		ldr	r0, .L368
 3455              	.LVL245:
 3456 0006 7047     		bx	lr
 3457              	.L369:
 3458              		.align	2
 3459              	.L368:
 3460 0008 00D70100 		.word	.LANCHOR22+3288
 3461              		.cfi_endproc
 3462              	.LFE122:
 3463              		.size	u8g2_m_19_4_f, .-u8g2_m_19_4_f
 3464              		.section	.text.u8g2_m_20_10_1,"ax",%progbits
 3465              		.align	2
 3466              		.global	u8g2_m_20_10_1
 3467              		.thumb
 3468              		.thumb_func
 3469              		.type	u8g2_m_20_10_1, %function
 3470              	u8g2_m_20_10_1:
 3471              	.LFB123:
1359:..\..\..\..\..\..\Dev\Library embedded l2c display\u8g2\csrc/u8g2_d_memory.c **** uint8_t *u8g2_m_20_10_1(uint8_t *page_cnt)
1360:..\..\..\..\..\..\Dev\Library embedded l2c display\u8g2\csrc/u8g2_d_memory.c **** {
 3472              		.loc 1 1360 0
 3473              		.cfi_startproc
 3474              		@ args = 0, pretend = 0, frame = 0
 3475              		@ frame_needed = 0, uses_anonymous_args = 0
 3476              		@ link register save eliminated.
 3477              	.LVL246:
1361:..\..\..\..\..\..\Dev\Library embedded l2c display\u8g2\csrc/u8g2_d_memory.c ****   #ifdef U8G2_USE_DYNAMIC_ALLOC
1362:..\..\..\..\..\..\Dev\Library embedded l2c display\u8g2\csrc/u8g2_d_memory.c ****   *page_cnt = 1;
1363:..\..\..\..\..\..\Dev\Library embedded l2c display\u8g2\csrc/u8g2_d_memory.c ****   return 0;
1364:..\..\..\..\..\..\Dev\Library embedded l2c display\u8g2\csrc/u8g2_d_memory.c ****   #else
1365:..\..\..\..\..\..\Dev\Library embedded l2c display\u8g2\csrc/u8g2_d_memory.c ****   static uint8_t buf[160];
1366:..\..\..\..\..\..\Dev\Library embedded l2c display\u8g2\csrc/u8g2_d_memory.c ****   *page_cnt = 1;
 3478              		.loc 1 1366 0
 3479 0000 0123     		movs	r3, #1
ARM GAS  C:\Users\Abude\AppData\Local\Temp\ccndXIr0.s 			page 86


 3480 0002 0370     		strb	r3, [r0]
1367:..\..\..\..\..\..\Dev\Library embedded l2c display\u8g2\csrc/u8g2_d_memory.c ****   return buf;
1368:..\..\..\..\..\..\Dev\Library embedded l2c display\u8g2\csrc/u8g2_d_memory.c ****   #endif
1369:..\..\..\..\..\..\Dev\Library embedded l2c display\u8g2\csrc/u8g2_d_memory.c **** }
 3481              		.loc 1 1369 0
 3482 0004 0048     		ldr	r0, .L371
 3483              	.LVL247:
 3484 0006 7047     		bx	lr
 3485              	.L372:
 3486              		.align	2
 3487              	.L371:
 3488 0008 60D90100 		.word	.LANCHOR22+3896
 3489              		.cfi_endproc
 3490              	.LFE123:
 3491              		.size	u8g2_m_20_10_1, .-u8g2_m_20_10_1
 3492              		.section	.text.u8g2_m_20_10_2,"ax",%progbits
 3493              		.align	2
 3494              		.global	u8g2_m_20_10_2
 3495              		.thumb
 3496              		.thumb_func
 3497              		.type	u8g2_m_20_10_2, %function
 3498              	u8g2_m_20_10_2:
 3499              	.LFB124:
1370:..\..\..\..\..\..\Dev\Library embedded l2c display\u8g2\csrc/u8g2_d_memory.c **** uint8_t *u8g2_m_20_10_2(uint8_t *page_cnt)
1371:..\..\..\..\..\..\Dev\Library embedded l2c display\u8g2\csrc/u8g2_d_memory.c **** {
 3500              		.loc 1 1371 0
 3501              		.cfi_startproc
 3502              		@ args = 0, pretend = 0, frame = 0
 3503              		@ frame_needed = 0, uses_anonymous_args = 0
 3504              		@ link register save eliminated.
 3505              	.LVL248:
1372:..\..\..\..\..\..\Dev\Library embedded l2c display\u8g2\csrc/u8g2_d_memory.c ****   #ifdef U8G2_USE_DYNAMIC_ALLOC
1373:..\..\..\..\..\..\Dev\Library embedded l2c display\u8g2\csrc/u8g2_d_memory.c ****   *page_cnt = 2;
1374:..\..\..\..\..\..\Dev\Library embedded l2c display\u8g2\csrc/u8g2_d_memory.c ****   return 0;
1375:..\..\..\..\..\..\Dev\Library embedded l2c display\u8g2\csrc/u8g2_d_memory.c ****   #else
1376:..\..\..\..\..\..\Dev\Library embedded l2c display\u8g2\csrc/u8g2_d_memory.c ****   static uint8_t buf[320];
1377:..\..\..\..\..\..\Dev\Library embedded l2c display\u8g2\csrc/u8g2_d_memory.c ****   *page_cnt = 2;
 3506              		.loc 1 1377 0
 3507 0000 0223     		movs	r3, #2
 3508 0002 0370     		strb	r3, [r0]
1378:..\..\..\..\..\..\Dev\Library embedded l2c display\u8g2\csrc/u8g2_d_memory.c ****   return buf;
1379:..\..\..\..\..\..\Dev\Library embedded l2c display\u8g2\csrc/u8g2_d_memory.c ****   #endif
1380:..\..\..\..\..\..\Dev\Library embedded l2c display\u8g2\csrc/u8g2_d_memory.c **** }
 3509              		.loc 1 1380 0
 3510 0004 0048     		ldr	r0, .L374
 3511              	.LVL249:
 3512 0006 7047     		bx	lr
 3513              	.L375:
 3514              		.align	2
 3515              	.L374:
 3516 0008 00DA0100 		.word	.LANCHOR22+4056
 3517              		.cfi_endproc
 3518              	.LFE124:
 3519              		.size	u8g2_m_20_10_2, .-u8g2_m_20_10_2
 3520              		.section	.text.u8g2_m_20_10_f,"ax",%progbits
 3521              		.align	2
 3522              		.global	u8g2_m_20_10_f
ARM GAS  C:\Users\Abude\AppData\Local\Temp\ccndXIr0.s 			page 87


 3523              		.thumb
 3524              		.thumb_func
 3525              		.type	u8g2_m_20_10_f, %function
 3526              	u8g2_m_20_10_f:
 3527              	.LFB125:
1381:..\..\..\..\..\..\Dev\Library embedded l2c display\u8g2\csrc/u8g2_d_memory.c **** uint8_t *u8g2_m_20_10_f(uint8_t *page_cnt)
1382:..\..\..\..\..\..\Dev\Library embedded l2c display\u8g2\csrc/u8g2_d_memory.c **** {
 3528              		.loc 1 1382 0
 3529              		.cfi_startproc
 3530              		@ args = 0, pretend = 0, frame = 0
 3531              		@ frame_needed = 0, uses_anonymous_args = 0
 3532              		@ link register save eliminated.
 3533              	.LVL250:
1383:..\..\..\..\..\..\Dev\Library embedded l2c display\u8g2\csrc/u8g2_d_memory.c ****   #ifdef U8G2_USE_DYNAMIC_ALLOC
1384:..\..\..\..\..\..\Dev\Library embedded l2c display\u8g2\csrc/u8g2_d_memory.c ****   *page_cnt = 10;
1385:..\..\..\..\..\..\Dev\Library embedded l2c display\u8g2\csrc/u8g2_d_memory.c ****   return 0;
1386:..\..\..\..\..\..\Dev\Library embedded l2c display\u8g2\csrc/u8g2_d_memory.c ****   #else
1387:..\..\..\..\..\..\Dev\Library embedded l2c display\u8g2\csrc/u8g2_d_memory.c ****   static uint8_t buf[1600];
1388:..\..\..\..\..\..\Dev\Library embedded l2c display\u8g2\csrc/u8g2_d_memory.c ****   *page_cnt = 10;
 3534              		.loc 1 1388 0
 3535 0000 0A23     		movs	r3, #10
 3536 0002 0370     		strb	r3, [r0]
1389:..\..\..\..\..\..\Dev\Library embedded l2c display\u8g2\csrc/u8g2_d_memory.c ****   return buf;
1390:..\..\..\..\..\..\Dev\Library embedded l2c display\u8g2\csrc/u8g2_d_memory.c ****   #endif
1391:..\..\..\..\..\..\Dev\Library embedded l2c display\u8g2\csrc/u8g2_d_memory.c **** }
 3537              		.loc 1 1391 0
 3538 0004 0048     		ldr	r0, .L377
 3539              	.LVL251:
 3540 0006 7047     		bx	lr
 3541              	.L378:
 3542              		.align	2
 3543              	.L377:
 3544 0008 40DB0100 		.word	.LANCHOR23+32
 3545              		.cfi_endproc
 3546              	.LFE125:
 3547              		.size	u8g2_m_20_10_f, .-u8g2_m_20_10_f
 3548              		.section	.text.u8g2_m_20_4_1,"ax",%progbits
 3549              		.align	2
 3550              		.global	u8g2_m_20_4_1
 3551              		.thumb
 3552              		.thumb_func
 3553              		.type	u8g2_m_20_4_1, %function
 3554              	u8g2_m_20_4_1:
 3555              	.LFB126:
1392:..\..\..\..\..\..\Dev\Library embedded l2c display\u8g2\csrc/u8g2_d_memory.c **** uint8_t *u8g2_m_20_4_1(uint8_t *page_cnt)
1393:..\..\..\..\..\..\Dev\Library embedded l2c display\u8g2\csrc/u8g2_d_memory.c **** {
 3556              		.loc 1 1393 0
 3557              		.cfi_startproc
 3558              		@ args = 0, pretend = 0, frame = 0
 3559              		@ frame_needed = 0, uses_anonymous_args = 0
 3560              		@ link register save eliminated.
 3561              	.LVL252:
1394:..\..\..\..\..\..\Dev\Library embedded l2c display\u8g2\csrc/u8g2_d_memory.c ****   #ifdef U8G2_USE_DYNAMIC_ALLOC
1395:..\..\..\..\..\..\Dev\Library embedded l2c display\u8g2\csrc/u8g2_d_memory.c ****   *page_cnt = 1;
1396:..\..\..\..\..\..\Dev\Library embedded l2c display\u8g2\csrc/u8g2_d_memory.c ****   return 0;
1397:..\..\..\..\..\..\Dev\Library embedded l2c display\u8g2\csrc/u8g2_d_memory.c ****   #else
1398:..\..\..\..\..\..\Dev\Library embedded l2c display\u8g2\csrc/u8g2_d_memory.c ****   static uint8_t buf[160];
ARM GAS  C:\Users\Abude\AppData\Local\Temp\ccndXIr0.s 			page 88


1399:..\..\..\..\..\..\Dev\Library embedded l2c display\u8g2\csrc/u8g2_d_memory.c ****   *page_cnt = 1;
 3562              		.loc 1 1399 0
 3563 0000 0123     		movs	r3, #1
 3564 0002 0370     		strb	r3, [r0]
1400:..\..\..\..\..\..\Dev\Library embedded l2c display\u8g2\csrc/u8g2_d_memory.c ****   return buf;
1401:..\..\..\..\..\..\Dev\Library embedded l2c display\u8g2\csrc/u8g2_d_memory.c ****   #endif
1402:..\..\..\..\..\..\Dev\Library embedded l2c display\u8g2\csrc/u8g2_d_memory.c **** }
 3565              		.loc 1 1402 0
 3566 0004 0048     		ldr	r0, .L380
 3567              	.LVL253:
 3568 0006 7047     		bx	lr
 3569              	.L381:
 3570              		.align	2
 3571              	.L380:
 3572 0008 80E10100 		.word	.LANCHOR23+1632
 3573              		.cfi_endproc
 3574              	.LFE126:
 3575              		.size	u8g2_m_20_4_1, .-u8g2_m_20_4_1
 3576              		.section	.text.u8g2_m_20_4_2,"ax",%progbits
 3577              		.align	2
 3578              		.global	u8g2_m_20_4_2
 3579              		.thumb
 3580              		.thumb_func
 3581              		.type	u8g2_m_20_4_2, %function
 3582              	u8g2_m_20_4_2:
 3583              	.LFB127:
1403:..\..\..\..\..\..\Dev\Library embedded l2c display\u8g2\csrc/u8g2_d_memory.c **** uint8_t *u8g2_m_20_4_2(uint8_t *page_cnt)
1404:..\..\..\..\..\..\Dev\Library embedded l2c display\u8g2\csrc/u8g2_d_memory.c **** {
 3584              		.loc 1 1404 0
 3585              		.cfi_startproc
 3586              		@ args = 0, pretend = 0, frame = 0
 3587              		@ frame_needed = 0, uses_anonymous_args = 0
 3588              		@ link register save eliminated.
 3589              	.LVL254:
1405:..\..\..\..\..\..\Dev\Library embedded l2c display\u8g2\csrc/u8g2_d_memory.c ****   #ifdef U8G2_USE_DYNAMIC_ALLOC
1406:..\..\..\..\..\..\Dev\Library embedded l2c display\u8g2\csrc/u8g2_d_memory.c ****   *page_cnt = 2;
1407:..\..\..\..\..\..\Dev\Library embedded l2c display\u8g2\csrc/u8g2_d_memory.c ****   return 0;
1408:..\..\..\..\..\..\Dev\Library embedded l2c display\u8g2\csrc/u8g2_d_memory.c ****   #else
1409:..\..\..\..\..\..\Dev\Library embedded l2c display\u8g2\csrc/u8g2_d_memory.c ****   static uint8_t buf[320];
1410:..\..\..\..\..\..\Dev\Library embedded l2c display\u8g2\csrc/u8g2_d_memory.c ****   *page_cnt = 2;
 3590              		.loc 1 1410 0
 3591 0000 0223     		movs	r3, #2
 3592 0002 0370     		strb	r3, [r0]
1411:..\..\..\..\..\..\Dev\Library embedded l2c display\u8g2\csrc/u8g2_d_memory.c ****   return buf;
1412:..\..\..\..\..\..\Dev\Library embedded l2c display\u8g2\csrc/u8g2_d_memory.c ****   #endif
1413:..\..\..\..\..\..\Dev\Library embedded l2c display\u8g2\csrc/u8g2_d_memory.c **** }
 3593              		.loc 1 1413 0
 3594 0004 0048     		ldr	r0, .L383
 3595              	.LVL255:
 3596 0006 7047     		bx	lr
 3597              	.L384:
 3598              		.align	2
 3599              	.L383:
 3600 0008 20E20100 		.word	.LANCHOR23+1792
 3601              		.cfi_endproc
 3602              	.LFE127:
 3603              		.size	u8g2_m_20_4_2, .-u8g2_m_20_4_2
ARM GAS  C:\Users\Abude\AppData\Local\Temp\ccndXIr0.s 			page 89


 3604              		.section	.text.u8g2_m_20_4_f,"ax",%progbits
 3605              		.align	2
 3606              		.global	u8g2_m_20_4_f
 3607              		.thumb
 3608              		.thumb_func
 3609              		.type	u8g2_m_20_4_f, %function
 3610              	u8g2_m_20_4_f:
 3611              	.LFB128:
1414:..\..\..\..\..\..\Dev\Library embedded l2c display\u8g2\csrc/u8g2_d_memory.c **** uint8_t *u8g2_m_20_4_f(uint8_t *page_cnt)
1415:..\..\..\..\..\..\Dev\Library embedded l2c display\u8g2\csrc/u8g2_d_memory.c **** {
 3612              		.loc 1 1415 0
 3613              		.cfi_startproc
 3614              		@ args = 0, pretend = 0, frame = 0
 3615              		@ frame_needed = 0, uses_anonymous_args = 0
 3616              		@ link register save eliminated.
 3617              	.LVL256:
1416:..\..\..\..\..\..\Dev\Library embedded l2c display\u8g2\csrc/u8g2_d_memory.c ****   #ifdef U8G2_USE_DYNAMIC_ALLOC
1417:..\..\..\..\..\..\Dev\Library embedded l2c display\u8g2\csrc/u8g2_d_memory.c ****   *page_cnt = 4;
1418:..\..\..\..\..\..\Dev\Library embedded l2c display\u8g2\csrc/u8g2_d_memory.c ****   return 0;
1419:..\..\..\..\..\..\Dev\Library embedded l2c display\u8g2\csrc/u8g2_d_memory.c ****   #else
1420:..\..\..\..\..\..\Dev\Library embedded l2c display\u8g2\csrc/u8g2_d_memory.c ****   static uint8_t buf[640];
1421:..\..\..\..\..\..\Dev\Library embedded l2c display\u8g2\csrc/u8g2_d_memory.c ****   *page_cnt = 4;
 3618              		.loc 1 1421 0
 3619 0000 0423     		movs	r3, #4
 3620 0002 0370     		strb	r3, [r0]
1422:..\..\..\..\..\..\Dev\Library embedded l2c display\u8g2\csrc/u8g2_d_memory.c ****   return buf;
1423:..\..\..\..\..\..\Dev\Library embedded l2c display\u8g2\csrc/u8g2_d_memory.c ****   #endif
1424:..\..\..\..\..\..\Dev\Library embedded l2c display\u8g2\csrc/u8g2_d_memory.c **** }
 3621              		.loc 1 1424 0
 3622 0004 0048     		ldr	r0, .L386
 3623              	.LVL257:
 3624 0006 7047     		bx	lr
 3625              	.L387:
 3626              		.align	2
 3627              	.L386:
 3628 0008 60E30100 		.word	.LANCHOR23+2112
 3629              		.cfi_endproc
 3630              	.LFE128:
 3631              		.size	u8g2_m_20_4_f, .-u8g2_m_20_4_f
 3632              		.section	.text.u8g2_m_20_17_1,"ax",%progbits
 3633              		.align	2
 3634              		.global	u8g2_m_20_17_1
 3635              		.thumb
 3636              		.thumb_func
 3637              		.type	u8g2_m_20_17_1, %function
 3638              	u8g2_m_20_17_1:
 3639              	.LFB129:
1425:..\..\..\..\..\..\Dev\Library embedded l2c display\u8g2\csrc/u8g2_d_memory.c **** uint8_t *u8g2_m_20_17_1(uint8_t *page_cnt)
1426:..\..\..\..\..\..\Dev\Library embedded l2c display\u8g2\csrc/u8g2_d_memory.c **** {
 3640              		.loc 1 1426 0
 3641              		.cfi_startproc
 3642              		@ args = 0, pretend = 0, frame = 0
 3643              		@ frame_needed = 0, uses_anonymous_args = 0
 3644              		@ link register save eliminated.
 3645              	.LVL258:
1427:..\..\..\..\..\..\Dev\Library embedded l2c display\u8g2\csrc/u8g2_d_memory.c ****   #ifdef U8G2_USE_DYNAMIC_ALLOC
1428:..\..\..\..\..\..\Dev\Library embedded l2c display\u8g2\csrc/u8g2_d_memory.c ****   *page_cnt = 1;
ARM GAS  C:\Users\Abude\AppData\Local\Temp\ccndXIr0.s 			page 90


1429:..\..\..\..\..\..\Dev\Library embedded l2c display\u8g2\csrc/u8g2_d_memory.c ****   return 0;
1430:..\..\..\..\..\..\Dev\Library embedded l2c display\u8g2\csrc/u8g2_d_memory.c ****   #else
1431:..\..\..\..\..\..\Dev\Library embedded l2c display\u8g2\csrc/u8g2_d_memory.c ****   static uint8_t buf[160];
1432:..\..\..\..\..\..\Dev\Library embedded l2c display\u8g2\csrc/u8g2_d_memory.c ****   *page_cnt = 1;
 3646              		.loc 1 1432 0
 3647 0000 0123     		movs	r3, #1
 3648 0002 0370     		strb	r3, [r0]
1433:..\..\..\..\..\..\Dev\Library embedded l2c display\u8g2\csrc/u8g2_d_memory.c ****   return buf;
1434:..\..\..\..\..\..\Dev\Library embedded l2c display\u8g2\csrc/u8g2_d_memory.c ****   #endif
1435:..\..\..\..\..\..\Dev\Library embedded l2c display\u8g2\csrc/u8g2_d_memory.c **** }
 3649              		.loc 1 1435 0
 3650 0004 0048     		ldr	r0, .L389
 3651              	.LVL259:
 3652 0006 7047     		bx	lr
 3653              	.L390:
 3654              		.align	2
 3655              	.L389:
 3656 0008 E0E50100 		.word	.LANCHOR23+2752
 3657              		.cfi_endproc
 3658              	.LFE129:
 3659              		.size	u8g2_m_20_17_1, .-u8g2_m_20_17_1
 3660              		.section	.text.u8g2_m_20_17_2,"ax",%progbits
 3661              		.align	2
 3662              		.global	u8g2_m_20_17_2
 3663              		.thumb
 3664              		.thumb_func
 3665              		.type	u8g2_m_20_17_2, %function
 3666              	u8g2_m_20_17_2:
 3667              	.LFB130:
1436:..\..\..\..\..\..\Dev\Library embedded l2c display\u8g2\csrc/u8g2_d_memory.c **** uint8_t *u8g2_m_20_17_2(uint8_t *page_cnt)
1437:..\..\..\..\..\..\Dev\Library embedded l2c display\u8g2\csrc/u8g2_d_memory.c **** {
 3668              		.loc 1 1437 0
 3669              		.cfi_startproc
 3670              		@ args = 0, pretend = 0, frame = 0
 3671              		@ frame_needed = 0, uses_anonymous_args = 0
 3672              		@ link register save eliminated.
 3673              	.LVL260:
1438:..\..\..\..\..\..\Dev\Library embedded l2c display\u8g2\csrc/u8g2_d_memory.c ****   #ifdef U8G2_USE_DYNAMIC_ALLOC
1439:..\..\..\..\..\..\Dev\Library embedded l2c display\u8g2\csrc/u8g2_d_memory.c ****   *page_cnt = 2;
1440:..\..\..\..\..\..\Dev\Library embedded l2c display\u8g2\csrc/u8g2_d_memory.c ****   return 0;
1441:..\..\..\..\..\..\Dev\Library embedded l2c display\u8g2\csrc/u8g2_d_memory.c ****   #else
1442:..\..\..\..\..\..\Dev\Library embedded l2c display\u8g2\csrc/u8g2_d_memory.c ****   static uint8_t buf[320];
1443:..\..\..\..\..\..\Dev\Library embedded l2c display\u8g2\csrc/u8g2_d_memory.c ****   *page_cnt = 2;
 3674              		.loc 1 1443 0
 3675 0000 0223     		movs	r3, #2
 3676 0002 0370     		strb	r3, [r0]
1444:..\..\..\..\..\..\Dev\Library embedded l2c display\u8g2\csrc/u8g2_d_memory.c ****   return buf;
1445:..\..\..\..\..\..\Dev\Library embedded l2c display\u8g2\csrc/u8g2_d_memory.c ****   #endif
1446:..\..\..\..\..\..\Dev\Library embedded l2c display\u8g2\csrc/u8g2_d_memory.c **** }
 3677              		.loc 1 1446 0
 3678 0004 0048     		ldr	r0, .L392
 3679              	.LVL261:
 3680 0006 7047     		bx	lr
 3681              	.L393:
 3682              		.align	2
 3683              	.L392:
 3684 0008 80E60100 		.word	.LANCHOR23+2912
ARM GAS  C:\Users\Abude\AppData\Local\Temp\ccndXIr0.s 			page 91


 3685              		.cfi_endproc
 3686              	.LFE130:
 3687              		.size	u8g2_m_20_17_2, .-u8g2_m_20_17_2
 3688              		.section	.text.u8g2_m_20_17_f,"ax",%progbits
 3689              		.align	2
 3690              		.global	u8g2_m_20_17_f
 3691              		.thumb
 3692              		.thumb_func
 3693              		.type	u8g2_m_20_17_f, %function
 3694              	u8g2_m_20_17_f:
 3695              	.LFB131:
1447:..\..\..\..\..\..\Dev\Library embedded l2c display\u8g2\csrc/u8g2_d_memory.c **** uint8_t *u8g2_m_20_17_f(uint8_t *page_cnt)
1448:..\..\..\..\..\..\Dev\Library embedded l2c display\u8g2\csrc/u8g2_d_memory.c **** {
 3696              		.loc 1 1448 0
 3697              		.cfi_startproc
 3698              		@ args = 0, pretend = 0, frame = 0
 3699              		@ frame_needed = 0, uses_anonymous_args = 0
 3700              		@ link register save eliminated.
 3701              	.LVL262:
1449:..\..\..\..\..\..\Dev\Library embedded l2c display\u8g2\csrc/u8g2_d_memory.c ****   #ifdef U8G2_USE_DYNAMIC_ALLOC
1450:..\..\..\..\..\..\Dev\Library embedded l2c display\u8g2\csrc/u8g2_d_memory.c ****   *page_cnt = 17;
1451:..\..\..\..\..\..\Dev\Library embedded l2c display\u8g2\csrc/u8g2_d_memory.c ****   return 0;
1452:..\..\..\..\..\..\Dev\Library embedded l2c display\u8g2\csrc/u8g2_d_memory.c ****   #else
1453:..\..\..\..\..\..\Dev\Library embedded l2c display\u8g2\csrc/u8g2_d_memory.c ****   static uint8_t buf[2720];
1454:..\..\..\..\..\..\Dev\Library embedded l2c display\u8g2\csrc/u8g2_d_memory.c ****   *page_cnt = 17;
 3702              		.loc 1 1454 0
 3703 0000 1123     		movs	r3, #17
 3704 0002 0370     		strb	r3, [r0]
1455:..\..\..\..\..\..\Dev\Library embedded l2c display\u8g2\csrc/u8g2_d_memory.c ****   return buf;
1456:..\..\..\..\..\..\Dev\Library embedded l2c display\u8g2\csrc/u8g2_d_memory.c ****   #endif
1457:..\..\..\..\..\..\Dev\Library embedded l2c display\u8g2\csrc/u8g2_d_memory.c **** }
 3705              		.loc 1 1457 0
 3706 0004 0048     		ldr	r0, .L395
 3707              	.LVL263:
 3708 0006 7047     		bx	lr
 3709              	.L396:
 3710              		.align	2
 3711              	.L395:
 3712 0008 C0E70100 		.word	.LANCHOR23+3232
 3713              		.cfi_endproc
 3714              	.LFE131:
 3715              		.size	u8g2_m_20_17_f, .-u8g2_m_20_17_f
 3716              		.section	.text.u8g2_m_22_9_1,"ax",%progbits
 3717              		.align	2
 3718              		.global	u8g2_m_22_9_1
 3719              		.thumb
 3720              		.thumb_func
 3721              		.type	u8g2_m_22_9_1, %function
 3722              	u8g2_m_22_9_1:
 3723              	.LFB132:
1458:..\..\..\..\..\..\Dev\Library embedded l2c display\u8g2\csrc/u8g2_d_memory.c **** uint8_t *u8g2_m_22_9_1(uint8_t *page_cnt)
1459:..\..\..\..\..\..\Dev\Library embedded l2c display\u8g2\csrc/u8g2_d_memory.c **** {
 3724              		.loc 1 1459 0
 3725              		.cfi_startproc
 3726              		@ args = 0, pretend = 0, frame = 0
 3727              		@ frame_needed = 0, uses_anonymous_args = 0
 3728              		@ link register save eliminated.
ARM GAS  C:\Users\Abude\AppData\Local\Temp\ccndXIr0.s 			page 92


 3729              	.LVL264:
1460:..\..\..\..\..\..\Dev\Library embedded l2c display\u8g2\csrc/u8g2_d_memory.c ****   #ifdef U8G2_USE_DYNAMIC_ALLOC
1461:..\..\..\..\..\..\Dev\Library embedded l2c display\u8g2\csrc/u8g2_d_memory.c ****   *page_cnt = 1;
1462:..\..\..\..\..\..\Dev\Library embedded l2c display\u8g2\csrc/u8g2_d_memory.c ****   return 0;
1463:..\..\..\..\..\..\Dev\Library embedded l2c display\u8g2\csrc/u8g2_d_memory.c ****   #else
1464:..\..\..\..\..\..\Dev\Library embedded l2c display\u8g2\csrc/u8g2_d_memory.c ****   static uint8_t buf[176];
1465:..\..\..\..\..\..\Dev\Library embedded l2c display\u8g2\csrc/u8g2_d_memory.c ****   *page_cnt = 1;
 3730              		.loc 1 1465 0
 3731 0000 0123     		movs	r3, #1
 3732 0002 0370     		strb	r3, [r0]
1466:..\..\..\..\..\..\Dev\Library embedded l2c display\u8g2\csrc/u8g2_d_memory.c ****   return buf;
1467:..\..\..\..\..\..\Dev\Library embedded l2c display\u8g2\csrc/u8g2_d_memory.c ****   #endif
1468:..\..\..\..\..\..\Dev\Library embedded l2c display\u8g2\csrc/u8g2_d_memory.c **** }
 3733              		.loc 1 1468 0
 3734 0004 0048     		ldr	r0, .L398
 3735              	.LVL265:
 3736 0006 7047     		bx	lr
 3737              	.L399:
 3738              		.align	2
 3739              	.L398:
 3740 0008 60F20100 		.word	.LANCHOR24+1608
 3741              		.cfi_endproc
 3742              	.LFE132:
 3743              		.size	u8g2_m_22_9_1, .-u8g2_m_22_9_1
 3744              		.section	.text.u8g2_m_22_9_2,"ax",%progbits
 3745              		.align	2
 3746              		.global	u8g2_m_22_9_2
 3747              		.thumb
 3748              		.thumb_func
 3749              		.type	u8g2_m_22_9_2, %function
 3750              	u8g2_m_22_9_2:
 3751              	.LFB133:
1469:..\..\..\..\..\..\Dev\Library embedded l2c display\u8g2\csrc/u8g2_d_memory.c **** uint8_t *u8g2_m_22_9_2(uint8_t *page_cnt)
1470:..\..\..\..\..\..\Dev\Library embedded l2c display\u8g2\csrc/u8g2_d_memory.c **** {
 3752              		.loc 1 1470 0
 3753              		.cfi_startproc
 3754              		@ args = 0, pretend = 0, frame = 0
 3755              		@ frame_needed = 0, uses_anonymous_args = 0
 3756              		@ link register save eliminated.
 3757              	.LVL266:
1471:..\..\..\..\..\..\Dev\Library embedded l2c display\u8g2\csrc/u8g2_d_memory.c ****   #ifdef U8G2_USE_DYNAMIC_ALLOC
1472:..\..\..\..\..\..\Dev\Library embedded l2c display\u8g2\csrc/u8g2_d_memory.c ****   *page_cnt = 2;
1473:..\..\..\..\..\..\Dev\Library embedded l2c display\u8g2\csrc/u8g2_d_memory.c ****   return 0;
1474:..\..\..\..\..\..\Dev\Library embedded l2c display\u8g2\csrc/u8g2_d_memory.c ****   #else
1475:..\..\..\..\..\..\Dev\Library embedded l2c display\u8g2\csrc/u8g2_d_memory.c ****   static uint8_t buf[352];
1476:..\..\..\..\..\..\Dev\Library embedded l2c display\u8g2\csrc/u8g2_d_memory.c ****   *page_cnt = 2;
 3758              		.loc 1 1476 0
 3759 0000 0223     		movs	r3, #2
 3760 0002 0370     		strb	r3, [r0]
1477:..\..\..\..\..\..\Dev\Library embedded l2c display\u8g2\csrc/u8g2_d_memory.c ****   return buf;
1478:..\..\..\..\..\..\Dev\Library embedded l2c display\u8g2\csrc/u8g2_d_memory.c ****   #endif
1479:..\..\..\..\..\..\Dev\Library embedded l2c display\u8g2\csrc/u8g2_d_memory.c **** }
 3761              		.loc 1 1479 0
 3762 0004 0048     		ldr	r0, .L401
 3763              	.LVL267:
 3764 0006 7047     		bx	lr
 3765              	.L402:
ARM GAS  C:\Users\Abude\AppData\Local\Temp\ccndXIr0.s 			page 93


 3766              		.align	2
 3767              	.L401:
 3768 0008 10F30100 		.word	.LANCHOR24+1784
 3769              		.cfi_endproc
 3770              	.LFE133:
 3771              		.size	u8g2_m_22_9_2, .-u8g2_m_22_9_2
 3772              		.section	.text.u8g2_m_22_9_f,"ax",%progbits
 3773              		.align	2
 3774              		.global	u8g2_m_22_9_f
 3775              		.thumb
 3776              		.thumb_func
 3777              		.type	u8g2_m_22_9_f, %function
 3778              	u8g2_m_22_9_f:
 3779              	.LFB134:
1480:..\..\..\..\..\..\Dev\Library embedded l2c display\u8g2\csrc/u8g2_d_memory.c **** uint8_t *u8g2_m_22_9_f(uint8_t *page_cnt)
1481:..\..\..\..\..\..\Dev\Library embedded l2c display\u8g2\csrc/u8g2_d_memory.c **** {
 3780              		.loc 1 1481 0
 3781              		.cfi_startproc
 3782              		@ args = 0, pretend = 0, frame = 0
 3783              		@ frame_needed = 0, uses_anonymous_args = 0
 3784              		@ link register save eliminated.
 3785              	.LVL268:
1482:..\..\..\..\..\..\Dev\Library embedded l2c display\u8g2\csrc/u8g2_d_memory.c ****   #ifdef U8G2_USE_DYNAMIC_ALLOC
1483:..\..\..\..\..\..\Dev\Library embedded l2c display\u8g2\csrc/u8g2_d_memory.c ****   *page_cnt = 9;
1484:..\..\..\..\..\..\Dev\Library embedded l2c display\u8g2\csrc/u8g2_d_memory.c ****   return 0;
1485:..\..\..\..\..\..\Dev\Library embedded l2c display\u8g2\csrc/u8g2_d_memory.c ****   #else
1486:..\..\..\..\..\..\Dev\Library embedded l2c display\u8g2\csrc/u8g2_d_memory.c ****   static uint8_t buf[1584];
1487:..\..\..\..\..\..\Dev\Library embedded l2c display\u8g2\csrc/u8g2_d_memory.c ****   *page_cnt = 9;
 3786              		.loc 1 1487 0
 3787 0000 0923     		movs	r3, #9
 3788 0002 0370     		strb	r3, [r0]
1488:..\..\..\..\..\..\Dev\Library embedded l2c display\u8g2\csrc/u8g2_d_memory.c ****   return buf;
1489:..\..\..\..\..\..\Dev\Library embedded l2c display\u8g2\csrc/u8g2_d_memory.c ****   #endif
1490:..\..\..\..\..\..\Dev\Library embedded l2c display\u8g2\csrc/u8g2_d_memory.c **** }
 3789              		.loc 1 1490 0
 3790 0004 0048     		ldr	r0, .L404
 3791              	.LVL269:
 3792 0006 7047     		bx	lr
 3793              	.L405:
 3794              		.align	2
 3795              	.L404:
 3796 0008 70F40100 		.word	.LANCHOR24+2136
 3797              		.cfi_endproc
 3798              	.LFE134:
 3799              		.size	u8g2_m_22_9_f, .-u8g2_m_22_9_f
 3800              		.section	.text.u8g2_m_25_25_1,"ax",%progbits
 3801              		.align	2
 3802              		.global	u8g2_m_25_25_1
 3803              		.thumb
 3804              		.thumb_func
 3805              		.type	u8g2_m_25_25_1, %function
 3806              	u8g2_m_25_25_1:
 3807              	.LFB135:
1491:..\..\..\..\..\..\Dev\Library embedded l2c display\u8g2\csrc/u8g2_d_memory.c **** uint8_t *u8g2_m_25_25_1(uint8_t *page_cnt)
1492:..\..\..\..\..\..\Dev\Library embedded l2c display\u8g2\csrc/u8g2_d_memory.c **** {
 3808              		.loc 1 1492 0
 3809              		.cfi_startproc
ARM GAS  C:\Users\Abude\AppData\Local\Temp\ccndXIr0.s 			page 94


 3810              		@ args = 0, pretend = 0, frame = 0
 3811              		@ frame_needed = 0, uses_anonymous_args = 0
 3812              		@ link register save eliminated.
 3813              	.LVL270:
1493:..\..\..\..\..\..\Dev\Library embedded l2c display\u8g2\csrc/u8g2_d_memory.c ****   #ifdef U8G2_USE_DYNAMIC_ALLOC
1494:..\..\..\..\..\..\Dev\Library embedded l2c display\u8g2\csrc/u8g2_d_memory.c ****   *page_cnt = 1;
1495:..\..\..\..\..\..\Dev\Library embedded l2c display\u8g2\csrc/u8g2_d_memory.c ****   return 0;
1496:..\..\..\..\..\..\Dev\Library embedded l2c display\u8g2\csrc/u8g2_d_memory.c ****   #else
1497:..\..\..\..\..\..\Dev\Library embedded l2c display\u8g2\csrc/u8g2_d_memory.c ****   static uint8_t buf[200];
1498:..\..\..\..\..\..\Dev\Library embedded l2c display\u8g2\csrc/u8g2_d_memory.c ****   *page_cnt = 1;
 3814              		.loc 1 1498 0
 3815 0000 0123     		movs	r3, #1
 3816 0002 0370     		strb	r3, [r0]
1499:..\..\..\..\..\..\Dev\Library embedded l2c display\u8g2\csrc/u8g2_d_memory.c ****   return buf;
1500:..\..\..\..\..\..\Dev\Library embedded l2c display\u8g2\csrc/u8g2_d_memory.c ****   #endif
1501:..\..\..\..\..\..\Dev\Library embedded l2c display\u8g2\csrc/u8g2_d_memory.c **** }
 3817              		.loc 1 1501 0
 3818 0004 0048     		ldr	r0, .L407
 3819              	.LVL271:
 3820 0006 7047     		bx	lr
 3821              	.L408:
 3822              		.align	2
 3823              	.L407:
 3824 0008 A0FA0100 		.word	.LANCHOR24+3720
 3825              		.cfi_endproc
 3826              	.LFE135:
 3827              		.size	u8g2_m_25_25_1, .-u8g2_m_25_25_1
 3828              		.section	.text.u8g2_m_25_25_2,"ax",%progbits
 3829              		.align	2
 3830              		.global	u8g2_m_25_25_2
 3831              		.thumb
 3832              		.thumb_func
 3833              		.type	u8g2_m_25_25_2, %function
 3834              	u8g2_m_25_25_2:
 3835              	.LFB136:
1502:..\..\..\..\..\..\Dev\Library embedded l2c display\u8g2\csrc/u8g2_d_memory.c **** uint8_t *u8g2_m_25_25_2(uint8_t *page_cnt)
1503:..\..\..\..\..\..\Dev\Library embedded l2c display\u8g2\csrc/u8g2_d_memory.c **** {
 3836              		.loc 1 1503 0
 3837              		.cfi_startproc
 3838              		@ args = 0, pretend = 0, frame = 0
 3839              		@ frame_needed = 0, uses_anonymous_args = 0
 3840              		@ link register save eliminated.
 3841              	.LVL272:
1504:..\..\..\..\..\..\Dev\Library embedded l2c display\u8g2\csrc/u8g2_d_memory.c ****   #ifdef U8G2_USE_DYNAMIC_ALLOC
1505:..\..\..\..\..\..\Dev\Library embedded l2c display\u8g2\csrc/u8g2_d_memory.c ****   *page_cnt = 2;
1506:..\..\..\..\..\..\Dev\Library embedded l2c display\u8g2\csrc/u8g2_d_memory.c ****   return 0;
1507:..\..\..\..\..\..\Dev\Library embedded l2c display\u8g2\csrc/u8g2_d_memory.c ****   #else
1508:..\..\..\..\..\..\Dev\Library embedded l2c display\u8g2\csrc/u8g2_d_memory.c ****   static uint8_t buf[400];
1509:..\..\..\..\..\..\Dev\Library embedded l2c display\u8g2\csrc/u8g2_d_memory.c ****   *page_cnt = 2;
 3842              		.loc 1 1509 0
 3843 0000 0223     		movs	r3, #2
 3844 0002 0370     		strb	r3, [r0]
1510:..\..\..\..\..\..\Dev\Library embedded l2c display\u8g2\csrc/u8g2_d_memory.c ****   return buf;
1511:..\..\..\..\..\..\Dev\Library embedded l2c display\u8g2\csrc/u8g2_d_memory.c ****   #endif
1512:..\..\..\..\..\..\Dev\Library embedded l2c display\u8g2\csrc/u8g2_d_memory.c **** }
 3845              		.loc 1 1512 0
 3846 0004 0048     		ldr	r0, .L410
ARM GAS  C:\Users\Abude\AppData\Local\Temp\ccndXIr0.s 			page 95


 3847              	.LVL273:
 3848 0006 7047     		bx	lr
 3849              	.L411:
 3850              		.align	2
 3851              	.L410:
 3852 0008 68FB0100 		.word	.LANCHOR24+3920
 3853              		.cfi_endproc
 3854              	.LFE136:
 3855              		.size	u8g2_m_25_25_2, .-u8g2_m_25_25_2
 3856              		.section	.text.u8g2_m_25_25_f,"ax",%progbits
 3857              		.align	2
 3858              		.global	u8g2_m_25_25_f
 3859              		.thumb
 3860              		.thumb_func
 3861              		.type	u8g2_m_25_25_f, %function
 3862              	u8g2_m_25_25_f:
 3863              	.LFB137:
1513:..\..\..\..\..\..\Dev\Library embedded l2c display\u8g2\csrc/u8g2_d_memory.c **** uint8_t *u8g2_m_25_25_f(uint8_t *page_cnt)
1514:..\..\..\..\..\..\Dev\Library embedded l2c display\u8g2\csrc/u8g2_d_memory.c **** {
 3864              		.loc 1 1514 0
 3865              		.cfi_startproc
 3866              		@ args = 0, pretend = 0, frame = 0
 3867              		@ frame_needed = 0, uses_anonymous_args = 0
 3868              		@ link register save eliminated.
 3869              	.LVL274:
1515:..\..\..\..\..\..\Dev\Library embedded l2c display\u8g2\csrc/u8g2_d_memory.c ****   #ifdef U8G2_USE_DYNAMIC_ALLOC
1516:..\..\..\..\..\..\Dev\Library embedded l2c display\u8g2\csrc/u8g2_d_memory.c ****   *page_cnt = 25;
1517:..\..\..\..\..\..\Dev\Library embedded l2c display\u8g2\csrc/u8g2_d_memory.c ****   return 0;
1518:..\..\..\..\..\..\Dev\Library embedded l2c display\u8g2\csrc/u8g2_d_memory.c ****   #else
1519:..\..\..\..\..\..\Dev\Library embedded l2c display\u8g2\csrc/u8g2_d_memory.c ****   static uint8_t buf[5000];
1520:..\..\..\..\..\..\Dev\Library embedded l2c display\u8g2\csrc/u8g2_d_memory.c ****   *page_cnt = 25;
 3870              		.loc 1 1520 0
 3871 0000 1923     		movs	r3, #25
 3872 0002 0370     		strb	r3, [r0]
1521:..\..\..\..\..\..\Dev\Library embedded l2c display\u8g2\csrc/u8g2_d_memory.c ****   return buf;
1522:..\..\..\..\..\..\Dev\Library embedded l2c display\u8g2\csrc/u8g2_d_memory.c ****   #endif
1523:..\..\..\..\..\..\Dev\Library embedded l2c display\u8g2\csrc/u8g2_d_memory.c **** }
 3873              		.loc 1 1523 0
 3874 0004 0048     		ldr	r0, .L413
 3875              	.LVL275:
 3876 0006 7047     		bx	lr
 3877              	.L414:
 3878              		.align	2
 3879              	.L413:
 3880 0008 F8FC0100 		.word	.LANCHOR25-24
 3881              		.cfi_endproc
 3882              	.LFE137:
 3883              		.size	u8g2_m_25_25_f, .-u8g2_m_25_25_f
 3884              		.section	.text.u8g2_m_37_16_1,"ax",%progbits
 3885              		.align	2
 3886              		.global	u8g2_m_37_16_1
 3887              		.thumb
 3888              		.thumb_func
 3889              		.type	u8g2_m_37_16_1, %function
 3890              	u8g2_m_37_16_1:
 3891              	.LFB138:
1524:..\..\..\..\..\..\Dev\Library embedded l2c display\u8g2\csrc/u8g2_d_memory.c **** uint8_t *u8g2_m_37_16_1(uint8_t *page_cnt)
ARM GAS  C:\Users\Abude\AppData\Local\Temp\ccndXIr0.s 			page 96


1525:..\..\..\..\..\..\Dev\Library embedded l2c display\u8g2\csrc/u8g2_d_memory.c **** {
 3892              		.loc 1 1525 0
 3893              		.cfi_startproc
 3894              		@ args = 0, pretend = 0, frame = 0
 3895              		@ frame_needed = 0, uses_anonymous_args = 0
 3896              		@ link register save eliminated.
 3897              	.LVL276:
1526:..\..\..\..\..\..\Dev\Library embedded l2c display\u8g2\csrc/u8g2_d_memory.c ****   #ifdef U8G2_USE_DYNAMIC_ALLOC
1527:..\..\..\..\..\..\Dev\Library embedded l2c display\u8g2\csrc/u8g2_d_memory.c ****   *page_cnt = 1;
1528:..\..\..\..\..\..\Dev\Library embedded l2c display\u8g2\csrc/u8g2_d_memory.c ****   return 0;
1529:..\..\..\..\..\..\Dev\Library embedded l2c display\u8g2\csrc/u8g2_d_memory.c ****   #else
1530:..\..\..\..\..\..\Dev\Library embedded l2c display\u8g2\csrc/u8g2_d_memory.c ****   static uint8_t buf[296];
1531:..\..\..\..\..\..\Dev\Library embedded l2c display\u8g2\csrc/u8g2_d_memory.c ****   *page_cnt = 1;
 3898              		.loc 1 1531 0
 3899 0000 0123     		movs	r3, #1
 3900 0002 0370     		strb	r3, [r0]
1532:..\..\..\..\..\..\Dev\Library embedded l2c display\u8g2\csrc/u8g2_d_memory.c ****   return buf;
1533:..\..\..\..\..\..\Dev\Library embedded l2c display\u8g2\csrc/u8g2_d_memory.c ****   #endif
1534:..\..\..\..\..\..\Dev\Library embedded l2c display\u8g2\csrc/u8g2_d_memory.c **** }
 3901              		.loc 1 1534 0
 3902 0004 0048     		ldr	r0, .L416
 3903              	.LVL277:
 3904 0006 7047     		bx	lr
 3905              	.L417:
 3906              		.align	2
 3907              	.L416:
 3908 0008 80100200 		.word	.LANCHOR26+632
 3909              		.cfi_endproc
 3910              	.LFE138:
 3911              		.size	u8g2_m_37_16_1, .-u8g2_m_37_16_1
 3912              		.section	.text.u8g2_m_37_16_2,"ax",%progbits
 3913              		.align	2
 3914              		.global	u8g2_m_37_16_2
 3915              		.thumb
 3916              		.thumb_func
 3917              		.type	u8g2_m_37_16_2, %function
 3918              	u8g2_m_37_16_2:
 3919              	.LFB139:
1535:..\..\..\..\..\..\Dev\Library embedded l2c display\u8g2\csrc/u8g2_d_memory.c **** uint8_t *u8g2_m_37_16_2(uint8_t *page_cnt)
1536:..\..\..\..\..\..\Dev\Library embedded l2c display\u8g2\csrc/u8g2_d_memory.c **** {
 3920              		.loc 1 1536 0
 3921              		.cfi_startproc
 3922              		@ args = 0, pretend = 0, frame = 0
 3923              		@ frame_needed = 0, uses_anonymous_args = 0
 3924              		@ link register save eliminated.
 3925              	.LVL278:
1537:..\..\..\..\..\..\Dev\Library embedded l2c display\u8g2\csrc/u8g2_d_memory.c ****   #ifdef U8G2_USE_DYNAMIC_ALLOC
1538:..\..\..\..\..\..\Dev\Library embedded l2c display\u8g2\csrc/u8g2_d_memory.c ****   *page_cnt = 2;
1539:..\..\..\..\..\..\Dev\Library embedded l2c display\u8g2\csrc/u8g2_d_memory.c ****   return 0;
1540:..\..\..\..\..\..\Dev\Library embedded l2c display\u8g2\csrc/u8g2_d_memory.c ****   #else
1541:..\..\..\..\..\..\Dev\Library embedded l2c display\u8g2\csrc/u8g2_d_memory.c ****   static uint8_t buf[592];
1542:..\..\..\..\..\..\Dev\Library embedded l2c display\u8g2\csrc/u8g2_d_memory.c ****   *page_cnt = 2;
 3926              		.loc 1 1542 0
 3927 0000 0223     		movs	r3, #2
 3928 0002 0370     		strb	r3, [r0]
1543:..\..\..\..\..\..\Dev\Library embedded l2c display\u8g2\csrc/u8g2_d_memory.c ****   return buf;
1544:..\..\..\..\..\..\Dev\Library embedded l2c display\u8g2\csrc/u8g2_d_memory.c ****   #endif
ARM GAS  C:\Users\Abude\AppData\Local\Temp\ccndXIr0.s 			page 97


1545:..\..\..\..\..\..\Dev\Library embedded l2c display\u8g2\csrc/u8g2_d_memory.c **** }
 3929              		.loc 1 1545 0
 3930 0004 0048     		ldr	r0, .L419
 3931              	.LVL279:
 3932 0006 7047     		bx	lr
 3933              	.L420:
 3934              		.align	2
 3935              	.L419:
 3936 0008 A8110200 		.word	.LANCHOR26+928
 3937              		.cfi_endproc
 3938              	.LFE139:
 3939              		.size	u8g2_m_37_16_2, .-u8g2_m_37_16_2
 3940              		.section	.text.u8g2_m_37_16_f,"ax",%progbits
 3941              		.align	2
 3942              		.global	u8g2_m_37_16_f
 3943              		.thumb
 3944              		.thumb_func
 3945              		.type	u8g2_m_37_16_f, %function
 3946              	u8g2_m_37_16_f:
 3947              	.LFB140:
1546:..\..\..\..\..\..\Dev\Library embedded l2c display\u8g2\csrc/u8g2_d_memory.c **** uint8_t *u8g2_m_37_16_f(uint8_t *page_cnt)
1547:..\..\..\..\..\..\Dev\Library embedded l2c display\u8g2\csrc/u8g2_d_memory.c **** {
 3948              		.loc 1 1547 0
 3949              		.cfi_startproc
 3950              		@ args = 0, pretend = 0, frame = 0
 3951              		@ frame_needed = 0, uses_anonymous_args = 0
 3952              		@ link register save eliminated.
 3953              	.LVL280:
1548:..\..\..\..\..\..\Dev\Library embedded l2c display\u8g2\csrc/u8g2_d_memory.c ****   #ifdef U8G2_USE_DYNAMIC_ALLOC
1549:..\..\..\..\..\..\Dev\Library embedded l2c display\u8g2\csrc/u8g2_d_memory.c ****   *page_cnt = 16;
1550:..\..\..\..\..\..\Dev\Library embedded l2c display\u8g2\csrc/u8g2_d_memory.c ****   return 0;
1551:..\..\..\..\..\..\Dev\Library embedded l2c display\u8g2\csrc/u8g2_d_memory.c ****   #else
1552:..\..\..\..\..\..\Dev\Library embedded l2c display\u8g2\csrc/u8g2_d_memory.c ****   static uint8_t buf[4736];
1553:..\..\..\..\..\..\Dev\Library embedded l2c display\u8g2\csrc/u8g2_d_memory.c ****   *page_cnt = 16;
 3954              		.loc 1 1553 0
 3955 0000 1023     		movs	r3, #16
 3956 0002 0370     		strb	r3, [r0]
1554:..\..\..\..\..\..\Dev\Library embedded l2c display\u8g2\csrc/u8g2_d_memory.c ****   return buf;
1555:..\..\..\..\..\..\Dev\Library embedded l2c display\u8g2\csrc/u8g2_d_memory.c ****   #endif
1556:..\..\..\..\..\..\Dev\Library embedded l2c display\u8g2\csrc/u8g2_d_memory.c **** }
 3957              		.loc 1 1556 0
 3958 0004 0048     		ldr	r0, .L422
 3959              	.LVL281:
 3960 0006 7047     		bx	lr
 3961              	.L423:
 3962              		.align	2
 3963              	.L422:
 3964 0008 F8130200 		.word	.LANCHOR26+1520
 3965              		.cfi_endproc
 3966              	.LFE140:
 3967              		.size	u8g2_m_37_16_f, .-u8g2_m_37_16_f
 3968              		.section	.text.u8g2_m_8_1_1,"ax",%progbits
 3969              		.align	2
 3970              		.global	u8g2_m_8_1_1
 3971              		.thumb
 3972              		.thumb_func
 3973              		.type	u8g2_m_8_1_1, %function
ARM GAS  C:\Users\Abude\AppData\Local\Temp\ccndXIr0.s 			page 98


 3974              	u8g2_m_8_1_1:
 3975              	.LFB141:
1557:..\..\..\..\..\..\Dev\Library embedded l2c display\u8g2\csrc/u8g2_d_memory.c **** uint8_t *u8g2_m_8_1_1(uint8_t *page_cnt)
1558:..\..\..\..\..\..\Dev\Library embedded l2c display\u8g2\csrc/u8g2_d_memory.c **** {
 3976              		.loc 1 1558 0
 3977              		.cfi_startproc
 3978              		@ args = 0, pretend = 0, frame = 0
 3979              		@ frame_needed = 0, uses_anonymous_args = 0
 3980              		@ link register save eliminated.
 3981              	.LVL282:
1559:..\..\..\..\..\..\Dev\Library embedded l2c display\u8g2\csrc/u8g2_d_memory.c ****   #ifdef U8G2_USE_DYNAMIC_ALLOC
1560:..\..\..\..\..\..\Dev\Library embedded l2c display\u8g2\csrc/u8g2_d_memory.c ****   *page_cnt = 1;
1561:..\..\..\..\..\..\Dev\Library embedded l2c display\u8g2\csrc/u8g2_d_memory.c ****   return 0;
1562:..\..\..\..\..\..\Dev\Library embedded l2c display\u8g2\csrc/u8g2_d_memory.c ****   #else
1563:..\..\..\..\..\..\Dev\Library embedded l2c display\u8g2\csrc/u8g2_d_memory.c ****   static uint8_t buf[64];
1564:..\..\..\..\..\..\Dev\Library embedded l2c display\u8g2\csrc/u8g2_d_memory.c ****   *page_cnt = 1;
 3982              		.loc 1 1564 0
 3983 0000 0123     		movs	r3, #1
 3984 0002 0370     		strb	r3, [r0]
1565:..\..\..\..\..\..\Dev\Library embedded l2c display\u8g2\csrc/u8g2_d_memory.c ****   return buf;
1566:..\..\..\..\..\..\Dev\Library embedded l2c display\u8g2\csrc/u8g2_d_memory.c ****   #endif
1567:..\..\..\..\..\..\Dev\Library embedded l2c display\u8g2\csrc/u8g2_d_memory.c **** }
 3985              		.loc 1 1567 0
 3986 0004 0048     		ldr	r0, .L425
 3987              	.LVL283:
 3988 0006 7047     		bx	lr
 3989              	.L426:
 3990              		.align	2
 3991              	.L425:
 3992 0008 78260200 		.word	.LANCHOR27+1912
 3993              		.cfi_endproc
 3994              	.LFE141:
 3995              		.size	u8g2_m_8_1_1, .-u8g2_m_8_1_1
 3996              		.section	.text.u8g2_m_8_1_2,"ax",%progbits
 3997              		.align	2
 3998              		.global	u8g2_m_8_1_2
 3999              		.thumb
 4000              		.thumb_func
 4001              		.type	u8g2_m_8_1_2, %function
 4002              	u8g2_m_8_1_2:
 4003              	.LFB142:
1568:..\..\..\..\..\..\Dev\Library embedded l2c display\u8g2\csrc/u8g2_d_memory.c **** uint8_t *u8g2_m_8_1_2(uint8_t *page_cnt)
1569:..\..\..\..\..\..\Dev\Library embedded l2c display\u8g2\csrc/u8g2_d_memory.c **** {
 4004              		.loc 1 1569 0
 4005              		.cfi_startproc
 4006              		@ args = 0, pretend = 0, frame = 0
 4007              		@ frame_needed = 0, uses_anonymous_args = 0
 4008              		@ link register save eliminated.
 4009              	.LVL284:
1570:..\..\..\..\..\..\Dev\Library embedded l2c display\u8g2\csrc/u8g2_d_memory.c ****   #ifdef U8G2_USE_DYNAMIC_ALLOC
1571:..\..\..\..\..\..\Dev\Library embedded l2c display\u8g2\csrc/u8g2_d_memory.c ****   *page_cnt = 2;
1572:..\..\..\..\..\..\Dev\Library embedded l2c display\u8g2\csrc/u8g2_d_memory.c ****   return 0;
1573:..\..\..\..\..\..\Dev\Library embedded l2c display\u8g2\csrc/u8g2_d_memory.c ****   #else
1574:..\..\..\..\..\..\Dev\Library embedded l2c display\u8g2\csrc/u8g2_d_memory.c ****   static uint8_t buf[128];
1575:..\..\..\..\..\..\Dev\Library embedded l2c display\u8g2\csrc/u8g2_d_memory.c ****   *page_cnt = 2;
 4010              		.loc 1 1575 0
 4011 0000 0223     		movs	r3, #2
ARM GAS  C:\Users\Abude\AppData\Local\Temp\ccndXIr0.s 			page 99


 4012 0002 0370     		strb	r3, [r0]
1576:..\..\..\..\..\..\Dev\Library embedded l2c display\u8g2\csrc/u8g2_d_memory.c ****   return buf;
1577:..\..\..\..\..\..\Dev\Library embedded l2c display\u8g2\csrc/u8g2_d_memory.c ****   #endif
1578:..\..\..\..\..\..\Dev\Library embedded l2c display\u8g2\csrc/u8g2_d_memory.c **** }
 4013              		.loc 1 1578 0
 4014 0004 0048     		ldr	r0, .L428
 4015              	.LVL285:
 4016 0006 7047     		bx	lr
 4017              	.L429:
 4018              		.align	2
 4019              	.L428:
 4020 0008 B8260200 		.word	.LANCHOR27+1976
 4021              		.cfi_endproc
 4022              	.LFE142:
 4023              		.size	u8g2_m_8_1_2, .-u8g2_m_8_1_2
 4024              		.section	.text.u8g2_m_8_1_f,"ax",%progbits
 4025              		.align	2
 4026              		.global	u8g2_m_8_1_f
 4027              		.thumb
 4028              		.thumb_func
 4029              		.type	u8g2_m_8_1_f, %function
 4030              	u8g2_m_8_1_f:
 4031              	.LFB143:
1579:..\..\..\..\..\..\Dev\Library embedded l2c display\u8g2\csrc/u8g2_d_memory.c **** uint8_t *u8g2_m_8_1_f(uint8_t *page_cnt)
1580:..\..\..\..\..\..\Dev\Library embedded l2c display\u8g2\csrc/u8g2_d_memory.c **** {
 4032              		.loc 1 1580 0
 4033              		.cfi_startproc
 4034              		@ args = 0, pretend = 0, frame = 0
 4035              		@ frame_needed = 0, uses_anonymous_args = 0
 4036              		@ link register save eliminated.
 4037              	.LVL286:
1581:..\..\..\..\..\..\Dev\Library embedded l2c display\u8g2\csrc/u8g2_d_memory.c ****   #ifdef U8G2_USE_DYNAMIC_ALLOC
1582:..\..\..\..\..\..\Dev\Library embedded l2c display\u8g2\csrc/u8g2_d_memory.c ****   *page_cnt = 1;
1583:..\..\..\..\..\..\Dev\Library embedded l2c display\u8g2\csrc/u8g2_d_memory.c ****   return 0;
1584:..\..\..\..\..\..\Dev\Library embedded l2c display\u8g2\csrc/u8g2_d_memory.c ****   #else
1585:..\..\..\..\..\..\Dev\Library embedded l2c display\u8g2\csrc/u8g2_d_memory.c ****   static uint8_t buf[64];
1586:..\..\..\..\..\..\Dev\Library embedded l2c display\u8g2\csrc/u8g2_d_memory.c ****   *page_cnt = 1;
 4038              		.loc 1 1586 0
 4039 0000 0123     		movs	r3, #1
 4040 0002 0370     		strb	r3, [r0]
1587:..\..\..\..\..\..\Dev\Library embedded l2c display\u8g2\csrc/u8g2_d_memory.c ****   return buf;
1588:..\..\..\..\..\..\Dev\Library embedded l2c display\u8g2\csrc/u8g2_d_memory.c ****   #endif
1589:..\..\..\..\..\..\Dev\Library embedded l2c display\u8g2\csrc/u8g2_d_memory.c **** }
 4041              		.loc 1 1589 0
 4042 0004 0048     		ldr	r0, .L431
 4043              	.LVL287:
 4044 0006 7047     		bx	lr
 4045              	.L432:
 4046              		.align	2
 4047              	.L431:
 4048 0008 38270200 		.word	.LANCHOR27+2104
 4049              		.cfi_endproc
 4050              	.LFE143:
 4051              		.size	u8g2_m_8_1_f, .-u8g2_m_8_1_f
 4052              		.section	.text.u8g2_m_4_1_1,"ax",%progbits
 4053              		.align	2
 4054              		.global	u8g2_m_4_1_1
ARM GAS  C:\Users\Abude\AppData\Local\Temp\ccndXIr0.s 			page 100


 4055              		.thumb
 4056              		.thumb_func
 4057              		.type	u8g2_m_4_1_1, %function
 4058              	u8g2_m_4_1_1:
 4059              	.LFB144:
1590:..\..\..\..\..\..\Dev\Library embedded l2c display\u8g2\csrc/u8g2_d_memory.c **** uint8_t *u8g2_m_4_1_1(uint8_t *page_cnt)
1591:..\..\..\..\..\..\Dev\Library embedded l2c display\u8g2\csrc/u8g2_d_memory.c **** {
 4060              		.loc 1 1591 0
 4061              		.cfi_startproc
 4062              		@ args = 0, pretend = 0, frame = 0
 4063              		@ frame_needed = 0, uses_anonymous_args = 0
 4064              		@ link register save eliminated.
 4065              	.LVL288:
1592:..\..\..\..\..\..\Dev\Library embedded l2c display\u8g2\csrc/u8g2_d_memory.c ****   #ifdef U8G2_USE_DYNAMIC_ALLOC
1593:..\..\..\..\..\..\Dev\Library embedded l2c display\u8g2\csrc/u8g2_d_memory.c ****   *page_cnt = 1;
1594:..\..\..\..\..\..\Dev\Library embedded l2c display\u8g2\csrc/u8g2_d_memory.c ****   return 0;
1595:..\..\..\..\..\..\Dev\Library embedded l2c display\u8g2\csrc/u8g2_d_memory.c ****   #else
1596:..\..\..\..\..\..\Dev\Library embedded l2c display\u8g2\csrc/u8g2_d_memory.c ****   static uint8_t buf[32];
1597:..\..\..\..\..\..\Dev\Library embedded l2c display\u8g2\csrc/u8g2_d_memory.c ****   *page_cnt = 1;
 4066              		.loc 1 1597 0
 4067 0000 0123     		movs	r3, #1
 4068 0002 0370     		strb	r3, [r0]
1598:..\..\..\..\..\..\Dev\Library embedded l2c display\u8g2\csrc/u8g2_d_memory.c ****   return buf;
1599:..\..\..\..\..\..\Dev\Library embedded l2c display\u8g2\csrc/u8g2_d_memory.c ****   #endif
1600:..\..\..\..\..\..\Dev\Library embedded l2c display\u8g2\csrc/u8g2_d_memory.c **** }
 4069              		.loc 1 1600 0
 4070 0004 0048     		ldr	r0, .L434
 4071              	.LVL289:
 4072 0006 7047     		bx	lr
 4073              	.L435:
 4074              		.align	2
 4075              	.L434:
 4076 0008 78270200 		.word	.LANCHOR27+2168
 4077              		.cfi_endproc
 4078              	.LFE144:
 4079              		.size	u8g2_m_4_1_1, .-u8g2_m_4_1_1
 4080              		.section	.text.u8g2_m_4_1_2,"ax",%progbits
 4081              		.align	2
 4082              		.global	u8g2_m_4_1_2
 4083              		.thumb
 4084              		.thumb_func
 4085              		.type	u8g2_m_4_1_2, %function
 4086              	u8g2_m_4_1_2:
 4087              	.LFB145:
1601:..\..\..\..\..\..\Dev\Library embedded l2c display\u8g2\csrc/u8g2_d_memory.c **** uint8_t *u8g2_m_4_1_2(uint8_t *page_cnt)
1602:..\..\..\..\..\..\Dev\Library embedded l2c display\u8g2\csrc/u8g2_d_memory.c **** {
 4088              		.loc 1 1602 0
 4089              		.cfi_startproc
 4090              		@ args = 0, pretend = 0, frame = 0
 4091              		@ frame_needed = 0, uses_anonymous_args = 0
 4092              		@ link register save eliminated.
 4093              	.LVL290:
1603:..\..\..\..\..\..\Dev\Library embedded l2c display\u8g2\csrc/u8g2_d_memory.c ****   #ifdef U8G2_USE_DYNAMIC_ALLOC
1604:..\..\..\..\..\..\Dev\Library embedded l2c display\u8g2\csrc/u8g2_d_memory.c ****   *page_cnt = 2;
1605:..\..\..\..\..\..\Dev\Library embedded l2c display\u8g2\csrc/u8g2_d_memory.c ****   return 0;
1606:..\..\..\..\..\..\Dev\Library embedded l2c display\u8g2\csrc/u8g2_d_memory.c ****   #else
1607:..\..\..\..\..\..\Dev\Library embedded l2c display\u8g2\csrc/u8g2_d_memory.c ****   static uint8_t buf[64];
ARM GAS  C:\Users\Abude\AppData\Local\Temp\ccndXIr0.s 			page 101


1608:..\..\..\..\..\..\Dev\Library embedded l2c display\u8g2\csrc/u8g2_d_memory.c ****   *page_cnt = 2;
 4094              		.loc 1 1608 0
 4095 0000 0223     		movs	r3, #2
 4096 0002 0370     		strb	r3, [r0]
1609:..\..\..\..\..\..\Dev\Library embedded l2c display\u8g2\csrc/u8g2_d_memory.c ****   return buf;
1610:..\..\..\..\..\..\Dev\Library embedded l2c display\u8g2\csrc/u8g2_d_memory.c ****   #endif
1611:..\..\..\..\..\..\Dev\Library embedded l2c display\u8g2\csrc/u8g2_d_memory.c **** }
 4097              		.loc 1 1611 0
 4098 0004 0048     		ldr	r0, .L437
 4099              	.LVL291:
 4100 0006 7047     		bx	lr
 4101              	.L438:
 4102              		.align	2
 4103              	.L437:
 4104 0008 98270200 		.word	.LANCHOR27+2200
 4105              		.cfi_endproc
 4106              	.LFE145:
 4107              		.size	u8g2_m_4_1_2, .-u8g2_m_4_1_2
 4108              		.section	.text.u8g2_m_4_1_f,"ax",%progbits
 4109              		.align	2
 4110              		.global	u8g2_m_4_1_f
 4111              		.thumb
 4112              		.thumb_func
 4113              		.type	u8g2_m_4_1_f, %function
 4114              	u8g2_m_4_1_f:
 4115              	.LFB146:
1612:..\..\..\..\..\..\Dev\Library embedded l2c display\u8g2\csrc/u8g2_d_memory.c **** uint8_t *u8g2_m_4_1_f(uint8_t *page_cnt)
1613:..\..\..\..\..\..\Dev\Library embedded l2c display\u8g2\csrc/u8g2_d_memory.c **** {
 4116              		.loc 1 1613 0
 4117              		.cfi_startproc
 4118              		@ args = 0, pretend = 0, frame = 0
 4119              		@ frame_needed = 0, uses_anonymous_args = 0
 4120              		@ link register save eliminated.
 4121              	.LVL292:
1614:..\..\..\..\..\..\Dev\Library embedded l2c display\u8g2\csrc/u8g2_d_memory.c ****   #ifdef U8G2_USE_DYNAMIC_ALLOC
1615:..\..\..\..\..\..\Dev\Library embedded l2c display\u8g2\csrc/u8g2_d_memory.c ****   *page_cnt = 1;
1616:..\..\..\..\..\..\Dev\Library embedded l2c display\u8g2\csrc/u8g2_d_memory.c ****   return 0;
1617:..\..\..\..\..\..\Dev\Library embedded l2c display\u8g2\csrc/u8g2_d_memory.c ****   #else
1618:..\..\..\..\..\..\Dev\Library embedded l2c display\u8g2\csrc/u8g2_d_memory.c ****   static uint8_t buf[32];
1619:..\..\..\..\..\..\Dev\Library embedded l2c display\u8g2\csrc/u8g2_d_memory.c ****   *page_cnt = 1;
 4122              		.loc 1 1619 0
 4123 0000 0123     		movs	r3, #1
 4124 0002 0370     		strb	r3, [r0]
1620:..\..\..\..\..\..\Dev\Library embedded l2c display\u8g2\csrc/u8g2_d_memory.c ****   return buf;
1621:..\..\..\..\..\..\Dev\Library embedded l2c display\u8g2\csrc/u8g2_d_memory.c ****   #endif
1622:..\..\..\..\..\..\Dev\Library embedded l2c display\u8g2\csrc/u8g2_d_memory.c **** }
 4125              		.loc 1 1622 0
 4126 0004 0048     		ldr	r0, .L440
 4127              	.LVL293:
 4128 0006 7047     		bx	lr
 4129              	.L441:
 4130              		.align	2
 4131              	.L440:
 4132 0008 D8270200 		.word	.LANCHOR27+2264
 4133              		.cfi_endproc
 4134              	.LFE146:
 4135              		.size	u8g2_m_4_1_f, .-u8g2_m_4_1_f
ARM GAS  C:\Users\Abude\AppData\Local\Temp\ccndXIr0.s 			page 102


 4136              		.section	.text.u8g2_m_1_1_1,"ax",%progbits
 4137              		.align	2
 4138              		.global	u8g2_m_1_1_1
 4139              		.thumb
 4140              		.thumb_func
 4141              		.type	u8g2_m_1_1_1, %function
 4142              	u8g2_m_1_1_1:
 4143              	.LFB147:
1623:..\..\..\..\..\..\Dev\Library embedded l2c display\u8g2\csrc/u8g2_d_memory.c **** uint8_t *u8g2_m_1_1_1(uint8_t *page_cnt)
1624:..\..\..\..\..\..\Dev\Library embedded l2c display\u8g2\csrc/u8g2_d_memory.c **** {
 4144              		.loc 1 1624 0
 4145              		.cfi_startproc
 4146              		@ args = 0, pretend = 0, frame = 0
 4147              		@ frame_needed = 0, uses_anonymous_args = 0
 4148              		@ link register save eliminated.
 4149              	.LVL294:
1625:..\..\..\..\..\..\Dev\Library embedded l2c display\u8g2\csrc/u8g2_d_memory.c ****   #ifdef U8G2_USE_DYNAMIC_ALLOC
1626:..\..\..\..\..\..\Dev\Library embedded l2c display\u8g2\csrc/u8g2_d_memory.c ****   *page_cnt = 1;
1627:..\..\..\..\..\..\Dev\Library embedded l2c display\u8g2\csrc/u8g2_d_memory.c ****   return 0;
1628:..\..\..\..\..\..\Dev\Library embedded l2c display\u8g2\csrc/u8g2_d_memory.c ****   #else
1629:..\..\..\..\..\..\Dev\Library embedded l2c display\u8g2\csrc/u8g2_d_memory.c ****   static uint8_t buf[8];
1630:..\..\..\..\..\..\Dev\Library embedded l2c display\u8g2\csrc/u8g2_d_memory.c ****   *page_cnt = 1;
 4150              		.loc 1 1630 0
 4151 0000 0123     		movs	r3, #1
 4152 0002 0370     		strb	r3, [r0]
1631:..\..\..\..\..\..\Dev\Library embedded l2c display\u8g2\csrc/u8g2_d_memory.c ****   return buf;
1632:..\..\..\..\..\..\Dev\Library embedded l2c display\u8g2\csrc/u8g2_d_memory.c ****   #endif
1633:..\..\..\..\..\..\Dev\Library embedded l2c display\u8g2\csrc/u8g2_d_memory.c **** }
 4153              		.loc 1 1633 0
 4154 0004 0048     		ldr	r0, .L443
 4155              	.LVL295:
 4156 0006 7047     		bx	lr
 4157              	.L444:
 4158              		.align	2
 4159              	.L443:
 4160 0008 F8270200 		.word	.LANCHOR27+2296
 4161              		.cfi_endproc
 4162              	.LFE147:
 4163              		.size	u8g2_m_1_1_1, .-u8g2_m_1_1_1
 4164              		.section	.text.u8g2_m_1_1_2,"ax",%progbits
 4165              		.align	2
 4166              		.global	u8g2_m_1_1_2
 4167              		.thumb
 4168              		.thumb_func
 4169              		.type	u8g2_m_1_1_2, %function
 4170              	u8g2_m_1_1_2:
 4171              	.LFB148:
1634:..\..\..\..\..\..\Dev\Library embedded l2c display\u8g2\csrc/u8g2_d_memory.c **** uint8_t *u8g2_m_1_1_2(uint8_t *page_cnt)
1635:..\..\..\..\..\..\Dev\Library embedded l2c display\u8g2\csrc/u8g2_d_memory.c **** {
 4172              		.loc 1 1635 0
 4173              		.cfi_startproc
 4174              		@ args = 0, pretend = 0, frame = 0
 4175              		@ frame_needed = 0, uses_anonymous_args = 0
 4176              		@ link register save eliminated.
 4177              	.LVL296:
1636:..\..\..\..\..\..\Dev\Library embedded l2c display\u8g2\csrc/u8g2_d_memory.c ****   #ifdef U8G2_USE_DYNAMIC_ALLOC
1637:..\..\..\..\..\..\Dev\Library embedded l2c display\u8g2\csrc/u8g2_d_memory.c ****   *page_cnt = 2;
ARM GAS  C:\Users\Abude\AppData\Local\Temp\ccndXIr0.s 			page 103


1638:..\..\..\..\..\..\Dev\Library embedded l2c display\u8g2\csrc/u8g2_d_memory.c ****   return 0;
1639:..\..\..\..\..\..\Dev\Library embedded l2c display\u8g2\csrc/u8g2_d_memory.c ****   #else
1640:..\..\..\..\..\..\Dev\Library embedded l2c display\u8g2\csrc/u8g2_d_memory.c ****   static uint8_t buf[16];
1641:..\..\..\..\..\..\Dev\Library embedded l2c display\u8g2\csrc/u8g2_d_memory.c ****   *page_cnt = 2;
 4178              		.loc 1 1641 0
 4179 0000 0223     		movs	r3, #2
 4180 0002 0370     		strb	r3, [r0]
1642:..\..\..\..\..\..\Dev\Library embedded l2c display\u8g2\csrc/u8g2_d_memory.c ****   return buf;
1643:..\..\..\..\..\..\Dev\Library embedded l2c display\u8g2\csrc/u8g2_d_memory.c ****   #endif
1644:..\..\..\..\..\..\Dev\Library embedded l2c display\u8g2\csrc/u8g2_d_memory.c **** }
 4181              		.loc 1 1644 0
 4182 0004 0048     		ldr	r0, .L446
 4183              	.LVL297:
 4184 0006 7047     		bx	lr
 4185              	.L447:
 4186              		.align	2
 4187              	.L446:
 4188 0008 00280200 		.word	.LANCHOR27+2304
 4189              		.cfi_endproc
 4190              	.LFE148:
 4191              		.size	u8g2_m_1_1_2, .-u8g2_m_1_1_2
 4192              		.section	.text.u8g2_m_1_1_f,"ax",%progbits
 4193              		.align	2
 4194              		.global	u8g2_m_1_1_f
 4195              		.thumb
 4196              		.thumb_func
 4197              		.type	u8g2_m_1_1_f, %function
 4198              	u8g2_m_1_1_f:
 4199              	.LFB149:
1645:..\..\..\..\..\..\Dev\Library embedded l2c display\u8g2\csrc/u8g2_d_memory.c **** uint8_t *u8g2_m_1_1_f(uint8_t *page_cnt)
1646:..\..\..\..\..\..\Dev\Library embedded l2c display\u8g2\csrc/u8g2_d_memory.c **** {
 4200              		.loc 1 1646 0
 4201              		.cfi_startproc
 4202              		@ args = 0, pretend = 0, frame = 0
 4203              		@ frame_needed = 0, uses_anonymous_args = 0
 4204              		@ link register save eliminated.
 4205              	.LVL298:
1647:..\..\..\..\..\..\Dev\Library embedded l2c display\u8g2\csrc/u8g2_d_memory.c ****   #ifdef U8G2_USE_DYNAMIC_ALLOC
1648:..\..\..\..\..\..\Dev\Library embedded l2c display\u8g2\csrc/u8g2_d_memory.c ****   *page_cnt = 1;
1649:..\..\..\..\..\..\Dev\Library embedded l2c display\u8g2\csrc/u8g2_d_memory.c ****   return 0;
1650:..\..\..\..\..\..\Dev\Library embedded l2c display\u8g2\csrc/u8g2_d_memory.c ****   #else
1651:..\..\..\..\..\..\Dev\Library embedded l2c display\u8g2\csrc/u8g2_d_memory.c ****   static uint8_t buf[8];
1652:..\..\..\..\..\..\Dev\Library embedded l2c display\u8g2\csrc/u8g2_d_memory.c ****   *page_cnt = 1;
 4206              		.loc 1 1652 0
 4207 0000 0123     		movs	r3, #1
 4208 0002 0370     		strb	r3, [r0]
1653:..\..\..\..\..\..\Dev\Library embedded l2c display\u8g2\csrc/u8g2_d_memory.c ****   return buf;
1654:..\..\..\..\..\..\Dev\Library embedded l2c display\u8g2\csrc/u8g2_d_memory.c ****   #endif
1655:..\..\..\..\..\..\Dev\Library embedded l2c display\u8g2\csrc/u8g2_d_memory.c **** }
 4209              		.loc 1 1655 0
 4210 0004 0048     		ldr	r0, .L449
 4211              	.LVL299:
 4212 0006 7047     		bx	lr
 4213              	.L450:
 4214              		.align	2
 4215              	.L449:
 4216 0008 10280200 		.word	.LANCHOR27+2320
ARM GAS  C:\Users\Abude\AppData\Local\Temp\ccndXIr0.s 			page 104


 4217              		.cfi_endproc
 4218              	.LFE149:
 4219              		.size	u8g2_m_1_1_f, .-u8g2_m_1_1_f
 4220              		.section	.text.u8g2_m_48_30_1,"ax",%progbits
 4221              		.align	2
 4222              		.global	u8g2_m_48_30_1
 4223              		.thumb
 4224              		.thumb_func
 4225              		.type	u8g2_m_48_30_1, %function
 4226              	u8g2_m_48_30_1:
 4227              	.LFB150:
1656:..\..\..\..\..\..\Dev\Library embedded l2c display\u8g2\csrc/u8g2_d_memory.c **** uint8_t *u8g2_m_48_30_1(uint8_t *page_cnt)
1657:..\..\..\..\..\..\Dev\Library embedded l2c display\u8g2\csrc/u8g2_d_memory.c **** {
 4228              		.loc 1 1657 0
 4229              		.cfi_startproc
 4230              		@ args = 0, pretend = 0, frame = 0
 4231              		@ frame_needed = 0, uses_anonymous_args = 0
 4232              		@ link register save eliminated.
 4233              	.LVL300:
1658:..\..\..\..\..\..\Dev\Library embedded l2c display\u8g2\csrc/u8g2_d_memory.c ****   #ifdef U8G2_USE_DYNAMIC_ALLOC
1659:..\..\..\..\..\..\Dev\Library embedded l2c display\u8g2\csrc/u8g2_d_memory.c ****   *page_cnt = 1;
1660:..\..\..\..\..\..\Dev\Library embedded l2c display\u8g2\csrc/u8g2_d_memory.c ****   return 0;
1661:..\..\..\..\..\..\Dev\Library embedded l2c display\u8g2\csrc/u8g2_d_memory.c ****   #else
1662:..\..\..\..\..\..\Dev\Library embedded l2c display\u8g2\csrc/u8g2_d_memory.c ****   static uint8_t buf[384];
1663:..\..\..\..\..\..\Dev\Library embedded l2c display\u8g2\csrc/u8g2_d_memory.c ****   *page_cnt = 1;
 4234              		.loc 1 1663 0
 4235 0000 0123     		movs	r3, #1
 4236 0002 0370     		strb	r3, [r0]
1664:..\..\..\..\..\..\Dev\Library embedded l2c display\u8g2\csrc/u8g2_d_memory.c ****   return buf;
1665:..\..\..\..\..\..\Dev\Library embedded l2c display\u8g2\csrc/u8g2_d_memory.c ****   #endif
1666:..\..\..\..\..\..\Dev\Library embedded l2c display\u8g2\csrc/u8g2_d_memory.c **** }
 4237              		.loc 1 1666 0
 4238 0004 0048     		ldr	r0, .L452
 4239              	.LVL301:
 4240 0006 7047     		bx	lr
 4241              	.L453:
 4242              		.align	2
 4243              	.L452:
 4244 0008 18280200 		.word	.LANCHOR27+2328
 4245              		.cfi_endproc
 4246              	.LFE150:
 4247              		.size	u8g2_m_48_30_1, .-u8g2_m_48_30_1
 4248              		.section	.text.u8g2_m_48_30_2,"ax",%progbits
 4249              		.align	2
 4250              		.global	u8g2_m_48_30_2
 4251              		.thumb
 4252              		.thumb_func
 4253              		.type	u8g2_m_48_30_2, %function
 4254              	u8g2_m_48_30_2:
 4255              	.LFB151:
1667:..\..\..\..\..\..\Dev\Library embedded l2c display\u8g2\csrc/u8g2_d_memory.c **** uint8_t *u8g2_m_48_30_2(uint8_t *page_cnt)
1668:..\..\..\..\..\..\Dev\Library embedded l2c display\u8g2\csrc/u8g2_d_memory.c **** {
 4256              		.loc 1 1668 0
 4257              		.cfi_startproc
 4258              		@ args = 0, pretend = 0, frame = 0
 4259              		@ frame_needed = 0, uses_anonymous_args = 0
 4260              		@ link register save eliminated.
ARM GAS  C:\Users\Abude\AppData\Local\Temp\ccndXIr0.s 			page 105


 4261              	.LVL302:
1669:..\..\..\..\..\..\Dev\Library embedded l2c display\u8g2\csrc/u8g2_d_memory.c ****   #ifdef U8G2_USE_DYNAMIC_ALLOC
1670:..\..\..\..\..\..\Dev\Library embedded l2c display\u8g2\csrc/u8g2_d_memory.c ****   *page_cnt = 2;
1671:..\..\..\..\..\..\Dev\Library embedded l2c display\u8g2\csrc/u8g2_d_memory.c ****   return 0;
1672:..\..\..\..\..\..\Dev\Library embedded l2c display\u8g2\csrc/u8g2_d_memory.c ****   #else
1673:..\..\..\..\..\..\Dev\Library embedded l2c display\u8g2\csrc/u8g2_d_memory.c ****   static uint8_t buf[768];
1674:..\..\..\..\..\..\Dev\Library embedded l2c display\u8g2\csrc/u8g2_d_memory.c ****   *page_cnt = 2;
 4262              		.loc 1 1674 0
 4263 0000 0223     		movs	r3, #2
 4264 0002 0370     		strb	r3, [r0]
1675:..\..\..\..\..\..\Dev\Library embedded l2c display\u8g2\csrc/u8g2_d_memory.c ****   return buf;
1676:..\..\..\..\..\..\Dev\Library embedded l2c display\u8g2\csrc/u8g2_d_memory.c ****   #endif
1677:..\..\..\..\..\..\Dev\Library embedded l2c display\u8g2\csrc/u8g2_d_memory.c **** }
 4265              		.loc 1 1677 0
 4266 0004 0048     		ldr	r0, .L455
 4267              	.LVL303:
 4268 0006 7047     		bx	lr
 4269              	.L456:
 4270              		.align	2
 4271              	.L455:
 4272 0008 98290200 		.word	.LANCHOR27+2712
 4273              		.cfi_endproc
 4274              	.LFE151:
 4275              		.size	u8g2_m_48_30_2, .-u8g2_m_48_30_2
 4276              		.section	.text.u8g2_m_48_30_f,"ax",%progbits
 4277              		.align	2
 4278              		.global	u8g2_m_48_30_f
 4279              		.thumb
 4280              		.thumb_func
 4281              		.type	u8g2_m_48_30_f, %function
 4282              	u8g2_m_48_30_f:
 4283              	.LFB152:
1678:..\..\..\..\..\..\Dev\Library embedded l2c display\u8g2\csrc/u8g2_d_memory.c **** uint8_t *u8g2_m_48_30_f(uint8_t *page_cnt)
1679:..\..\..\..\..\..\Dev\Library embedded l2c display\u8g2\csrc/u8g2_d_memory.c **** {
 4284              		.loc 1 1679 0
 4285              		.cfi_startproc
 4286              		@ args = 0, pretend = 0, frame = 0
 4287              		@ frame_needed = 0, uses_anonymous_args = 0
 4288              		@ link register save eliminated.
 4289              	.LVL304:
1680:..\..\..\..\..\..\Dev\Library embedded l2c display\u8g2\csrc/u8g2_d_memory.c ****   #ifdef U8G2_USE_DYNAMIC_ALLOC
1681:..\..\..\..\..\..\Dev\Library embedded l2c display\u8g2\csrc/u8g2_d_memory.c ****   *page_cnt = 30;
1682:..\..\..\..\..\..\Dev\Library embedded l2c display\u8g2\csrc/u8g2_d_memory.c ****   return 0;
1683:..\..\..\..\..\..\Dev\Library embedded l2c display\u8g2\csrc/u8g2_d_memory.c ****   #else
1684:..\..\..\..\..\..\Dev\Library embedded l2c display\u8g2\csrc/u8g2_d_memory.c ****   static uint8_t buf[11520];
1685:..\..\..\..\..\..\Dev\Library embedded l2c display\u8g2\csrc/u8g2_d_memory.c ****   *page_cnt = 30;
 4290              		.loc 1 1685 0
 4291 0000 1E23     		movs	r3, #30
 4292 0002 0370     		strb	r3, [r0]
1686:..\..\..\..\..\..\Dev\Library embedded l2c display\u8g2\csrc/u8g2_d_memory.c ****   return buf;
1687:..\..\..\..\..\..\Dev\Library embedded l2c display\u8g2\csrc/u8g2_d_memory.c ****   #endif
1688:..\..\..\..\..\..\Dev\Library embedded l2c display\u8g2\csrc/u8g2_d_memory.c **** }
 4293              		.loc 1 1688 0
 4294 0004 0048     		ldr	r0, .L458
 4295              	.LVL305:
 4296 0006 7047     		bx	lr
 4297              	.L459:
ARM GAS  C:\Users\Abude\AppData\Local\Temp\ccndXIr0.s 			page 106


 4298              		.align	2
 4299              	.L458:
 4300 0008 982C0200 		.word	.LANCHOR27+3480
 4301              		.cfi_endproc
 4302              	.LFE152:
 4303              		.size	u8g2_m_48_30_f, .-u8g2_m_48_30_f
 4304              		.bss
 4305              		.align	2
 4306              		.set	.LANCHOR0,. + 0
 4307              		.set	.LANCHOR1,. + 4344
 4308              		.set	.LANCHOR2,. + 8688
 4309              		.set	.LANCHOR3,. + 13032
 4310              		.set	.LANCHOR4,. + 17376
 4311              		.set	.LANCHOR5,. + 21720
 4312              		.set	.LANCHOR6,. + 26064
 4313              		.set	.LANCHOR7,. + 30408
 4314              		.set	.LANCHOR8,. + 34752
 4315              		.set	.LANCHOR9,. + 47784
 4316              		.set	.LANCHOR10,. + 52128
 4317              		.set	.LANCHOR11,. + 56472
 4318              		.set	.LANCHOR12,. + 60816
 4319              		.set	.LANCHOR13,. + 65160
 4320              		.set	.LANCHOR14,. + 69504
 4321              		.set	.LANCHOR15,. + 73848
 4322              		.set	.LANCHOR16,. + 78192
 4323              		.set	.LANCHOR17,. + 82536
 4324              		.set	.LANCHOR18,. + 86880
 4325              		.set	.LANCHOR19,. + 95568
 4326              		.set	.LANCHOR20,. + 99912
 4327              		.set	.LANCHOR21,. + 108600
 4328              		.set	.LANCHOR22,. + 117288
 4329              		.set	.LANCHOR23,. + 121632
 4330              		.set	.LANCHOR24,. + 125976
 4331              		.set	.LANCHOR25,. + 130320
 4332              		.set	.LANCHOR26,. + 134664
 4333              		.set	.LANCHOR27,. + 139008
 4334              		.type	buf.11941, %object
 4335              		.size	buf.11941, 128
 4336              	buf.11941:
 4337 0000 00000000 		.space	128
 4337      00000000 
 4337      00000000 
 4337      00000000 
 4337      00000000 
 4338              		.type	buf.11945, %object
 4339              		.size	buf.11945, 256
 4340              	buf.11945:
 4341 0080 00000000 		.space	256
 4341      00000000 
 4341      00000000 
 4341      00000000 
 4341      00000000 
 4342              		.type	buf.11949, %object
 4343              		.size	buf.11949, 512
 4344              	buf.11949:
 4345 0180 00000000 		.space	512
 4345      00000000 
ARM GAS  C:\Users\Abude\AppData\Local\Temp\ccndXIr0.s 			page 107


 4345      00000000 
 4345      00000000 
 4345      00000000 
 4346              		.type	buf.11953, %object
 4347              		.size	buf.11953, 128
 4348              	buf.11953:
 4349 0380 00000000 		.space	128
 4349      00000000 
 4349      00000000 
 4349      00000000 
 4349      00000000 
 4350              		.type	buf.11957, %object
 4351              		.size	buf.11957, 256
 4352              	buf.11957:
 4353 0400 00000000 		.space	256
 4353      00000000 
 4353      00000000 
 4353      00000000 
 4353      00000000 
 4354              		.type	buf.11961, %object
 4355              		.size	buf.11961, 1024
 4356              	buf.11961:
 4357 0500 00000000 		.space	1024
 4357      00000000 
 4357      00000000 
 4357      00000000 
 4357      00000000 
 4358              		.type	buf.11965, %object
 4359              		.size	buf.11965, 2040
 4360              	buf.11965:
 4361 0900 00000000 		.space	2040
 4361      00000000 
 4361      00000000 
 4361      00000000 
 4361      00000000 
 4362              		.type	buf.11969, %object
 4363              		.size	buf.11969, 4080
 4364              	buf.11969:
 4365 10f8 00000000 		.space	4080
 4365      00000000 
 4365      00000000 
 4365      00000000 
 4365      00000000 
 4366              		.type	buf.11973, %object
 4367              		.size	buf.11973, 4080
 4368              	buf.11973:
 4369 20e8 00000000 		.space	4080
 4369      00000000 
 4369      00000000 
 4369      00000000 
 4369      00000000 
 4370              		.type	buf.11977, %object
 4371              		.size	buf.11977, 72
 4372              	buf.11977:
 4373 30d8 00000000 		.space	72
 4373      00000000 
 4373      00000000 
ARM GAS  C:\Users\Abude\AppData\Local\Temp\ccndXIr0.s 			page 108


 4373      00000000 
 4373      00000000 
 4374              		.type	buf.11981, %object
 4375              		.size	buf.11981, 144
 4376              	buf.11981:
 4377 3120 00000000 		.space	144
 4377      00000000 
 4377      00000000 
 4377      00000000 
 4377      00000000 
 4378              		.type	buf.11985, %object
 4379              		.size	buf.11985, 360
 4380              	buf.11985:
 4381 31b0 00000000 		.space	360
 4381      00000000 
 4381      00000000 
 4381      00000000 
 4381      00000000 
 4382              		.type	buf.11989, %object
 4383              		.size	buf.11989, 64
 4384              	buf.11989:
 4385 3318 00000000 		.space	64
 4385      00000000 
 4385      00000000 
 4385      00000000 
 4385      00000000 
 4386              		.type	buf.11993, %object
 4387              		.size	buf.11993, 128
 4388              	buf.11993:
 4389 3358 00000000 		.space	128
 4389      00000000 
 4389      00000000 
 4389      00000000 
 4389      00000000 
 4390              		.type	buf.11997, %object
 4391              		.size	buf.11997, 256
 4392              	buf.11997:
 4393 33d8 00000000 		.space	256
 4393      00000000 
 4393      00000000 
 4393      00000000 
 4393      00000000 
 4394              		.type	buf.12001, %object
 4395              		.size	buf.12001, 64
 4396              	buf.12001:
 4397 34d8 00000000 		.space	64
 4397      00000000 
 4397      00000000 
 4397      00000000 
 4397      00000000 
 4398              		.type	buf.12005, %object
 4399              		.size	buf.12005, 128
 4400              	buf.12005:
 4401 3518 00000000 		.space	128
 4401      00000000 
 4401      00000000 
 4401      00000000 
ARM GAS  C:\Users\Abude\AppData\Local\Temp\ccndXIr0.s 			page 109


 4401      00000000 
 4402              		.type	buf.12009, %object
 4403              		.size	buf.12009, 1024
 4404              	buf.12009:
 4405 3598 00000000 		.space	1024
 4405      00000000 
 4405      00000000 
 4405      00000000 
 4405      00000000 
 4406              		.type	buf.12013, %object
 4407              		.size	buf.12013, 96
 4408              	buf.12013:
 4409 3998 00000000 		.space	96
 4409      00000000 
 4409      00000000 
 4409      00000000 
 4409      00000000 
 4410              		.type	buf.12017, %object
 4411              		.size	buf.12017, 192
 4412              	buf.12017:
 4413 39f8 00000000 		.space	192
 4413      00000000 
 4413      00000000 
 4413      00000000 
 4413      00000000 
 4414              		.type	buf.12021, %object
 4415              		.size	buf.12021, 1152
 4416              	buf.12021:
 4417 3ab8 00000000 		.space	1152
 4417      00000000 
 4417      00000000 
 4417      00000000 
 4417      00000000 
 4418              		.type	buf.12025, %object
 4419              		.size	buf.12025, 80
 4420              	buf.12025:
 4421 3f38 00000000 		.space	80
 4421      00000000 
 4421      00000000 
 4421      00000000 
 4421      00000000 
 4422              		.type	buf.12029, %object
 4423              		.size	buf.12029, 160
 4424              	buf.12029:
 4425 3f88 00000000 		.space	160
 4425      00000000 
 4425      00000000 
 4425      00000000 
 4425      00000000 
 4426              		.type	buf.12033, %object
 4427              		.size	buf.12033, 1280
 4428              	buf.12033:
 4429 4028 00000000 		.space	1280
 4429      00000000 
 4429      00000000 
 4429      00000000 
 4429      00000000 
ARM GAS  C:\Users\Abude\AppData\Local\Temp\ccndXIr0.s 			page 110


 4430              		.type	buf.12037, %object
 4431              		.size	buf.12037, 128
 4432              	buf.12037:
 4433 4528 00000000 		.space	128
 4433      00000000 
 4433      00000000 
 4433      00000000 
 4433      00000000 
 4434              		.type	buf.12041, %object
 4435              		.size	buf.12041, 256
 4436              	buf.12041:
 4437 45a8 00000000 		.space	256
 4437      00000000 
 4437      00000000 
 4437      00000000 
 4437      00000000 
 4438              		.type	buf.12045, %object
 4439              		.size	buf.12045, 2048
 4440              	buf.12045:
 4441 46a8 00000000 		.space	2048
 4441      00000000 
 4441      00000000 
 4441      00000000 
 4441      00000000 
 4442              		.type	buf.12049, %object
 4443              		.size	buf.12049, 160
 4444              	buf.12049:
 4445 4ea8 00000000 		.space	160
 4445      00000000 
 4445      00000000 
 4445      00000000 
 4445      00000000 
 4446              		.type	buf.12053, %object
 4447              		.size	buf.12053, 320
 4448              	buf.12053:
 4449 4f48 00000000 		.space	320
 4449      00000000 
 4449      00000000 
 4449      00000000 
 4449      00000000 
 4450              		.type	buf.12057, %object
 4451              		.size	buf.12057, 3200
 4452              	buf.12057:
 4453 5088 00000000 		.space	3200
 4453      00000000 
 4453      00000000 
 4453      00000000 
 4453      00000000 
 4454              		.type	buf.12061, %object
 4455              		.size	buf.12061, 256
 4456              	buf.12061:
 4457 5d08 00000000 		.space	256
 4457      00000000 
 4457      00000000 
 4457      00000000 
 4457      00000000 
 4458              		.type	buf.12065, %object
ARM GAS  C:\Users\Abude\AppData\Local\Temp\ccndXIr0.s 			page 111


 4459              		.size	buf.12065, 512
 4460              	buf.12065:
 4461 5e08 00000000 		.space	512
 4461      00000000 
 4461      00000000 
 4461      00000000 
 4461      00000000 
 4462              		.type	buf.12069, %object
 4463              		.size	buf.12069, 2048
 4464              	buf.12069:
 4465 6008 00000000 		.space	2048
 4465      00000000 
 4465      00000000 
 4465      00000000 
 4465      00000000 
 4466              		.type	buf.12073, %object
 4467              		.size	buf.12073, 104
 4468              	buf.12073:
 4469 6808 00000000 		.space	104
 4469      00000000 
 4469      00000000 
 4469      00000000 
 4469      00000000 
 4470              		.type	buf.12077, %object
 4471              		.size	buf.12077, 208
 4472              	buf.12077:
 4473 6870 00000000 		.space	208
 4473      00000000 
 4473      00000000 
 4473      00000000 
 4473      00000000 
 4474              		.type	buf.12081, %object
 4475              		.size	buf.12081, 832
 4476              	buf.12081:
 4477 6940 00000000 		.space	832
 4477      00000000 
 4477      00000000 
 4477      00000000 
 4477      00000000 
 4478              		.type	buf.12085, %object
 4479              		.size	buf.12085, 64
 4480              	buf.12085:
 4481 6c80 00000000 		.space	64
 4481      00000000 
 4481      00000000 
 4481      00000000 
 4481      00000000 
 4482              		.type	buf.12089, %object
 4483              		.size	buf.12089, 128
 4484              	buf.12089:
 4485 6cc0 00000000 		.space	128
 4485      00000000 
 4485      00000000 
 4485      00000000 
 4485      00000000 
 4486              		.type	buf.12093, %object
 4487              		.size	buf.12093, 384
ARM GAS  C:\Users\Abude\AppData\Local\Temp\ccndXIr0.s 			page 112


 4488              	buf.12093:
 4489 6d40 00000000 		.space	384
 4489      00000000 
 4489      00000000 
 4489      00000000 
 4489      00000000 
 4490              		.type	buf.12097, %object
 4491              		.size	buf.12097, 48
 4492              	buf.12097:
 4493 6ec0 00000000 		.space	48
 4493      00000000 
 4493      00000000 
 4493      00000000 
 4493      00000000 
 4494              		.type	buf.12101, %object
 4495              		.size	buf.12101, 96
 4496              	buf.12101:
 4497 6ef0 00000000 		.space	96
 4497      00000000 
 4497      00000000 
 4497      00000000 
 4497      00000000 
 4498              		.type	buf.12105, %object
 4499              		.size	buf.12105, 384
 4500              	buf.12105:
 4501 6f50 00000000 		.space	384
 4501      00000000 
 4501      00000000 
 4501      00000000 
 4501      00000000 
 4502              		.type	buf.12109, %object
 4503              		.size	buf.12109, 96
 4504              	buf.12109:
 4505 70d0 00000000 		.space	96
 4505      00000000 
 4505      00000000 
 4505      00000000 
 4505      00000000 
 4506              		.type	buf.12113, %object
 4507              		.size	buf.12113, 192
 4508              	buf.12113:
 4509 7130 00000000 		.space	192
 4509      00000000 
 4509      00000000 
 4509      00000000 
 4509      00000000 
 4510              		.type	buf.12117, %object
 4511              		.size	buf.12117, 192
 4512              	buf.12117:
 4513 71f0 00000000 		.space	192
 4513      00000000 
 4513      00000000 
 4513      00000000 
 4513      00000000 
 4514              		.type	buf.12121, %object
 4515              		.size	buf.12121, 128
 4516              	buf.12121:
ARM GAS  C:\Users\Abude\AppData\Local\Temp\ccndXIr0.s 			page 113


 4517 72b0 00000000 		.space	128
 4517      00000000 
 4517      00000000 
 4517      00000000 
 4517      00000000 
 4518              		.type	buf.12125, %object
 4519              		.size	buf.12125, 256
 4520              	buf.12125:
 4521 7330 00000000 		.space	256
 4521      00000000 
 4521      00000000 
 4521      00000000 
 4521      00000000 
 4522              		.type	buf.12129, %object
 4523              		.size	buf.12129, 1536
 4524              	buf.12129:
 4525 7430 00000000 		.space	1536
 4525      00000000 
 4525      00000000 
 4525      00000000 
 4525      00000000 
 4526              		.type	buf.12133, %object
 4527              		.size	buf.12133, 256
 4528              	buf.12133:
 4529 7a30 00000000 		.space	256
 4529      00000000 
 4529      00000000 
 4529      00000000 
 4529      00000000 
 4530              		.type	buf.12137, %object
 4531              		.size	buf.12137, 512
 4532              	buf.12137:
 4533 7b30 00000000 		.space	512
 4533      00000000 
 4533      00000000 
 4533      00000000 
 4533      00000000 
 4534              		.type	buf.12141, %object
 4535              		.size	buf.12141, 1024
 4536              	buf.12141:
 4537 7d30 00000000 		.space	1024
 4537      00000000 
 4537      00000000 
 4537      00000000 
 4537      00000000 
 4538              		.type	buf.12145, %object
 4539              		.size	buf.12145, 96
 4540              	buf.12145:
 4541 8130 00000000 		.space	96
 4541      00000000 
 4541      00000000 
 4541      00000000 
 4541      00000000 
 4542              		.type	buf.12149, %object
 4543              		.size	buf.12149, 192
 4544              	buf.12149:
 4545 8190 00000000 		.space	192
ARM GAS  C:\Users\Abude\AppData\Local\Temp\ccndXIr0.s 			page 114


 4545      00000000 
 4545      00000000 
 4545      00000000 
 4545      00000000 
 4546              		.type	buf.12153, %object
 4547              		.size	buf.12153, 768
 4548              	buf.12153:
 4549 8250 00000000 		.space	768
 4549      00000000 
 4549      00000000 
 4549      00000000 
 4549      00000000 
 4550              		.type	buf.12157, %object
 4551              		.size	buf.12157, 192
 4552              	buf.12157:
 4553 8550 00000000 		.space	192
 4553      00000000 
 4553      00000000 
 4553      00000000 
 4553      00000000 
 4554              		.type	buf.12161, %object
 4555              		.size	buf.12161, 384
 4556              	buf.12161:
 4557 8610 00000000 		.space	384
 4557      00000000 
 4557      00000000 
 4557      00000000 
 4557      00000000 
 4558              		.type	buf.12165, %object
 4559              		.size	buf.12165, 768
 4560              	buf.12165:
 4561 8790 00000000 		.space	768
 4561      00000000 
 4561      00000000 
 4561      00000000 
 4561      00000000 
 4562              		.type	buf.12169, %object
 4563              		.size	buf.12169, 400
 4564              	buf.12169:
 4565 8a90 00000000 		.space	400
 4565      00000000 
 4565      00000000 
 4565      00000000 
 4565      00000000 
 4566              		.type	buf.12173, %object
 4567              		.size	buf.12173, 800
 4568              	buf.12173:
 4569 8c20 00000000 		.space	800
 4569      00000000 
 4569      00000000 
 4569      00000000 
 4569      00000000 
 4570              		.type	buf.12177, %object
 4571              		.size	buf.12177, 12000
 4572              	buf.12177:
 4573 8f40 00000000 		.space	12000
 4573      00000000 
ARM GAS  C:\Users\Abude\AppData\Local\Temp\ccndXIr0.s 			page 115


 4573      00000000 
 4573      00000000 
 4573      00000000 
 4574              		.type	buf.12181, %object
 4575              		.size	buf.12181, 144
 4576              	buf.12181:
 4577 be20 00000000 		.space	144
 4577      00000000 
 4577      00000000 
 4577      00000000 
 4577      00000000 
 4578              		.type	buf.12185, %object
 4579              		.size	buf.12185, 288
 4580              	buf.12185:
 4581 beb0 00000000 		.space	288
 4581      00000000 
 4581      00000000 
 4581      00000000 
 4581      00000000 
 4582              		.type	buf.12189, %object
 4583              		.size	buf.12189, 3024
 4584              	buf.12189:
 4585 bfd0 00000000 		.space	3024
 4585      00000000 
 4585      00000000 
 4585      00000000 
 4585      00000000 
 4586              		.type	buf.12193, %object
 4587              		.size	buf.12193, 88
 4588              	buf.12193:
 4589 cba0 00000000 		.space	88
 4589      00000000 
 4589      00000000 
 4589      00000000 
 4589      00000000 
 4590              		.type	buf.12197, %object
 4591              		.size	buf.12197, 176
 4592              	buf.12197:
 4593 cbf8 00000000 		.space	176
 4593      00000000 
 4593      00000000 
 4593      00000000 
 4593      00000000 
 4594              		.type	buf.12201, %object
 4595              		.size	buf.12201, 528
 4596              	buf.12201:
 4597 cca8 00000000 		.space	528
 4597      00000000 
 4597      00000000 
 4597      00000000 
 4597      00000000 
 4598              		.type	buf.12205, %object
 4599              		.size	buf.12205, 96
 4600              	buf.12205:
 4601 ceb8 00000000 		.space	96
 4601      00000000 
 4601      00000000 
ARM GAS  C:\Users\Abude\AppData\Local\Temp\ccndXIr0.s 			page 116


 4601      00000000 
 4601      00000000 
 4602              		.type	buf.12209, %object
 4603              		.size	buf.12209, 192
 4604              	buf.12209:
 4605 cf18 00000000 		.space	192
 4605      00000000 
 4605      00000000 
 4605      00000000 
 4605      00000000 
 4606              		.type	buf.12213, %object
 4607              		.size	buf.12213, 864
 4608              	buf.12213:
 4609 cfd8 00000000 		.space	864
 4609      00000000 
 4609      00000000 
 4609      00000000 
 4609      00000000 
 4610              		.type	buf.12217, %object
 4611              		.size	buf.12217, 192
 4612              	buf.12217:
 4613 d338 00000000 		.space	192
 4613      00000000 
 4613      00000000 
 4613      00000000 
 4613      00000000 
 4614              		.type	buf.12221, %object
 4615              		.size	buf.12221, 384
 4616              	buf.12221:
 4617 d3f8 00000000 		.space	384
 4617      00000000 
 4617      00000000 
 4617      00000000 
 4617      00000000 
 4618              		.type	buf.12225, %object
 4619              		.size	buf.12225, 1536
 4620              	buf.12225:
 4621 d578 00000000 		.space	1536
 4621      00000000 
 4621      00000000 
 4621      00000000 
 4621      00000000 
 4622              		.type	buf.12229, %object
 4623              		.size	buf.12229, 240
 4624              	buf.12229:
 4625 db78 00000000 		.space	240
 4625      00000000 
 4625      00000000 
 4625      00000000 
 4625      00000000 
 4626              		.type	buf.12233, %object
 4627              		.size	buf.12233, 480
 4628              	buf.12233:
 4629 dc68 00000000 		.space	480
 4629      00000000 
 4629      00000000 
 4629      00000000 
ARM GAS  C:\Users\Abude\AppData\Local\Temp\ccndXIr0.s 			page 117


 4629      00000000 
 4630              		.type	buf.12237, %object
 4631              		.size	buf.12237, 1920
 4632              	buf.12237:
 4633 de48 00000000 		.space	1920
 4633      00000000 
 4633      00000000 
 4633      00000000 
 4633      00000000 
 4634              		.type	buf.12241, %object
 4635              		.size	buf.12241, 240
 4636              	buf.12241:
 4637 e5c8 00000000 		.space	240
 4637      00000000 
 4637      00000000 
 4637      00000000 
 4637      00000000 
 4638              		.type	buf.12245, %object
 4639              		.size	buf.12245, 480
 4640              	buf.12245:
 4641 e6b8 00000000 		.space	480
 4641      00000000 
 4641      00000000 
 4641      00000000 
 4641      00000000 
 4642              		.type	buf.12249, %object
 4643              		.size	buf.12249, 3600
 4644              	buf.12249:
 4645 e898 00000000 		.space	3600
 4645      00000000 
 4645      00000000 
 4645      00000000 
 4645      00000000 
 4646              		.type	buf.12253, %object
 4647              		.size	buf.12253, 240
 4648              	buf.12253:
 4649 f6a8 00000000 		.space	240
 4649      00000000 
 4649      00000000 
 4649      00000000 
 4649      00000000 
 4650              		.type	buf.12257, %object
 4651              		.size	buf.12257, 480
 4652              	buf.12257:
 4653 f798 00000000 		.space	480
 4653      00000000 
 4653      00000000 
 4653      00000000 
 4653      00000000 
 4654              		.type	buf.12261, %object
 4655              		.size	buf.12261, 3840
 4656              	buf.12261:
 4657 f978 00000000 		.space	3840
 4657      00000000 
 4657      00000000 
 4657      00000000 
 4657      00000000 
ARM GAS  C:\Users\Abude\AppData\Local\Temp\ccndXIr0.s 			page 118


 4658              		.type	buf.12265, %object
 4659              		.size	buf.12265, 160
 4660              	buf.12265:
 4661 10878 00000000 		.space	160
 4661      00000000 
 4661      00000000 
 4661      00000000 
 4661      00000000 
 4662              		.type	buf.12269, %object
 4663              		.size	buf.12269, 320
 4664              	buf.12269:
 4665 10918 00000000 		.space	320
 4665      00000000 
 4665      00000000 
 4665      00000000 
 4665      00000000 
 4666              		.type	buf.12273, %object
 4667              		.size	buf.12273, 2560
 4668              	buf.12273:
 4669 10a58 00000000 		.space	2560
 4669      00000000 
 4669      00000000 
 4669      00000000 
 4669      00000000 
 4670              		.type	buf.12277, %object
 4671              		.size	buf.12277, 192
 4672              	buf.12277:
 4673 11458 00000000 		.space	192
 4673      00000000 
 4673      00000000 
 4673      00000000 
 4673      00000000 
 4674              		.type	buf.12281, %object
 4675              		.size	buf.12281, 384
 4676              	buf.12281:
 4677 11518 00000000 		.space	384
 4677      00000000 
 4677      00000000 
 4677      00000000 
 4677      00000000 
 4678              		.type	buf.12285, %object
 4679              		.size	buf.12285, 2304
 4680              	buf.12285:
 4681 11698 00000000 		.space	2304
 4681      00000000 
 4681      00000000 
 4681      00000000 
 4681      00000000 
 4682              		.type	buf.12289, %object
 4683              		.size	buf.12289, 160
 4684              	buf.12289:
 4685 11f98 00000000 		.space	160
 4685      00000000 
 4685      00000000 
 4685      00000000 
 4685      00000000 
 4686              		.type	buf.12293, %object
ARM GAS  C:\Users\Abude\AppData\Local\Temp\ccndXIr0.s 			page 119


 4687              		.size	buf.12293, 320
 4688              	buf.12293:
 4689 12038 00000000 		.space	320
 4689      00000000 
 4689      00000000 
 4689      00000000 
 4689      00000000 
 4690              		.type	buf.12297, %object
 4691              		.size	buf.12297, 2080
 4692              	buf.12297:
 4693 12178 00000000 		.space	2080
 4693      00000000 
 4693      00000000 
 4693      00000000 
 4693      00000000 
 4694              		.type	buf.12301, %object
 4695              		.size	buf.12301, 240
 4696              	buf.12301:
 4697 12998 00000000 		.space	240
 4697      00000000 
 4697      00000000 
 4697      00000000 
 4697      00000000 
 4698              		.type	buf.12305, %object
 4699              		.size	buf.12305, 480
 4700              	buf.12305:
 4701 12a88 00000000 		.space	480
 4701      00000000 
 4701      00000000 
 4701      00000000 
 4701      00000000 
 4702              		.type	buf.12309, %object
 4703              		.size	buf.12309, 4800
 4704              	buf.12309:
 4705 12c68 00000000 		.space	4800
 4705      00000000 
 4705      00000000 
 4705      00000000 
 4705      00000000 
 4706              		.type	buf.12313, %object
 4707              		.size	buf.12313, 256
 4708              	buf.12313:
 4709 13f28 00000000 		.space	256
 4709      00000000 
 4709      00000000 
 4709      00000000 
 4709      00000000 
 4710              		.type	buf.12317, %object
 4711              		.size	buf.12317, 512
 4712              	buf.12317:
 4713 14028 00000000 		.space	512
 4713      00000000 
 4713      00000000 
 4713      00000000 
 4713      00000000 
 4714              		.type	buf.12321, %object
 4715              		.size	buf.12321, 4096
ARM GAS  C:\Users\Abude\AppData\Local\Temp\ccndXIr0.s 			page 120


 4716              	buf.12321:
 4717 14228 00000000 		.space	4096
 4717      00000000 
 4717      00000000 
 4717      00000000 
 4717      00000000 
 4718              		.type	buf.12325, %object
 4719              		.size	buf.12325, 320
 4720              	buf.12325:
 4721 15228 00000000 		.space	320
 4721      00000000 
 4721      00000000 
 4721      00000000 
 4721      00000000 
 4722              		.type	buf.12329, %object
 4723              		.size	buf.12329, 640
 4724              	buf.12329:
 4725 15368 00000000 		.space	640
 4725      00000000 
 4725      00000000 
 4725      00000000 
 4725      00000000 
 4726              		.type	buf.12333, %object
 4727              		.size	buf.12333, 9600
 4728              	buf.12333:
 4729 155e8 00000000 		.space	9600
 4729      00000000 
 4729      00000000 
 4729      00000000 
 4729      00000000 
 4730              		.type	buf.12337, %object
 4731              		.size	buf.12337, 160
 4732              	buf.12337:
 4733 17b68 00000000 		.space	160
 4733      00000000 
 4733      00000000 
 4733      00000000 
 4733      00000000 
 4734              		.type	buf.12341, %object
 4735              		.size	buf.12341, 320
 4736              	buf.12341:
 4737 17c08 00000000 		.space	320
 4737      00000000 
 4737      00000000 
 4737      00000000 
 4737      00000000 
 4738              		.type	buf.12345, %object
 4739              		.size	buf.12345, 1280
 4740              	buf.12345:
 4741 17d48 00000000 		.space	1280
 4741      00000000 
 4741      00000000 
 4741      00000000 
 4741      00000000 
 4742              		.type	buf.12349, %object
 4743              		.size	buf.12349, 136
 4744              	buf.12349:
ARM GAS  C:\Users\Abude\AppData\Local\Temp\ccndXIr0.s 			page 121


 4745 18248 00000000 		.space	136
 4745      00000000 
 4745      00000000 
 4745      00000000 
 4745      00000000 
 4746              		.type	buf.12353, %object
 4747              		.size	buf.12353, 272
 4748              	buf.12353:
 4749 182d0 00000000 		.space	272
 4749      00000000 
 4749      00000000 
 4749      00000000 
 4749      00000000 
 4750              		.type	buf.12357, %object
 4751              		.size	buf.12357, 544
 4752              	buf.12357:
 4753 183e0 00000000 		.space	544
 4753      00000000 
 4753      00000000 
 4753      00000000 
 4753      00000000 
 4754              		.type	buf.12361, %object
 4755              		.size	buf.12361, 136
 4756              	buf.12361:
 4757 18600 00000000 		.space	136
 4757      00000000 
 4757      00000000 
 4757      00000000 
 4757      00000000 
 4758              		.type	buf.12365, %object
 4759              		.size	buf.12365, 272
 4760              	buf.12365:
 4761 18688 00000000 		.space	272
 4761      00000000 
 4761      00000000 
 4761      00000000 
 4761      00000000 
 4762              		.type	buf.12369, %object
 4763              		.size	buf.12369, 1088
 4764              	buf.12369:
 4765 18798 00000000 		.space	1088
 4765      00000000 
 4765      00000000 
 4765      00000000 
 4765      00000000 
 4766              		.type	buf.12373, %object
 4767              		.size	buf.12373, 384
 4768              	buf.12373:
 4769 18bd8 00000000 		.space	384
 4769      00000000 
 4769      00000000 
 4769      00000000 
 4769      00000000 
 4770              		.type	buf.12377, %object
 4771              		.size	buf.12377, 768
 4772              	buf.12377:
 4773 18d58 00000000 		.space	768
ARM GAS  C:\Users\Abude\AppData\Local\Temp\ccndXIr0.s 			page 122


 4773      00000000 
 4773      00000000 
 4773      00000000 
 4773      00000000 
 4774              		.type	buf.12381, %object
 4775              		.size	buf.12381, 6528
 4776              	buf.12381:
 4777 19058 00000000 		.space	6528
 4777      00000000 
 4777      00000000 
 4777      00000000 
 4777      00000000 
 4778              		.type	buf.12385, %object
 4779              		.size	buf.12385, 160
 4780              	buf.12385:
 4781 1a9d8 00000000 		.space	160
 4781      00000000 
 4781      00000000 
 4781      00000000 
 4781      00000000 
 4782              		.type	buf.12389, %object
 4783              		.size	buf.12389, 320
 4784              	buf.12389:
 4785 1aa78 00000000 		.space	320
 4785      00000000 
 4785      00000000 
 4785      00000000 
 4785      00000000 
 4786              		.type	buf.12393, %object
 4787              		.size	buf.12393, 1920
 4788              	buf.12393:
 4789 1abb8 00000000 		.space	1920
 4789      00000000 
 4789      00000000 
 4789      00000000 
 4789      00000000 
 4790              		.type	buf.12397, %object
 4791              		.size	buf.12397, 256
 4792              	buf.12397:
 4793 1b338 00000000 		.space	256
 4793      00000000 
 4793      00000000 
 4793      00000000 
 4793      00000000 
 4794              		.type	buf.12401, %object
 4795              		.size	buf.12401, 512
 4796              	buf.12401:
 4797 1b438 00000000 		.space	512
 4797      00000000 
 4797      00000000 
 4797      00000000 
 4797      00000000 
 4798              		.type	buf.12405, %object
 4799              		.size	buf.12405, 5120
 4800              	buf.12405:
 4801 1b638 00000000 		.space	5120
 4801      00000000 
ARM GAS  C:\Users\Abude\AppData\Local\Temp\ccndXIr0.s 			page 123


 4801      00000000 
 4801      00000000 
 4801      00000000 
 4802              		.type	buf.12409, %object
 4803              		.size	buf.12409, 176
 4804              	buf.12409:
 4805 1ca38 00000000 		.space	176
 4805      00000000 
 4805      00000000 
 4805      00000000 
 4805      00000000 
 4806              		.type	buf.12413, %object
 4807              		.size	buf.12413, 352
 4808              	buf.12413:
 4809 1cae8 00000000 		.space	352
 4809      00000000 
 4809      00000000 
 4809      00000000 
 4809      00000000 
 4810              		.type	buf.12417, %object
 4811              		.size	buf.12417, 2288
 4812              	buf.12417:
 4813 1cc48 00000000 		.space	2288
 4813      00000000 
 4813      00000000 
 4813      00000000 
 4813      00000000 
 4814              		.type	buf.12421, %object
 4815              		.size	buf.12421, 152
 4816              	buf.12421:
 4817 1d538 00000000 		.space	152
 4817      00000000 
 4817      00000000 
 4817      00000000 
 4817      00000000 
 4818              		.type	buf.12425, %object
 4819              		.size	buf.12425, 304
 4820              	buf.12425:
 4821 1d5d0 00000000 		.space	304
 4821      00000000 
 4821      00000000 
 4821      00000000 
 4821      00000000 
 4822              		.type	buf.12429, %object
 4823              		.size	buf.12429, 608
 4824              	buf.12429:
 4825 1d700 00000000 		.space	608
 4825      00000000 
 4825      00000000 
 4825      00000000 
 4825      00000000 
 4826              		.type	buf.12433, %object
 4827              		.size	buf.12433, 160
 4828              	buf.12433:
 4829 1d960 00000000 		.space	160
 4829      00000000 
 4829      00000000 
ARM GAS  C:\Users\Abude\AppData\Local\Temp\ccndXIr0.s 			page 124


 4829      00000000 
 4829      00000000 
 4830              		.type	buf.12437, %object
 4831              		.size	buf.12437, 320
 4832              	buf.12437:
 4833 1da00 00000000 		.space	320
 4833      00000000 
 4833      00000000 
 4833      00000000 
 4833      00000000 
 4834              		.type	buf.12441, %object
 4835              		.size	buf.12441, 1600
 4836              	buf.12441:
 4837 1db40 00000000 		.space	1600
 4837      00000000 
 4837      00000000 
 4837      00000000 
 4837      00000000 
 4838              		.type	buf.12445, %object
 4839              		.size	buf.12445, 160
 4840              	buf.12445:
 4841 1e180 00000000 		.space	160
 4841      00000000 
 4841      00000000 
 4841      00000000 
 4841      00000000 
 4842              		.type	buf.12449, %object
 4843              		.size	buf.12449, 320
 4844              	buf.12449:
 4845 1e220 00000000 		.space	320
 4845      00000000 
 4845      00000000 
 4845      00000000 
 4845      00000000 
 4846              		.type	buf.12453, %object
 4847              		.size	buf.12453, 640
 4848              	buf.12453:
 4849 1e360 00000000 		.space	640
 4849      00000000 
 4849      00000000 
 4849      00000000 
 4849      00000000 
 4850              		.type	buf.12457, %object
 4851              		.size	buf.12457, 160
 4852              	buf.12457:
 4853 1e5e0 00000000 		.space	160
 4853      00000000 
 4853      00000000 
 4853      00000000 
 4853      00000000 
 4854              		.type	buf.12461, %object
 4855              		.size	buf.12461, 320
 4856              	buf.12461:
 4857 1e680 00000000 		.space	320
 4857      00000000 
 4857      00000000 
 4857      00000000 
ARM GAS  C:\Users\Abude\AppData\Local\Temp\ccndXIr0.s 			page 125


 4857      00000000 
 4858              		.type	buf.12465, %object
 4859              		.size	buf.12465, 2720
 4860              	buf.12465:
 4861 1e7c0 00000000 		.space	2720
 4861      00000000 
 4861      00000000 
 4861      00000000 
 4861      00000000 
 4862              		.type	buf.12469, %object
 4863              		.size	buf.12469, 176
 4864              	buf.12469:
 4865 1f260 00000000 		.space	176
 4865      00000000 
 4865      00000000 
 4865      00000000 
 4865      00000000 
 4866              		.type	buf.12473, %object
 4867              		.size	buf.12473, 352
 4868              	buf.12473:
 4869 1f310 00000000 		.space	352
 4869      00000000 
 4869      00000000 
 4869      00000000 
 4869      00000000 
 4870              		.type	buf.12477, %object
 4871              		.size	buf.12477, 1584
 4872              	buf.12477:
 4873 1f470 00000000 		.space	1584
 4873      00000000 
 4873      00000000 
 4873      00000000 
 4873      00000000 
 4874              		.type	buf.12481, %object
 4875              		.size	buf.12481, 200
 4876              	buf.12481:
 4877 1faa0 00000000 		.space	200
 4877      00000000 
 4877      00000000 
 4877      00000000 
 4877      00000000 
 4878              		.type	buf.12485, %object
 4879              		.size	buf.12485, 400
 4880              	buf.12485:
 4881 1fb68 00000000 		.space	400
 4881      00000000 
 4881      00000000 
 4881      00000000 
 4881      00000000 
 4882              		.type	buf.12489, %object
 4883              		.size	buf.12489, 5000
 4884              	buf.12489:
 4885 1fcf8 00000000 		.space	5000
 4885      00000000 
 4885      00000000 
 4885      00000000 
 4885      00000000 
ARM GAS  C:\Users\Abude\AppData\Local\Temp\ccndXIr0.s 			page 126


 4886              		.type	buf.12493, %object
 4887              		.size	buf.12493, 296
 4888              	buf.12493:
 4889 21080 00000000 		.space	296
 4889      00000000 
 4889      00000000 
 4889      00000000 
 4889      00000000 
 4890              		.type	buf.12497, %object
 4891              		.size	buf.12497, 592
 4892              	buf.12497:
 4893 211a8 00000000 		.space	592
 4893      00000000 
 4893      00000000 
 4893      00000000 
 4893      00000000 
 4894              		.type	buf.12501, %object
 4895              		.size	buf.12501, 4736
 4896              	buf.12501:
 4897 213f8 00000000 		.space	4736
 4897      00000000 
 4897      00000000 
 4897      00000000 
 4897      00000000 
 4898              		.type	buf.12505, %object
 4899              		.size	buf.12505, 64
 4900              	buf.12505:
 4901 22678 00000000 		.space	64
 4901      00000000 
 4901      00000000 
 4901      00000000 
 4901      00000000 
 4902              		.type	buf.12509, %object
 4903              		.size	buf.12509, 128
 4904              	buf.12509:
 4905 226b8 00000000 		.space	128
 4905      00000000 
 4905      00000000 
 4905      00000000 
 4905      00000000 
 4906              		.type	buf.12513, %object
 4907              		.size	buf.12513, 64
 4908              	buf.12513:
 4909 22738 00000000 		.space	64
 4909      00000000 
 4909      00000000 
 4909      00000000 
 4909      00000000 
 4910              		.type	buf.12517, %object
 4911              		.size	buf.12517, 32
 4912              	buf.12517:
 4913 22778 00000000 		.space	32
 4913      00000000 
 4913      00000000 
 4913      00000000 
 4913      00000000 
 4914              		.type	buf.12521, %object
ARM GAS  C:\Users\Abude\AppData\Local\Temp\ccndXIr0.s 			page 127


 4915              		.size	buf.12521, 64
 4916              	buf.12521:
 4917 22798 00000000 		.space	64
 4917      00000000 
 4917      00000000 
 4917      00000000 
 4917      00000000 
 4918              		.type	buf.12525, %object
 4919              		.size	buf.12525, 32
 4920              	buf.12525:
 4921 227d8 00000000 		.space	32
 4921      00000000 
 4921      00000000 
 4921      00000000 
 4921      00000000 
 4922              		.type	buf.12529, %object
 4923              		.size	buf.12529, 8
 4924              	buf.12529:
 4925 227f8 00000000 		.space	8
 4925      00000000 
 4926              		.type	buf.12533, %object
 4927              		.size	buf.12533, 16
 4928              	buf.12533:
 4929 22800 00000000 		.space	16
 4929      00000000 
 4929      00000000 
 4929      00000000 
 4930              		.type	buf.12537, %object
 4931              		.size	buf.12537, 8
 4932              	buf.12537:
 4933 22810 00000000 		.space	8
 4933      00000000 
 4934              		.type	buf.12541, %object
 4935              		.size	buf.12541, 384
 4936              	buf.12541:
 4937 22818 00000000 		.space	384
 4937      00000000 
 4937      00000000 
 4937      00000000 
 4937      00000000 
 4938              		.type	buf.12545, %object
 4939              		.size	buf.12545, 768
 4940              	buf.12545:
 4941 22998 00000000 		.space	768
 4941      00000000 
 4941      00000000 
 4941      00000000 
 4941      00000000 
 4942              		.type	buf.12549, %object
 4943              		.size	buf.12549, 11520
 4944              	buf.12549:
 4945 22c98 00000000 		.space	11520
 4945      00000000 
 4945      00000000 
 4945      00000000 
 4945      00000000 
 4946              		.text
ARM GAS  C:\Users\Abude\AppData\Local\Temp\ccndXIr0.s 			page 128


 4947              	.Letext0:
 4948              		.file 2 "c:\\program files (x86)\\cypress\\psoc creator\\4.4\\psoc creator\\import\\gnu\\arm\\5.4.
 4949              		.file 3 "c:\\program files (x86)\\cypress\\psoc creator\\4.4\\psoc creator\\import\\gnu\\arm\\5.4.
 4950              		.section	.debug_info,"",%progbits
 4951              	.Ldebug_info0:
 4952 0000 4F290000 		.4byte	0x294f
 4953 0004 0400     		.2byte	0x4
 4954 0006 00000000 		.4byte	.Ldebug_abbrev0
 4955 000a 04       		.byte	0x4
 4956 000b 01       		.uleb128 0x1
 4957 000c E0020000 		.4byte	.LASF167
 4958 0010 0C       		.byte	0xc
 4959 0011 60070000 		.4byte	.LASF168
 4960 0015 ED030000 		.4byte	.LASF169
 4961 0019 00000000 		.4byte	.Ldebug_ranges0+0
 4962 001d 00000000 		.4byte	0
 4963 0021 00000000 		.4byte	.Ldebug_line0
 4964 0025 02       		.uleb128 0x2
 4965 0026 01       		.byte	0x1
 4966 0027 06       		.byte	0x6
 4967 0028 9D090000 		.4byte	.LASF0
 4968 002c 03       		.uleb128 0x3
 4969 002d F8070000 		.4byte	.LASF9
 4970 0031 02       		.byte	0x2
 4971 0032 1D       		.byte	0x1d
 4972 0033 37000000 		.4byte	0x37
 4973 0037 02       		.uleb128 0x2
 4974 0038 01       		.byte	0x1
 4975 0039 08       		.byte	0x8
 4976 003a 7E080000 		.4byte	.LASF1
 4977 003e 02       		.uleb128 0x2
 4978 003f 02       		.byte	0x2
 4979 0040 05       		.byte	0x5
 4980 0041 2F070000 		.4byte	.LASF2
 4981 0045 02       		.uleb128 0x2
 4982 0046 02       		.byte	0x2
 4983 0047 07       		.byte	0x7
 4984 0048 A9090000 		.4byte	.LASF3
 4985 004c 02       		.uleb128 0x2
 4986 004d 04       		.byte	0x4
 4987 004e 05       		.byte	0x5
 4988 004f 57070000 		.4byte	.LASF4
 4989 0053 02       		.uleb128 0x2
 4990 0054 04       		.byte	0x4
 4991 0055 07       		.byte	0x7
 4992 0056 0B080000 		.4byte	.LASF5
 4993 005a 02       		.uleb128 0x2
 4994 005b 08       		.byte	0x8
 4995 005c 05       		.byte	0x5
 4996 005d F9040000 		.4byte	.LASF6
 4997 0061 02       		.uleb128 0x2
 4998 0062 08       		.byte	0x8
 4999 0063 07       		.byte	0x7
 5000 0064 11020000 		.4byte	.LASF7
 5001 0068 04       		.uleb128 0x4
 5002 0069 04       		.byte	0x4
 5003 006a 05       		.byte	0x5
ARM GAS  C:\Users\Abude\AppData\Local\Temp\ccndXIr0.s 			page 129


 5004 006b 696E7400 		.ascii	"int\000"
 5005 006f 02       		.uleb128 0x2
 5006 0070 04       		.byte	0x4
 5007 0071 07       		.byte	0x7
 5008 0072 3B000000 		.4byte	.LASF8
 5009 0076 03       		.uleb128 0x3
 5010 0077 9A040000 		.4byte	.LASF10
 5011 007b 03       		.byte	0x3
 5012 007c 18       		.byte	0x18
 5013 007d 2C000000 		.4byte	0x2c
 5014 0081 02       		.uleb128 0x2
 5015 0082 08       		.byte	0x8
 5016 0083 04       		.byte	0x4
 5017 0084 A1060000 		.4byte	.LASF11
 5018 0088 05       		.uleb128 0x5
 5019 0089 04       		.byte	0x4
 5020 008a 76000000 		.4byte	0x76
 5021 008e 06       		.uleb128 0x6
 5022 008f 46020000 		.4byte	.LASF13
 5023 0093 01       		.byte	0x1
 5024 0094 06       		.byte	0x6
 5025 0095 88000000 		.4byte	0x88
 5026 0099 00000000 		.4byte	.LFB0
 5027 009d 0C000000 		.4byte	.LFE0-.LFB0
 5028 00a1 01       		.uleb128 0x1
 5029 00a2 9C       		.byte	0x9c
 5030 00a3 C8000000 		.4byte	0xc8
 5031 00a7 07       		.uleb128 0x7
 5032 00a8 57080000 		.4byte	.LASF15
 5033 00ac 01       		.byte	0x1
 5034 00ad 06       		.byte	0x6
 5035 00ae 88000000 		.4byte	0x88
 5036 00b2 00000000 		.4byte	.LLST0
 5037 00b6 08       		.uleb128 0x8
 5038 00b7 62756600 		.ascii	"buf\000"
 5039 00bb 01       		.byte	0x1
 5040 00bc 0C       		.byte	0xc
 5041 00bd C8000000 		.4byte	0xc8
 5042 00c1 05       		.uleb128 0x5
 5043 00c2 03       		.byte	0x3
 5044 00c3 00000000 		.4byte	buf.11941
 5045 00c7 00       		.byte	0
 5046 00c8 09       		.uleb128 0x9
 5047 00c9 76000000 		.4byte	0x76
 5048 00cd D8000000 		.4byte	0xd8
 5049 00d1 0A       		.uleb128 0xa
 5050 00d2 D8000000 		.4byte	0xd8
 5051 00d6 7F       		.byte	0x7f
 5052 00d7 00       		.byte	0
 5053 00d8 02       		.uleb128 0x2
 5054 00d9 04       		.byte	0x4
 5055 00da 07       		.byte	0x7
 5056 00db 02080000 		.4byte	.LASF12
 5057 00df 06       		.uleb128 0x6
 5058 00e0 54020000 		.4byte	.LASF14
 5059 00e4 01       		.byte	0x1
 5060 00e5 11       		.byte	0x11
ARM GAS  C:\Users\Abude\AppData\Local\Temp\ccndXIr0.s 			page 130


 5061 00e6 88000000 		.4byte	0x88
 5062 00ea 00000000 		.4byte	.LFB1
 5063 00ee 0C000000 		.4byte	.LFE1-.LFB1
 5064 00f2 01       		.uleb128 0x1
 5065 00f3 9C       		.byte	0x9c
 5066 00f4 19010000 		.4byte	0x119
 5067 00f8 07       		.uleb128 0x7
 5068 00f9 57080000 		.4byte	.LASF15
 5069 00fd 01       		.byte	0x1
 5070 00fe 11       		.byte	0x11
 5071 00ff 88000000 		.4byte	0x88
 5072 0103 21000000 		.4byte	.LLST1
 5073 0107 08       		.uleb128 0x8
 5074 0108 62756600 		.ascii	"buf\000"
 5075 010c 01       		.byte	0x1
 5076 010d 17       		.byte	0x17
 5077 010e 19010000 		.4byte	0x119
 5078 0112 05       		.uleb128 0x5
 5079 0113 03       		.byte	0x3
 5080 0114 80000000 		.4byte	buf.11945
 5081 0118 00       		.byte	0
 5082 0119 09       		.uleb128 0x9
 5083 011a 76000000 		.4byte	0x76
 5084 011e 29010000 		.4byte	0x129
 5085 0122 0A       		.uleb128 0xa
 5086 0123 D8000000 		.4byte	0xd8
 5087 0127 FF       		.byte	0xff
 5088 0128 00       		.byte	0
 5089 0129 06       		.uleb128 0x6
 5090 012a 6E030000 		.4byte	.LASF16
 5091 012e 01       		.byte	0x1
 5092 012f 1C       		.byte	0x1c
 5093 0130 88000000 		.4byte	0x88
 5094 0134 00000000 		.4byte	.LFB2
 5095 0138 0C000000 		.4byte	.LFE2-.LFB2
 5096 013c 01       		.uleb128 0x1
 5097 013d 9C       		.byte	0x9c
 5098 013e 63010000 		.4byte	0x163
 5099 0142 07       		.uleb128 0x7
 5100 0143 57080000 		.4byte	.LASF15
 5101 0147 01       		.byte	0x1
 5102 0148 1C       		.byte	0x1c
 5103 0149 88000000 		.4byte	0x88
 5104 014d 42000000 		.4byte	.LLST2
 5105 0151 08       		.uleb128 0x8
 5106 0152 62756600 		.ascii	"buf\000"
 5107 0156 01       		.byte	0x1
 5108 0157 22       		.byte	0x22
 5109 0158 63010000 		.4byte	0x163
 5110 015c 05       		.uleb128 0x5
 5111 015d 03       		.byte	0x3
 5112 015e 80010000 		.4byte	buf.11949
 5113 0162 00       		.byte	0
 5114 0163 09       		.uleb128 0x9
 5115 0164 76000000 		.4byte	0x76
 5116 0168 74010000 		.4byte	0x174
 5117 016c 0B       		.uleb128 0xb
ARM GAS  C:\Users\Abude\AppData\Local\Temp\ccndXIr0.s 			page 131


 5118 016d D8000000 		.4byte	0xd8
 5119 0171 FF01     		.2byte	0x1ff
 5120 0173 00       		.byte	0
 5121 0174 06       		.uleb128 0x6
 5122 0175 8C080000 		.4byte	.LASF17
 5123 0179 01       		.byte	0x1
 5124 017a 27       		.byte	0x27
 5125 017b 88000000 		.4byte	0x88
 5126 017f 00000000 		.4byte	.LFB3
 5127 0183 0C000000 		.4byte	.LFE3-.LFB3
 5128 0187 01       		.uleb128 0x1
 5129 0188 9C       		.byte	0x9c
 5130 0189 AE010000 		.4byte	0x1ae
 5131 018d 07       		.uleb128 0x7
 5132 018e 57080000 		.4byte	.LASF15
 5133 0192 01       		.byte	0x1
 5134 0193 27       		.byte	0x27
 5135 0194 88000000 		.4byte	0x88
 5136 0198 63000000 		.4byte	.LLST3
 5137 019c 08       		.uleb128 0x8
 5138 019d 62756600 		.ascii	"buf\000"
 5139 01a1 01       		.byte	0x1
 5140 01a2 2D       		.byte	0x2d
 5141 01a3 C8000000 		.4byte	0xc8
 5142 01a7 05       		.uleb128 0x5
 5143 01a8 03       		.byte	0x3
 5144 01a9 80030000 		.4byte	buf.11953
 5145 01ad 00       		.byte	0
 5146 01ae 06       		.uleb128 0x6
 5147 01af 9A080000 		.4byte	.LASF18
 5148 01b3 01       		.byte	0x1
 5149 01b4 32       		.byte	0x32
 5150 01b5 88000000 		.4byte	0x88
 5151 01b9 00000000 		.4byte	.LFB4
 5152 01bd 0C000000 		.4byte	.LFE4-.LFB4
 5153 01c1 01       		.uleb128 0x1
 5154 01c2 9C       		.byte	0x9c
 5155 01c3 E8010000 		.4byte	0x1e8
 5156 01c7 07       		.uleb128 0x7
 5157 01c8 57080000 		.4byte	.LASF15
 5158 01cc 01       		.byte	0x1
 5159 01cd 32       		.byte	0x32
 5160 01ce 88000000 		.4byte	0x88
 5161 01d2 84000000 		.4byte	.LLST4
 5162 01d6 08       		.uleb128 0x8
 5163 01d7 62756600 		.ascii	"buf\000"
 5164 01db 01       		.byte	0x1
 5165 01dc 38       		.byte	0x38
 5166 01dd 19010000 		.4byte	0x119
 5167 01e1 05       		.uleb128 0x5
 5168 01e2 03       		.byte	0x3
 5169 01e3 00040000 		.4byte	buf.11957
 5170 01e7 00       		.byte	0
 5171 01e8 06       		.uleb128 0x6
 5172 01e9 47090000 		.4byte	.LASF19
 5173 01ed 01       		.byte	0x1
 5174 01ee 3D       		.byte	0x3d
ARM GAS  C:\Users\Abude\AppData\Local\Temp\ccndXIr0.s 			page 132


 5175 01ef 88000000 		.4byte	0x88
 5176 01f3 00000000 		.4byte	.LFB5
 5177 01f7 0C000000 		.4byte	.LFE5-.LFB5
 5178 01fb 01       		.uleb128 0x1
 5179 01fc 9C       		.byte	0x9c
 5180 01fd 22020000 		.4byte	0x222
 5181 0201 07       		.uleb128 0x7
 5182 0202 57080000 		.4byte	.LASF15
 5183 0206 01       		.byte	0x1
 5184 0207 3D       		.byte	0x3d
 5185 0208 88000000 		.4byte	0x88
 5186 020c A5000000 		.4byte	.LLST5
 5187 0210 08       		.uleb128 0x8
 5188 0211 62756600 		.ascii	"buf\000"
 5189 0215 01       		.byte	0x1
 5190 0216 43       		.byte	0x43
 5191 0217 22020000 		.4byte	0x222
 5192 021b 05       		.uleb128 0x5
 5193 021c 03       		.byte	0x3
 5194 021d 00050000 		.4byte	buf.11961
 5195 0221 00       		.byte	0
 5196 0222 09       		.uleb128 0x9
 5197 0223 76000000 		.4byte	0x76
 5198 0227 33020000 		.4byte	0x233
 5199 022b 0B       		.uleb128 0xb
 5200 022c D8000000 		.4byte	0xd8
 5201 0230 FF03     		.2byte	0x3ff
 5202 0232 00       		.byte	0
 5203 0233 06       		.uleb128 0x6
 5204 0234 B1030000 		.4byte	.LASF20
 5205 0238 01       		.byte	0x1
 5206 0239 48       		.byte	0x48
 5207 023a 88000000 		.4byte	0x88
 5208 023e 00000000 		.4byte	.LFB6
 5209 0242 0C000000 		.4byte	.LFE6-.LFB6
 5210 0246 01       		.uleb128 0x1
 5211 0247 9C       		.byte	0x9c
 5212 0248 6D020000 		.4byte	0x26d
 5213 024c 07       		.uleb128 0x7
 5214 024d 57080000 		.4byte	.LASF15
 5215 0251 01       		.byte	0x1
 5216 0252 48       		.byte	0x48
 5217 0253 88000000 		.4byte	0x88
 5218 0257 C6000000 		.4byte	.LLST6
 5219 025b 08       		.uleb128 0x8
 5220 025c 62756600 		.ascii	"buf\000"
 5221 0260 01       		.byte	0x1
 5222 0261 4E       		.byte	0x4e
 5223 0262 6D020000 		.4byte	0x26d
 5224 0266 05       		.uleb128 0x5
 5225 0267 03       		.byte	0x3
 5226 0268 00090000 		.4byte	buf.11965
 5227 026c 00       		.byte	0
 5228 026d 09       		.uleb128 0x9
 5229 026e 76000000 		.4byte	0x76
 5230 0272 7E020000 		.4byte	0x27e
 5231 0276 0B       		.uleb128 0xb
ARM GAS  C:\Users\Abude\AppData\Local\Temp\ccndXIr0.s 			page 133


 5232 0277 D8000000 		.4byte	0xd8
 5233 027b F707     		.2byte	0x7f7
 5234 027d 00       		.byte	0
 5235 027e 06       		.uleb128 0x6
 5236 027f C0030000 		.4byte	.LASF21
 5237 0283 01       		.byte	0x1
 5238 0284 53       		.byte	0x53
 5239 0285 88000000 		.4byte	0x88
 5240 0289 00000000 		.4byte	.LFB7
 5241 028d 0C000000 		.4byte	.LFE7-.LFB7
 5242 0291 01       		.uleb128 0x1
 5243 0292 9C       		.byte	0x9c
 5244 0293 B8020000 		.4byte	0x2b8
 5245 0297 07       		.uleb128 0x7
 5246 0298 57080000 		.4byte	.LASF15
 5247 029c 01       		.byte	0x1
 5248 029d 53       		.byte	0x53
 5249 029e 88000000 		.4byte	0x88
 5250 02a2 E7000000 		.4byte	.LLST7
 5251 02a6 08       		.uleb128 0x8
 5252 02a7 62756600 		.ascii	"buf\000"
 5253 02ab 01       		.byte	0x1
 5254 02ac 59       		.byte	0x59
 5255 02ad B8020000 		.4byte	0x2b8
 5256 02b1 05       		.uleb128 0x5
 5257 02b2 03       		.byte	0x3
 5258 02b3 F8100000 		.4byte	buf.11969
 5259 02b7 00       		.byte	0
 5260 02b8 09       		.uleb128 0x9
 5261 02b9 76000000 		.4byte	0x76
 5262 02bd C9020000 		.4byte	0x2c9
 5263 02c1 0B       		.uleb128 0xb
 5264 02c2 D8000000 		.4byte	0xd8
 5265 02c6 EF0F     		.2byte	0xfef
 5266 02c8 00       		.byte	0
 5267 02c9 06       		.uleb128 0x6
 5268 02ca 40040000 		.4byte	.LASF22
 5269 02ce 01       		.byte	0x1
 5270 02cf 5E       		.byte	0x5e
 5271 02d0 88000000 		.4byte	0x88
 5272 02d4 00000000 		.4byte	.LFB8
 5273 02d8 0C000000 		.4byte	.LFE8-.LFB8
 5274 02dc 01       		.uleb128 0x1
 5275 02dd 9C       		.byte	0x9c
 5276 02de 03030000 		.4byte	0x303
 5277 02e2 07       		.uleb128 0x7
 5278 02e3 57080000 		.4byte	.LASF15
 5279 02e7 01       		.byte	0x1
 5280 02e8 5E       		.byte	0x5e
 5281 02e9 88000000 		.4byte	0x88
 5282 02ed 08010000 		.4byte	.LLST8
 5283 02f1 08       		.uleb128 0x8
 5284 02f2 62756600 		.ascii	"buf\000"
 5285 02f6 01       		.byte	0x1
 5286 02f7 64       		.byte	0x64
 5287 02f8 B8020000 		.4byte	0x2b8
 5288 02fc 05       		.uleb128 0x5
ARM GAS  C:\Users\Abude\AppData\Local\Temp\ccndXIr0.s 			page 134


 5289 02fd 03       		.byte	0x3
 5290 02fe E8200000 		.4byte	buf.11973
 5291 0302 00       		.byte	0
 5292 0303 06       		.uleb128 0x6
 5293 0304 8A030000 		.4byte	.LASF23
 5294 0308 01       		.byte	0x1
 5295 0309 69       		.byte	0x69
 5296 030a 88000000 		.4byte	0x88
 5297 030e 00000000 		.4byte	.LFB9
 5298 0312 0C000000 		.4byte	.LFE9-.LFB9
 5299 0316 01       		.uleb128 0x1
 5300 0317 9C       		.byte	0x9c
 5301 0318 3D030000 		.4byte	0x33d
 5302 031c 07       		.uleb128 0x7
 5303 031d 57080000 		.4byte	.LASF15
 5304 0321 01       		.byte	0x1
 5305 0322 69       		.byte	0x69
 5306 0323 88000000 		.4byte	0x88
 5307 0327 29010000 		.4byte	.LLST9
 5308 032b 08       		.uleb128 0x8
 5309 032c 62756600 		.ascii	"buf\000"
 5310 0330 01       		.byte	0x1
 5311 0331 6F       		.byte	0x6f
 5312 0332 3D030000 		.4byte	0x33d
 5313 0336 05       		.uleb128 0x5
 5314 0337 03       		.byte	0x3
 5315 0338 D8300000 		.4byte	buf.11977
 5316 033c 00       		.byte	0
 5317 033d 09       		.uleb128 0x9
 5318 033e 76000000 		.4byte	0x76
 5319 0342 4D030000 		.4byte	0x34d
 5320 0346 0A       		.uleb128 0xa
 5321 0347 D8000000 		.4byte	0xd8
 5322 034b 47       		.byte	0x47
 5323 034c 00       		.byte	0
 5324 034d 06       		.uleb128 0x6
 5325 034e 97030000 		.4byte	.LASF24
 5326 0352 01       		.byte	0x1
 5327 0353 74       		.byte	0x74
 5328 0354 88000000 		.4byte	0x88
 5329 0358 00000000 		.4byte	.LFB10
 5330 035c 0C000000 		.4byte	.LFE10-.LFB10
 5331 0360 01       		.uleb128 0x1
 5332 0361 9C       		.byte	0x9c
 5333 0362 87030000 		.4byte	0x387
 5334 0366 07       		.uleb128 0x7
 5335 0367 57080000 		.4byte	.LASF15
 5336 036b 01       		.byte	0x1
 5337 036c 74       		.byte	0x74
 5338 036d 88000000 		.4byte	0x88
 5339 0371 4A010000 		.4byte	.LLST10
 5340 0375 08       		.uleb128 0x8
 5341 0376 62756600 		.ascii	"buf\000"
 5342 037a 01       		.byte	0x1
 5343 037b 7A       		.byte	0x7a
 5344 037c 87030000 		.4byte	0x387
 5345 0380 05       		.uleb128 0x5
ARM GAS  C:\Users\Abude\AppData\Local\Temp\ccndXIr0.s 			page 135


 5346 0381 03       		.byte	0x3
 5347 0382 20310000 		.4byte	buf.11981
 5348 0386 00       		.byte	0
 5349 0387 09       		.uleb128 0x9
 5350 0388 76000000 		.4byte	0x76
 5351 038c 97030000 		.4byte	0x397
 5352 0390 0A       		.uleb128 0xa
 5353 0391 D8000000 		.4byte	0xd8
 5354 0395 8F       		.byte	0x8f
 5355 0396 00       		.byte	0
 5356 0397 06       		.uleb128 0x6
 5357 0398 33040000 		.4byte	.LASF25
 5358 039c 01       		.byte	0x1
 5359 039d 7F       		.byte	0x7f
 5360 039e 88000000 		.4byte	0x88
 5361 03a2 00000000 		.4byte	.LFB11
 5362 03a6 0C000000 		.4byte	.LFE11-.LFB11
 5363 03aa 01       		.uleb128 0x1
 5364 03ab 9C       		.byte	0x9c
 5365 03ac D1030000 		.4byte	0x3d1
 5366 03b0 07       		.uleb128 0x7
 5367 03b1 57080000 		.4byte	.LASF15
 5368 03b5 01       		.byte	0x1
 5369 03b6 7F       		.byte	0x7f
 5370 03b7 88000000 		.4byte	0x88
 5371 03bb 6B010000 		.4byte	.LLST11
 5372 03bf 08       		.uleb128 0x8
 5373 03c0 62756600 		.ascii	"buf\000"
 5374 03c4 01       		.byte	0x1
 5375 03c5 85       		.byte	0x85
 5376 03c6 D1030000 		.4byte	0x3d1
 5377 03ca 05       		.uleb128 0x5
 5378 03cb 03       		.byte	0x3
 5379 03cc B0310000 		.4byte	buf.11985
 5380 03d0 00       		.byte	0
 5381 03d1 09       		.uleb128 0x9
 5382 03d2 76000000 		.4byte	0x76
 5383 03d6 E2030000 		.4byte	0x3e2
 5384 03da 0B       		.uleb128 0xb
 5385 03db D8000000 		.4byte	0xd8
 5386 03df 6701     		.2byte	0x167
 5387 03e1 00       		.byte	0
 5388 03e2 06       		.uleb128 0x6
 5389 03e3 C6020000 		.4byte	.LASF26
 5390 03e7 01       		.byte	0x1
 5391 03e8 8A       		.byte	0x8a
 5392 03e9 88000000 		.4byte	0x88
 5393 03ed 00000000 		.4byte	.LFB12
 5394 03f1 0C000000 		.4byte	.LFE12-.LFB12
 5395 03f5 01       		.uleb128 0x1
 5396 03f6 9C       		.byte	0x9c
 5397 03f7 1C040000 		.4byte	0x41c
 5398 03fb 07       		.uleb128 0x7
 5399 03fc 57080000 		.4byte	.LASF15
 5400 0400 01       		.byte	0x1
 5401 0401 8A       		.byte	0x8a
 5402 0402 88000000 		.4byte	0x88
ARM GAS  C:\Users\Abude\AppData\Local\Temp\ccndXIr0.s 			page 136


 5403 0406 8C010000 		.4byte	.LLST12
 5404 040a 08       		.uleb128 0x8
 5405 040b 62756600 		.ascii	"buf\000"
 5406 040f 01       		.byte	0x1
 5407 0410 90       		.byte	0x90
 5408 0411 1C040000 		.4byte	0x41c
 5409 0415 05       		.uleb128 0x5
 5410 0416 03       		.byte	0x3
 5411 0417 18330000 		.4byte	buf.11989
 5412 041b 00       		.byte	0
 5413 041c 09       		.uleb128 0x9
 5414 041d 76000000 		.4byte	0x76
 5415 0421 2C040000 		.4byte	0x42c
 5416 0425 0A       		.uleb128 0xa
 5417 0426 D8000000 		.4byte	0xd8
 5418 042a 3F       		.byte	0x3f
 5419 042b 00       		.byte	0
 5420 042c 06       		.uleb128 0x6
 5421 042d D3020000 		.4byte	.LASF27
 5422 0431 01       		.byte	0x1
 5423 0432 95       		.byte	0x95
 5424 0433 88000000 		.4byte	0x88
 5425 0437 00000000 		.4byte	.LFB13
 5426 043b 0C000000 		.4byte	.LFE13-.LFB13
 5427 043f 01       		.uleb128 0x1
 5428 0440 9C       		.byte	0x9c
 5429 0441 66040000 		.4byte	0x466
 5430 0445 07       		.uleb128 0x7
 5431 0446 57080000 		.4byte	.LASF15
 5432 044a 01       		.byte	0x1
 5433 044b 95       		.byte	0x95
 5434 044c 88000000 		.4byte	0x88
 5435 0450 AD010000 		.4byte	.LLST13
 5436 0454 08       		.uleb128 0x8
 5437 0455 62756600 		.ascii	"buf\000"
 5438 0459 01       		.byte	0x1
 5439 045a 9B       		.byte	0x9b
 5440 045b C8000000 		.4byte	0xc8
 5441 045f 05       		.uleb128 0x5
 5442 0460 03       		.byte	0x3
 5443 0461 58330000 		.4byte	buf.11993
 5444 0465 00       		.byte	0
 5445 0466 06       		.uleb128 0x6
 5446 0467 A4030000 		.4byte	.LASF28
 5447 046b 01       		.byte	0x1
 5448 046c A0       		.byte	0xa0
 5449 046d 88000000 		.4byte	0x88
 5450 0471 00000000 		.4byte	.LFB14
 5451 0475 0C000000 		.4byte	.LFE14-.LFB14
 5452 0479 01       		.uleb128 0x1
 5453 047a 9C       		.byte	0x9c
 5454 047b A0040000 		.4byte	0x4a0
 5455 047f 07       		.uleb128 0x7
 5456 0480 57080000 		.4byte	.LASF15
 5457 0484 01       		.byte	0x1
 5458 0485 A0       		.byte	0xa0
 5459 0486 88000000 		.4byte	0x88
ARM GAS  C:\Users\Abude\AppData\Local\Temp\ccndXIr0.s 			page 137


 5460 048a CE010000 		.4byte	.LLST14
 5461 048e 08       		.uleb128 0x8
 5462 048f 62756600 		.ascii	"buf\000"
 5463 0493 01       		.byte	0x1
 5464 0494 A6       		.byte	0xa6
 5465 0495 19010000 		.4byte	0x119
 5466 0499 05       		.uleb128 0x5
 5467 049a 03       		.byte	0x3
 5468 049b D8330000 		.4byte	buf.11997
 5469 049f 00       		.byte	0
 5470 04a0 06       		.uleb128 0x6
 5471 04a1 B1040000 		.4byte	.LASF29
 5472 04a5 01       		.byte	0x1
 5473 04a6 AB       		.byte	0xab
 5474 04a7 88000000 		.4byte	0x88
 5475 04ab 00000000 		.4byte	.LFB15
 5476 04af 0C000000 		.4byte	.LFE15-.LFB15
 5477 04b3 01       		.uleb128 0x1
 5478 04b4 9C       		.byte	0x9c
 5479 04b5 DA040000 		.4byte	0x4da
 5480 04b9 07       		.uleb128 0x7
 5481 04ba 57080000 		.4byte	.LASF15
 5482 04be 01       		.byte	0x1
 5483 04bf AB       		.byte	0xab
 5484 04c0 88000000 		.4byte	0x88
 5485 04c4 EF010000 		.4byte	.LLST15
 5486 04c8 08       		.uleb128 0x8
 5487 04c9 62756600 		.ascii	"buf\000"
 5488 04cd 01       		.byte	0x1
 5489 04ce B1       		.byte	0xb1
 5490 04cf 1C040000 		.4byte	0x41c
 5491 04d3 05       		.uleb128 0x5
 5492 04d4 03       		.byte	0x3
 5493 04d5 D8340000 		.4byte	buf.12001
 5494 04d9 00       		.byte	0
 5495 04da 06       		.uleb128 0x6
 5496 04db BF040000 		.4byte	.LASF30
 5497 04df 01       		.byte	0x1
 5498 04e0 B6       		.byte	0xb6
 5499 04e1 88000000 		.4byte	0x88
 5500 04e5 00000000 		.4byte	.LFB16
 5501 04e9 0C000000 		.4byte	.LFE16-.LFB16
 5502 04ed 01       		.uleb128 0x1
 5503 04ee 9C       		.byte	0x9c
 5504 04ef 14050000 		.4byte	0x514
 5505 04f3 07       		.uleb128 0x7
 5506 04f4 57080000 		.4byte	.LASF15
 5507 04f8 01       		.byte	0x1
 5508 04f9 B6       		.byte	0xb6
 5509 04fa 88000000 		.4byte	0x88
 5510 04fe 10020000 		.4byte	.LLST16
 5511 0502 08       		.uleb128 0x8
 5512 0503 62756600 		.ascii	"buf\000"
 5513 0507 01       		.byte	0x1
 5514 0508 BC       		.byte	0xbc
 5515 0509 C8000000 		.4byte	0xc8
 5516 050d 05       		.uleb128 0x5
ARM GAS  C:\Users\Abude\AppData\Local\Temp\ccndXIr0.s 			page 138


 5517 050e 03       		.byte	0x3
 5518 050f 18350000 		.4byte	buf.12005
 5519 0513 00       		.byte	0
 5520 0514 06       		.uleb128 0x6
 5521 0515 5B050000 		.4byte	.LASF31
 5522 0519 01       		.byte	0x1
 5523 051a C1       		.byte	0xc1
 5524 051b 88000000 		.4byte	0x88
 5525 051f 00000000 		.4byte	.LFB17
 5526 0523 0C000000 		.4byte	.LFE17-.LFB17
 5527 0527 01       		.uleb128 0x1
 5528 0528 9C       		.byte	0x9c
 5529 0529 4E050000 		.4byte	0x54e
 5530 052d 07       		.uleb128 0x7
 5531 052e 57080000 		.4byte	.LASF15
 5532 0532 01       		.byte	0x1
 5533 0533 C1       		.byte	0xc1
 5534 0534 88000000 		.4byte	0x88
 5535 0538 31020000 		.4byte	.LLST17
 5536 053c 08       		.uleb128 0x8
 5537 053d 62756600 		.ascii	"buf\000"
 5538 0541 01       		.byte	0x1
 5539 0542 C7       		.byte	0xc7
 5540 0543 22020000 		.4byte	0x222
 5541 0547 05       		.uleb128 0x5
 5542 0548 03       		.byte	0x3
 5543 0549 98350000 		.4byte	buf.12009
 5544 054d 00       		.byte	0
 5545 054e 06       		.uleb128 0x6
 5546 054f 60080000 		.4byte	.LASF32
 5547 0553 01       		.byte	0x1
 5548 0554 CC       		.byte	0xcc
 5549 0555 88000000 		.4byte	0x88
 5550 0559 00000000 		.4byte	.LFB18
 5551 055d 0C000000 		.4byte	.LFE18-.LFB18
 5552 0561 01       		.uleb128 0x1
 5553 0562 9C       		.byte	0x9c
 5554 0563 88050000 		.4byte	0x588
 5555 0567 07       		.uleb128 0x7
 5556 0568 57080000 		.4byte	.LASF15
 5557 056c 01       		.byte	0x1
 5558 056d CC       		.byte	0xcc
 5559 056e 88000000 		.4byte	0x88
 5560 0572 52020000 		.4byte	.LLST18
 5561 0576 08       		.uleb128 0x8
 5562 0577 62756600 		.ascii	"buf\000"
 5563 057b 01       		.byte	0x1
 5564 057c D2       		.byte	0xd2
 5565 057d 88050000 		.4byte	0x588
 5566 0581 05       		.uleb128 0x5
 5567 0582 03       		.byte	0x3
 5568 0583 98390000 		.4byte	buf.12013
 5569 0587 00       		.byte	0
 5570 0588 09       		.uleb128 0x9
 5571 0589 76000000 		.4byte	0x76
 5572 058d 98050000 		.4byte	0x598
 5573 0591 0A       		.uleb128 0xa
ARM GAS  C:\Users\Abude\AppData\Local\Temp\ccndXIr0.s 			page 139


 5574 0592 D8000000 		.4byte	0xd8
 5575 0596 5F       		.byte	0x5f
 5576 0597 00       		.byte	0
 5577 0598 06       		.uleb128 0x6
 5578 0599 6F080000 		.4byte	.LASF33
 5579 059d 01       		.byte	0x1
 5580 059e D7       		.byte	0xd7
 5581 059f 88000000 		.4byte	0x88
 5582 05a3 00000000 		.4byte	.LFB19
 5583 05a7 0C000000 		.4byte	.LFE19-.LFB19
 5584 05ab 01       		.uleb128 0x1
 5585 05ac 9C       		.byte	0x9c
 5586 05ad D2050000 		.4byte	0x5d2
 5587 05b1 07       		.uleb128 0x7
 5588 05b2 57080000 		.4byte	.LASF15
 5589 05b6 01       		.byte	0x1
 5590 05b7 D7       		.byte	0xd7
 5591 05b8 88000000 		.4byte	0x88
 5592 05bc 73020000 		.4byte	.LLST19
 5593 05c0 08       		.uleb128 0x8
 5594 05c1 62756600 		.ascii	"buf\000"
 5595 05c5 01       		.byte	0x1
 5596 05c6 DD       		.byte	0xdd
 5597 05c7 D2050000 		.4byte	0x5d2
 5598 05cb 05       		.uleb128 0x5
 5599 05cc 03       		.byte	0x3
 5600 05cd F8390000 		.4byte	buf.12017
 5601 05d1 00       		.byte	0
 5602 05d2 09       		.uleb128 0x9
 5603 05d3 76000000 		.4byte	0x76
 5604 05d7 E2050000 		.4byte	0x5e2
 5605 05db 0A       		.uleb128 0xa
 5606 05dc D8000000 		.4byte	0xd8
 5607 05e0 BF       		.byte	0xbf
 5608 05e1 00       		.byte	0
 5609 05e2 06       		.uleb128 0x6
 5610 05e3 F0080000 		.4byte	.LASF34
 5611 05e7 01       		.byte	0x1
 5612 05e8 E2       		.byte	0xe2
 5613 05e9 88000000 		.4byte	0x88
 5614 05ed 00000000 		.4byte	.LFB20
 5615 05f1 0C000000 		.4byte	.LFE20-.LFB20
 5616 05f5 01       		.uleb128 0x1
 5617 05f6 9C       		.byte	0x9c
 5618 05f7 1C060000 		.4byte	0x61c
 5619 05fb 07       		.uleb128 0x7
 5620 05fc 57080000 		.4byte	.LASF15
 5621 0600 01       		.byte	0x1
 5622 0601 E2       		.byte	0xe2
 5623 0602 88000000 		.4byte	0x88
 5624 0606 94020000 		.4byte	.LLST20
 5625 060a 08       		.uleb128 0x8
 5626 060b 62756600 		.ascii	"buf\000"
 5627 060f 01       		.byte	0x1
 5628 0610 E8       		.byte	0xe8
 5629 0611 1C060000 		.4byte	0x61c
 5630 0615 05       		.uleb128 0x5
ARM GAS  C:\Users\Abude\AppData\Local\Temp\ccndXIr0.s 			page 140


 5631 0616 03       		.byte	0x3
 5632 0617 B83A0000 		.4byte	buf.12021
 5633 061b 00       		.byte	0
 5634 061c 09       		.uleb128 0x9
 5635 061d 76000000 		.4byte	0x76
 5636 0621 2D060000 		.4byte	0x62d
 5637 0625 0B       		.uleb128 0xb
 5638 0626 D8000000 		.4byte	0xd8
 5639 062a 7F04     		.2byte	0x47f
 5640 062c 00       		.byte	0
 5641 062d 06       		.uleb128 0x6
 5642 062e A8000000 		.4byte	.LASF35
 5643 0632 01       		.byte	0x1
 5644 0633 ED       		.byte	0xed
 5645 0634 88000000 		.4byte	0x88
 5646 0638 00000000 		.4byte	.LFB21
 5647 063c 0C000000 		.4byte	.LFE21-.LFB21
 5648 0640 01       		.uleb128 0x1
 5649 0641 9C       		.byte	0x9c
 5650 0642 67060000 		.4byte	0x667
 5651 0646 07       		.uleb128 0x7
 5652 0647 57080000 		.4byte	.LASF15
 5653 064b 01       		.byte	0x1
 5654 064c ED       		.byte	0xed
 5655 064d 88000000 		.4byte	0x88
 5656 0651 B5020000 		.4byte	.LLST21
 5657 0655 08       		.uleb128 0x8
 5658 0656 62756600 		.ascii	"buf\000"
 5659 065a 01       		.byte	0x1
 5660 065b F3       		.byte	0xf3
 5661 065c 67060000 		.4byte	0x667
 5662 0660 05       		.uleb128 0x5
 5663 0661 03       		.byte	0x3
 5664 0662 383F0000 		.4byte	buf.12025
 5665 0666 00       		.byte	0
 5666 0667 09       		.uleb128 0x9
 5667 0668 76000000 		.4byte	0x76
 5668 066c 77060000 		.4byte	0x677
 5669 0670 0A       		.uleb128 0xa
 5670 0671 D8000000 		.4byte	0xd8
 5671 0675 4F       		.byte	0x4f
 5672 0676 00       		.byte	0
 5673 0677 06       		.uleb128 0x6
 5674 0678 B7000000 		.4byte	.LASF36
 5675 067c 01       		.byte	0x1
 5676 067d F8       		.byte	0xf8
 5677 067e 88000000 		.4byte	0x88
 5678 0682 00000000 		.4byte	.LFB22
 5679 0686 0C000000 		.4byte	.LFE22-.LFB22
 5680 068a 01       		.uleb128 0x1
 5681 068b 9C       		.byte	0x9c
 5682 068c B1060000 		.4byte	0x6b1
 5683 0690 07       		.uleb128 0x7
 5684 0691 57080000 		.4byte	.LASF15
 5685 0695 01       		.byte	0x1
 5686 0696 F8       		.byte	0xf8
 5687 0697 88000000 		.4byte	0x88
ARM GAS  C:\Users\Abude\AppData\Local\Temp\ccndXIr0.s 			page 141


 5688 069b D6020000 		.4byte	.LLST22
 5689 069f 08       		.uleb128 0x8
 5690 06a0 62756600 		.ascii	"buf\000"
 5691 06a4 01       		.byte	0x1
 5692 06a5 FE       		.byte	0xfe
 5693 06a6 B1060000 		.4byte	0x6b1
 5694 06aa 05       		.uleb128 0x5
 5695 06ab 03       		.byte	0x3
 5696 06ac 883F0000 		.4byte	buf.12029
 5697 06b0 00       		.byte	0
 5698 06b1 09       		.uleb128 0x9
 5699 06b2 76000000 		.4byte	0x76
 5700 06b6 C1060000 		.4byte	0x6c1
 5701 06ba 0A       		.uleb128 0xa
 5702 06bb D8000000 		.4byte	0xd8
 5703 06bf 9F       		.byte	0x9f
 5704 06c0 00       		.byte	0
 5705 06c1 0C       		.uleb128 0xc
 5706 06c2 2B010000 		.4byte	.LASF37
 5707 06c6 01       		.byte	0x1
 5708 06c7 0301     		.2byte	0x103
 5709 06c9 88000000 		.4byte	0x88
 5710 06cd 00000000 		.4byte	.LFB23
 5711 06d1 0C000000 		.4byte	.LFE23-.LFB23
 5712 06d5 01       		.uleb128 0x1
 5713 06d6 9C       		.byte	0x9c
 5714 06d7 FE060000 		.4byte	0x6fe
 5715 06db 0D       		.uleb128 0xd
 5716 06dc 57080000 		.4byte	.LASF15
 5717 06e0 01       		.byte	0x1
 5718 06e1 0301     		.2byte	0x103
 5719 06e3 88000000 		.4byte	0x88
 5720 06e7 F7020000 		.4byte	.LLST23
 5721 06eb 0E       		.uleb128 0xe
 5722 06ec 62756600 		.ascii	"buf\000"
 5723 06f0 01       		.byte	0x1
 5724 06f1 0901     		.2byte	0x109
 5725 06f3 FE060000 		.4byte	0x6fe
 5726 06f7 05       		.uleb128 0x5
 5727 06f8 03       		.byte	0x3
 5728 06f9 28400000 		.4byte	buf.12033
 5729 06fd 00       		.byte	0
 5730 06fe 09       		.uleb128 0x9
 5731 06ff 76000000 		.4byte	0x76
 5732 0703 0F070000 		.4byte	0x70f
 5733 0707 0B       		.uleb128 0xb
 5734 0708 D8000000 		.4byte	0xd8
 5735 070c FF04     		.2byte	0x4ff
 5736 070e 00       		.byte	0
 5737 070f 0C       		.uleb128 0xc
 5738 0710 DA070000 		.4byte	.LASF38
 5739 0714 01       		.byte	0x1
 5740 0715 0E01     		.2byte	0x10e
 5741 0717 88000000 		.4byte	0x88
 5742 071b 00000000 		.4byte	.LFB24
 5743 071f 0C000000 		.4byte	.LFE24-.LFB24
 5744 0723 01       		.uleb128 0x1
ARM GAS  C:\Users\Abude\AppData\Local\Temp\ccndXIr0.s 			page 142


 5745 0724 9C       		.byte	0x9c
 5746 0725 4C070000 		.4byte	0x74c
 5747 0729 0D       		.uleb128 0xd
 5748 072a 57080000 		.4byte	.LASF15
 5749 072e 01       		.byte	0x1
 5750 072f 0E01     		.2byte	0x10e
 5751 0731 88000000 		.4byte	0x88
 5752 0735 18030000 		.4byte	.LLST24
 5753 0739 0E       		.uleb128 0xe
 5754 073a 62756600 		.ascii	"buf\000"
 5755 073e 01       		.byte	0x1
 5756 073f 1401     		.2byte	0x114
 5757 0741 C8000000 		.4byte	0xc8
 5758 0745 05       		.uleb128 0x5
 5759 0746 03       		.byte	0x3
 5760 0747 28450000 		.4byte	buf.12037
 5761 074b 00       		.byte	0
 5762 074c 0C       		.uleb128 0xc
 5763 074d E9070000 		.4byte	.LASF39
 5764 0751 01       		.byte	0x1
 5765 0752 1901     		.2byte	0x119
 5766 0754 88000000 		.4byte	0x88
 5767 0758 00000000 		.4byte	.LFB25
 5768 075c 0C000000 		.4byte	.LFE25-.LFB25
 5769 0760 01       		.uleb128 0x1
 5770 0761 9C       		.byte	0x9c
 5771 0762 89070000 		.4byte	0x789
 5772 0766 0D       		.uleb128 0xd
 5773 0767 57080000 		.4byte	.LASF15
 5774 076b 01       		.byte	0x1
 5775 076c 1901     		.2byte	0x119
 5776 076e 88000000 		.4byte	0x88
 5777 0772 39030000 		.4byte	.LLST25
 5778 0776 0E       		.uleb128 0xe
 5779 0777 62756600 		.ascii	"buf\000"
 5780 077b 01       		.byte	0x1
 5781 077c 1F01     		.2byte	0x11f
 5782 077e 19010000 		.4byte	0x119
 5783 0782 05       		.uleb128 0x5
 5784 0783 03       		.byte	0x3
 5785 0784 A8450000 		.4byte	buf.12041
 5786 0788 00       		.byte	0
 5787 0789 0C       		.uleb128 0xc
 5788 078a 1D080000 		.4byte	.LASF40
 5789 078e 01       		.byte	0x1
 5790 078f 2401     		.2byte	0x124
 5791 0791 88000000 		.4byte	0x88
 5792 0795 00000000 		.4byte	.LFB26
 5793 0799 0C000000 		.4byte	.LFE26-.LFB26
 5794 079d 01       		.uleb128 0x1
 5795 079e 9C       		.byte	0x9c
 5796 079f C6070000 		.4byte	0x7c6
 5797 07a3 0D       		.uleb128 0xd
 5798 07a4 57080000 		.4byte	.LASF15
 5799 07a8 01       		.byte	0x1
 5800 07a9 2401     		.2byte	0x124
 5801 07ab 88000000 		.4byte	0x88
ARM GAS  C:\Users\Abude\AppData\Local\Temp\ccndXIr0.s 			page 143


 5802 07af 5A030000 		.4byte	.LLST26
 5803 07b3 0E       		.uleb128 0xe
 5804 07b4 62756600 		.ascii	"buf\000"
 5805 07b8 01       		.byte	0x1
 5806 07b9 2A01     		.2byte	0x12a
 5807 07bb C6070000 		.4byte	0x7c6
 5808 07bf 05       		.uleb128 0x5
 5809 07c0 03       		.byte	0x3
 5810 07c1 A8460000 		.4byte	buf.12045
 5811 07c5 00       		.byte	0
 5812 07c6 09       		.uleb128 0x9
 5813 07c7 76000000 		.4byte	0x76
 5814 07cb D7070000 		.4byte	0x7d7
 5815 07cf 0B       		.uleb128 0xb
 5816 07d0 D8000000 		.4byte	0xd8
 5817 07d4 FF07     		.2byte	0x7ff
 5818 07d6 00       		.byte	0
 5819 07d7 0C       		.uleb128 0xc
 5820 07d8 FF080000 		.4byte	.LASF41
 5821 07dc 01       		.byte	0x1
 5822 07dd 2F01     		.2byte	0x12f
 5823 07df 88000000 		.4byte	0x88
 5824 07e3 00000000 		.4byte	.LFB27
 5825 07e7 0C000000 		.4byte	.LFE27-.LFB27
 5826 07eb 01       		.uleb128 0x1
 5827 07ec 9C       		.byte	0x9c
 5828 07ed 14080000 		.4byte	0x814
 5829 07f1 0D       		.uleb128 0xd
 5830 07f2 57080000 		.4byte	.LASF15
 5831 07f6 01       		.byte	0x1
 5832 07f7 2F01     		.2byte	0x12f
 5833 07f9 88000000 		.4byte	0x88
 5834 07fd 7B030000 		.4byte	.LLST27
 5835 0801 0E       		.uleb128 0xe
 5836 0802 62756600 		.ascii	"buf\000"
 5837 0806 01       		.byte	0x1
 5838 0807 3501     		.2byte	0x135
 5839 0809 B1060000 		.4byte	0x6b1
 5840 080d 05       		.uleb128 0x5
 5841 080e 03       		.byte	0x3
 5842 080f A84E0000 		.4byte	buf.12049
 5843 0813 00       		.byte	0
 5844 0814 0C       		.uleb128 0xc
 5845 0815 0E090000 		.4byte	.LASF42
 5846 0819 01       		.byte	0x1
 5847 081a 3A01     		.2byte	0x13a
 5848 081c 88000000 		.4byte	0x88
 5849 0820 00000000 		.4byte	.LFB28
 5850 0824 0C000000 		.4byte	.LFE28-.LFB28
 5851 0828 01       		.uleb128 0x1
 5852 0829 9C       		.byte	0x9c
 5853 082a 51080000 		.4byte	0x851
 5854 082e 0D       		.uleb128 0xd
 5855 082f 57080000 		.4byte	.LASF15
 5856 0833 01       		.byte	0x1
 5857 0834 3A01     		.2byte	0x13a
 5858 0836 88000000 		.4byte	0x88
ARM GAS  C:\Users\Abude\AppData\Local\Temp\ccndXIr0.s 			page 144


 5859 083a 9C030000 		.4byte	.LLST28
 5860 083e 0E       		.uleb128 0xe
 5861 083f 62756600 		.ascii	"buf\000"
 5862 0843 01       		.byte	0x1
 5863 0844 4001     		.2byte	0x140
 5864 0846 51080000 		.4byte	0x851
 5865 084a 05       		.uleb128 0x5
 5866 084b 03       		.byte	0x3
 5867 084c 484F0000 		.4byte	buf.12053
 5868 0850 00       		.byte	0
 5869 0851 09       		.uleb128 0x9
 5870 0852 76000000 		.4byte	0x76
 5871 0856 62080000 		.4byte	0x862
 5872 085a 0B       		.uleb128 0xb
 5873 085b D8000000 		.4byte	0xd8
 5874 085f 3F01     		.2byte	0x13f
 5875 0861 00       		.byte	0
 5876 0862 0C       		.uleb128 0xc
 5877 0863 D8090000 		.4byte	.LASF43
 5878 0867 01       		.byte	0x1
 5879 0868 4501     		.2byte	0x145
 5880 086a 88000000 		.4byte	0x88
 5881 086e 00000000 		.4byte	.LFB29
 5882 0872 0C000000 		.4byte	.LFE29-.LFB29
 5883 0876 01       		.uleb128 0x1
 5884 0877 9C       		.byte	0x9c
 5885 0878 9F080000 		.4byte	0x89f
 5886 087c 0D       		.uleb128 0xd
 5887 087d 57080000 		.4byte	.LASF15
 5888 0881 01       		.byte	0x1
 5889 0882 4501     		.2byte	0x145
 5890 0884 88000000 		.4byte	0x88
 5891 0888 BD030000 		.4byte	.LLST29
 5892 088c 0E       		.uleb128 0xe
 5893 088d 62756600 		.ascii	"buf\000"
 5894 0891 01       		.byte	0x1
 5895 0892 4B01     		.2byte	0x14b
 5896 0894 9F080000 		.4byte	0x89f
 5897 0898 05       		.uleb128 0x5
 5898 0899 03       		.byte	0x3
 5899 089a 88500000 		.4byte	buf.12057
 5900 089e 00       		.byte	0
 5901 089f 09       		.uleb128 0x9
 5902 08a0 76000000 		.4byte	0x76
 5903 08a4 B0080000 		.4byte	0x8b0
 5904 08a8 0B       		.uleb128 0xb
 5905 08a9 D8000000 		.4byte	0xd8
 5906 08ad 7F0C     		.2byte	0xc7f
 5907 08af 00       		.byte	0
 5908 08b0 0C       		.uleb128 0xc
 5909 08b1 3F050000 		.4byte	.LASF44
 5910 08b5 01       		.byte	0x1
 5911 08b6 5001     		.2byte	0x150
 5912 08b8 88000000 		.4byte	0x88
 5913 08bc 00000000 		.4byte	.LFB30
 5914 08c0 0C000000 		.4byte	.LFE30-.LFB30
 5915 08c4 01       		.uleb128 0x1
ARM GAS  C:\Users\Abude\AppData\Local\Temp\ccndXIr0.s 			page 145


 5916 08c5 9C       		.byte	0x9c
 5917 08c6 ED080000 		.4byte	0x8ed
 5918 08ca 0D       		.uleb128 0xd
 5919 08cb 57080000 		.4byte	.LASF15
 5920 08cf 01       		.byte	0x1
 5921 08d0 5001     		.2byte	0x150
 5922 08d2 88000000 		.4byte	0x88
 5923 08d6 DE030000 		.4byte	.LLST30
 5924 08da 0E       		.uleb128 0xe
 5925 08db 62756600 		.ascii	"buf\000"
 5926 08df 01       		.byte	0x1
 5927 08e0 5601     		.2byte	0x156
 5928 08e2 19010000 		.4byte	0x119
 5929 08e6 05       		.uleb128 0x5
 5930 08e7 03       		.byte	0x3
 5931 08e8 085D0000 		.4byte	buf.12061
 5932 08ec 00       		.byte	0
 5933 08ed 0C       		.uleb128 0xc
 5934 08ee 4D050000 		.4byte	.LASF45
 5935 08f2 01       		.byte	0x1
 5936 08f3 5B01     		.2byte	0x15b
 5937 08f5 88000000 		.4byte	0x88
 5938 08f9 00000000 		.4byte	.LFB31
 5939 08fd 0C000000 		.4byte	.LFE31-.LFB31
 5940 0901 01       		.uleb128 0x1
 5941 0902 9C       		.byte	0x9c
 5942 0903 2A090000 		.4byte	0x92a
 5943 0907 0D       		.uleb128 0xd
 5944 0908 57080000 		.4byte	.LASF15
 5945 090c 01       		.byte	0x1
 5946 090d 5B01     		.2byte	0x15b
 5947 090f 88000000 		.4byte	0x88
 5948 0913 FF030000 		.4byte	.LLST31
 5949 0917 0E       		.uleb128 0xe
 5950 0918 62756600 		.ascii	"buf\000"
 5951 091c 01       		.byte	0x1
 5952 091d 6101     		.2byte	0x161
 5953 091f 63010000 		.4byte	0x163
 5954 0923 05       		.uleb128 0x5
 5955 0924 03       		.byte	0x3
 5956 0925 085E0000 		.4byte	buf.12065
 5957 0929 00       		.byte	0
 5958 092a 0C       		.uleb128 0xc
 5959 092b BD050000 		.4byte	.LASF46
 5960 092f 01       		.byte	0x1
 5961 0930 6601     		.2byte	0x166
 5962 0932 88000000 		.4byte	0x88
 5963 0936 00000000 		.4byte	.LFB32
 5964 093a 0C000000 		.4byte	.LFE32-.LFB32
 5965 093e 01       		.uleb128 0x1
 5966 093f 9C       		.byte	0x9c
 5967 0940 67090000 		.4byte	0x967
 5968 0944 0D       		.uleb128 0xd
 5969 0945 57080000 		.4byte	.LASF15
 5970 0949 01       		.byte	0x1
 5971 094a 6601     		.2byte	0x166
 5972 094c 88000000 		.4byte	0x88
ARM GAS  C:\Users\Abude\AppData\Local\Temp\ccndXIr0.s 			page 146


 5973 0950 20040000 		.4byte	.LLST32
 5974 0954 0E       		.uleb128 0xe
 5975 0955 62756600 		.ascii	"buf\000"
 5976 0959 01       		.byte	0x1
 5977 095a 6C01     		.2byte	0x16c
 5978 095c C6070000 		.4byte	0x7c6
 5979 0960 05       		.uleb128 0x5
 5980 0961 03       		.byte	0x3
 5981 0962 08600000 		.4byte	buf.12069
 5982 0966 00       		.byte	0
 5983 0967 0C       		.uleb128 0xc
 5984 0968 1D090000 		.4byte	.LASF47
 5985 096c 01       		.byte	0x1
 5986 096d 7101     		.2byte	0x171
 5987 096f 88000000 		.4byte	0x88
 5988 0973 00000000 		.4byte	.LFB33
 5989 0977 0C000000 		.4byte	.LFE33-.LFB33
 5990 097b 01       		.uleb128 0x1
 5991 097c 9C       		.byte	0x9c
 5992 097d A4090000 		.4byte	0x9a4
 5993 0981 0D       		.uleb128 0xd
 5994 0982 57080000 		.4byte	.LASF15
 5995 0986 01       		.byte	0x1
 5996 0987 7101     		.2byte	0x171
 5997 0989 88000000 		.4byte	0x88
 5998 098d 41040000 		.4byte	.LLST33
 5999 0991 0E       		.uleb128 0xe
 6000 0992 62756600 		.ascii	"buf\000"
 6001 0996 01       		.byte	0x1
 6002 0997 7701     		.2byte	0x177
 6003 0999 A4090000 		.4byte	0x9a4
 6004 099d 05       		.uleb128 0x5
 6005 099e 03       		.byte	0x3
 6006 099f 08680000 		.4byte	buf.12073
 6007 09a3 00       		.byte	0
 6008 09a4 09       		.uleb128 0x9
 6009 09a5 76000000 		.4byte	0x76
 6010 09a9 B4090000 		.4byte	0x9b4
 6011 09ad 0A       		.uleb128 0xa
 6012 09ae D8000000 		.4byte	0xd8
 6013 09b2 67       		.byte	0x67
 6014 09b3 00       		.byte	0
 6015 09b4 0C       		.uleb128 0xc
 6016 09b5 2B090000 		.4byte	.LASF48
 6017 09b9 01       		.byte	0x1
 6018 09ba 7C01     		.2byte	0x17c
 6019 09bc 88000000 		.4byte	0x88
 6020 09c0 00000000 		.4byte	.LFB34
 6021 09c4 0C000000 		.4byte	.LFE34-.LFB34
 6022 09c8 01       		.uleb128 0x1
 6023 09c9 9C       		.byte	0x9c
 6024 09ca F1090000 		.4byte	0x9f1
 6025 09ce 0D       		.uleb128 0xd
 6026 09cf 57080000 		.4byte	.LASF15
 6027 09d3 01       		.byte	0x1
 6028 09d4 7C01     		.2byte	0x17c
 6029 09d6 88000000 		.4byte	0x88
ARM GAS  C:\Users\Abude\AppData\Local\Temp\ccndXIr0.s 			page 147


 6030 09da 62040000 		.4byte	.LLST34
 6031 09de 0E       		.uleb128 0xe
 6032 09df 62756600 		.ascii	"buf\000"
 6033 09e3 01       		.byte	0x1
 6034 09e4 8201     		.2byte	0x182
 6035 09e6 F1090000 		.4byte	0x9f1
 6036 09ea 05       		.uleb128 0x5
 6037 09eb 03       		.byte	0x3
 6038 09ec 70680000 		.4byte	buf.12077
 6039 09f0 00       		.byte	0
 6040 09f1 09       		.uleb128 0x9
 6041 09f2 76000000 		.4byte	0x76
 6042 09f6 010A0000 		.4byte	0xa01
 6043 09fa 0A       		.uleb128 0xa
 6044 09fb D8000000 		.4byte	0xd8
 6045 09ff CF       		.byte	0xcf
 6046 0a00 00       		.byte	0
 6047 0a01 0C       		.uleb128 0xc
 6048 0a02 E7090000 		.4byte	.LASF49
 6049 0a06 01       		.byte	0x1
 6050 0a07 8701     		.2byte	0x187
 6051 0a09 88000000 		.4byte	0x88
 6052 0a0d 00000000 		.4byte	.LFB35
 6053 0a11 0C000000 		.4byte	.LFE35-.LFB35
 6054 0a15 01       		.uleb128 0x1
 6055 0a16 9C       		.byte	0x9c
 6056 0a17 3E0A0000 		.4byte	0xa3e
 6057 0a1b 0D       		.uleb128 0xd
 6058 0a1c 57080000 		.4byte	.LASF15
 6059 0a20 01       		.byte	0x1
 6060 0a21 8701     		.2byte	0x187
 6061 0a23 88000000 		.4byte	0x88
 6062 0a27 83040000 		.4byte	.LLST35
 6063 0a2b 0E       		.uleb128 0xe
 6064 0a2c 62756600 		.ascii	"buf\000"
 6065 0a30 01       		.byte	0x1
 6066 0a31 8D01     		.2byte	0x18d
 6067 0a33 3E0A0000 		.4byte	0xa3e
 6068 0a37 05       		.uleb128 0x5
 6069 0a38 03       		.byte	0x3
 6070 0a39 40690000 		.4byte	buf.12081
 6071 0a3d 00       		.byte	0
 6072 0a3e 09       		.uleb128 0x9
 6073 0a3f 76000000 		.4byte	0x76
 6074 0a43 4F0A0000 		.4byte	0xa4f
 6075 0a47 0B       		.uleb128 0xb
 6076 0a48 D8000000 		.4byte	0xd8
 6077 0a4c 3F03     		.2byte	0x33f
 6078 0a4e 00       		.byte	0
 6079 0a4f 0C       		.uleb128 0xc
 6080 0a50 74000000 		.4byte	.LASF50
 6081 0a54 01       		.byte	0x1
 6082 0a55 9201     		.2byte	0x192
 6083 0a57 88000000 		.4byte	0x88
 6084 0a5b 00000000 		.4byte	.LFB36
 6085 0a5f 0C000000 		.4byte	.LFE36-.LFB36
 6086 0a63 01       		.uleb128 0x1
ARM GAS  C:\Users\Abude\AppData\Local\Temp\ccndXIr0.s 			page 148


 6087 0a64 9C       		.byte	0x9c
 6088 0a65 8C0A0000 		.4byte	0xa8c
 6089 0a69 0D       		.uleb128 0xd
 6090 0a6a 57080000 		.4byte	.LASF15
 6091 0a6e 01       		.byte	0x1
 6092 0a6f 9201     		.2byte	0x192
 6093 0a71 88000000 		.4byte	0x88
 6094 0a75 A4040000 		.4byte	.LLST36
 6095 0a79 0E       		.uleb128 0xe
 6096 0a7a 62756600 		.ascii	"buf\000"
 6097 0a7e 01       		.byte	0x1
 6098 0a7f 9801     		.2byte	0x198
 6099 0a81 1C040000 		.4byte	0x41c
 6100 0a85 05       		.uleb128 0x5
 6101 0a86 03       		.byte	0x3
 6102 0a87 806C0000 		.4byte	buf.12085
 6103 0a8b 00       		.byte	0
 6104 0a8c 0C       		.uleb128 0xc
 6105 0a8d 81000000 		.4byte	.LASF51
 6106 0a91 01       		.byte	0x1
 6107 0a92 9D01     		.2byte	0x19d
 6108 0a94 88000000 		.4byte	0x88
 6109 0a98 00000000 		.4byte	.LFB37
 6110 0a9c 0C000000 		.4byte	.LFE37-.LFB37
 6111 0aa0 01       		.uleb128 0x1
 6112 0aa1 9C       		.byte	0x9c
 6113 0aa2 C90A0000 		.4byte	0xac9
 6114 0aa6 0D       		.uleb128 0xd
 6115 0aa7 57080000 		.4byte	.LASF15
 6116 0aab 01       		.byte	0x1
 6117 0aac 9D01     		.2byte	0x19d
 6118 0aae 88000000 		.4byte	0x88
 6119 0ab2 C5040000 		.4byte	.LLST37
 6120 0ab6 0E       		.uleb128 0xe
 6121 0ab7 62756600 		.ascii	"buf\000"
 6122 0abb 01       		.byte	0x1
 6123 0abc A301     		.2byte	0x1a3
 6124 0abe C8000000 		.4byte	0xc8
 6125 0ac2 05       		.uleb128 0x5
 6126 0ac3 03       		.byte	0x3
 6127 0ac4 C06C0000 		.4byte	buf.12089
 6128 0ac8 00       		.byte	0
 6129 0ac9 0C       		.uleb128 0xc
 6130 0aca D5000000 		.4byte	.LASF52
 6131 0ace 01       		.byte	0x1
 6132 0acf A801     		.2byte	0x1a8
 6133 0ad1 88000000 		.4byte	0x88
 6134 0ad5 00000000 		.4byte	.LFB38
 6135 0ad9 0C000000 		.4byte	.LFE38-.LFB38
 6136 0add 01       		.uleb128 0x1
 6137 0ade 9C       		.byte	0x9c
 6138 0adf 060B0000 		.4byte	0xb06
 6139 0ae3 0D       		.uleb128 0xd
 6140 0ae4 57080000 		.4byte	.LASF15
 6141 0ae8 01       		.byte	0x1
 6142 0ae9 A801     		.2byte	0x1a8
 6143 0aeb 88000000 		.4byte	0x88
ARM GAS  C:\Users\Abude\AppData\Local\Temp\ccndXIr0.s 			page 149


 6144 0aef E6040000 		.4byte	.LLST38
 6145 0af3 0E       		.uleb128 0xe
 6146 0af4 62756600 		.ascii	"buf\000"
 6147 0af8 01       		.byte	0x1
 6148 0af9 AE01     		.2byte	0x1ae
 6149 0afb 060B0000 		.4byte	0xb06
 6150 0aff 05       		.uleb128 0x5
 6151 0b00 03       		.byte	0x3
 6152 0b01 406D0000 		.4byte	buf.12093
 6153 0b05 00       		.byte	0
 6154 0b06 09       		.uleb128 0x9
 6155 0b07 76000000 		.4byte	0x76
 6156 0b0b 170B0000 		.4byte	0xb17
 6157 0b0f 0B       		.uleb128 0xb
 6158 0b10 D8000000 		.4byte	0xd8
 6159 0b14 7F01     		.2byte	0x17f
 6160 0b16 00       		.byte	0
 6161 0b17 0C       		.uleb128 0xc
 6162 0b18 05060000 		.4byte	.LASF53
 6163 0b1c 01       		.byte	0x1
 6164 0b1d B301     		.2byte	0x1b3
 6165 0b1f 88000000 		.4byte	0x88
 6166 0b23 00000000 		.4byte	.LFB39
 6167 0b27 0C000000 		.4byte	.LFE39-.LFB39
 6168 0b2b 01       		.uleb128 0x1
 6169 0b2c 9C       		.byte	0x9c
 6170 0b2d 540B0000 		.4byte	0xb54
 6171 0b31 0D       		.uleb128 0xd
 6172 0b32 57080000 		.4byte	.LASF15
 6173 0b36 01       		.byte	0x1
 6174 0b37 B301     		.2byte	0x1b3
 6175 0b39 88000000 		.4byte	0x88
 6176 0b3d 07050000 		.4byte	.LLST39
 6177 0b41 0E       		.uleb128 0xe
 6178 0b42 62756600 		.ascii	"buf\000"
 6179 0b46 01       		.byte	0x1
 6180 0b47 B901     		.2byte	0x1b9
 6181 0b49 540B0000 		.4byte	0xb54
 6182 0b4d 05       		.uleb128 0x5
 6183 0b4e 03       		.byte	0x3
 6184 0b4f C06E0000 		.4byte	buf.12097
 6185 0b53 00       		.byte	0
 6186 0b54 09       		.uleb128 0x9
 6187 0b55 76000000 		.4byte	0x76
 6188 0b59 640B0000 		.4byte	0xb64
 6189 0b5d 0A       		.uleb128 0xa
 6190 0b5e D8000000 		.4byte	0xd8
 6191 0b62 2F       		.byte	0x2f
 6192 0b63 00       		.byte	0
 6193 0b64 0C       		.uleb128 0xc
 6194 0b65 12060000 		.4byte	.LASF54
 6195 0b69 01       		.byte	0x1
 6196 0b6a BE01     		.2byte	0x1be
 6197 0b6c 88000000 		.4byte	0x88
 6198 0b70 00000000 		.4byte	.LFB40
 6199 0b74 0C000000 		.4byte	.LFE40-.LFB40
 6200 0b78 01       		.uleb128 0x1
ARM GAS  C:\Users\Abude\AppData\Local\Temp\ccndXIr0.s 			page 150


 6201 0b79 9C       		.byte	0x9c
 6202 0b7a A10B0000 		.4byte	0xba1
 6203 0b7e 0D       		.uleb128 0xd
 6204 0b7f 57080000 		.4byte	.LASF15
 6205 0b83 01       		.byte	0x1
 6206 0b84 BE01     		.2byte	0x1be
 6207 0b86 88000000 		.4byte	0x88
 6208 0b8a 28050000 		.4byte	.LLST40
 6209 0b8e 0E       		.uleb128 0xe
 6210 0b8f 62756600 		.ascii	"buf\000"
 6211 0b93 01       		.byte	0x1
 6212 0b94 C401     		.2byte	0x1c4
 6213 0b96 88050000 		.4byte	0x588
 6214 0b9a 05       		.uleb128 0x5
 6215 0b9b 03       		.byte	0x3
 6216 0b9c F06E0000 		.4byte	buf.12101
 6217 0ba0 00       		.byte	0
 6218 0ba1 0C       		.uleb128 0xc
 6219 0ba2 D8060000 		.4byte	.LASF55
 6220 0ba6 01       		.byte	0x1
 6221 0ba7 C901     		.2byte	0x1c9
 6222 0ba9 88000000 		.4byte	0x88
 6223 0bad 00000000 		.4byte	.LFB41
 6224 0bb1 0C000000 		.4byte	.LFE41-.LFB41
 6225 0bb5 01       		.uleb128 0x1
 6226 0bb6 9C       		.byte	0x9c
 6227 0bb7 DE0B0000 		.4byte	0xbde
 6228 0bbb 0D       		.uleb128 0xd
 6229 0bbc 57080000 		.4byte	.LASF15
 6230 0bc0 01       		.byte	0x1
 6231 0bc1 C901     		.2byte	0x1c9
 6232 0bc3 88000000 		.4byte	0x88
 6233 0bc7 49050000 		.4byte	.LLST41
 6234 0bcb 0E       		.uleb128 0xe
 6235 0bcc 62756600 		.ascii	"buf\000"
 6236 0bd0 01       		.byte	0x1
 6237 0bd1 CF01     		.2byte	0x1cf
 6238 0bd3 060B0000 		.4byte	0xb06
 6239 0bd7 05       		.uleb128 0x5
 6240 0bd8 03       		.byte	0x3
 6241 0bd9 506F0000 		.4byte	buf.12105
 6242 0bdd 00       		.byte	0
 6243 0bde 0C       		.uleb128 0xc
 6244 0bdf D4080000 		.4byte	.LASF56
 6245 0be3 01       		.byte	0x1
 6246 0be4 D401     		.2byte	0x1d4
 6247 0be6 88000000 		.4byte	0x88
 6248 0bea 00000000 		.4byte	.LFB42
 6249 0bee 0C000000 		.4byte	.LFE42-.LFB42
 6250 0bf2 01       		.uleb128 0x1
 6251 0bf3 9C       		.byte	0x9c
 6252 0bf4 1B0C0000 		.4byte	0xc1b
 6253 0bf8 0D       		.uleb128 0xd
 6254 0bf9 57080000 		.4byte	.LASF15
 6255 0bfd 01       		.byte	0x1
 6256 0bfe D401     		.2byte	0x1d4
 6257 0c00 88000000 		.4byte	0x88
ARM GAS  C:\Users\Abude\AppData\Local\Temp\ccndXIr0.s 			page 151


 6258 0c04 6A050000 		.4byte	.LLST42
 6259 0c08 0E       		.uleb128 0xe
 6260 0c09 62756600 		.ascii	"buf\000"
 6261 0c0d 01       		.byte	0x1
 6262 0c0e DA01     		.2byte	0x1da
 6263 0c10 88050000 		.4byte	0x588
 6264 0c14 05       		.uleb128 0x5
 6265 0c15 03       		.byte	0x3
 6266 0c16 D0700000 		.4byte	buf.12109
 6267 0c1a 00       		.byte	0
 6268 0c1b 0C       		.uleb128 0xc
 6269 0c1c E2080000 		.4byte	.LASF57
 6270 0c20 01       		.byte	0x1
 6271 0c21 DF01     		.2byte	0x1df
 6272 0c23 88000000 		.4byte	0x88
 6273 0c27 00000000 		.4byte	.LFB43
 6274 0c2b 0C000000 		.4byte	.LFE43-.LFB43
 6275 0c2f 01       		.uleb128 0x1
 6276 0c30 9C       		.byte	0x9c
 6277 0c31 580C0000 		.4byte	0xc58
 6278 0c35 0D       		.uleb128 0xd
 6279 0c36 57080000 		.4byte	.LASF15
 6280 0c3a 01       		.byte	0x1
 6281 0c3b DF01     		.2byte	0x1df
 6282 0c3d 88000000 		.4byte	0x88
 6283 0c41 8B050000 		.4byte	.LLST43
 6284 0c45 0E       		.uleb128 0xe
 6285 0c46 62756600 		.ascii	"buf\000"
 6286 0c4a 01       		.byte	0x1
 6287 0c4b E501     		.2byte	0x1e5
 6288 0c4d D2050000 		.4byte	0x5d2
 6289 0c51 05       		.uleb128 0x5
 6290 0c52 03       		.byte	0x3
 6291 0c53 30710000 		.4byte	buf.12113
 6292 0c57 00       		.byte	0
 6293 0c58 0C       		.uleb128 0xc
 6294 0c59 8F090000 		.4byte	.LASF58
 6295 0c5d 01       		.byte	0x1
 6296 0c5e EA01     		.2byte	0x1ea
 6297 0c60 88000000 		.4byte	0x88
 6298 0c64 00000000 		.4byte	.LFB44
 6299 0c68 0C000000 		.4byte	.LFE44-.LFB44
 6300 0c6c 01       		.uleb128 0x1
 6301 0c6d 9C       		.byte	0x9c
 6302 0c6e 950C0000 		.4byte	0xc95
 6303 0c72 0D       		.uleb128 0xd
 6304 0c73 57080000 		.4byte	.LASF15
 6305 0c77 01       		.byte	0x1
 6306 0c78 EA01     		.2byte	0x1ea
 6307 0c7a 88000000 		.4byte	0x88
 6308 0c7e AC050000 		.4byte	.LLST44
 6309 0c82 0E       		.uleb128 0xe
 6310 0c83 62756600 		.ascii	"buf\000"
 6311 0c87 01       		.byte	0x1
 6312 0c88 F001     		.2byte	0x1f0
 6313 0c8a D2050000 		.4byte	0x5d2
 6314 0c8e 05       		.uleb128 0x5
ARM GAS  C:\Users\Abude\AppData\Local\Temp\ccndXIr0.s 			page 152


 6315 0c8f 03       		.byte	0x3
 6316 0c90 F0710000 		.4byte	buf.12117
 6317 0c94 00       		.byte	0
 6318 0c95 0C       		.uleb128 0xc
 6319 0c96 00010000 		.4byte	.LASF59
 6320 0c9a 01       		.byte	0x1
 6321 0c9b F501     		.2byte	0x1f5
 6322 0c9d 88000000 		.4byte	0x88
 6323 0ca1 00000000 		.4byte	.LFB45
 6324 0ca5 0C000000 		.4byte	.LFE45-.LFB45
 6325 0ca9 01       		.uleb128 0x1
 6326 0caa 9C       		.byte	0x9c
 6327 0cab D20C0000 		.4byte	0xcd2
 6328 0caf 0D       		.uleb128 0xd
 6329 0cb0 57080000 		.4byte	.LASF15
 6330 0cb4 01       		.byte	0x1
 6331 0cb5 F501     		.2byte	0x1f5
 6332 0cb7 88000000 		.4byte	0x88
 6333 0cbb CD050000 		.4byte	.LLST45
 6334 0cbf 0E       		.uleb128 0xe
 6335 0cc0 62756600 		.ascii	"buf\000"
 6336 0cc4 01       		.byte	0x1
 6337 0cc5 FB01     		.2byte	0x1fb
 6338 0cc7 C8000000 		.4byte	0xc8
 6339 0ccb 05       		.uleb128 0x5
 6340 0ccc 03       		.byte	0x3
 6341 0ccd B0720000 		.4byte	buf.12121
 6342 0cd1 00       		.byte	0
 6343 0cd2 0C       		.uleb128 0xc
 6344 0cd3 0F010000 		.4byte	.LASF60
 6345 0cd7 01       		.byte	0x1
 6346 0cd8 0002     		.2byte	0x200
 6347 0cda 88000000 		.4byte	0x88
 6348 0cde 00000000 		.4byte	.LFB46
 6349 0ce2 0C000000 		.4byte	.LFE46-.LFB46
 6350 0ce6 01       		.uleb128 0x1
 6351 0ce7 9C       		.byte	0x9c
 6352 0ce8 0F0D0000 		.4byte	0xd0f
 6353 0cec 0D       		.uleb128 0xd
 6354 0ced 57080000 		.4byte	.LASF15
 6355 0cf1 01       		.byte	0x1
 6356 0cf2 0002     		.2byte	0x200
 6357 0cf4 88000000 		.4byte	0x88
 6358 0cf8 EE050000 		.4byte	.LLST46
 6359 0cfc 0E       		.uleb128 0xe
 6360 0cfd 62756600 		.ascii	"buf\000"
 6361 0d01 01       		.byte	0x1
 6362 0d02 0602     		.2byte	0x206
 6363 0d04 19010000 		.4byte	0x119
 6364 0d08 05       		.uleb128 0x5
 6365 0d09 03       		.byte	0x3
 6366 0d0a 30730000 		.4byte	buf.12125
 6367 0d0e 00       		.byte	0
 6368 0d0f 0C       		.uleb128 0xc
 6369 0d10 A0010000 		.4byte	.LASF61
 6370 0d14 01       		.byte	0x1
 6371 0d15 0B02     		.2byte	0x20b
ARM GAS  C:\Users\Abude\AppData\Local\Temp\ccndXIr0.s 			page 153


 6372 0d17 88000000 		.4byte	0x88
 6373 0d1b 00000000 		.4byte	.LFB47
 6374 0d1f 0C000000 		.4byte	.LFE47-.LFB47
 6375 0d23 01       		.uleb128 0x1
 6376 0d24 9C       		.byte	0x9c
 6377 0d25 4C0D0000 		.4byte	0xd4c
 6378 0d29 0D       		.uleb128 0xd
 6379 0d2a 57080000 		.4byte	.LASF15
 6380 0d2e 01       		.byte	0x1
 6381 0d2f 0B02     		.2byte	0x20b
 6382 0d31 88000000 		.4byte	0x88
 6383 0d35 0F060000 		.4byte	.LLST47
 6384 0d39 0E       		.uleb128 0xe
 6385 0d3a 62756600 		.ascii	"buf\000"
 6386 0d3e 01       		.byte	0x1
 6387 0d3f 1102     		.2byte	0x211
 6388 0d41 4C0D0000 		.4byte	0xd4c
 6389 0d45 05       		.uleb128 0x5
 6390 0d46 03       		.byte	0x3
 6391 0d47 30740000 		.4byte	buf.12129
 6392 0d4b 00       		.byte	0
 6393 0d4c 09       		.uleb128 0x9
 6394 0d4d 76000000 		.4byte	0x76
 6395 0d51 5D0D0000 		.4byte	0xd5d
 6396 0d55 0B       		.uleb128 0xb
 6397 0d56 D8000000 		.4byte	0xd8
 6398 0d5a FF05     		.2byte	0x5ff
 6399 0d5c 00       		.byte	0
 6400 0d5d 0C       		.uleb128 0xc
 6401 0d5e BC090000 		.4byte	.LASF62
 6402 0d62 01       		.byte	0x1
 6403 0d63 1602     		.2byte	0x216
 6404 0d65 88000000 		.4byte	0x88
 6405 0d69 00000000 		.4byte	.LFB48
 6406 0d6d 0C000000 		.4byte	.LFE48-.LFB48
 6407 0d71 01       		.uleb128 0x1
 6408 0d72 9C       		.byte	0x9c
 6409 0d73 9A0D0000 		.4byte	0xd9a
 6410 0d77 0D       		.uleb128 0xd
 6411 0d78 57080000 		.4byte	.LASF15
 6412 0d7c 01       		.byte	0x1
 6413 0d7d 1602     		.2byte	0x216
 6414 0d7f 88000000 		.4byte	0x88
 6415 0d83 30060000 		.4byte	.LLST48
 6416 0d87 0E       		.uleb128 0xe
 6417 0d88 62756600 		.ascii	"buf\000"
 6418 0d8c 01       		.byte	0x1
 6419 0d8d 1C02     		.2byte	0x21c
 6420 0d8f 19010000 		.4byte	0x119
 6421 0d93 05       		.uleb128 0x5
 6422 0d94 03       		.byte	0x3
 6423 0d95 307A0000 		.4byte	buf.12133
 6424 0d99 00       		.byte	0
 6425 0d9a 0C       		.uleb128 0xc
 6426 0d9b CA090000 		.4byte	.LASF63
 6427 0d9f 01       		.byte	0x1
 6428 0da0 2102     		.2byte	0x221
ARM GAS  C:\Users\Abude\AppData\Local\Temp\ccndXIr0.s 			page 154


 6429 0da2 88000000 		.4byte	0x88
 6430 0da6 00000000 		.4byte	.LFB49
 6431 0daa 0C000000 		.4byte	.LFE49-.LFB49
 6432 0dae 01       		.uleb128 0x1
 6433 0daf 9C       		.byte	0x9c
 6434 0db0 D70D0000 		.4byte	0xdd7
 6435 0db4 0D       		.uleb128 0xd
 6436 0db5 57080000 		.4byte	.LASF15
 6437 0db9 01       		.byte	0x1
 6438 0dba 2102     		.2byte	0x221
 6439 0dbc 88000000 		.4byte	0x88
 6440 0dc0 51060000 		.4byte	.LLST49
 6441 0dc4 0E       		.uleb128 0xe
 6442 0dc5 62756600 		.ascii	"buf\000"
 6443 0dc9 01       		.byte	0x1
 6444 0dca 2702     		.2byte	0x227
 6445 0dcc 63010000 		.4byte	0x163
 6446 0dd0 05       		.uleb128 0x5
 6447 0dd1 03       		.byte	0x3
 6448 0dd2 307B0000 		.4byte	buf.12137
 6449 0dd6 00       		.byte	0
 6450 0dd7 0C       		.uleb128 0xc
 6451 0dd8 210A0000 		.4byte	.LASF64
 6452 0ddc 01       		.byte	0x1
 6453 0ddd 2C02     		.2byte	0x22c
 6454 0ddf 88000000 		.4byte	0x88
 6455 0de3 00000000 		.4byte	.LFB50
 6456 0de7 0C000000 		.4byte	.LFE50-.LFB50
 6457 0deb 01       		.uleb128 0x1
 6458 0dec 9C       		.byte	0x9c
 6459 0ded 140E0000 		.4byte	0xe14
 6460 0df1 0D       		.uleb128 0xd
 6461 0df2 57080000 		.4byte	.LASF15
 6462 0df6 01       		.byte	0x1
 6463 0df7 2C02     		.2byte	0x22c
 6464 0df9 88000000 		.4byte	0x88
 6465 0dfd 72060000 		.4byte	.LLST50
 6466 0e01 0E       		.uleb128 0xe
 6467 0e02 62756600 		.ascii	"buf\000"
 6468 0e06 01       		.byte	0x1
 6469 0e07 3202     		.2byte	0x232
 6470 0e09 22020000 		.4byte	0x222
 6471 0e0d 05       		.uleb128 0x5
 6472 0e0e 03       		.byte	0x3
 6473 0e0f 307D0000 		.4byte	buf.12141
 6474 0e13 00       		.byte	0
 6475 0e14 0C       		.uleb128 0xc
 6476 0e15 F5010000 		.4byte	.LASF65
 6477 0e19 01       		.byte	0x1
 6478 0e1a 3702     		.2byte	0x237
 6479 0e1c 88000000 		.4byte	0x88
 6480 0e20 00000000 		.4byte	.LFB51
 6481 0e24 0C000000 		.4byte	.LFE51-.LFB51
 6482 0e28 01       		.uleb128 0x1
 6483 0e29 9C       		.byte	0x9c
 6484 0e2a 510E0000 		.4byte	0xe51
 6485 0e2e 0D       		.uleb128 0xd
ARM GAS  C:\Users\Abude\AppData\Local\Temp\ccndXIr0.s 			page 155


 6486 0e2f 57080000 		.4byte	.LASF15
 6487 0e33 01       		.byte	0x1
 6488 0e34 3702     		.2byte	0x237
 6489 0e36 88000000 		.4byte	0x88
 6490 0e3a 93060000 		.4byte	.LLST51
 6491 0e3e 0E       		.uleb128 0xe
 6492 0e3f 62756600 		.ascii	"buf\000"
 6493 0e43 01       		.byte	0x1
 6494 0e44 3D02     		.2byte	0x23d
 6495 0e46 88050000 		.4byte	0x588
 6496 0e4a 05       		.uleb128 0x5
 6497 0e4b 03       		.byte	0x3
 6498 0e4c 30810000 		.4byte	buf.12145
 6499 0e50 00       		.byte	0
 6500 0e51 0C       		.uleb128 0xc
 6501 0e52 03020000 		.4byte	.LASF66
 6502 0e56 01       		.byte	0x1
 6503 0e57 4202     		.2byte	0x242
 6504 0e59 88000000 		.4byte	0x88
 6505 0e5d 00000000 		.4byte	.LFB52
 6506 0e61 0C000000 		.4byte	.LFE52-.LFB52
 6507 0e65 01       		.uleb128 0x1
 6508 0e66 9C       		.byte	0x9c
 6509 0e67 8E0E0000 		.4byte	0xe8e
 6510 0e6b 0D       		.uleb128 0xd
 6511 0e6c 57080000 		.4byte	.LASF15
 6512 0e70 01       		.byte	0x1
 6513 0e71 4202     		.2byte	0x242
 6514 0e73 88000000 		.4byte	0x88
 6515 0e77 B4060000 		.4byte	.LLST52
 6516 0e7b 0E       		.uleb128 0xe
 6517 0e7c 62756600 		.ascii	"buf\000"
 6518 0e80 01       		.byte	0x1
 6519 0e81 4802     		.2byte	0x248
 6520 0e83 D2050000 		.4byte	0x5d2
 6521 0e87 05       		.uleb128 0x5
 6522 0e88 03       		.byte	0x3
 6523 0e89 90810000 		.4byte	buf.12149
 6524 0e8d 00       		.byte	0
 6525 0e8e 0C       		.uleb128 0xc
 6526 0e8f 9A020000 		.4byte	.LASF67
 6527 0e93 01       		.byte	0x1
 6528 0e94 4D02     		.2byte	0x24d
 6529 0e96 88000000 		.4byte	0x88
 6530 0e9a 00000000 		.4byte	.LFB53
 6531 0e9e 0C000000 		.4byte	.LFE53-.LFB53
 6532 0ea2 01       		.uleb128 0x1
 6533 0ea3 9C       		.byte	0x9c
 6534 0ea4 CB0E0000 		.4byte	0xecb
 6535 0ea8 0D       		.uleb128 0xd
 6536 0ea9 57080000 		.4byte	.LASF15
 6537 0ead 01       		.byte	0x1
 6538 0eae 4D02     		.2byte	0x24d
 6539 0eb0 88000000 		.4byte	0x88
 6540 0eb4 D5060000 		.4byte	.LLST53
 6541 0eb8 0E       		.uleb128 0xe
 6542 0eb9 62756600 		.ascii	"buf\000"
ARM GAS  C:\Users\Abude\AppData\Local\Temp\ccndXIr0.s 			page 156


 6543 0ebd 01       		.byte	0x1
 6544 0ebe 5302     		.2byte	0x253
 6545 0ec0 CB0E0000 		.4byte	0xecb
 6546 0ec4 05       		.uleb128 0x5
 6547 0ec5 03       		.byte	0x3
 6548 0ec6 50820000 		.4byte	buf.12153
 6549 0eca 00       		.byte	0
 6550 0ecb 09       		.uleb128 0x9
 6551 0ecc 76000000 		.4byte	0x76
 6552 0ed0 DC0E0000 		.4byte	0xedc
 6553 0ed4 0B       		.uleb128 0xb
 6554 0ed5 D8000000 		.4byte	0xd8
 6555 0ed9 FF02     		.2byte	0x2ff
 6556 0edb 00       		.byte	0
 6557 0edc 0C       		.uleb128 0xc
 6558 0edd 1F060000 		.4byte	.LASF68
 6559 0ee1 01       		.byte	0x1
 6560 0ee2 5802     		.2byte	0x258
 6561 0ee4 88000000 		.4byte	0x88
 6562 0ee8 00000000 		.4byte	.LFB54
 6563 0eec 0C000000 		.4byte	.LFE54-.LFB54
 6564 0ef0 01       		.uleb128 0x1
 6565 0ef1 9C       		.byte	0x9c
 6566 0ef2 190F0000 		.4byte	0xf19
 6567 0ef6 0D       		.uleb128 0xd
 6568 0ef7 57080000 		.4byte	.LASF15
 6569 0efb 01       		.byte	0x1
 6570 0efc 5802     		.2byte	0x258
 6571 0efe 88000000 		.4byte	0x88
 6572 0f02 F6060000 		.4byte	.LLST54
 6573 0f06 0E       		.uleb128 0xe
 6574 0f07 62756600 		.ascii	"buf\000"
 6575 0f0b 01       		.byte	0x1
 6576 0f0c 5E02     		.2byte	0x25e
 6577 0f0e D2050000 		.4byte	0x5d2
 6578 0f12 05       		.uleb128 0x5
 6579 0f13 03       		.byte	0x3
 6580 0f14 50850000 		.4byte	buf.12157
 6581 0f18 00       		.byte	0
 6582 0f19 0C       		.uleb128 0xc
 6583 0f1a 2D060000 		.4byte	.LASF69
 6584 0f1e 01       		.byte	0x1
 6585 0f1f 6302     		.2byte	0x263
 6586 0f21 88000000 		.4byte	0x88
 6587 0f25 00000000 		.4byte	.LFB55
 6588 0f29 0C000000 		.4byte	.LFE55-.LFB55
 6589 0f2d 01       		.uleb128 0x1
 6590 0f2e 9C       		.byte	0x9c
 6591 0f2f 560F0000 		.4byte	0xf56
 6592 0f33 0D       		.uleb128 0xd
 6593 0f34 57080000 		.4byte	.LASF15
 6594 0f38 01       		.byte	0x1
 6595 0f39 6302     		.2byte	0x263
 6596 0f3b 88000000 		.4byte	0x88
 6597 0f3f 17070000 		.4byte	.LLST55
 6598 0f43 0E       		.uleb128 0xe
 6599 0f44 62756600 		.ascii	"buf\000"
ARM GAS  C:\Users\Abude\AppData\Local\Temp\ccndXIr0.s 			page 157


 6600 0f48 01       		.byte	0x1
 6601 0f49 6902     		.2byte	0x269
 6602 0f4b 060B0000 		.4byte	0xb06
 6603 0f4f 05       		.uleb128 0x5
 6604 0f50 03       		.byte	0x3
 6605 0f51 10860000 		.4byte	buf.12161
 6606 0f55 00       		.byte	0
 6607 0f56 0C       		.uleb128 0xc
 6608 0f57 E5060000 		.4byte	.LASF70
 6609 0f5b 01       		.byte	0x1
 6610 0f5c 6E02     		.2byte	0x26e
 6611 0f5e 88000000 		.4byte	0x88
 6612 0f62 00000000 		.4byte	.LFB56
 6613 0f66 0C000000 		.4byte	.LFE56-.LFB56
 6614 0f6a 01       		.uleb128 0x1
 6615 0f6b 9C       		.byte	0x9c
 6616 0f6c 930F0000 		.4byte	0xf93
 6617 0f70 0D       		.uleb128 0xd
 6618 0f71 57080000 		.4byte	.LASF15
 6619 0f75 01       		.byte	0x1
 6620 0f76 6E02     		.2byte	0x26e
 6621 0f78 88000000 		.4byte	0x88
 6622 0f7c 38070000 		.4byte	.LLST56
 6623 0f80 0E       		.uleb128 0xe
 6624 0f81 62756600 		.ascii	"buf\000"
 6625 0f85 01       		.byte	0x1
 6626 0f86 7402     		.2byte	0x274
 6627 0f88 CB0E0000 		.4byte	0xecb
 6628 0f8c 05       		.uleb128 0x5
 6629 0f8d 03       		.byte	0x3
 6630 0f8e 90870000 		.4byte	buf.12165
 6631 0f92 00       		.byte	0
 6632 0f93 0C       		.uleb128 0xc
 6633 0f94 E2000000 		.4byte	.LASF71
 6634 0f98 01       		.byte	0x1
 6635 0f99 7902     		.2byte	0x279
 6636 0f9b 88000000 		.4byte	0x88
 6637 0f9f 00000000 		.4byte	.LFB57
 6638 0fa3 0C000000 		.4byte	.LFE57-.LFB57
 6639 0fa7 01       		.uleb128 0x1
 6640 0fa8 9C       		.byte	0x9c
 6641 0fa9 D00F0000 		.4byte	0xfd0
 6642 0fad 0D       		.uleb128 0xd
 6643 0fae 57080000 		.4byte	.LASF15
 6644 0fb2 01       		.byte	0x1
 6645 0fb3 7902     		.2byte	0x279
 6646 0fb5 88000000 		.4byte	0x88
 6647 0fb9 59070000 		.4byte	.LLST57
 6648 0fbd 0E       		.uleb128 0xe
 6649 0fbe 62756600 		.ascii	"buf\000"
 6650 0fc2 01       		.byte	0x1
 6651 0fc3 7F02     		.2byte	0x27f
 6652 0fc5 D00F0000 		.4byte	0xfd0
 6653 0fc9 05       		.uleb128 0x5
 6654 0fca 03       		.byte	0x3
 6655 0fcb 908A0000 		.4byte	buf.12169
 6656 0fcf 00       		.byte	0
ARM GAS  C:\Users\Abude\AppData\Local\Temp\ccndXIr0.s 			page 158


 6657 0fd0 09       		.uleb128 0x9
 6658 0fd1 76000000 		.4byte	0x76
 6659 0fd5 E10F0000 		.4byte	0xfe1
 6660 0fd9 0B       		.uleb128 0xb
 6661 0fda D8000000 		.4byte	0xd8
 6662 0fde 8F01     		.2byte	0x18f
 6663 0fe0 00       		.byte	0
 6664 0fe1 0C       		.uleb128 0xc
 6665 0fe2 F1000000 		.4byte	.LASF72
 6666 0fe6 01       		.byte	0x1
 6667 0fe7 8402     		.2byte	0x284
 6668 0fe9 88000000 		.4byte	0x88
 6669 0fed 00000000 		.4byte	.LFB58
 6670 0ff1 0C000000 		.4byte	.LFE58-.LFB58
 6671 0ff5 01       		.uleb128 0x1
 6672 0ff6 9C       		.byte	0x9c
 6673 0ff7 1E100000 		.4byte	0x101e
 6674 0ffb 0D       		.uleb128 0xd
 6675 0ffc 57080000 		.4byte	.LASF15
 6676 1000 01       		.byte	0x1
 6677 1001 8402     		.2byte	0x284
 6678 1003 88000000 		.4byte	0x88
 6679 1007 7A070000 		.4byte	.LLST58
 6680 100b 0E       		.uleb128 0xe
 6681 100c 62756600 		.ascii	"buf\000"
 6682 1010 01       		.byte	0x1
 6683 1011 8A02     		.2byte	0x28a
 6684 1013 1E100000 		.4byte	0x101e
 6685 1017 05       		.uleb128 0x5
 6686 1018 03       		.byte	0x3
 6687 1019 208C0000 		.4byte	buf.12173
 6688 101d 00       		.byte	0
 6689 101e 09       		.uleb128 0x9
 6690 101f 76000000 		.4byte	0x76
 6691 1023 2F100000 		.4byte	0x102f
 6692 1027 0B       		.uleb128 0xb
 6693 1028 D8000000 		.4byte	0xd8
 6694 102c 1F03     		.2byte	0x31f
 6695 102e 00       		.byte	0
 6696 102f 0C       		.uleb128 0xc
 6697 1030 91010000 		.4byte	.LASF73
 6698 1034 01       		.byte	0x1
 6699 1035 8F02     		.2byte	0x28f
 6700 1037 88000000 		.4byte	0x88
 6701 103b 00000000 		.4byte	.LFB59
 6702 103f 0C000000 		.4byte	.LFE59-.LFB59
 6703 1043 01       		.uleb128 0x1
 6704 1044 9C       		.byte	0x9c
 6705 1045 6C100000 		.4byte	0x106c
 6706 1049 0D       		.uleb128 0xd
 6707 104a 57080000 		.4byte	.LASF15
 6708 104e 01       		.byte	0x1
 6709 104f 8F02     		.2byte	0x28f
 6710 1051 88000000 		.4byte	0x88
 6711 1055 9B070000 		.4byte	.LLST59
 6712 1059 0E       		.uleb128 0xe
 6713 105a 62756600 		.ascii	"buf\000"
ARM GAS  C:\Users\Abude\AppData\Local\Temp\ccndXIr0.s 			page 159


 6714 105e 01       		.byte	0x1
 6715 105f 9502     		.2byte	0x295
 6716 1061 6C100000 		.4byte	0x106c
 6717 1065 05       		.uleb128 0x5
 6718 1066 03       		.byte	0x3
 6719 1067 408F0000 		.4byte	buf.12177
 6720 106b 00       		.byte	0
 6721 106c 09       		.uleb128 0x9
 6722 106d 76000000 		.4byte	0x76
 6723 1071 7D100000 		.4byte	0x107d
 6724 1075 0B       		.uleb128 0xb
 6725 1076 D8000000 		.4byte	0xd8
 6726 107a DF2E     		.2byte	0x2edf
 6727 107c 00       		.byte	0
 6728 107d 0C       		.uleb128 0xc
 6729 107e 57060000 		.4byte	.LASF74
 6730 1082 01       		.byte	0x1
 6731 1083 9A02     		.2byte	0x29a
 6732 1085 88000000 		.4byte	0x88
 6733 1089 00000000 		.4byte	.LFB60
 6734 108d 0C000000 		.4byte	.LFE60-.LFB60
 6735 1091 01       		.uleb128 0x1
 6736 1092 9C       		.byte	0x9c
 6737 1093 BA100000 		.4byte	0x10ba
 6738 1097 0D       		.uleb128 0xd
 6739 1098 57080000 		.4byte	.LASF15
 6740 109c 01       		.byte	0x1
 6741 109d 9A02     		.2byte	0x29a
 6742 109f 88000000 		.4byte	0x88
 6743 10a3 BC070000 		.4byte	.LLST60
 6744 10a7 0E       		.uleb128 0xe
 6745 10a8 62756600 		.ascii	"buf\000"
 6746 10ac 01       		.byte	0x1
 6747 10ad A002     		.2byte	0x2a0
 6748 10af 87030000 		.4byte	0x387
 6749 10b3 05       		.uleb128 0x5
 6750 10b4 03       		.byte	0x3
 6751 10b5 20BE0000 		.4byte	buf.12181
 6752 10b9 00       		.byte	0
 6753 10ba 0C       		.uleb128 0xc
 6754 10bb 66060000 		.4byte	.LASF75
 6755 10bf 01       		.byte	0x1
 6756 10c0 A502     		.2byte	0x2a5
 6757 10c2 88000000 		.4byte	0x88
 6758 10c6 00000000 		.4byte	.LFB61
 6759 10ca 0C000000 		.4byte	.LFE61-.LFB61
 6760 10ce 01       		.uleb128 0x1
 6761 10cf 9C       		.byte	0x9c
 6762 10d0 F7100000 		.4byte	0x10f7
 6763 10d4 0D       		.uleb128 0xd
 6764 10d5 57080000 		.4byte	.LASF15
 6765 10d9 01       		.byte	0x1
 6766 10da A502     		.2byte	0x2a5
 6767 10dc 88000000 		.4byte	0x88
 6768 10e0 DD070000 		.4byte	.LLST61
 6769 10e4 0E       		.uleb128 0xe
 6770 10e5 62756600 		.ascii	"buf\000"
ARM GAS  C:\Users\Abude\AppData\Local\Temp\ccndXIr0.s 			page 160


 6771 10e9 01       		.byte	0x1
 6772 10ea AB02     		.2byte	0x2ab
 6773 10ec F7100000 		.4byte	0x10f7
 6774 10f0 05       		.uleb128 0x5
 6775 10f1 03       		.byte	0x3
 6776 10f2 B0BE0000 		.4byte	buf.12185
 6777 10f6 00       		.byte	0
 6778 10f7 09       		.uleb128 0x9
 6779 10f8 76000000 		.4byte	0x76
 6780 10fc 08110000 		.4byte	0x1108
 6781 1100 0B       		.uleb128 0xb
 6782 1101 D8000000 		.4byte	0xd8
 6783 1105 1F01     		.2byte	0x11f
 6784 1107 00       		.byte	0
 6785 1108 0C       		.uleb128 0xc
 6786 1109 F3060000 		.4byte	.LASF76
 6787 110d 01       		.byte	0x1
 6788 110e B002     		.2byte	0x2b0
 6789 1110 88000000 		.4byte	0x88
 6790 1114 00000000 		.4byte	.LFB62
 6791 1118 0C000000 		.4byte	.LFE62-.LFB62
 6792 111c 01       		.uleb128 0x1
 6793 111d 9C       		.byte	0x9c
 6794 111e 45110000 		.4byte	0x1145
 6795 1122 0D       		.uleb128 0xd
 6796 1123 57080000 		.4byte	.LASF15
 6797 1127 01       		.byte	0x1
 6798 1128 B002     		.2byte	0x2b0
 6799 112a 88000000 		.4byte	0x88
 6800 112e FE070000 		.4byte	.LLST62
 6801 1132 0E       		.uleb128 0xe
 6802 1133 62756600 		.ascii	"buf\000"
 6803 1137 01       		.byte	0x1
 6804 1138 B602     		.2byte	0x2b6
 6805 113a 45110000 		.4byte	0x1145
 6806 113e 05       		.uleb128 0x5
 6807 113f 03       		.byte	0x3
 6808 1140 D0BF0000 		.4byte	buf.12189
 6809 1144 00       		.byte	0
 6810 1145 09       		.uleb128 0x9
 6811 1146 76000000 		.4byte	0x76
 6812 114a 56110000 		.4byte	0x1156
 6813 114e 0B       		.uleb128 0xb
 6814 114f D8000000 		.4byte	0xd8
 6815 1153 CF0B     		.2byte	0xbcf
 6816 1155 00       		.byte	0
 6817 1156 0C       		.uleb128 0xc
 6818 1157 2C080000 		.4byte	.LASF77
 6819 115b 01       		.byte	0x1
 6820 115c BB02     		.2byte	0x2bb
 6821 115e 88000000 		.4byte	0x88
 6822 1162 00000000 		.4byte	.LFB63
 6823 1166 0C000000 		.4byte	.LFE63-.LFB63
 6824 116a 01       		.uleb128 0x1
 6825 116b 9C       		.byte	0x9c
 6826 116c 93110000 		.4byte	0x1193
 6827 1170 0D       		.uleb128 0xd
ARM GAS  C:\Users\Abude\AppData\Local\Temp\ccndXIr0.s 			page 161


 6828 1171 57080000 		.4byte	.LASF15
 6829 1175 01       		.byte	0x1
 6830 1176 BB02     		.2byte	0x2bb
 6831 1178 88000000 		.4byte	0x88
 6832 117c 1F080000 		.4byte	.LLST63
 6833 1180 0E       		.uleb128 0xe
 6834 1181 62756600 		.ascii	"buf\000"
 6835 1185 01       		.byte	0x1
 6836 1186 C102     		.2byte	0x2c1
 6837 1188 93110000 		.4byte	0x1193
 6838 118c 05       		.uleb128 0x5
 6839 118d 03       		.byte	0x3
 6840 118e A0CB0000 		.4byte	buf.12193
 6841 1192 00       		.byte	0
 6842 1193 09       		.uleb128 0x9
 6843 1194 76000000 		.4byte	0x76
 6844 1198 A3110000 		.4byte	0x11a3
 6845 119c 0A       		.uleb128 0xa
 6846 119d D8000000 		.4byte	0xd8
 6847 11a1 57       		.byte	0x57
 6848 11a2 00       		.byte	0
 6849 11a3 0C       		.uleb128 0xc
 6850 11a4 3A080000 		.4byte	.LASF78
 6851 11a8 01       		.byte	0x1
 6852 11a9 C602     		.2byte	0x2c6
 6853 11ab 88000000 		.4byte	0x88
 6854 11af 00000000 		.4byte	.LFB64
 6855 11b3 0C000000 		.4byte	.LFE64-.LFB64
 6856 11b7 01       		.uleb128 0x1
 6857 11b8 9C       		.byte	0x9c
 6858 11b9 E0110000 		.4byte	0x11e0
 6859 11bd 0D       		.uleb128 0xd
 6860 11be 57080000 		.4byte	.LASF15
 6861 11c2 01       		.byte	0x1
 6862 11c3 C602     		.2byte	0x2c6
 6863 11c5 88000000 		.4byte	0x88
 6864 11c9 40080000 		.4byte	.LLST64
 6865 11cd 0E       		.uleb128 0xe
 6866 11ce 62756600 		.ascii	"buf\000"
 6867 11d2 01       		.byte	0x1
 6868 11d3 CC02     		.2byte	0x2cc
 6869 11d5 E0110000 		.4byte	0x11e0
 6870 11d9 05       		.uleb128 0x5
 6871 11da 03       		.byte	0x3
 6872 11db F8CB0000 		.4byte	buf.12197
 6873 11df 00       		.byte	0
 6874 11e0 09       		.uleb128 0x9
 6875 11e1 76000000 		.4byte	0x76
 6876 11e5 F0110000 		.4byte	0x11f0
 6877 11e9 0A       		.uleb128 0xa
 6878 11ea D8000000 		.4byte	0xd8
 6879 11ee AF       		.byte	0xaf
 6880 11ef 00       		.byte	0
 6881 11f0 0C       		.uleb128 0xc
 6882 11f1 A8080000 		.4byte	.LASF79
 6883 11f5 01       		.byte	0x1
 6884 11f6 D102     		.2byte	0x2d1
ARM GAS  C:\Users\Abude\AppData\Local\Temp\ccndXIr0.s 			page 162


 6885 11f8 88000000 		.4byte	0x88
 6886 11fc 00000000 		.4byte	.LFB65
 6887 1200 0C000000 		.4byte	.LFE65-.LFB65
 6888 1204 01       		.uleb128 0x1
 6889 1205 9C       		.byte	0x9c
 6890 1206 2D120000 		.4byte	0x122d
 6891 120a 0D       		.uleb128 0xd
 6892 120b 57080000 		.4byte	.LASF15
 6893 120f 01       		.byte	0x1
 6894 1210 D102     		.2byte	0x2d1
 6895 1212 88000000 		.4byte	0x88
 6896 1216 61080000 		.4byte	.LLST65
 6897 121a 0E       		.uleb128 0xe
 6898 121b 62756600 		.ascii	"buf\000"
 6899 121f 01       		.byte	0x1
 6900 1220 D702     		.2byte	0x2d7
 6901 1222 2D120000 		.4byte	0x122d
 6902 1226 05       		.uleb128 0x5
 6903 1227 03       		.byte	0x3
 6904 1228 A8CC0000 		.4byte	buf.12201
 6905 122c 00       		.byte	0
 6906 122d 09       		.uleb128 0x9
 6907 122e 76000000 		.4byte	0x76
 6908 1232 3E120000 		.4byte	0x123e
 6909 1236 0B       		.uleb128 0xb
 6910 1237 D8000000 		.4byte	0xd8
 6911 123b 0F02     		.2byte	0x20f
 6912 123d 00       		.byte	0
 6913 123e 0C       		.uleb128 0xc
 6914 123f AD060000 		.4byte	.LASF80
 6915 1243 01       		.byte	0x1
 6916 1244 DC02     		.2byte	0x2dc
 6917 1246 88000000 		.4byte	0x88
 6918 124a 00000000 		.4byte	.LFB66
 6919 124e 0C000000 		.4byte	.LFE66-.LFB66
 6920 1252 01       		.uleb128 0x1
 6921 1253 9C       		.byte	0x9c
 6922 1254 7B120000 		.4byte	0x127b
 6923 1258 0D       		.uleb128 0xd
 6924 1259 57080000 		.4byte	.LASF15
 6925 125d 01       		.byte	0x1
 6926 125e DC02     		.2byte	0x2dc
 6927 1260 88000000 		.4byte	0x88
 6928 1264 82080000 		.4byte	.LLST66
 6929 1268 0E       		.uleb128 0xe
 6930 1269 62756600 		.ascii	"buf\000"
 6931 126d 01       		.byte	0x1
 6932 126e E202     		.2byte	0x2e2
 6933 1270 88050000 		.4byte	0x588
 6934 1274 05       		.uleb128 0x5
 6935 1275 03       		.byte	0x3
 6936 1276 B8CE0000 		.4byte	buf.12205
 6937 127a 00       		.byte	0
 6938 127b 0C       		.uleb128 0xc
 6939 127c BB060000 		.4byte	.LASF81
 6940 1280 01       		.byte	0x1
 6941 1281 E702     		.2byte	0x2e7
ARM GAS  C:\Users\Abude\AppData\Local\Temp\ccndXIr0.s 			page 163


 6942 1283 88000000 		.4byte	0x88
 6943 1287 00000000 		.4byte	.LFB67
 6944 128b 0C000000 		.4byte	.LFE67-.LFB67
 6945 128f 01       		.uleb128 0x1
 6946 1290 9C       		.byte	0x9c
 6947 1291 B8120000 		.4byte	0x12b8
 6948 1295 0D       		.uleb128 0xd
 6949 1296 57080000 		.4byte	.LASF15
 6950 129a 01       		.byte	0x1
 6951 129b E702     		.2byte	0x2e7
 6952 129d 88000000 		.4byte	0x88
 6953 12a1 A3080000 		.4byte	.LLST67
 6954 12a5 0E       		.uleb128 0xe
 6955 12a6 62756600 		.ascii	"buf\000"
 6956 12aa 01       		.byte	0x1
 6957 12ab ED02     		.2byte	0x2ed
 6958 12ad D2050000 		.4byte	0x5d2
 6959 12b1 05       		.uleb128 0x5
 6960 12b2 03       		.byte	0x3
 6961 12b3 18CF0000 		.4byte	buf.12209
 6962 12b7 00       		.byte	0
 6963 12b8 0C       		.uleb128 0xc
 6964 12b9 39090000 		.4byte	.LASF82
 6965 12bd 01       		.byte	0x1
 6966 12be F202     		.2byte	0x2f2
 6967 12c0 88000000 		.4byte	0x88
 6968 12c4 00000000 		.4byte	.LFB68
 6969 12c8 0C000000 		.4byte	.LFE68-.LFB68
 6970 12cc 01       		.uleb128 0x1
 6971 12cd 9C       		.byte	0x9c
 6972 12ce F5120000 		.4byte	0x12f5
 6973 12d2 0D       		.uleb128 0xd
 6974 12d3 57080000 		.4byte	.LASF15
 6975 12d7 01       		.byte	0x1
 6976 12d8 F202     		.2byte	0x2f2
 6977 12da 88000000 		.4byte	0x88
 6978 12de C4080000 		.4byte	.LLST68
 6979 12e2 0E       		.uleb128 0xe
 6980 12e3 62756600 		.ascii	"buf\000"
 6981 12e7 01       		.byte	0x1
 6982 12e8 F802     		.2byte	0x2f8
 6983 12ea F5120000 		.4byte	0x12f5
 6984 12ee 05       		.uleb128 0x5
 6985 12ef 03       		.byte	0x3
 6986 12f0 D8CF0000 		.4byte	buf.12213
 6987 12f4 00       		.byte	0
 6988 12f5 09       		.uleb128 0x9
 6989 12f6 76000000 		.4byte	0x76
 6990 12fa 06130000 		.4byte	0x1306
 6991 12fe 0B       		.uleb128 0xb
 6992 12ff D8000000 		.4byte	0xd8
 6993 1303 5F03     		.2byte	0x35f
 6994 1305 00       		.byte	0
 6995 1306 0C       		.uleb128 0xc
 6996 1307 3A010000 		.4byte	.LASF83
 6997 130b 01       		.byte	0x1
 6998 130c FD02     		.2byte	0x2fd
ARM GAS  C:\Users\Abude\AppData\Local\Temp\ccndXIr0.s 			page 164


 6999 130e 88000000 		.4byte	0x88
 7000 1312 00000000 		.4byte	.LFB69
 7001 1316 0C000000 		.4byte	.LFE69-.LFB69
 7002 131a 01       		.uleb128 0x1
 7003 131b 9C       		.byte	0x9c
 7004 131c 43130000 		.4byte	0x1343
 7005 1320 0D       		.uleb128 0xd
 7006 1321 57080000 		.4byte	.LASF15
 7007 1325 01       		.byte	0x1
 7008 1326 FD02     		.2byte	0x2fd
 7009 1328 88000000 		.4byte	0x88
 7010 132c E5080000 		.4byte	.LLST69
 7011 1330 0E       		.uleb128 0xe
 7012 1331 62756600 		.ascii	"buf\000"
 7013 1335 01       		.byte	0x1
 7014 1336 0303     		.2byte	0x303
 7015 1338 D2050000 		.4byte	0x5d2
 7016 133c 05       		.uleb128 0x5
 7017 133d 03       		.byte	0x3
 7018 133e 38D30000 		.4byte	buf.12217
 7019 1342 00       		.byte	0
 7020 1343 0C       		.uleb128 0xc
 7021 1344 48010000 		.4byte	.LASF84
 7022 1348 01       		.byte	0x1
 7023 1349 0803     		.2byte	0x308
 7024 134b 88000000 		.4byte	0x88
 7025 134f 00000000 		.4byte	.LFB70
 7026 1353 0C000000 		.4byte	.LFE70-.LFB70
 7027 1357 01       		.uleb128 0x1
 7028 1358 9C       		.byte	0x9c
 7029 1359 80130000 		.4byte	0x1380
 7030 135d 0D       		.uleb128 0xd
 7031 135e 57080000 		.4byte	.LASF15
 7032 1362 01       		.byte	0x1
 7033 1363 0803     		.2byte	0x308
 7034 1365 88000000 		.4byte	0x88
 7035 1369 06090000 		.4byte	.LLST70
 7036 136d 0E       		.uleb128 0xe
 7037 136e 62756600 		.ascii	"buf\000"
 7038 1372 01       		.byte	0x1
 7039 1373 0E03     		.2byte	0x30e
 7040 1375 060B0000 		.4byte	0xb06
 7041 1379 05       		.uleb128 0x5
 7042 137a 03       		.byte	0x3
 7043 137b F8D30000 		.4byte	buf.12221
 7044 137f 00       		.byte	0
 7045 1380 0C       		.uleb128 0xc
 7046 1381 E7010000 		.4byte	.LASF85
 7047 1385 01       		.byte	0x1
 7048 1386 1303     		.2byte	0x313
 7049 1388 88000000 		.4byte	0x88
 7050 138c 00000000 		.4byte	.LFB71
 7051 1390 0C000000 		.4byte	.LFE71-.LFB71
 7052 1394 01       		.uleb128 0x1
 7053 1395 9C       		.byte	0x9c
 7054 1396 BD130000 		.4byte	0x13bd
 7055 139a 0D       		.uleb128 0xd
ARM GAS  C:\Users\Abude\AppData\Local\Temp\ccndXIr0.s 			page 165


 7056 139b 57080000 		.4byte	.LASF15
 7057 139f 01       		.byte	0x1
 7058 13a0 1303     		.2byte	0x313
 7059 13a2 88000000 		.4byte	0x88
 7060 13a6 27090000 		.4byte	.LLST71
 7061 13aa 0E       		.uleb128 0xe
 7062 13ab 62756600 		.ascii	"buf\000"
 7063 13af 01       		.byte	0x1
 7064 13b0 1903     		.2byte	0x319
 7065 13b2 4C0D0000 		.4byte	0xd4c
 7066 13b6 05       		.uleb128 0x5
 7067 13b7 03       		.byte	0x3
 7068 13b8 78D50000 		.4byte	buf.12225
 7069 13bc 00       		.byte	0
 7070 13bd 0C       		.uleb128 0xc
 7071 13be CB010000 		.4byte	.LASF86
 7072 13c2 01       		.byte	0x1
 7073 13c3 1E03     		.2byte	0x31e
 7074 13c5 88000000 		.4byte	0x88
 7075 13c9 00000000 		.4byte	.LFB72
 7076 13cd 0C000000 		.4byte	.LFE72-.LFB72
 7077 13d1 01       		.uleb128 0x1
 7078 13d2 9C       		.byte	0x9c
 7079 13d3 FA130000 		.4byte	0x13fa
 7080 13d7 0D       		.uleb128 0xd
 7081 13d8 57080000 		.4byte	.LASF15
 7082 13dc 01       		.byte	0x1
 7083 13dd 1E03     		.2byte	0x31e
 7084 13df 88000000 		.4byte	0x88
 7085 13e3 48090000 		.4byte	.LLST72
 7086 13e7 0E       		.uleb128 0xe
 7087 13e8 62756600 		.ascii	"buf\000"
 7088 13ec 01       		.byte	0x1
 7089 13ed 2403     		.2byte	0x324
 7090 13ef FA130000 		.4byte	0x13fa
 7091 13f3 05       		.uleb128 0x5
 7092 13f4 03       		.byte	0x3
 7093 13f5 78DB0000 		.4byte	buf.12229
 7094 13f9 00       		.byte	0
 7095 13fa 09       		.uleb128 0x9
 7096 13fb 76000000 		.4byte	0x76
 7097 13ff 0A140000 		.4byte	0x140a
 7098 1403 0A       		.uleb128 0xa
 7099 1404 D8000000 		.4byte	0xd8
 7100 1408 EF       		.byte	0xef
 7101 1409 00       		.byte	0
 7102 140a 0C       		.uleb128 0xc
 7103 140b D9010000 		.4byte	.LASF87
 7104 140f 01       		.byte	0x1
 7105 1410 2903     		.2byte	0x329
 7106 1412 88000000 		.4byte	0x88
 7107 1416 00000000 		.4byte	.LFB73
 7108 141a 0C000000 		.4byte	.LFE73-.LFB73
 7109 141e 01       		.uleb128 0x1
 7110 141f 9C       		.byte	0x9c
 7111 1420 47140000 		.4byte	0x1447
 7112 1424 0D       		.uleb128 0xd
ARM GAS  C:\Users\Abude\AppData\Local\Temp\ccndXIr0.s 			page 166


 7113 1425 57080000 		.4byte	.LASF15
 7114 1429 01       		.byte	0x1
 7115 142a 2903     		.2byte	0x329
 7116 142c 88000000 		.4byte	0x88
 7117 1430 69090000 		.4byte	.LLST73
 7118 1434 0E       		.uleb128 0xe
 7119 1435 62756600 		.ascii	"buf\000"
 7120 1439 01       		.byte	0x1
 7121 143a 2F03     		.2byte	0x32f
 7122 143c 47140000 		.4byte	0x1447
 7123 1440 05       		.uleb128 0x5
 7124 1441 03       		.byte	0x3
 7125 1442 68DC0000 		.4byte	buf.12233
 7126 1446 00       		.byte	0
 7127 1447 09       		.uleb128 0x9
 7128 1448 76000000 		.4byte	0x76
 7129 144c 58140000 		.4byte	0x1458
 7130 1450 0B       		.uleb128 0xb
 7131 1451 D8000000 		.4byte	0xd8
 7132 1455 DF01     		.2byte	0x1df
 7133 1457 00       		.byte	0
 7134 1458 0C       		.uleb128 0xc
 7135 1459 70020000 		.4byte	.LASF88
 7136 145d 01       		.byte	0x1
 7137 145e 3403     		.2byte	0x334
 7138 1460 88000000 		.4byte	0x88
 7139 1464 00000000 		.4byte	.LFB74
 7140 1468 0C000000 		.4byte	.LFE74-.LFB74
 7141 146c 01       		.uleb128 0x1
 7142 146d 9C       		.byte	0x9c
 7143 146e 95140000 		.4byte	0x1495
 7144 1472 0D       		.uleb128 0xd
 7145 1473 57080000 		.4byte	.LASF15
 7146 1477 01       		.byte	0x1
 7147 1478 3403     		.2byte	0x334
 7148 147a 88000000 		.4byte	0x88
 7149 147e 8A090000 		.4byte	.LLST74
 7150 1482 0E       		.uleb128 0xe
 7151 1483 62756600 		.ascii	"buf\000"
 7152 1487 01       		.byte	0x1
 7153 1488 3A03     		.2byte	0x33a
 7154 148a 95140000 		.4byte	0x1495
 7155 148e 05       		.uleb128 0x5
 7156 148f 03       		.byte	0x3
 7157 1490 48DE0000 		.4byte	buf.12237
 7158 1494 00       		.byte	0
 7159 1495 09       		.uleb128 0x9
 7160 1496 76000000 		.4byte	0x76
 7161 149a A6140000 		.4byte	0x14a6
 7162 149e 0B       		.uleb128 0xb
 7163 149f D8000000 		.4byte	0xd8
 7164 14a3 7F07     		.2byte	0x77f
 7165 14a5 00       		.byte	0
 7166 14a6 0C       		.uleb128 0xc
 7167 14a7 B6080000 		.4byte	.LASF89
 7168 14ab 01       		.byte	0x1
 7169 14ac 3F03     		.2byte	0x33f
ARM GAS  C:\Users\Abude\AppData\Local\Temp\ccndXIr0.s 			page 167


 7170 14ae 88000000 		.4byte	0x88
 7171 14b2 00000000 		.4byte	.LFB75
 7172 14b6 0C000000 		.4byte	.LFE75-.LFB75
 7173 14ba 01       		.uleb128 0x1
 7174 14bb 9C       		.byte	0x9c
 7175 14bc E3140000 		.4byte	0x14e3
 7176 14c0 0D       		.uleb128 0xd
 7177 14c1 57080000 		.4byte	.LASF15
 7178 14c5 01       		.byte	0x1
 7179 14c6 3F03     		.2byte	0x33f
 7180 14c8 88000000 		.4byte	0x88
 7181 14cc AB090000 		.4byte	.LLST75
 7182 14d0 0E       		.uleb128 0xe
 7183 14d1 62756600 		.ascii	"buf\000"
 7184 14d5 01       		.byte	0x1
 7185 14d6 4503     		.2byte	0x345
 7186 14d8 FA130000 		.4byte	0x13fa
 7187 14dc 05       		.uleb128 0x5
 7188 14dd 03       		.byte	0x3
 7189 14de C8E50000 		.4byte	buf.12241
 7190 14e2 00       		.byte	0
 7191 14e3 0C       		.uleb128 0xc
 7192 14e4 C5080000 		.4byte	.LASF90
 7193 14e8 01       		.byte	0x1
 7194 14e9 4A03     		.2byte	0x34a
 7195 14eb 88000000 		.4byte	0x88
 7196 14ef 00000000 		.4byte	.LFB76
 7197 14f3 0C000000 		.4byte	.LFE76-.LFB76
 7198 14f7 01       		.uleb128 0x1
 7199 14f8 9C       		.byte	0x9c
 7200 14f9 20150000 		.4byte	0x1520
 7201 14fd 0D       		.uleb128 0xd
 7202 14fe 57080000 		.4byte	.LASF15
 7203 1502 01       		.byte	0x1
 7204 1503 4A03     		.2byte	0x34a
 7205 1505 88000000 		.4byte	0x88
 7206 1509 CC090000 		.4byte	.LLST76
 7207 150d 0E       		.uleb128 0xe
 7208 150e 62756600 		.ascii	"buf\000"
 7209 1512 01       		.byte	0x1
 7210 1513 5003     		.2byte	0x350
 7211 1515 47140000 		.4byte	0x1447
 7212 1519 05       		.uleb128 0x5
 7213 151a 03       		.byte	0x3
 7214 151b B8E60000 		.4byte	buf.12245
 7215 151f 00       		.byte	0
 7216 1520 0C       		.uleb128 0xc
 7217 1521 64090000 		.4byte	.LASF91
 7218 1525 01       		.byte	0x1
 7219 1526 5503     		.2byte	0x355
 7220 1528 88000000 		.4byte	0x88
 7221 152c 00000000 		.4byte	.LFB77
 7222 1530 0C000000 		.4byte	.LFE77-.LFB77
 7223 1534 01       		.uleb128 0x1
 7224 1535 9C       		.byte	0x9c
 7225 1536 5D150000 		.4byte	0x155d
 7226 153a 0D       		.uleb128 0xd
ARM GAS  C:\Users\Abude\AppData\Local\Temp\ccndXIr0.s 			page 168


 7227 153b 57080000 		.4byte	.LASF15
 7228 153f 01       		.byte	0x1
 7229 1540 5503     		.2byte	0x355
 7230 1542 88000000 		.4byte	0x88
 7231 1546 ED090000 		.4byte	.LLST77
 7232 154a 0E       		.uleb128 0xe
 7233 154b 62756600 		.ascii	"buf\000"
 7234 154f 01       		.byte	0x1
 7235 1550 5B03     		.2byte	0x35b
 7236 1552 5D150000 		.4byte	0x155d
 7237 1556 05       		.uleb128 0x5
 7238 1557 03       		.byte	0x3
 7239 1558 98E80000 		.4byte	buf.12249
 7240 155c 00       		.byte	0
 7241 155d 09       		.uleb128 0x9
 7242 155e 76000000 		.4byte	0x76
 7243 1562 6E150000 		.4byte	0x156e
 7244 1566 0B       		.uleb128 0xb
 7245 1567 D8000000 		.4byte	0xd8
 7246 156b 0F0E     		.2byte	0xe0f
 7247 156d 00       		.byte	0
 7248 156e 0C       		.uleb128 0xc
 7249 156f 28020000 		.4byte	.LASF92
 7250 1573 01       		.byte	0x1
 7251 1574 6003     		.2byte	0x360
 7252 1576 88000000 		.4byte	0x88
 7253 157a 00000000 		.4byte	.LFB78
 7254 157e 0C000000 		.4byte	.LFE78-.LFB78
 7255 1582 01       		.uleb128 0x1
 7256 1583 9C       		.byte	0x9c
 7257 1584 AB150000 		.4byte	0x15ab
 7258 1588 0D       		.uleb128 0xd
 7259 1589 57080000 		.4byte	.LASF15
 7260 158d 01       		.byte	0x1
 7261 158e 6003     		.2byte	0x360
 7262 1590 88000000 		.4byte	0x88
 7263 1594 0E0A0000 		.4byte	.LLST78
 7264 1598 0E       		.uleb128 0xe
 7265 1599 62756600 		.ascii	"buf\000"
 7266 159d 01       		.byte	0x1
 7267 159e 6603     		.2byte	0x366
 7268 15a0 FA130000 		.4byte	0x13fa
 7269 15a4 05       		.uleb128 0x5
 7270 15a5 03       		.byte	0x3
 7271 15a6 A8F60000 		.4byte	buf.12253
 7272 15aa 00       		.byte	0
 7273 15ab 0C       		.uleb128 0xc
 7274 15ac 37020000 		.4byte	.LASF93
 7275 15b0 01       		.byte	0x1
 7276 15b1 6B03     		.2byte	0x36b
 7277 15b3 88000000 		.4byte	0x88
 7278 15b7 00000000 		.4byte	.LFB79
 7279 15bb 0C000000 		.4byte	.LFE79-.LFB79
 7280 15bf 01       		.uleb128 0x1
 7281 15c0 9C       		.byte	0x9c
 7282 15c1 E8150000 		.4byte	0x15e8
 7283 15c5 0D       		.uleb128 0xd
ARM GAS  C:\Users\Abude\AppData\Local\Temp\ccndXIr0.s 			page 169


 7284 15c6 57080000 		.4byte	.LASF15
 7285 15ca 01       		.byte	0x1
 7286 15cb 6B03     		.2byte	0x36b
 7287 15cd 88000000 		.4byte	0x88
 7288 15d1 2F0A0000 		.4byte	.LLST79
 7289 15d5 0E       		.uleb128 0xe
 7290 15d6 62756600 		.ascii	"buf\000"
 7291 15da 01       		.byte	0x1
 7292 15db 7103     		.2byte	0x371
 7293 15dd 47140000 		.4byte	0x1447
 7294 15e1 05       		.uleb128 0x5
 7295 15e2 03       		.byte	0x3
 7296 15e3 98F70000 		.4byte	buf.12257
 7297 15e7 00       		.byte	0
 7298 15e8 0C       		.uleb128 0xc
 7299 15e9 B7020000 		.4byte	.LASF94
 7300 15ed 01       		.byte	0x1
 7301 15ee 7603     		.2byte	0x376
 7302 15f0 88000000 		.4byte	0x88
 7303 15f4 00000000 		.4byte	.LFB80
 7304 15f8 0C000000 		.4byte	.LFE80-.LFB80
 7305 15fc 01       		.uleb128 0x1
 7306 15fd 9C       		.byte	0x9c
 7307 15fe 25160000 		.4byte	0x1625
 7308 1602 0D       		.uleb128 0xd
 7309 1603 57080000 		.4byte	.LASF15
 7310 1607 01       		.byte	0x1
 7311 1608 7603     		.2byte	0x376
 7312 160a 88000000 		.4byte	0x88
 7313 160e 500A0000 		.4byte	.LLST80
 7314 1612 0E       		.uleb128 0xe
 7315 1613 62756600 		.ascii	"buf\000"
 7316 1617 01       		.byte	0x1
 7317 1618 7C03     		.2byte	0x37c
 7318 161a 25160000 		.4byte	0x1625
 7319 161e 05       		.uleb128 0x5
 7320 161f 03       		.byte	0x3
 7321 1620 78F90000 		.4byte	buf.12261
 7322 1624 00       		.byte	0
 7323 1625 09       		.uleb128 0x9
 7324 1626 76000000 		.4byte	0x76
 7325 162a 36160000 		.4byte	0x1636
 7326 162e 0B       		.uleb128 0xb
 7327 162f D8000000 		.4byte	0xd8
 7328 1633 FF0E     		.2byte	0xeff
 7329 1635 00       		.byte	0
 7330 1636 0C       		.uleb128 0xc
 7331 1637 39070000 		.4byte	.LASF95
 7332 163b 01       		.byte	0x1
 7333 163c 8103     		.2byte	0x381
 7334 163e 88000000 		.4byte	0x88
 7335 1642 00000000 		.4byte	.LFB81
 7336 1646 0C000000 		.4byte	.LFE81-.LFB81
 7337 164a 01       		.uleb128 0x1
 7338 164b 9C       		.byte	0x9c
 7339 164c 73160000 		.4byte	0x1673
 7340 1650 0D       		.uleb128 0xd
ARM GAS  C:\Users\Abude\AppData\Local\Temp\ccndXIr0.s 			page 170


 7341 1651 57080000 		.4byte	.LASF15
 7342 1655 01       		.byte	0x1
 7343 1656 8103     		.2byte	0x381
 7344 1658 88000000 		.4byte	0x88
 7345 165c 710A0000 		.4byte	.LLST81
 7346 1660 0E       		.uleb128 0xe
 7347 1661 62756600 		.ascii	"buf\000"
 7348 1665 01       		.byte	0x1
 7349 1666 8703     		.2byte	0x387
 7350 1668 B1060000 		.4byte	0x6b1
 7351 166c 05       		.uleb128 0x5
 7352 166d 03       		.byte	0x3
 7353 166e 78080100 		.4byte	buf.12265
 7354 1672 00       		.byte	0
 7355 1673 0C       		.uleb128 0xc
 7356 1674 48070000 		.4byte	.LASF96
 7357 1678 01       		.byte	0x1
 7358 1679 8C03     		.2byte	0x38c
 7359 167b 88000000 		.4byte	0x88
 7360 167f 00000000 		.4byte	.LFB82
 7361 1683 0C000000 		.4byte	.LFE82-.LFB82
 7362 1687 01       		.uleb128 0x1
 7363 1688 9C       		.byte	0x9c
 7364 1689 B0160000 		.4byte	0x16b0
 7365 168d 0D       		.uleb128 0xd
 7366 168e 57080000 		.4byte	.LASF15
 7367 1692 01       		.byte	0x1
 7368 1693 8C03     		.2byte	0x38c
 7369 1695 88000000 		.4byte	0x88
 7370 1699 920A0000 		.4byte	.LLST82
 7371 169d 0E       		.uleb128 0xe
 7372 169e 62756600 		.ascii	"buf\000"
 7373 16a2 01       		.byte	0x1
 7374 16a3 9203     		.2byte	0x392
 7375 16a5 51080000 		.4byte	0x851
 7376 16a9 05       		.uleb128 0x5
 7377 16aa 03       		.byte	0x3
 7378 16ab 18090100 		.4byte	buf.12269
 7379 16af 00       		.byte	0
 7380 16b0 0C       		.uleb128 0xc
 7381 16b1 CB070000 		.4byte	.LASF97
 7382 16b5 01       		.byte	0x1
 7383 16b6 9703     		.2byte	0x397
 7384 16b8 88000000 		.4byte	0x88
 7385 16bc 00000000 		.4byte	.LFB83
 7386 16c0 0C000000 		.4byte	.LFE83-.LFB83
 7387 16c4 01       		.uleb128 0x1
 7388 16c5 9C       		.byte	0x9c
 7389 16c6 ED160000 		.4byte	0x16ed
 7390 16ca 0D       		.uleb128 0xd
 7391 16cb 57080000 		.4byte	.LASF15
 7392 16cf 01       		.byte	0x1
 7393 16d0 9703     		.2byte	0x397
 7394 16d2 88000000 		.4byte	0x88
 7395 16d6 B30A0000 		.4byte	.LLST83
 7396 16da 0E       		.uleb128 0xe
 7397 16db 62756600 		.ascii	"buf\000"
ARM GAS  C:\Users\Abude\AppData\Local\Temp\ccndXIr0.s 			page 171


 7398 16df 01       		.byte	0x1
 7399 16e0 9D03     		.2byte	0x39d
 7400 16e2 ED160000 		.4byte	0x16ed
 7401 16e6 05       		.uleb128 0x5
 7402 16e7 03       		.byte	0x3
 7403 16e8 580A0100 		.4byte	buf.12273
 7404 16ec 00       		.byte	0
 7405 16ed 09       		.uleb128 0x9
 7406 16ee 76000000 		.4byte	0x76
 7407 16f2 FE160000 		.4byte	0x16fe
 7408 16f6 0B       		.uleb128 0xb
 7409 16f7 D8000000 		.4byte	0xd8
 7410 16fb FF09     		.2byte	0x9ff
 7411 16fd 00       		.byte	0
 7412 16fe 0C       		.uleb128 0xc
 7413 16ff 69050000 		.4byte	.LASF98
 7414 1703 01       		.byte	0x1
 7415 1704 A203     		.2byte	0x3a2
 7416 1706 88000000 		.4byte	0x88
 7417 170a 00000000 		.4byte	.LFB84
 7418 170e 0C000000 		.4byte	.LFE84-.LFB84
 7419 1712 01       		.uleb128 0x1
 7420 1713 9C       		.byte	0x9c
 7421 1714 3B170000 		.4byte	0x173b
 7422 1718 0D       		.uleb128 0xd
 7423 1719 57080000 		.4byte	.LASF15
 7424 171d 01       		.byte	0x1
 7425 171e A203     		.2byte	0x3a2
 7426 1720 88000000 		.4byte	0x88
 7427 1724 D40A0000 		.4byte	.LLST84
 7428 1728 0E       		.uleb128 0xe
 7429 1729 62756600 		.ascii	"buf\000"
 7430 172d 01       		.byte	0x1
 7431 172e A803     		.2byte	0x3a8
 7432 1730 D2050000 		.4byte	0x5d2
 7433 1734 05       		.uleb128 0x5
 7434 1735 03       		.byte	0x3
 7435 1736 58140100 		.4byte	buf.12277
 7436 173a 00       		.byte	0
 7437 173b 0C       		.uleb128 0xc
 7438 173c 78050000 		.4byte	.LASF99
 7439 1740 01       		.byte	0x1
 7440 1741 AD03     		.2byte	0x3ad
 7441 1743 88000000 		.4byte	0x88
 7442 1747 00000000 		.4byte	.LFB85
 7443 174b 0C000000 		.4byte	.LFE85-.LFB85
 7444 174f 01       		.uleb128 0x1
 7445 1750 9C       		.byte	0x9c
 7446 1751 78170000 		.4byte	0x1778
 7447 1755 0D       		.uleb128 0xd
 7448 1756 57080000 		.4byte	.LASF15
 7449 175a 01       		.byte	0x1
 7450 175b AD03     		.2byte	0x3ad
 7451 175d 88000000 		.4byte	0x88
 7452 1761 F50A0000 		.4byte	.LLST85
 7453 1765 0E       		.uleb128 0xe
 7454 1766 62756600 		.ascii	"buf\000"
ARM GAS  C:\Users\Abude\AppData\Local\Temp\ccndXIr0.s 			page 172


 7455 176a 01       		.byte	0x1
 7456 176b B303     		.2byte	0x3b3
 7457 176d 060B0000 		.4byte	0xb06
 7458 1771 05       		.uleb128 0x5
 7459 1772 03       		.byte	0x3
 7460 1773 18150100 		.4byte	buf.12281
 7461 1777 00       		.byte	0
 7462 1778 0C       		.uleb128 0xc
 7463 1779 3B060000 		.4byte	.LASF100
 7464 177d 01       		.byte	0x1
 7465 177e B803     		.2byte	0x3b8
 7466 1780 88000000 		.4byte	0x88
 7467 1784 00000000 		.4byte	.LFB86
 7468 1788 0C000000 		.4byte	.LFE86-.LFB86
 7469 178c 01       		.uleb128 0x1
 7470 178d 9C       		.byte	0x9c
 7471 178e B5170000 		.4byte	0x17b5
 7472 1792 0D       		.uleb128 0xd
 7473 1793 57080000 		.4byte	.LASF15
 7474 1797 01       		.byte	0x1
 7475 1798 B803     		.2byte	0x3b8
 7476 179a 88000000 		.4byte	0x88
 7477 179e 160B0000 		.4byte	.LLST86
 7478 17a2 0E       		.uleb128 0xe
 7479 17a3 62756600 		.ascii	"buf\000"
 7480 17a7 01       		.byte	0x1
 7481 17a8 BE03     		.2byte	0x3be
 7482 17aa B5170000 		.4byte	0x17b5
 7483 17ae 05       		.uleb128 0x5
 7484 17af 03       		.byte	0x3
 7485 17b0 98160100 		.4byte	buf.12285
 7486 17b4 00       		.byte	0
 7487 17b5 09       		.uleb128 0x9
 7488 17b6 76000000 		.4byte	0x76
 7489 17ba C6170000 		.4byte	0x17c6
 7490 17be 0B       		.uleb128 0xb
 7491 17bf D8000000 		.4byte	0xd8
 7492 17c3 FF08     		.2byte	0x8ff
 7493 17c5 00       		.byte	0
 7494 17c6 0C       		.uleb128 0xc
 7495 17c7 CD040000 		.4byte	.LASF101
 7496 17cb 01       		.byte	0x1
 7497 17cc C303     		.2byte	0x3c3
 7498 17ce 88000000 		.4byte	0x88
 7499 17d2 00000000 		.4byte	.LFB87
 7500 17d6 0C000000 		.4byte	.LFE87-.LFB87
 7501 17da 01       		.uleb128 0x1
 7502 17db 9C       		.byte	0x9c
 7503 17dc 03180000 		.4byte	0x1803
 7504 17e0 0D       		.uleb128 0xd
 7505 17e1 57080000 		.4byte	.LASF15
 7506 17e5 01       		.byte	0x1
 7507 17e6 C303     		.2byte	0x3c3
 7508 17e8 88000000 		.4byte	0x88
 7509 17ec 370B0000 		.4byte	.LLST87
 7510 17f0 0E       		.uleb128 0xe
 7511 17f1 62756600 		.ascii	"buf\000"
ARM GAS  C:\Users\Abude\AppData\Local\Temp\ccndXIr0.s 			page 173


 7512 17f5 01       		.byte	0x1
 7513 17f6 C903     		.2byte	0x3c9
 7514 17f8 B1060000 		.4byte	0x6b1
 7515 17fc 05       		.uleb128 0x5
 7516 17fd 03       		.byte	0x3
 7517 17fe 981F0100 		.4byte	buf.12289
 7518 1802 00       		.byte	0
 7519 1803 0C       		.uleb128 0xc
 7520 1804 DC040000 		.4byte	.LASF102
 7521 1808 01       		.byte	0x1
 7522 1809 CE03     		.2byte	0x3ce
 7523 180b 88000000 		.4byte	0x88
 7524 180f 00000000 		.4byte	.LFB88
 7525 1813 0C000000 		.4byte	.LFE88-.LFB88
 7526 1817 01       		.uleb128 0x1
 7527 1818 9C       		.byte	0x9c
 7528 1819 40180000 		.4byte	0x1840
 7529 181d 0D       		.uleb128 0xd
 7530 181e 57080000 		.4byte	.LASF15
 7531 1822 01       		.byte	0x1
 7532 1823 CE03     		.2byte	0x3ce
 7533 1825 88000000 		.4byte	0x88
 7534 1829 580B0000 		.4byte	.LLST88
 7535 182d 0E       		.uleb128 0xe
 7536 182e 62756600 		.ascii	"buf\000"
 7537 1832 01       		.byte	0x1
 7538 1833 D403     		.2byte	0x3d4
 7539 1835 51080000 		.4byte	0x851
 7540 1839 05       		.uleb128 0x5
 7541 183a 03       		.byte	0x3
 7542 183b 38200100 		.4byte	buf.12293
 7543 183f 00       		.byte	0
 7544 1840 0C       		.uleb128 0xc
 7545 1841 AD070000 		.4byte	.LASF103
 7546 1845 01       		.byte	0x1
 7547 1846 D903     		.2byte	0x3d9
 7548 1848 88000000 		.4byte	0x88
 7549 184c 00000000 		.4byte	.LFB89
 7550 1850 0C000000 		.4byte	.LFE89-.LFB89
 7551 1854 01       		.uleb128 0x1
 7552 1855 9C       		.byte	0x9c
 7553 1856 7D180000 		.4byte	0x187d
 7554 185a 0D       		.uleb128 0xd
 7555 185b 57080000 		.4byte	.LASF15
 7556 185f 01       		.byte	0x1
 7557 1860 D903     		.2byte	0x3d9
 7558 1862 88000000 		.4byte	0x88
 7559 1866 790B0000 		.4byte	.LLST89
 7560 186a 0E       		.uleb128 0xe
 7561 186b 62756600 		.ascii	"buf\000"
 7562 186f 01       		.byte	0x1
 7563 1870 DF03     		.2byte	0x3df
 7564 1872 7D180000 		.4byte	0x187d
 7565 1876 05       		.uleb128 0x5
 7566 1877 03       		.byte	0x3
 7567 1878 78210100 		.4byte	buf.12297
 7568 187c 00       		.byte	0
ARM GAS  C:\Users\Abude\AppData\Local\Temp\ccndXIr0.s 			page 174


 7569 187d 09       		.uleb128 0x9
 7570 187e 76000000 		.4byte	0x76
 7571 1882 8E180000 		.4byte	0x188e
 7572 1886 0B       		.uleb128 0xb
 7573 1887 D8000000 		.4byte	0xd8
 7574 188b 1F08     		.2byte	0x81f
 7575 188d 00       		.byte	0
 7576 188e 0C       		.uleb128 0xc
 7577 188f 7C040000 		.4byte	.LASF104
 7578 1893 01       		.byte	0x1
 7579 1894 E403     		.2byte	0x3e4
 7580 1896 88000000 		.4byte	0x88
 7581 189a 00000000 		.4byte	.LFB90
 7582 189e 0C000000 		.4byte	.LFE90-.LFB90
 7583 18a2 01       		.uleb128 0x1
 7584 18a3 9C       		.byte	0x9c
 7585 18a4 CB180000 		.4byte	0x18cb
 7586 18a8 0D       		.uleb128 0xd
 7587 18a9 57080000 		.4byte	.LASF15
 7588 18ad 01       		.byte	0x1
 7589 18ae E403     		.2byte	0x3e4
 7590 18b0 88000000 		.4byte	0x88
 7591 18b4 9A0B0000 		.4byte	.LLST90
 7592 18b8 0E       		.uleb128 0xe
 7593 18b9 62756600 		.ascii	"buf\000"
 7594 18bd 01       		.byte	0x1
 7595 18be EA03     		.2byte	0x3ea
 7596 18c0 FA130000 		.4byte	0x13fa
 7597 18c4 05       		.uleb128 0x5
 7598 18c5 03       		.byte	0x3
 7599 18c6 98290100 		.4byte	buf.12301
 7600 18ca 00       		.byte	0
 7601 18cb 0C       		.uleb128 0xc
 7602 18cc 8B040000 		.4byte	.LASF105
 7603 18d0 01       		.byte	0x1
 7604 18d1 EF03     		.2byte	0x3ef
 7605 18d3 88000000 		.4byte	0x88
 7606 18d7 00000000 		.4byte	.LFB91
 7607 18db 0C000000 		.4byte	.LFE91-.LFB91
 7608 18df 01       		.uleb128 0x1
 7609 18e0 9C       		.byte	0x9c
 7610 18e1 08190000 		.4byte	0x1908
 7611 18e5 0D       		.uleb128 0xd
 7612 18e6 57080000 		.4byte	.LASF15
 7613 18ea 01       		.byte	0x1
 7614 18eb EF03     		.2byte	0x3ef
 7615 18ed 88000000 		.4byte	0x88
 7616 18f1 BB0B0000 		.4byte	.LLST91
 7617 18f5 0E       		.uleb128 0xe
 7618 18f6 62756600 		.ascii	"buf\000"
 7619 18fa 01       		.byte	0x1
 7620 18fb F503     		.2byte	0x3f5
 7621 18fd 47140000 		.4byte	0x1447
 7622 1901 05       		.uleb128 0x5
 7623 1902 03       		.byte	0x3
 7624 1903 882A0100 		.4byte	buf.12305
 7625 1907 00       		.byte	0
ARM GAS  C:\Users\Abude\AppData\Local\Temp\ccndXIr0.s 			page 175


 7626 1908 0C       		.uleb128 0xc
 7627 1909 2C000000 		.4byte	.LASF106
 7628 190d 01       		.byte	0x1
 7629 190e FA03     		.2byte	0x3fa
 7630 1910 88000000 		.4byte	0x88
 7631 1914 00000000 		.4byte	.LFB92
 7632 1918 0C000000 		.4byte	.LFE92-.LFB92
 7633 191c 01       		.uleb128 0x1
 7634 191d 9C       		.byte	0x9c
 7635 191e 45190000 		.4byte	0x1945
 7636 1922 0D       		.uleb128 0xd
 7637 1923 57080000 		.4byte	.LASF15
 7638 1927 01       		.byte	0x1
 7639 1928 FA03     		.2byte	0x3fa
 7640 192a 88000000 		.4byte	0x88
 7641 192e DC0B0000 		.4byte	.LLST92
 7642 1932 0E       		.uleb128 0xe
 7643 1933 62756600 		.ascii	"buf\000"
 7644 1937 01       		.byte	0x1
 7645 1938 0004     		.2byte	0x400
 7646 193a 45190000 		.4byte	0x1945
 7647 193e 05       		.uleb128 0x5
 7648 193f 03       		.byte	0x3
 7649 1940 682C0100 		.4byte	buf.12309
 7650 1944 00       		.byte	0
 7651 1945 09       		.uleb128 0x9
 7652 1946 76000000 		.4byte	0x76
 7653 194a 56190000 		.4byte	0x1956
 7654 194e 0B       		.uleb128 0xb
 7655 194f D8000000 		.4byte	0xd8
 7656 1953 BF12     		.2byte	0x12bf
 7657 1955 00       		.byte	0
 7658 1956 0C       		.uleb128 0xc
 7659 1957 4F040000 		.4byte	.LASF107
 7660 195b 01       		.byte	0x1
 7661 195c 0504     		.2byte	0x405
 7662 195e 88000000 		.4byte	0x88
 7663 1962 00000000 		.4byte	.LFB93
 7664 1966 0C000000 		.4byte	.LFE93-.LFB93
 7665 196a 01       		.uleb128 0x1
 7666 196b 9C       		.byte	0x9c
 7667 196c 93190000 		.4byte	0x1993
 7668 1970 0D       		.uleb128 0xd
 7669 1971 57080000 		.4byte	.LASF15
 7670 1975 01       		.byte	0x1
 7671 1976 0504     		.2byte	0x405
 7672 1978 88000000 		.4byte	0x88
 7673 197c FD0B0000 		.4byte	.LLST93
 7674 1980 0E       		.uleb128 0xe
 7675 1981 62756600 		.ascii	"buf\000"
 7676 1985 01       		.byte	0x1
 7677 1986 0B04     		.2byte	0x40b
 7678 1988 19010000 		.4byte	0x119
 7679 198c 05       		.uleb128 0x5
 7680 198d 03       		.byte	0x3
 7681 198e 283F0100 		.4byte	buf.12313
 7682 1992 00       		.byte	0
ARM GAS  C:\Users\Abude\AppData\Local\Temp\ccndXIr0.s 			page 176


 7683 1993 0C       		.uleb128 0xc
 7684 1994 5E040000 		.4byte	.LASF108
 7685 1998 01       		.byte	0x1
 7686 1999 1004     		.2byte	0x410
 7687 199b 88000000 		.4byte	0x88
 7688 199f 00000000 		.4byte	.LFB94
 7689 19a3 0C000000 		.4byte	.LFE94-.LFB94
 7690 19a7 01       		.uleb128 0x1
 7691 19a8 9C       		.byte	0x9c
 7692 19a9 D0190000 		.4byte	0x19d0
 7693 19ad 0D       		.uleb128 0xd
 7694 19ae 57080000 		.4byte	.LASF15
 7695 19b2 01       		.byte	0x1
 7696 19b3 1004     		.2byte	0x410
 7697 19b5 88000000 		.4byte	0x88
 7698 19b9 1E0C0000 		.4byte	.LLST94
 7699 19bd 0E       		.uleb128 0xe
 7700 19be 62756600 		.ascii	"buf\000"
 7701 19c2 01       		.byte	0x1
 7702 19c3 1604     		.2byte	0x416
 7703 19c5 63010000 		.4byte	0x163
 7704 19c9 05       		.uleb128 0x5
 7705 19ca 03       		.byte	0x3
 7706 19cb 28400100 		.4byte	buf.12317
 7707 19cf 00       		.byte	0
 7708 19d0 0C       		.uleb128 0xc
 7709 19d1 A2040000 		.4byte	.LASF109
 7710 19d5 01       		.byte	0x1
 7711 19d6 1B04     		.2byte	0x41b
 7712 19d8 88000000 		.4byte	0x88
 7713 19dc 00000000 		.4byte	.LFB95
 7714 19e0 0C000000 		.4byte	.LFE95-.LFB95
 7715 19e4 01       		.uleb128 0x1
 7716 19e5 9C       		.byte	0x9c
 7717 19e6 0D1A0000 		.4byte	0x1a0d
 7718 19ea 0D       		.uleb128 0xd
 7719 19eb 57080000 		.4byte	.LASF15
 7720 19ef 01       		.byte	0x1
 7721 19f0 1B04     		.2byte	0x41b
 7722 19f2 88000000 		.4byte	0x88
 7723 19f6 3F0C0000 		.4byte	.LLST95
 7724 19fa 0E       		.uleb128 0xe
 7725 19fb 62756600 		.ascii	"buf\000"
 7726 19ff 01       		.byte	0x1
 7727 1a00 2104     		.2byte	0x421
 7728 1a02 0D1A0000 		.4byte	0x1a0d
 7729 1a06 05       		.uleb128 0x5
 7730 1a07 03       		.byte	0x3
 7731 1a08 28420100 		.4byte	buf.12321
 7732 1a0c 00       		.byte	0
 7733 1a0d 09       		.uleb128 0x9
 7734 1a0e 76000000 		.4byte	0x76
 7735 1a12 1E1A0000 		.4byte	0x1a1e
 7736 1a16 0B       		.uleb128 0xb
 7737 1a17 D8000000 		.4byte	0xd8
 7738 1a1b FF0F     		.2byte	0xfff
 7739 1a1d 00       		.byte	0
ARM GAS  C:\Users\Abude\AppData\Local\Temp\ccndXIr0.s 			page 177


 7740 1a1e 0C       		.uleb128 0xc
 7741 1a1f E7050000 		.4byte	.LASF110
 7742 1a23 01       		.byte	0x1
 7743 1a24 2604     		.2byte	0x426
 7744 1a26 88000000 		.4byte	0x88
 7745 1a2a 00000000 		.4byte	.LFB96
 7746 1a2e 0C000000 		.4byte	.LFE96-.LFB96
 7747 1a32 01       		.uleb128 0x1
 7748 1a33 9C       		.byte	0x9c
 7749 1a34 5B1A0000 		.4byte	0x1a5b
 7750 1a38 0D       		.uleb128 0xd
 7751 1a39 57080000 		.4byte	.LASF15
 7752 1a3d 01       		.byte	0x1
 7753 1a3e 2604     		.2byte	0x426
 7754 1a40 88000000 		.4byte	0x88
 7755 1a44 600C0000 		.4byte	.LLST96
 7756 1a48 0E       		.uleb128 0xe
 7757 1a49 62756600 		.ascii	"buf\000"
 7758 1a4d 01       		.byte	0x1
 7759 1a4e 2C04     		.2byte	0x42c
 7760 1a50 51080000 		.4byte	0x851
 7761 1a54 05       		.uleb128 0x5
 7762 1a55 03       		.byte	0x3
 7763 1a56 28520100 		.4byte	buf.12325
 7764 1a5a 00       		.byte	0
 7765 1a5b 0C       		.uleb128 0xc
 7766 1a5c F6050000 		.4byte	.LASF111
 7767 1a60 01       		.byte	0x1
 7768 1a61 3104     		.2byte	0x431
 7769 1a63 88000000 		.4byte	0x88
 7770 1a67 00000000 		.4byte	.LFB97
 7771 1a6b 0C000000 		.4byte	.LFE97-.LFB97
 7772 1a6f 01       		.uleb128 0x1
 7773 1a70 9C       		.byte	0x9c
 7774 1a71 981A0000 		.4byte	0x1a98
 7775 1a75 0D       		.uleb128 0xd
 7776 1a76 57080000 		.4byte	.LASF15
 7777 1a7a 01       		.byte	0x1
 7778 1a7b 3104     		.2byte	0x431
 7779 1a7d 88000000 		.4byte	0x88
 7780 1a81 810C0000 		.4byte	.LLST97
 7781 1a85 0E       		.uleb128 0xe
 7782 1a86 62756600 		.ascii	"buf\000"
 7783 1a8a 01       		.byte	0x1
 7784 1a8b 3704     		.2byte	0x437
 7785 1a8d 981A0000 		.4byte	0x1a98
 7786 1a91 05       		.uleb128 0x5
 7787 1a92 03       		.byte	0x3
 7788 1a93 68530100 		.4byte	buf.12329
 7789 1a97 00       		.byte	0
 7790 1a98 09       		.uleb128 0x9
 7791 1a99 76000000 		.4byte	0x76
 7792 1a9d A91A0000 		.4byte	0x1aa9
 7793 1aa1 0B       		.uleb128 0xb
 7794 1aa2 D8000000 		.4byte	0xd8
 7795 1aa6 7F02     		.2byte	0x27f
 7796 1aa8 00       		.byte	0
ARM GAS  C:\Users\Abude\AppData\Local\Temp\ccndXIr0.s 			page 178


 7797 1aa9 0C       		.uleb128 0xc
 7798 1aaa C9060000 		.4byte	.LASF112
 7799 1aae 01       		.byte	0x1
 7800 1aaf 3C04     		.2byte	0x43c
 7801 1ab1 88000000 		.4byte	0x88
 7802 1ab5 00000000 		.4byte	.LFB98
 7803 1ab9 0C000000 		.4byte	.LFE98-.LFB98
 7804 1abd 01       		.uleb128 0x1
 7805 1abe 9C       		.byte	0x9c
 7806 1abf E61A0000 		.4byte	0x1ae6
 7807 1ac3 0D       		.uleb128 0xd
 7808 1ac4 57080000 		.4byte	.LASF15
 7809 1ac8 01       		.byte	0x1
 7810 1ac9 3C04     		.2byte	0x43c
 7811 1acb 88000000 		.4byte	0x88
 7812 1acf A20C0000 		.4byte	.LLST98
 7813 1ad3 0E       		.uleb128 0xe
 7814 1ad4 62756600 		.ascii	"buf\000"
 7815 1ad8 01       		.byte	0x1
 7816 1ad9 4204     		.2byte	0x442
 7817 1adb E61A0000 		.4byte	0x1ae6
 7818 1adf 05       		.uleb128 0x5
 7819 1ae0 03       		.byte	0x3
 7820 1ae1 E8550100 		.4byte	buf.12333
 7821 1ae5 00       		.byte	0
 7822 1ae6 09       		.uleb128 0x9
 7823 1ae7 76000000 		.4byte	0x76
 7824 1aeb F71A0000 		.4byte	0x1af7
 7825 1aef 0B       		.uleb128 0xb
 7826 1af0 D8000000 		.4byte	0xd8
 7827 1af4 7F25     		.2byte	0x257f
 7828 1af6 00       		.byte	0
 7829 1af7 0C       		.uleb128 0xc
 7830 1af8 CB050000 		.4byte	.LASF113
 7831 1afc 01       		.byte	0x1
 7832 1afd 4704     		.2byte	0x447
 7833 1aff 88000000 		.4byte	0x88
 7834 1b03 00000000 		.4byte	.LFB99
 7835 1b07 0C000000 		.4byte	.LFE99-.LFB99
 7836 1b0b 01       		.uleb128 0x1
 7837 1b0c 9C       		.byte	0x9c
 7838 1b0d 341B0000 		.4byte	0x1b34
 7839 1b11 0D       		.uleb128 0xd
 7840 1b12 57080000 		.4byte	.LASF15
 7841 1b16 01       		.byte	0x1
 7842 1b17 4704     		.2byte	0x447
 7843 1b19 88000000 		.4byte	0x88
 7844 1b1d C30C0000 		.4byte	.LLST99
 7845 1b21 0E       		.uleb128 0xe
 7846 1b22 62756600 		.ascii	"buf\000"
 7847 1b26 01       		.byte	0x1
 7848 1b27 4D04     		.2byte	0x44d
 7849 1b29 B1060000 		.4byte	0x6b1
 7850 1b2d 05       		.uleb128 0x5
 7851 1b2e 03       		.byte	0x3
 7852 1b2f 687B0100 		.4byte	buf.12337
 7853 1b33 00       		.byte	0
ARM GAS  C:\Users\Abude\AppData\Local\Temp\ccndXIr0.s 			page 179


 7854 1b34 0C       		.uleb128 0xc
 7855 1b35 D9050000 		.4byte	.LASF114
 7856 1b39 01       		.byte	0x1
 7857 1b3a 5204     		.2byte	0x452
 7858 1b3c 88000000 		.4byte	0x88
 7859 1b40 00000000 		.4byte	.LFB100
 7860 1b44 0C000000 		.4byte	.LFE100-.LFB100
 7861 1b48 01       		.uleb128 0x1
 7862 1b49 9C       		.byte	0x9c
 7863 1b4a 711B0000 		.4byte	0x1b71
 7864 1b4e 0D       		.uleb128 0xd
 7865 1b4f 57080000 		.4byte	.LASF15
 7866 1b53 01       		.byte	0x1
 7867 1b54 5204     		.2byte	0x452
 7868 1b56 88000000 		.4byte	0x88
 7869 1b5a E40C0000 		.4byte	.LLST100
 7870 1b5e 0E       		.uleb128 0xe
 7871 1b5f 62756600 		.ascii	"buf\000"
 7872 1b63 01       		.byte	0x1
 7873 1b64 5804     		.2byte	0x458
 7874 1b66 51080000 		.4byte	0x851
 7875 1b6a 05       		.uleb128 0x5
 7876 1b6b 03       		.byte	0x3
 7877 1b6c 087C0100 		.4byte	buf.12341
 7878 1b70 00       		.byte	0
 7879 1b71 0C       		.uleb128 0xc
 7880 1b72 93060000 		.4byte	.LASF115
 7881 1b76 01       		.byte	0x1
 7882 1b77 5D04     		.2byte	0x45d
 7883 1b79 88000000 		.4byte	0x88
 7884 1b7d 00000000 		.4byte	.LFB101
 7885 1b81 0C000000 		.4byte	.LFE101-.LFB101
 7886 1b85 01       		.uleb128 0x1
 7887 1b86 9C       		.byte	0x9c
 7888 1b87 AE1B0000 		.4byte	0x1bae
 7889 1b8b 0D       		.uleb128 0xd
 7890 1b8c 57080000 		.4byte	.LASF15
 7891 1b90 01       		.byte	0x1
 7892 1b91 5D04     		.2byte	0x45d
 7893 1b93 88000000 		.4byte	0x88
 7894 1b97 050D0000 		.4byte	.LLST101
 7895 1b9b 0E       		.uleb128 0xe
 7896 1b9c 62756600 		.ascii	"buf\000"
 7897 1ba0 01       		.byte	0x1
 7898 1ba1 6304     		.2byte	0x463
 7899 1ba3 FE060000 		.4byte	0x6fe
 7900 1ba7 05       		.uleb128 0x5
 7901 1ba8 03       		.byte	0x3
 7902 1ba9 487D0100 		.4byte	buf.12345
 7903 1bad 00       		.byte	0
 7904 1bae 0C       		.uleb128 0xc
 7905 1baf 73090000 		.4byte	.LASF116
 7906 1bb3 01       		.byte	0x1
 7907 1bb4 6804     		.2byte	0x468
 7908 1bb6 88000000 		.4byte	0x88
 7909 1bba 00000000 		.4byte	.LFB102
 7910 1bbe 0C000000 		.4byte	.LFE102-.LFB102
ARM GAS  C:\Users\Abude\AppData\Local\Temp\ccndXIr0.s 			page 180


 7911 1bc2 01       		.uleb128 0x1
 7912 1bc3 9C       		.byte	0x9c
 7913 1bc4 EB1B0000 		.4byte	0x1beb
 7914 1bc8 0D       		.uleb128 0xd
 7915 1bc9 57080000 		.4byte	.LASF15
 7916 1bcd 01       		.byte	0x1
 7917 1bce 6804     		.2byte	0x468
 7918 1bd0 88000000 		.4byte	0x88
 7919 1bd4 260D0000 		.4byte	.LLST102
 7920 1bd8 0E       		.uleb128 0xe
 7921 1bd9 62756600 		.ascii	"buf\000"
 7922 1bdd 01       		.byte	0x1
 7923 1bde 6E04     		.2byte	0x46e
 7924 1be0 EB1B0000 		.4byte	0x1beb
 7925 1be4 05       		.uleb128 0x5
 7926 1be5 03       		.byte	0x3
 7927 1be6 48820100 		.4byte	buf.12349
 7928 1bea 00       		.byte	0
 7929 1beb 09       		.uleb128 0x9
 7930 1bec 76000000 		.4byte	0x76
 7931 1bf0 FB1B0000 		.4byte	0x1bfb
 7932 1bf4 0A       		.uleb128 0xa
 7933 1bf5 D8000000 		.4byte	0xd8
 7934 1bf9 87       		.byte	0x87
 7935 1bfa 00       		.byte	0
 7936 1bfb 0C       		.uleb128 0xc
 7937 1bfc 81090000 		.4byte	.LASF117
 7938 1c00 01       		.byte	0x1
 7939 1c01 7304     		.2byte	0x473
 7940 1c03 88000000 		.4byte	0x88
 7941 1c07 00000000 		.4byte	.LFB103
 7942 1c0b 0C000000 		.4byte	.LFE103-.LFB103
 7943 1c0f 01       		.uleb128 0x1
 7944 1c10 9C       		.byte	0x9c
 7945 1c11 381C0000 		.4byte	0x1c38
 7946 1c15 0D       		.uleb128 0xd
 7947 1c16 57080000 		.4byte	.LASF15
 7948 1c1a 01       		.byte	0x1
 7949 1c1b 7304     		.2byte	0x473
 7950 1c1d 88000000 		.4byte	0x88
 7951 1c21 470D0000 		.4byte	.LLST103
 7952 1c25 0E       		.uleb128 0xe
 7953 1c26 62756600 		.ascii	"buf\000"
 7954 1c2a 01       		.byte	0x1
 7955 1c2b 7904     		.2byte	0x479
 7956 1c2d 381C0000 		.4byte	0x1c38
 7957 1c31 05       		.uleb128 0x5
 7958 1c32 03       		.byte	0x3
 7959 1c33 D0820100 		.4byte	buf.12353
 7960 1c37 00       		.byte	0
 7961 1c38 09       		.uleb128 0x9
 7962 1c39 76000000 		.4byte	0x76
 7963 1c3d 491C0000 		.4byte	0x1c49
 7964 1c41 0B       		.uleb128 0xb
 7965 1c42 D8000000 		.4byte	0xd8
 7966 1c46 0F01     		.2byte	0x10f
 7967 1c48 00       		.byte	0
ARM GAS  C:\Users\Abude\AppData\Local\Temp\ccndXIr0.s 			page 181


 7968 1c49 0C       		.uleb128 0xc
 7969 1c4a 130A0000 		.4byte	.LASF118
 7970 1c4e 01       		.byte	0x1
 7971 1c4f 7E04     		.2byte	0x47e
 7972 1c51 88000000 		.4byte	0x88
 7973 1c55 00000000 		.4byte	.LFB104
 7974 1c59 0C000000 		.4byte	.LFE104-.LFB104
 7975 1c5d 01       		.uleb128 0x1
 7976 1c5e 9C       		.byte	0x9c
 7977 1c5f 861C0000 		.4byte	0x1c86
 7978 1c63 0D       		.uleb128 0xd
 7979 1c64 57080000 		.4byte	.LASF15
 7980 1c68 01       		.byte	0x1
 7981 1c69 7E04     		.2byte	0x47e
 7982 1c6b 88000000 		.4byte	0x88
 7983 1c6f 680D0000 		.4byte	.LLST104
 7984 1c73 0E       		.uleb128 0xe
 7985 1c74 62756600 		.ascii	"buf\000"
 7986 1c78 01       		.byte	0x1
 7987 1c79 8404     		.2byte	0x484
 7988 1c7b 861C0000 		.4byte	0x1c86
 7989 1c7f 05       		.uleb128 0x5
 7990 1c80 03       		.byte	0x3
 7991 1c81 E0830100 		.4byte	buf.12357
 7992 1c85 00       		.byte	0
 7993 1c86 09       		.uleb128 0x9
 7994 1c87 76000000 		.4byte	0x76
 7995 1c8b 971C0000 		.4byte	0x1c97
 7996 1c8f 0B       		.uleb128 0xb
 7997 1c90 D8000000 		.4byte	0xd8
 7998 1c94 1F02     		.2byte	0x21f
 7999 1c96 00       		.byte	0
 8000 1c97 0C       		.uleb128 0xc
 8001 1c98 66000000 		.4byte	.LASF119
 8002 1c9c 01       		.byte	0x1
 8003 1c9d 8904     		.2byte	0x489
 8004 1c9f 88000000 		.4byte	0x88
 8005 1ca3 00000000 		.4byte	.LFB105
 8006 1ca7 0C000000 		.4byte	.LFE105-.LFB105
 8007 1cab 01       		.uleb128 0x1
 8008 1cac 9C       		.byte	0x9c
 8009 1cad D41C0000 		.4byte	0x1cd4
 8010 1cb1 0D       		.uleb128 0xd
 8011 1cb2 57080000 		.4byte	.LASF15
 8012 1cb6 01       		.byte	0x1
 8013 1cb7 8904     		.2byte	0x489
 8014 1cb9 88000000 		.4byte	0x88
 8015 1cbd 890D0000 		.4byte	.LLST105
 8016 1cc1 0E       		.uleb128 0xe
 8017 1cc2 62756600 		.ascii	"buf\000"
 8018 1cc6 01       		.byte	0x1
 8019 1cc7 8F04     		.2byte	0x48f
 8020 1cc9 EB1B0000 		.4byte	0x1beb
 8021 1ccd 05       		.uleb128 0x5
 8022 1cce 03       		.byte	0x3
 8023 1ccf 00860100 		.4byte	buf.12361
 8024 1cd3 00       		.byte	0
ARM GAS  C:\Users\Abude\AppData\Local\Temp\ccndXIr0.s 			page 182


 8025 1cd4 0C       		.uleb128 0xc
 8026 1cd5 EB040000 		.4byte	.LASF120
 8027 1cd9 01       		.byte	0x1
 8028 1cda 9404     		.2byte	0x494
 8029 1cdc 88000000 		.4byte	0x88
 8030 1ce0 00000000 		.4byte	.LFB106
 8031 1ce4 0C000000 		.4byte	.LFE106-.LFB106
 8032 1ce8 01       		.uleb128 0x1
 8033 1ce9 9C       		.byte	0x9c
 8034 1cea 111D0000 		.4byte	0x1d11
 8035 1cee 0D       		.uleb128 0xd
 8036 1cef 57080000 		.4byte	.LASF15
 8037 1cf3 01       		.byte	0x1
 8038 1cf4 9404     		.2byte	0x494
 8039 1cf6 88000000 		.4byte	0x88
 8040 1cfa AA0D0000 		.4byte	.LLST106
 8041 1cfe 0E       		.uleb128 0xe
 8042 1cff 62756600 		.ascii	"buf\000"
 8043 1d03 01       		.byte	0x1
 8044 1d04 9A04     		.2byte	0x49a
 8045 1d06 381C0000 		.4byte	0x1c38
 8046 1d0a 05       		.uleb128 0x5
 8047 1d0b 03       		.byte	0x3
 8048 1d0c 88860100 		.4byte	buf.12365
 8049 1d10 00       		.byte	0
 8050 1d11 0C       		.uleb128 0xc
 8051 1d12 56010000 		.4byte	.LASF121
 8052 1d16 01       		.byte	0x1
 8053 1d17 9F04     		.2byte	0x49f
 8054 1d19 88000000 		.4byte	0x88
 8055 1d1d 00000000 		.4byte	.LFB107
 8056 1d21 0C000000 		.4byte	.LFE107-.LFB107
 8057 1d25 01       		.uleb128 0x1
 8058 1d26 9C       		.byte	0x9c
 8059 1d27 4E1D0000 		.4byte	0x1d4e
 8060 1d2b 0D       		.uleb128 0xd
 8061 1d2c 57080000 		.4byte	.LASF15
 8062 1d30 01       		.byte	0x1
 8063 1d31 9F04     		.2byte	0x49f
 8064 1d33 88000000 		.4byte	0x88
 8065 1d37 CB0D0000 		.4byte	.LLST107
 8066 1d3b 0E       		.uleb128 0xe
 8067 1d3c 62756600 		.ascii	"buf\000"
 8068 1d40 01       		.byte	0x1
 8069 1d41 A504     		.2byte	0x4a5
 8070 1d43 4E1D0000 		.4byte	0x1d4e
 8071 1d47 05       		.uleb128 0x5
 8072 1d48 03       		.byte	0x3
 8073 1d49 98870100 		.4byte	buf.12369
 8074 1d4d 00       		.byte	0
 8075 1d4e 09       		.uleb128 0x9
 8076 1d4f 76000000 		.4byte	0x76
 8077 1d53 5F1D0000 		.4byte	0x1d5f
 8078 1d57 0B       		.uleb128 0xb
 8079 1d58 D8000000 		.4byte	0xd8
 8080 1d5c 3F04     		.2byte	0x43f
 8081 1d5e 00       		.byte	0
ARM GAS  C:\Users\Abude\AppData\Local\Temp\ccndXIr0.s 			page 183


 8082 1d5f 0C       		.uleb128 0xc
 8083 1d60 4B0A0000 		.4byte	.LASF122
 8084 1d64 01       		.byte	0x1
 8085 1d65 AA04     		.2byte	0x4aa
 8086 1d67 88000000 		.4byte	0x88
 8087 1d6b 00000000 		.4byte	.LFB108
 8088 1d6f 0C000000 		.4byte	.LFE108-.LFB108
 8089 1d73 01       		.uleb128 0x1
 8090 1d74 9C       		.byte	0x9c
 8091 1d75 9C1D0000 		.4byte	0x1d9c
 8092 1d79 0D       		.uleb128 0xd
 8093 1d7a 57080000 		.4byte	.LASF15
 8094 1d7e 01       		.byte	0x1
 8095 1d7f AA04     		.2byte	0x4aa
 8096 1d81 88000000 		.4byte	0x88
 8097 1d85 EC0D0000 		.4byte	.LLST108
 8098 1d89 0E       		.uleb128 0xe
 8099 1d8a 62756600 		.ascii	"buf\000"
 8100 1d8e 01       		.byte	0x1
 8101 1d8f B004     		.2byte	0x4b0
 8102 1d91 060B0000 		.4byte	0xb06
 8103 1d95 05       		.uleb128 0x5
 8104 1d96 03       		.byte	0x3
 8105 1d97 D88B0100 		.4byte	buf.12373
 8106 1d9b 00       		.byte	0
 8107 1d9c 0C       		.uleb128 0xc
 8108 1d9d 5A0A0000 		.4byte	.LASF123
 8109 1da1 01       		.byte	0x1
 8110 1da2 B504     		.2byte	0x4b5
 8111 1da4 88000000 		.4byte	0x88
 8112 1da8 00000000 		.4byte	.LFB109
 8113 1dac 0C000000 		.4byte	.LFE109-.LFB109
 8114 1db0 01       		.uleb128 0x1
 8115 1db1 9C       		.byte	0x9c
 8116 1db2 D91D0000 		.4byte	0x1dd9
 8117 1db6 0D       		.uleb128 0xd
 8118 1db7 57080000 		.4byte	.LASF15
 8119 1dbb 01       		.byte	0x1
 8120 1dbc B504     		.2byte	0x4b5
 8121 1dbe 88000000 		.4byte	0x88
 8122 1dc2 0D0E0000 		.4byte	.LLST109
 8123 1dc6 0E       		.uleb128 0xe
 8124 1dc7 62756600 		.ascii	"buf\000"
 8125 1dcb 01       		.byte	0x1
 8126 1dcc BB04     		.2byte	0x4bb
 8127 1dce CB0E0000 		.4byte	0xecb
 8128 1dd2 05       		.uleb128 0x5
 8129 1dd3 03       		.byte	0x3
 8130 1dd4 588D0100 		.4byte	buf.12377
 8131 1dd8 00       		.byte	0
 8132 1dd9 0C       		.uleb128 0xc
 8133 1dda 1D000000 		.4byte	.LASF124
 8134 1dde 01       		.byte	0x1
 8135 1ddf C004     		.2byte	0x4c0
 8136 1de1 88000000 		.4byte	0x88
 8137 1de5 00000000 		.4byte	.LFB110
 8138 1de9 0C000000 		.4byte	.LFE110-.LFB110
ARM GAS  C:\Users\Abude\AppData\Local\Temp\ccndXIr0.s 			page 184


 8139 1ded 01       		.uleb128 0x1
 8140 1dee 9C       		.byte	0x9c
 8141 1def 161E0000 		.4byte	0x1e16
 8142 1df3 0D       		.uleb128 0xd
 8143 1df4 57080000 		.4byte	.LASF15
 8144 1df8 01       		.byte	0x1
 8145 1df9 C004     		.2byte	0x4c0
 8146 1dfb 88000000 		.4byte	0x88
 8147 1dff 2E0E0000 		.4byte	.LLST110
 8148 1e03 0E       		.uleb128 0xe
 8149 1e04 62756600 		.ascii	"buf\000"
 8150 1e08 01       		.byte	0x1
 8151 1e09 C604     		.2byte	0x4c6
 8152 1e0b 161E0000 		.4byte	0x1e16
 8153 1e0f 05       		.uleb128 0x5
 8154 1e10 03       		.byte	0x3
 8155 1e11 58900100 		.4byte	buf.12381
 8156 1e15 00       		.byte	0
 8157 1e16 09       		.uleb128 0x9
 8158 1e17 76000000 		.4byte	0x76
 8159 1e1b 271E0000 		.4byte	0x1e27
 8160 1e1f 0B       		.uleb128 0xb
 8161 1e20 D8000000 		.4byte	0xd8
 8162 1e24 7F19     		.2byte	0x197f
 8163 1e26 00       		.byte	0
 8164 1e27 0C       		.uleb128 0xc
 8165 1e28 48080000 		.4byte	.LASF125
 8166 1e2c 01       		.byte	0x1
 8167 1e2d CB04     		.2byte	0x4cb
 8168 1e2f 88000000 		.4byte	0x88
 8169 1e33 00000000 		.4byte	.LFB111
 8170 1e37 0C000000 		.4byte	.LFE111-.LFB111
 8171 1e3b 01       		.uleb128 0x1
 8172 1e3c 9C       		.byte	0x9c
 8173 1e3d 641E0000 		.4byte	0x1e64
 8174 1e41 0D       		.uleb128 0xd
 8175 1e42 57080000 		.4byte	.LASF15
 8176 1e46 01       		.byte	0x1
 8177 1e47 CB04     		.2byte	0x4cb
 8178 1e49 88000000 		.4byte	0x88
 8179 1e4d 4F0E0000 		.4byte	.LLST111
 8180 1e51 0E       		.uleb128 0xe
 8181 1e52 62756600 		.ascii	"buf\000"
 8182 1e56 01       		.byte	0x1
 8183 1e57 D104     		.2byte	0x4d1
 8184 1e59 B1060000 		.4byte	0x6b1
 8185 1e5d 05       		.uleb128 0x5
 8186 1e5e 03       		.byte	0x3
 8187 1e5f D8A90100 		.4byte	buf.12385
 8188 1e63 00       		.byte	0
 8189 1e64 0C       		.uleb128 0xc
 8190 1e65 82010000 		.4byte	.LASF126
 8191 1e69 01       		.byte	0x1
 8192 1e6a D604     		.2byte	0x4d6
 8193 1e6c 88000000 		.4byte	0x88
 8194 1e70 00000000 		.4byte	.LFB112
 8195 1e74 0C000000 		.4byte	.LFE112-.LFB112
ARM GAS  C:\Users\Abude\AppData\Local\Temp\ccndXIr0.s 			page 185


 8196 1e78 01       		.uleb128 0x1
 8197 1e79 9C       		.byte	0x9c
 8198 1e7a A11E0000 		.4byte	0x1ea1
 8199 1e7e 0D       		.uleb128 0xd
 8200 1e7f 57080000 		.4byte	.LASF15
 8201 1e83 01       		.byte	0x1
 8202 1e84 D604     		.2byte	0x4d6
 8203 1e86 88000000 		.4byte	0x88
 8204 1e8a 700E0000 		.4byte	.LLST112
 8205 1e8e 0E       		.uleb128 0xe
 8206 1e8f 62756600 		.ascii	"buf\000"
 8207 1e93 01       		.byte	0x1
 8208 1e94 DC04     		.2byte	0x4dc
 8209 1e96 51080000 		.4byte	0x851
 8210 1e9a 05       		.uleb128 0x5
 8211 1e9b 03       		.byte	0x3
 8212 1e9c 78AA0100 		.4byte	buf.12389
 8213 1ea0 00       		.byte	0
 8214 1ea1 0C       		.uleb128 0xc
 8215 1ea2 55090000 		.4byte	.LASF127
 8216 1ea6 01       		.byte	0x1
 8217 1ea7 E104     		.2byte	0x4e1
 8218 1ea9 88000000 		.4byte	0x88
 8219 1ead 00000000 		.4byte	.LFB113
 8220 1eb1 0C000000 		.4byte	.LFE113-.LFB113
 8221 1eb5 01       		.uleb128 0x1
 8222 1eb6 9C       		.byte	0x9c
 8223 1eb7 DE1E0000 		.4byte	0x1ede
 8224 1ebb 0D       		.uleb128 0xd
 8225 1ebc 57080000 		.4byte	.LASF15
 8226 1ec0 01       		.byte	0x1
 8227 1ec1 E104     		.2byte	0x4e1
 8228 1ec3 88000000 		.4byte	0x88
 8229 1ec7 910E0000 		.4byte	.LLST113
 8230 1ecb 0E       		.uleb128 0xe
 8231 1ecc 62756600 		.ascii	"buf\000"
 8232 1ed0 01       		.byte	0x1
 8233 1ed1 E704     		.2byte	0x4e7
 8234 1ed3 95140000 		.4byte	0x1495
 8235 1ed7 05       		.uleb128 0x5
 8236 1ed8 03       		.byte	0x3
 8237 1ed9 B8AB0100 		.4byte	buf.12393
 8238 1edd 00       		.byte	0
 8239 1ede 0C       		.uleb128 0xc
 8240 1edf 75060000 		.4byte	.LASF128
 8241 1ee3 01       		.byte	0x1
 8242 1ee4 EC04     		.2byte	0x4ec
 8243 1ee6 88000000 		.4byte	0x88
 8244 1eea 00000000 		.4byte	.LFB114
 8245 1eee 0C000000 		.4byte	.LFE114-.LFB114
 8246 1ef2 01       		.uleb128 0x1
 8247 1ef3 9C       		.byte	0x9c
 8248 1ef4 1B1F0000 		.4byte	0x1f1b
 8249 1ef8 0D       		.uleb128 0xd
 8250 1ef9 57080000 		.4byte	.LASF15
 8251 1efd 01       		.byte	0x1
 8252 1efe EC04     		.2byte	0x4ec
ARM GAS  C:\Users\Abude\AppData\Local\Temp\ccndXIr0.s 			page 186


 8253 1f00 88000000 		.4byte	0x88
 8254 1f04 B20E0000 		.4byte	.LLST114
 8255 1f08 0E       		.uleb128 0xe
 8256 1f09 62756600 		.ascii	"buf\000"
 8257 1f0d 01       		.byte	0x1
 8258 1f0e F204     		.2byte	0x4f2
 8259 1f10 19010000 		.4byte	0x119
 8260 1f14 05       		.uleb128 0x5
 8261 1f15 03       		.byte	0x3
 8262 1f16 38B30100 		.4byte	buf.12397
 8263 1f1a 00       		.byte	0
 8264 1f1b 0C       		.uleb128 0xc
 8265 1f1c 84060000 		.4byte	.LASF129
 8266 1f20 01       		.byte	0x1
 8267 1f21 F704     		.2byte	0x4f7
 8268 1f23 88000000 		.4byte	0x88
 8269 1f27 00000000 		.4byte	.LFB115
 8270 1f2b 0C000000 		.4byte	.LFE115-.LFB115
 8271 1f2f 01       		.uleb128 0x1
 8272 1f30 9C       		.byte	0x9c
 8273 1f31 581F0000 		.4byte	0x1f58
 8274 1f35 0D       		.uleb128 0xd
 8275 1f36 57080000 		.4byte	.LASF15
 8276 1f3a 01       		.byte	0x1
 8277 1f3b F704     		.2byte	0x4f7
 8278 1f3d 88000000 		.4byte	0x88
 8279 1f41 D30E0000 		.4byte	.LLST115
 8280 1f45 0E       		.uleb128 0xe
 8281 1f46 62756600 		.ascii	"buf\000"
 8282 1f4a 01       		.byte	0x1
 8283 1f4b FD04     		.2byte	0x4fd
 8284 1f4d 63010000 		.4byte	0x163
 8285 1f51 05       		.uleb128 0x5
 8286 1f52 03       		.byte	0x3
 8287 1f53 38B40100 		.4byte	buf.12401
 8288 1f57 00       		.byte	0
 8289 1f58 0C       		.uleb128 0xc
 8290 1f59 20070000 		.4byte	.LASF130
 8291 1f5d 01       		.byte	0x1
 8292 1f5e 0205     		.2byte	0x502
 8293 1f60 88000000 		.4byte	0x88
 8294 1f64 00000000 		.4byte	.LFB116
 8295 1f68 0C000000 		.4byte	.LFE116-.LFB116
 8296 1f6c 01       		.uleb128 0x1
 8297 1f6d 9C       		.byte	0x9c
 8298 1f6e 951F0000 		.4byte	0x1f95
 8299 1f72 0D       		.uleb128 0xd
 8300 1f73 57080000 		.4byte	.LASF15
 8301 1f77 01       		.byte	0x1
 8302 1f78 0205     		.2byte	0x502
 8303 1f7a 88000000 		.4byte	0x88
 8304 1f7e F40E0000 		.4byte	.LLST116
 8305 1f82 0E       		.uleb128 0xe
 8306 1f83 62756600 		.ascii	"buf\000"
 8307 1f87 01       		.byte	0x1
 8308 1f88 0805     		.2byte	0x508
 8309 1f8a 951F0000 		.4byte	0x1f95
ARM GAS  C:\Users\Abude\AppData\Local\Temp\ccndXIr0.s 			page 187


 8310 1f8e 05       		.uleb128 0x5
 8311 1f8f 03       		.byte	0x3
 8312 1f90 38B60100 		.4byte	buf.12405
 8313 1f94 00       		.byte	0
 8314 1f95 09       		.uleb128 0x9
 8315 1f96 76000000 		.4byte	0x76
 8316 1f9a A61F0000 		.4byte	0x1fa6
 8317 1f9e 0B       		.uleb128 0xb
 8318 1f9f D8000000 		.4byte	0xd8
 8319 1fa3 FF13     		.2byte	0x13ff
 8320 1fa5 00       		.byte	0
 8321 1fa6 0C       		.uleb128 0xc
 8322 1fa7 02070000 		.4byte	.LASF131
 8323 1fab 01       		.byte	0x1
 8324 1fac 0D05     		.2byte	0x50d
 8325 1fae 88000000 		.4byte	0x88
 8326 1fb2 00000000 		.4byte	.LFB117
 8327 1fb6 0C000000 		.4byte	.LFE117-.LFB117
 8328 1fba 01       		.uleb128 0x1
 8329 1fbb 9C       		.byte	0x9c
 8330 1fbc E31F0000 		.4byte	0x1fe3
 8331 1fc0 0D       		.uleb128 0xd
 8332 1fc1 57080000 		.4byte	.LASF15
 8333 1fc5 01       		.byte	0x1
 8334 1fc6 0D05     		.2byte	0x50d
 8335 1fc8 88000000 		.4byte	0x88
 8336 1fcc 150F0000 		.4byte	.LLST117
 8337 1fd0 0E       		.uleb128 0xe
 8338 1fd1 62756600 		.ascii	"buf\000"
 8339 1fd5 01       		.byte	0x1
 8340 1fd6 1305     		.2byte	0x513
 8341 1fd8 E0110000 		.4byte	0x11e0
 8342 1fdc 05       		.uleb128 0x5
 8343 1fdd 03       		.byte	0x3
 8344 1fde 38CA0100 		.4byte	buf.12409
 8345 1fe2 00       		.byte	0
 8346 1fe3 0C       		.uleb128 0xc
 8347 1fe4 11070000 		.4byte	.LASF132
 8348 1fe8 01       		.byte	0x1
 8349 1fe9 1805     		.2byte	0x518
 8350 1feb 88000000 		.4byte	0x88
 8351 1fef 00000000 		.4byte	.LFB118
 8352 1ff3 0C000000 		.4byte	.LFE118-.LFB118
 8353 1ff7 01       		.uleb128 0x1
 8354 1ff8 9C       		.byte	0x9c
 8355 1ff9 20200000 		.4byte	0x2020
 8356 1ffd 0D       		.uleb128 0xd
 8357 1ffe 57080000 		.4byte	.LASF15
 8358 2002 01       		.byte	0x1
 8359 2003 1805     		.2byte	0x518
 8360 2005 88000000 		.4byte	0x88
 8361 2009 360F0000 		.4byte	.LLST118
 8362 200d 0E       		.uleb128 0xe
 8363 200e 62756600 		.ascii	"buf\000"
 8364 2012 01       		.byte	0x1
 8365 2013 1E05     		.2byte	0x51e
 8366 2015 20200000 		.4byte	0x2020
ARM GAS  C:\Users\Abude\AppData\Local\Temp\ccndXIr0.s 			page 188


 8367 2019 05       		.uleb128 0x5
 8368 201a 03       		.byte	0x3
 8369 201b E8CA0100 		.4byte	buf.12413
 8370 201f 00       		.byte	0
 8371 2020 09       		.uleb128 0x9
 8372 2021 76000000 		.4byte	0x76
 8373 2025 31200000 		.4byte	0x2031
 8374 2029 0B       		.uleb128 0xb
 8375 202a D8000000 		.4byte	0xd8
 8376 202e 5F01     		.2byte	0x15f
 8377 2030 00       		.byte	0
 8378 2031 0C       		.uleb128 0xc
 8379 2032 BC070000 		.4byte	.LASF133
 8380 2036 01       		.byte	0x1
 8381 2037 2305     		.2byte	0x523
 8382 2039 88000000 		.4byte	0x88
 8383 203d 00000000 		.4byte	.LFB119
 8384 2041 0C000000 		.4byte	.LFE119-.LFB119
 8385 2045 01       		.uleb128 0x1
 8386 2046 9C       		.byte	0x9c
 8387 2047 6E200000 		.4byte	0x206e
 8388 204b 0D       		.uleb128 0xd
 8389 204c 57080000 		.4byte	.LASF15
 8390 2050 01       		.byte	0x1
 8391 2051 2305     		.2byte	0x523
 8392 2053 88000000 		.4byte	0x88
 8393 2057 570F0000 		.4byte	.LLST119
 8394 205b 0E       		.uleb128 0xe
 8395 205c 62756600 		.ascii	"buf\000"
 8396 2060 01       		.byte	0x1
 8397 2061 2905     		.2byte	0x529
 8398 2063 6E200000 		.4byte	0x206e
 8399 2067 05       		.uleb128 0x5
 8400 2068 03       		.byte	0x3
 8401 2069 48CC0100 		.4byte	buf.12417
 8402 206d 00       		.byte	0
 8403 206e 09       		.uleb128 0x9
 8404 206f 76000000 		.4byte	0x76
 8405 2073 7F200000 		.4byte	0x207f
 8406 2077 0B       		.uleb128 0xb
 8407 2078 D8000000 		.4byte	0xd8
 8408 207c EF08     		.2byte	0x8ef
 8409 207e 00       		.byte	0
 8410 207f 0C       		.uleb128 0xc
 8411 2080 AF010000 		.4byte	.LASF134
 8412 2084 01       		.byte	0x1
 8413 2085 2E05     		.2byte	0x52e
 8414 2087 88000000 		.4byte	0x88
 8415 208b 00000000 		.4byte	.LFB120
 8416 208f 0C000000 		.4byte	.LFE120-.LFB120
 8417 2093 01       		.uleb128 0x1
 8418 2094 9C       		.byte	0x9c
 8419 2095 BC200000 		.4byte	0x20bc
 8420 2099 0D       		.uleb128 0xd
 8421 209a 57080000 		.4byte	.LASF15
 8422 209e 01       		.byte	0x1
 8423 209f 2E05     		.2byte	0x52e
ARM GAS  C:\Users\Abude\AppData\Local\Temp\ccndXIr0.s 			page 189


 8424 20a1 88000000 		.4byte	0x88
 8425 20a5 780F0000 		.4byte	.LLST120
 8426 20a9 0E       		.uleb128 0xe
 8427 20aa 62756600 		.ascii	"buf\000"
 8428 20ae 01       		.byte	0x1
 8429 20af 3405     		.2byte	0x534
 8430 20b1 BC200000 		.4byte	0x20bc
 8431 20b5 05       		.uleb128 0x5
 8432 20b6 03       		.byte	0x3
 8433 20b7 38D50100 		.4byte	buf.12421
 8434 20bb 00       		.byte	0
 8435 20bc 09       		.uleb128 0x9
 8436 20bd 76000000 		.4byte	0x76
 8437 20c1 CC200000 		.4byte	0x20cc
 8438 20c5 0A       		.uleb128 0xa
 8439 20c6 D8000000 		.4byte	0xd8
 8440 20ca 97       		.byte	0x97
 8441 20cb 00       		.byte	0
 8442 20cc 0C       		.uleb128 0xc
 8443 20cd BD010000 		.4byte	.LASF135
 8444 20d1 01       		.byte	0x1
 8445 20d2 3905     		.2byte	0x539
 8446 20d4 88000000 		.4byte	0x88
 8447 20d8 00000000 		.4byte	.LFB121
 8448 20dc 0C000000 		.4byte	.LFE121-.LFB121
 8449 20e0 01       		.uleb128 0x1
 8450 20e1 9C       		.byte	0x9c
 8451 20e2 09210000 		.4byte	0x2109
 8452 20e6 0D       		.uleb128 0xd
 8453 20e7 57080000 		.4byte	.LASF15
 8454 20eb 01       		.byte	0x1
 8455 20ec 3905     		.2byte	0x539
 8456 20ee 88000000 		.4byte	0x88
 8457 20f2 990F0000 		.4byte	.LLST121
 8458 20f6 0E       		.uleb128 0xe
 8459 20f7 62756600 		.ascii	"buf\000"
 8460 20fb 01       		.byte	0x1
 8461 20fc 3F05     		.2byte	0x53f
 8462 20fe 09210000 		.4byte	0x2109
 8463 2102 05       		.uleb128 0x5
 8464 2103 03       		.byte	0x3
 8465 2104 D0D50100 		.4byte	buf.12425
 8466 2108 00       		.byte	0
 8467 2109 09       		.uleb128 0x9
 8468 210a 76000000 		.4byte	0x76
 8469 210e 1A210000 		.4byte	0x211a
 8470 2112 0B       		.uleb128 0xb
 8471 2113 D8000000 		.4byte	0xd8
 8472 2117 2F01     		.2byte	0x12f
 8473 2119 00       		.byte	0
 8474 211a 0C       		.uleb128 0xc
 8475 211b 62020000 		.4byte	.LASF136
 8476 211f 01       		.byte	0x1
 8477 2120 4405     		.2byte	0x544
 8478 2122 88000000 		.4byte	0x88
 8479 2126 00000000 		.4byte	.LFB122
 8480 212a 0C000000 		.4byte	.LFE122-.LFB122
ARM GAS  C:\Users\Abude\AppData\Local\Temp\ccndXIr0.s 			page 190


 8481 212e 01       		.uleb128 0x1
 8482 212f 9C       		.byte	0x9c
 8483 2130 57210000 		.4byte	0x2157
 8484 2134 0D       		.uleb128 0xd
 8485 2135 57080000 		.4byte	.LASF15
 8486 2139 01       		.byte	0x1
 8487 213a 4405     		.2byte	0x544
 8488 213c 88000000 		.4byte	0x88
 8489 2140 BA0F0000 		.4byte	.LLST122
 8490 2144 0E       		.uleb128 0xe
 8491 2145 62756600 		.ascii	"buf\000"
 8492 2149 01       		.byte	0x1
 8493 214a 4A05     		.2byte	0x54a
 8494 214c 57210000 		.4byte	0x2157
 8495 2150 05       		.uleb128 0x5
 8496 2151 03       		.byte	0x3
 8497 2152 00D70100 		.4byte	buf.12429
 8498 2156 00       		.byte	0
 8499 2157 09       		.uleb128 0x9
 8500 2158 76000000 		.4byte	0x76
 8501 215c 68210000 		.4byte	0x2168
 8502 2160 0B       		.uleb128 0xb
 8503 2161 D8000000 		.4byte	0xd8
 8504 2165 5F02     		.2byte	0x25f
 8505 2167 00       		.byte	0
 8506 2168 0C       		.uleb128 0xc
 8507 2169 64010000 		.4byte	.LASF137
 8508 216d 01       		.byte	0x1
 8509 216e 4F05     		.2byte	0x54f
 8510 2170 88000000 		.4byte	0x88
 8511 2174 00000000 		.4byte	.LFB123
 8512 2178 0C000000 		.4byte	.LFE123-.LFB123
 8513 217c 01       		.uleb128 0x1
 8514 217d 9C       		.byte	0x9c
 8515 217e A5210000 		.4byte	0x21a5
 8516 2182 0D       		.uleb128 0xd
 8517 2183 57080000 		.4byte	.LASF15
 8518 2187 01       		.byte	0x1
 8519 2188 4F05     		.2byte	0x54f
 8520 218a 88000000 		.4byte	0x88
 8521 218e DB0F0000 		.4byte	.LLST123
 8522 2192 0E       		.uleb128 0xe
 8523 2193 62756600 		.ascii	"buf\000"
 8524 2197 01       		.byte	0x1
 8525 2198 5505     		.2byte	0x555
 8526 219a B1060000 		.4byte	0x6b1
 8527 219e 05       		.uleb128 0x5
 8528 219f 03       		.byte	0x3
 8529 21a0 60D90100 		.4byte	buf.12433
 8530 21a4 00       		.byte	0
 8531 21a5 0C       		.uleb128 0xc
 8532 21a6 73010000 		.4byte	.LASF138
 8533 21aa 01       		.byte	0x1
 8534 21ab 5A05     		.2byte	0x55a
 8535 21ad 88000000 		.4byte	0x88
 8536 21b1 00000000 		.4byte	.LFB124
 8537 21b5 0C000000 		.4byte	.LFE124-.LFB124
ARM GAS  C:\Users\Abude\AppData\Local\Temp\ccndXIr0.s 			page 191


 8538 21b9 01       		.uleb128 0x1
 8539 21ba 9C       		.byte	0x9c
 8540 21bb E2210000 		.4byte	0x21e2
 8541 21bf 0D       		.uleb128 0xd
 8542 21c0 57080000 		.4byte	.LASF15
 8543 21c4 01       		.byte	0x1
 8544 21c5 5A05     		.2byte	0x55a
 8545 21c7 88000000 		.4byte	0x88
 8546 21cb FC0F0000 		.4byte	.LLST124
 8547 21cf 0E       		.uleb128 0xe
 8548 21d0 62756600 		.ascii	"buf\000"
 8549 21d4 01       		.byte	0x1
 8550 21d5 6005     		.2byte	0x560
 8551 21d7 51080000 		.4byte	0x851
 8552 21db 05       		.uleb128 0x5
 8553 21dc 03       		.byte	0x3
 8554 21dd 00DA0100 		.4byte	buf.12437
 8555 21e1 00       		.byte	0
 8556 21e2 0C       		.uleb128 0xc
 8557 21e3 A8020000 		.4byte	.LASF139
 8558 21e7 01       		.byte	0x1
 8559 21e8 6505     		.2byte	0x565
 8560 21ea 88000000 		.4byte	0x88
 8561 21ee 00000000 		.4byte	.LFB125
 8562 21f2 0C000000 		.4byte	.LFE125-.LFB125
 8563 21f6 01       		.uleb128 0x1
 8564 21f7 9C       		.byte	0x9c
 8565 21f8 1F220000 		.4byte	0x221f
 8566 21fc 0D       		.uleb128 0xd
 8567 21fd 57080000 		.4byte	.LASF15
 8568 2201 01       		.byte	0x1
 8569 2202 6505     		.2byte	0x565
 8570 2204 88000000 		.4byte	0x88
 8571 2208 1D100000 		.4byte	.LLST125
 8572 220c 0E       		.uleb128 0xe
 8573 220d 62756600 		.ascii	"buf\000"
 8574 2211 01       		.byte	0x1
 8575 2212 6B05     		.2byte	0x56b
 8576 2214 1F220000 		.4byte	0x221f
 8577 2218 05       		.uleb128 0x5
 8578 2219 03       		.byte	0x3
 8579 221a 40DB0100 		.4byte	buf.12441
 8580 221e 00       		.byte	0
 8581 221f 09       		.uleb128 0x9
 8582 2220 76000000 		.4byte	0x76
 8583 2224 30220000 		.4byte	0x2230
 8584 2228 0B       		.uleb128 0xb
 8585 2229 D8000000 		.4byte	0xd8
 8586 222d 3F06     		.2byte	0x63f
 8587 222f 00       		.byte	0
 8588 2230 0C       		.uleb128 0xc
 8589 2231 2F0A0000 		.4byte	.LASF140
 8590 2235 01       		.byte	0x1
 8591 2236 7005     		.2byte	0x570
 8592 2238 88000000 		.4byte	0x88
 8593 223c 00000000 		.4byte	.LFB126
 8594 2240 0C000000 		.4byte	.LFE126-.LFB126
ARM GAS  C:\Users\Abude\AppData\Local\Temp\ccndXIr0.s 			page 192


 8595 2244 01       		.uleb128 0x1
 8596 2245 9C       		.byte	0x9c
 8597 2246 6D220000 		.4byte	0x226d
 8598 224a 0D       		.uleb128 0xd
 8599 224b 57080000 		.4byte	.LASF15
 8600 224f 01       		.byte	0x1
 8601 2250 7005     		.2byte	0x570
 8602 2252 88000000 		.4byte	0x88
 8603 2256 3E100000 		.4byte	.LLST126
 8604 225a 0E       		.uleb128 0xe
 8605 225b 62756600 		.ascii	"buf\000"
 8606 225f 01       		.byte	0x1
 8607 2260 7605     		.2byte	0x576
 8608 2262 B1060000 		.4byte	0x6b1
 8609 2266 05       		.uleb128 0x5
 8610 2267 03       		.byte	0x3
 8611 2268 80E10100 		.4byte	buf.12445
 8612 226c 00       		.byte	0
 8613 226d 0C       		.uleb128 0xc
 8614 226e 3D0A0000 		.4byte	.LASF141
 8615 2272 01       		.byte	0x1
 8616 2273 7B05     		.2byte	0x57b
 8617 2275 88000000 		.4byte	0x88
 8618 2279 00000000 		.4byte	.LFB127
 8619 227d 0C000000 		.4byte	.LFE127-.LFB127
 8620 2281 01       		.uleb128 0x1
 8621 2282 9C       		.byte	0x9c
 8622 2283 AA220000 		.4byte	0x22aa
 8623 2287 0D       		.uleb128 0xd
 8624 2288 57080000 		.4byte	.LASF15
 8625 228c 01       		.byte	0x1
 8626 228d 7B05     		.2byte	0x57b
 8627 228f 88000000 		.4byte	0x88
 8628 2293 5F100000 		.4byte	.LLST127
 8629 2297 0E       		.uleb128 0xe
 8630 2298 62756600 		.ascii	"buf\000"
 8631 229c 01       		.byte	0x1
 8632 229d 8105     		.2byte	0x581
 8633 229f 51080000 		.4byte	0x851
 8634 22a3 05       		.uleb128 0x5
 8635 22a4 03       		.byte	0x3
 8636 22a5 20E20100 		.4byte	buf.12449
 8637 22a9 00       		.byte	0
 8638 22aa 0C       		.uleb128 0xc
 8639 22ab 0F000000 		.4byte	.LASF142
 8640 22af 01       		.byte	0x1
 8641 22b0 8605     		.2byte	0x586
 8642 22b2 88000000 		.4byte	0x88
 8643 22b6 00000000 		.4byte	.LFB128
 8644 22ba 0C000000 		.4byte	.LFE128-.LFB128
 8645 22be 01       		.uleb128 0x1
 8646 22bf 9C       		.byte	0x9c
 8647 22c0 E7220000 		.4byte	0x22e7
 8648 22c4 0D       		.uleb128 0xd
 8649 22c5 57080000 		.4byte	.LASF15
 8650 22c9 01       		.byte	0x1
 8651 22ca 8605     		.2byte	0x586
ARM GAS  C:\Users\Abude\AppData\Local\Temp\ccndXIr0.s 			page 193


 8652 22cc 88000000 		.4byte	0x88
 8653 22d0 80100000 		.4byte	.LLST128
 8654 22d4 0E       		.uleb128 0xe
 8655 22d5 62756600 		.ascii	"buf\000"
 8656 22d9 01       		.byte	0x1
 8657 22da 8C05     		.2byte	0x58c
 8658 22dc 981A0000 		.4byte	0x1a98
 8659 22e0 05       		.uleb128 0x5
 8660 22e1 03       		.byte	0x3
 8661 22e2 60E30100 		.4byte	buf.12453
 8662 22e6 00       		.byte	0
 8663 22e7 0C       		.uleb128 0xc
 8664 22e8 48000000 		.4byte	.LASF143
 8665 22ec 01       		.byte	0x1
 8666 22ed 9105     		.2byte	0x591
 8667 22ef 88000000 		.4byte	0x88
 8668 22f3 00000000 		.4byte	.LFB129
 8669 22f7 0C000000 		.4byte	.LFE129-.LFB129
 8670 22fb 01       		.uleb128 0x1
 8671 22fc 9C       		.byte	0x9c
 8672 22fd 24230000 		.4byte	0x2324
 8673 2301 0D       		.uleb128 0xd
 8674 2302 57080000 		.4byte	.LASF15
 8675 2306 01       		.byte	0x1
 8676 2307 9105     		.2byte	0x591
 8677 2309 88000000 		.4byte	0x88
 8678 230d A1100000 		.4byte	.LLST129
 8679 2311 0E       		.uleb128 0xe
 8680 2312 62756600 		.ascii	"buf\000"
 8681 2316 01       		.byte	0x1
 8682 2317 9705     		.2byte	0x597
 8683 2319 B1060000 		.4byte	0x6b1
 8684 231d 05       		.uleb128 0x5
 8685 231e 03       		.byte	0x3
 8686 231f E0E50100 		.4byte	buf.12457
 8687 2323 00       		.byte	0
 8688 2324 0C       		.uleb128 0xc
 8689 2325 57000000 		.4byte	.LASF144
 8690 2329 01       		.byte	0x1
 8691 232a 9C05     		.2byte	0x59c
 8692 232c 88000000 		.4byte	0x88
 8693 2330 00000000 		.4byte	.LFB130
 8694 2334 0C000000 		.4byte	.LFE130-.LFB130
 8695 2338 01       		.uleb128 0x1
 8696 2339 9C       		.byte	0x9c
 8697 233a 61230000 		.4byte	0x2361
 8698 233e 0D       		.uleb128 0xd
 8699 233f 57080000 		.4byte	.LASF15
 8700 2343 01       		.byte	0x1
 8701 2344 9C05     		.2byte	0x59c
 8702 2346 88000000 		.4byte	0x88
 8703 234a C2100000 		.4byte	.LLST130
 8704 234e 0E       		.uleb128 0xe
 8705 234f 62756600 		.ascii	"buf\000"
 8706 2353 01       		.byte	0x1
 8707 2354 A205     		.2byte	0x5a2
 8708 2356 51080000 		.4byte	0x851
ARM GAS  C:\Users\Abude\AppData\Local\Temp\ccndXIr0.s 			page 194


 8709 235a 05       		.uleb128 0x5
 8710 235b 03       		.byte	0x3
 8711 235c 80E60100 		.4byte	buf.12461
 8712 2360 00       		.byte	0
 8713 2361 0C       		.uleb128 0xc
 8714 2362 C6000000 		.4byte	.LASF145
 8715 2366 01       		.byte	0x1
 8716 2367 A705     		.2byte	0x5a7
 8717 2369 88000000 		.4byte	0x88
 8718 236d 00000000 		.4byte	.LFB131
 8719 2371 0C000000 		.4byte	.LFE131-.LFB131
 8720 2375 01       		.uleb128 0x1
 8721 2376 9C       		.byte	0x9c
 8722 2377 9E230000 		.4byte	0x239e
 8723 237b 0D       		.uleb128 0xd
 8724 237c 57080000 		.4byte	.LASF15
 8725 2380 01       		.byte	0x1
 8726 2381 A705     		.2byte	0x5a7
 8727 2383 88000000 		.4byte	0x88
 8728 2387 E3100000 		.4byte	.LLST131
 8729 238b 0E       		.uleb128 0xe
 8730 238c 62756600 		.ascii	"buf\000"
 8731 2390 01       		.byte	0x1
 8732 2391 AD05     		.2byte	0x5ad
 8733 2393 9E230000 		.4byte	0x239e
 8734 2397 05       		.uleb128 0x5
 8735 2398 03       		.byte	0x3
 8736 2399 C0E70100 		.4byte	buf.12465
 8737 239d 00       		.byte	0
 8738 239e 09       		.uleb128 0x9
 8739 239f 76000000 		.4byte	0x76
 8740 23a3 AF230000 		.4byte	0x23af
 8741 23a7 0B       		.uleb128 0xb
 8742 23a8 D8000000 		.4byte	0xd8
 8743 23ac 9F0A     		.2byte	0xa9f
 8744 23ae 00       		.byte	0
 8745 23af 0C       		.uleb128 0xc
 8746 23b0 7E020000 		.4byte	.LASF146
 8747 23b4 01       		.byte	0x1
 8748 23b5 B205     		.2byte	0x5b2
 8749 23b7 88000000 		.4byte	0x88
 8750 23bb 00000000 		.4byte	.LFB132
 8751 23bf 0C000000 		.4byte	.LFE132-.LFB132
 8752 23c3 01       		.uleb128 0x1
 8753 23c4 9C       		.byte	0x9c
 8754 23c5 EC230000 		.4byte	0x23ec
 8755 23c9 0D       		.uleb128 0xd
 8756 23ca 57080000 		.4byte	.LASF15
 8757 23ce 01       		.byte	0x1
 8758 23cf B205     		.2byte	0x5b2
 8759 23d1 88000000 		.4byte	0x88
 8760 23d5 04110000 		.4byte	.LLST132
 8761 23d9 0E       		.uleb128 0xe
 8762 23da 62756600 		.ascii	"buf\000"
 8763 23de 01       		.byte	0x1
 8764 23df B805     		.2byte	0x5b8
 8765 23e1 E0110000 		.4byte	0x11e0
ARM GAS  C:\Users\Abude\AppData\Local\Temp\ccndXIr0.s 			page 195


 8766 23e5 05       		.uleb128 0x5
 8767 23e6 03       		.byte	0x3
 8768 23e7 60F20100 		.4byte	buf.12469
 8769 23eb 00       		.byte	0
 8770 23ec 0C       		.uleb128 0xc
 8771 23ed 8C020000 		.4byte	.LASF147
 8772 23f1 01       		.byte	0x1
 8773 23f2 BD05     		.2byte	0x5bd
 8774 23f4 88000000 		.4byte	0x88
 8775 23f8 00000000 		.4byte	.LFB133
 8776 23fc 0C000000 		.4byte	.LFE133-.LFB133
 8777 2400 01       		.uleb128 0x1
 8778 2401 9C       		.byte	0x9c
 8779 2402 29240000 		.4byte	0x2429
 8780 2406 0D       		.uleb128 0xd
 8781 2407 57080000 		.4byte	.LASF15
 8782 240b 01       		.byte	0x1
 8783 240c BD05     		.2byte	0x5bd
 8784 240e 88000000 		.4byte	0x88
 8785 2412 25110000 		.4byte	.LLST133
 8786 2416 0E       		.uleb128 0xe
 8787 2417 62756600 		.ascii	"buf\000"
 8788 241b 01       		.byte	0x1
 8789 241c C305     		.2byte	0x5c3
 8790 241e 20200000 		.4byte	0x2020
 8791 2422 05       		.uleb128 0x5
 8792 2423 03       		.byte	0x3
 8793 2424 10F30100 		.4byte	buf.12473
 8794 2428 00       		.byte	0
 8795 2429 0C       		.uleb128 0xc
 8796 242a 7C030000 		.4byte	.LASF148
 8797 242e 01       		.byte	0x1
 8798 242f C805     		.2byte	0x5c8
 8799 2431 88000000 		.4byte	0x88
 8800 2435 00000000 		.4byte	.LFB134
 8801 2439 0C000000 		.4byte	.LFE134-.LFB134
 8802 243d 01       		.uleb128 0x1
 8803 243e 9C       		.byte	0x9c
 8804 243f 66240000 		.4byte	0x2466
 8805 2443 0D       		.uleb128 0xd
 8806 2444 57080000 		.4byte	.LASF15
 8807 2448 01       		.byte	0x1
 8808 2449 C805     		.2byte	0x5c8
 8809 244b 88000000 		.4byte	0x88
 8810 244f 46110000 		.4byte	.LLST134
 8811 2453 0E       		.uleb128 0xe
 8812 2454 62756600 		.ascii	"buf\000"
 8813 2458 01       		.byte	0x1
 8814 2459 CE05     		.2byte	0x5ce
 8815 245b 66240000 		.4byte	0x2466
 8816 245f 05       		.uleb128 0x5
 8817 2460 03       		.byte	0x3
 8818 2461 70F40100 		.4byte	buf.12477
 8819 2465 00       		.byte	0
 8820 2466 09       		.uleb128 0x9
 8821 2467 76000000 		.4byte	0x76
 8822 246b 77240000 		.4byte	0x2477
ARM GAS  C:\Users\Abude\AppData\Local\Temp\ccndXIr0.s 			page 196


 8823 246f 0B       		.uleb128 0xb
 8824 2470 D8000000 		.4byte	0xd8
 8825 2474 2F06     		.2byte	0x62f
 8826 2476 00       		.byte	0
 8827 2477 0C       		.uleb128 0xc
 8828 2478 F5090000 		.4byte	.LASF149
 8829 247c 01       		.byte	0x1
 8830 247d D305     		.2byte	0x5d3
 8831 247f 88000000 		.4byte	0x88
 8832 2483 00000000 		.4byte	.LFB135
 8833 2487 0C000000 		.4byte	.LFE135-.LFB135
 8834 248b 01       		.uleb128 0x1
 8835 248c 9C       		.byte	0x9c
 8836 248d B4240000 		.4byte	0x24b4
 8837 2491 0D       		.uleb128 0xd
 8838 2492 57080000 		.4byte	.LASF15
 8839 2496 01       		.byte	0x1
 8840 2497 D305     		.2byte	0x5d3
 8841 2499 88000000 		.4byte	0x88
 8842 249d 67110000 		.4byte	.LLST135
 8843 24a1 0E       		.uleb128 0xe
 8844 24a2 62756600 		.ascii	"buf\000"
 8845 24a6 01       		.byte	0x1
 8846 24a7 D905     		.2byte	0x5d9
 8847 24a9 B4240000 		.4byte	0x24b4
 8848 24ad 05       		.uleb128 0x5
 8849 24ae 03       		.byte	0x3
 8850 24af A0FA0100 		.4byte	buf.12481
 8851 24b3 00       		.byte	0
 8852 24b4 09       		.uleb128 0x9
 8853 24b5 76000000 		.4byte	0x76
 8854 24b9 C4240000 		.4byte	0x24c4
 8855 24bd 0A       		.uleb128 0xa
 8856 24be D8000000 		.4byte	0xd8
 8857 24c2 C7       		.byte	0xc7
 8858 24c3 00       		.byte	0
 8859 24c4 0C       		.uleb128 0xc
 8860 24c5 040A0000 		.4byte	.LASF150
 8861 24c9 01       		.byte	0x1
 8862 24ca DE05     		.2byte	0x5de
 8863 24cc 88000000 		.4byte	0x88
 8864 24d0 00000000 		.4byte	.LFB136
 8865 24d4 0C000000 		.4byte	.LFE136-.LFB136
 8866 24d8 01       		.uleb128 0x1
 8867 24d9 9C       		.byte	0x9c
 8868 24da 01250000 		.4byte	0x2501
 8869 24de 0D       		.uleb128 0xd
 8870 24df 57080000 		.4byte	.LASF15
 8871 24e3 01       		.byte	0x1
 8872 24e4 DE05     		.2byte	0x5de
 8873 24e6 88000000 		.4byte	0x88
 8874 24ea 88110000 		.4byte	.LLST136
 8875 24ee 0E       		.uleb128 0xe
 8876 24ef 62756600 		.ascii	"buf\000"
 8877 24f3 01       		.byte	0x1
 8878 24f4 E405     		.2byte	0x5e4
 8879 24f6 D00F0000 		.4byte	0xfd0
ARM GAS  C:\Users\Abude\AppData\Local\Temp\ccndXIr0.s 			page 197


 8880 24fa 05       		.uleb128 0x5
 8881 24fb 03       		.byte	0x3
 8882 24fc 68FB0100 		.4byte	buf.12485
 8883 2500 00       		.byte	0
 8884 2501 0C       		.uleb128 0xc
 8885 2502 00000000 		.4byte	.LASF151
 8886 2506 01       		.byte	0x1
 8887 2507 E905     		.2byte	0x5e9
 8888 2509 88000000 		.4byte	0x88
 8889 250d 00000000 		.4byte	.LFB137
 8890 2511 0C000000 		.4byte	.LFE137-.LFB137
 8891 2515 01       		.uleb128 0x1
 8892 2516 9C       		.byte	0x9c
 8893 2517 3E250000 		.4byte	0x253e
 8894 251b 0D       		.uleb128 0xd
 8895 251c 57080000 		.4byte	.LASF15
 8896 2520 01       		.byte	0x1
 8897 2521 E905     		.2byte	0x5e9
 8898 2523 88000000 		.4byte	0x88
 8899 2527 A9110000 		.4byte	.LLST137
 8900 252b 0E       		.uleb128 0xe
 8901 252c 62756600 		.ascii	"buf\000"
 8902 2530 01       		.byte	0x1
 8903 2531 EF05     		.2byte	0x5ef
 8904 2533 3E250000 		.4byte	0x253e
 8905 2537 05       		.uleb128 0x5
 8906 2538 03       		.byte	0x3
 8907 2539 F8FC0100 		.4byte	buf.12489
 8908 253d 00       		.byte	0
 8909 253e 09       		.uleb128 0x9
 8910 253f 76000000 		.4byte	0x76
 8911 2543 4F250000 		.4byte	0x254f
 8912 2547 0B       		.uleb128 0xb
 8913 2548 D8000000 		.4byte	0xd8
 8914 254c 8713     		.2byte	0x1387
 8915 254e 00       		.byte	0
 8916 254f 0C       		.uleb128 0xc
 8917 2550 07050000 		.4byte	.LASF152
 8918 2554 01       		.byte	0x1
 8919 2555 F405     		.2byte	0x5f4
 8920 2557 88000000 		.4byte	0x88
 8921 255b 00000000 		.4byte	.LFB138
 8922 255f 0C000000 		.4byte	.LFE138-.LFB138
 8923 2563 01       		.uleb128 0x1
 8924 2564 9C       		.byte	0x9c
 8925 2565 8C250000 		.4byte	0x258c
 8926 2569 0D       		.uleb128 0xd
 8927 256a 57080000 		.4byte	.LASF15
 8928 256e 01       		.byte	0x1
 8929 256f F405     		.2byte	0x5f4
 8930 2571 88000000 		.4byte	0x88
 8931 2575 CA110000 		.4byte	.LLST138
 8932 2579 0E       		.uleb128 0xe
 8933 257a 62756600 		.ascii	"buf\000"
 8934 257e 01       		.byte	0x1
 8935 257f FA05     		.2byte	0x5fa
 8936 2581 8C250000 		.4byte	0x258c
ARM GAS  C:\Users\Abude\AppData\Local\Temp\ccndXIr0.s 			page 198


 8937 2585 05       		.uleb128 0x5
 8938 2586 03       		.byte	0x3
 8939 2587 80100200 		.4byte	buf.12493
 8940 258b 00       		.byte	0
 8941 258c 09       		.uleb128 0x9
 8942 258d 76000000 		.4byte	0x76
 8943 2591 9D250000 		.4byte	0x259d
 8944 2595 0B       		.uleb128 0xb
 8945 2596 D8000000 		.4byte	0xd8
 8946 259a 2701     		.2byte	0x127
 8947 259c 00       		.byte	0
 8948 259d 0C       		.uleb128 0xc
 8949 259e 16050000 		.4byte	.LASF153
 8950 25a2 01       		.byte	0x1
 8951 25a3 FF05     		.2byte	0x5ff
 8952 25a5 88000000 		.4byte	0x88
 8953 25a9 00000000 		.4byte	.LFB139
 8954 25ad 0C000000 		.4byte	.LFE139-.LFB139
 8955 25b1 01       		.uleb128 0x1
 8956 25b2 9C       		.byte	0x9c
 8957 25b3 DA250000 		.4byte	0x25da
 8958 25b7 0D       		.uleb128 0xd
 8959 25b8 57080000 		.4byte	.LASF15
 8960 25bc 01       		.byte	0x1
 8961 25bd FF05     		.2byte	0x5ff
 8962 25bf 88000000 		.4byte	0x88
 8963 25c3 EB110000 		.4byte	.LLST139
 8964 25c7 0E       		.uleb128 0xe
 8965 25c8 62756600 		.ascii	"buf\000"
 8966 25cc 01       		.byte	0x1
 8967 25cd 0506     		.2byte	0x605
 8968 25cf DA250000 		.4byte	0x25da
 8969 25d3 05       		.uleb128 0x5
 8970 25d4 03       		.byte	0x3
 8971 25d5 A8110200 		.4byte	buf.12497
 8972 25d9 00       		.byte	0
 8973 25da 09       		.uleb128 0x9
 8974 25db 76000000 		.4byte	0x76
 8975 25df EB250000 		.4byte	0x25eb
 8976 25e3 0B       		.uleb128 0xb
 8977 25e4 D8000000 		.4byte	0xd8
 8978 25e8 4F02     		.2byte	0x24f
 8979 25ea 00       		.byte	0
 8980 25eb 0C       		.uleb128 0xc
 8981 25ec A1050000 		.4byte	.LASF154
 8982 25f0 01       		.byte	0x1
 8983 25f1 0A06     		.2byte	0x60a
 8984 25f3 88000000 		.4byte	0x88
 8985 25f7 00000000 		.4byte	.LFB140
 8986 25fb 0C000000 		.4byte	.LFE140-.LFB140
 8987 25ff 01       		.uleb128 0x1
 8988 2600 9C       		.byte	0x9c
 8989 2601 28260000 		.4byte	0x2628
 8990 2605 0D       		.uleb128 0xd
 8991 2606 57080000 		.4byte	.LASF15
 8992 260a 01       		.byte	0x1
 8993 260b 0A06     		.2byte	0x60a
ARM GAS  C:\Users\Abude\AppData\Local\Temp\ccndXIr0.s 			page 199


 8994 260d 88000000 		.4byte	0x88
 8995 2611 0C120000 		.4byte	.LLST140
 8996 2615 0E       		.uleb128 0xe
 8997 2616 62756600 		.ascii	"buf\000"
 8998 261a 01       		.byte	0x1
 8999 261b 1006     		.2byte	0x610
 9000 261d 28260000 		.4byte	0x2628
 9001 2621 05       		.uleb128 0x5
 9002 2622 03       		.byte	0x3
 9003 2623 F8130200 		.4byte	buf.12501
 9004 2627 00       		.byte	0
 9005 2628 09       		.uleb128 0x9
 9006 2629 76000000 		.4byte	0x76
 9007 262d 39260000 		.4byte	0x2639
 9008 2631 0B       		.uleb128 0xb
 9009 2632 D8000000 		.4byte	0xd8
 9010 2636 7F12     		.2byte	0x127f
 9011 2638 00       		.byte	0
 9012 2639 0C       		.uleb128 0xc
 9013 263a 8E000000 		.4byte	.LASF155
 9014 263e 01       		.byte	0x1
 9015 263f 1506     		.2byte	0x615
 9016 2641 88000000 		.4byte	0x88
 9017 2645 00000000 		.4byte	.LFB141
 9018 2649 0C000000 		.4byte	.LFE141-.LFB141
 9019 264d 01       		.uleb128 0x1
 9020 264e 9C       		.byte	0x9c
 9021 264f 76260000 		.4byte	0x2676
 9022 2653 0D       		.uleb128 0xd
 9023 2654 57080000 		.4byte	.LASF15
 9024 2658 01       		.byte	0x1
 9025 2659 1506     		.2byte	0x615
 9026 265b 88000000 		.4byte	0x88
 9027 265f 2D120000 		.4byte	.LLST141
 9028 2663 0E       		.uleb128 0xe
 9029 2664 62756600 		.ascii	"buf\000"
 9030 2668 01       		.byte	0x1
 9031 2669 1B06     		.2byte	0x61b
 9032 266b 1C040000 		.4byte	0x41c
 9033 266f 05       		.uleb128 0x5
 9034 2670 03       		.byte	0x3
 9035 2671 78260200 		.4byte	buf.12505
 9036 2675 00       		.byte	0
 9037 2676 0C       		.uleb128 0xc
 9038 2677 9B000000 		.4byte	.LASF156
 9039 267b 01       		.byte	0x1
 9040 267c 2006     		.2byte	0x620
 9041 267e 88000000 		.4byte	0x88
 9042 2682 00000000 		.4byte	.LFB142
 9043 2686 0C000000 		.4byte	.LFE142-.LFB142
 9044 268a 01       		.uleb128 0x1
 9045 268b 9C       		.byte	0x9c
 9046 268c B3260000 		.4byte	0x26b3
 9047 2690 0D       		.uleb128 0xd
 9048 2691 57080000 		.4byte	.LASF15
 9049 2695 01       		.byte	0x1
 9050 2696 2006     		.2byte	0x620
ARM GAS  C:\Users\Abude\AppData\Local\Temp\ccndXIr0.s 			page 200


 9051 2698 88000000 		.4byte	0x88
 9052 269c 4E120000 		.4byte	.LLST142
 9053 26a0 0E       		.uleb128 0xe
 9054 26a1 62756600 		.ascii	"buf\000"
 9055 26a5 01       		.byte	0x1
 9056 26a6 2606     		.2byte	0x626
 9057 26a8 C8000000 		.4byte	0xc8
 9058 26ac 05       		.uleb128 0x5
 9059 26ad 03       		.byte	0x3
 9060 26ae B8260200 		.4byte	buf.12509
 9061 26b2 00       		.byte	0
 9062 26b3 0C       		.uleb128 0xc
 9063 26b4 1E010000 		.4byte	.LASF157
 9064 26b8 01       		.byte	0x1
 9065 26b9 2B06     		.2byte	0x62b
 9066 26bb 88000000 		.4byte	0x88
 9067 26bf 00000000 		.4byte	.LFB143
 9068 26c3 0C000000 		.4byte	.LFE143-.LFB143
 9069 26c7 01       		.uleb128 0x1
 9070 26c8 9C       		.byte	0x9c
 9071 26c9 F0260000 		.4byte	0x26f0
 9072 26cd 0D       		.uleb128 0xd
 9073 26ce 57080000 		.4byte	.LASF15
 9074 26d2 01       		.byte	0x1
 9075 26d3 2B06     		.2byte	0x62b
 9076 26d5 88000000 		.4byte	0x88
 9077 26d9 6F120000 		.4byte	.LLST143
 9078 26dd 0E       		.uleb128 0xe
 9079 26de 62756600 		.ascii	"buf\000"
 9080 26e2 01       		.byte	0x1
 9081 26e3 3106     		.2byte	0x631
 9082 26e5 1C040000 		.4byte	0x41c
 9083 26e9 05       		.uleb128 0x5
 9084 26ea 03       		.byte	0x3
 9085 26eb 38270200 		.4byte	buf.12513
 9086 26ef 00       		.byte	0
 9087 26f0 0C       		.uleb128 0xc
 9088 26f1 25050000 		.4byte	.LASF158
 9089 26f5 01       		.byte	0x1
 9090 26f6 3606     		.2byte	0x636
 9091 26f8 88000000 		.4byte	0x88
 9092 26fc 00000000 		.4byte	.LFB144
 9093 2700 0C000000 		.4byte	.LFE144-.LFB144
 9094 2704 01       		.uleb128 0x1
 9095 2705 9C       		.byte	0x9c
 9096 2706 2D270000 		.4byte	0x272d
 9097 270a 0D       		.uleb128 0xd
 9098 270b 57080000 		.4byte	.LASF15
 9099 270f 01       		.byte	0x1
 9100 2710 3606     		.2byte	0x636
 9101 2712 88000000 		.4byte	0x88
 9102 2716 90120000 		.4byte	.LLST144
 9103 271a 0E       		.uleb128 0xe
 9104 271b 62756600 		.ascii	"buf\000"
 9105 271f 01       		.byte	0x1
 9106 2720 3C06     		.2byte	0x63c
 9107 2722 2D270000 		.4byte	0x272d
ARM GAS  C:\Users\Abude\AppData\Local\Temp\ccndXIr0.s 			page 201


 9108 2726 05       		.uleb128 0x5
 9109 2727 03       		.byte	0x3
 9110 2728 78270200 		.4byte	buf.12517
 9111 272c 00       		.byte	0
 9112 272d 09       		.uleb128 0x9
 9113 272e 76000000 		.4byte	0x76
 9114 2732 3D270000 		.4byte	0x273d
 9115 2736 0A       		.uleb128 0xa
 9116 2737 D8000000 		.4byte	0xd8
 9117 273b 1F       		.byte	0x1f
 9118 273c 00       		.byte	0
 9119 273d 0C       		.uleb128 0xc
 9120 273e 32050000 		.4byte	.LASF159
 9121 2742 01       		.byte	0x1
 9122 2743 4106     		.2byte	0x641
 9123 2745 88000000 		.4byte	0x88
 9124 2749 00000000 		.4byte	.LFB145
 9125 274d 0C000000 		.4byte	.LFE145-.LFB145
 9126 2751 01       		.uleb128 0x1
 9127 2752 9C       		.byte	0x9c
 9128 2753 7A270000 		.4byte	0x277a
 9129 2757 0D       		.uleb128 0xd
 9130 2758 57080000 		.4byte	.LASF15
 9131 275c 01       		.byte	0x1
 9132 275d 4106     		.2byte	0x641
 9133 275f 88000000 		.4byte	0x88
 9134 2763 B1120000 		.4byte	.LLST145
 9135 2767 0E       		.uleb128 0xe
 9136 2768 62756600 		.ascii	"buf\000"
 9137 276c 01       		.byte	0x1
 9138 276d 4706     		.2byte	0x647
 9139 276f 1C040000 		.4byte	0x41c
 9140 2773 05       		.uleb128 0x5
 9141 2774 03       		.byte	0x3
 9142 2775 98270200 		.4byte	buf.12521
 9143 2779 00       		.byte	0
 9144 277a 0C       		.uleb128 0xc
 9145 277b B0050000 		.4byte	.LASF160
 9146 277f 01       		.byte	0x1
 9147 2780 4C06     		.2byte	0x64c
 9148 2782 88000000 		.4byte	0x88
 9149 2786 00000000 		.4byte	.LFB146
 9150 278a 0C000000 		.4byte	.LFE146-.LFB146
 9151 278e 01       		.uleb128 0x1
 9152 278f 9C       		.byte	0x9c
 9153 2790 B7270000 		.4byte	0x27b7
 9154 2794 0D       		.uleb128 0xd
 9155 2795 57080000 		.4byte	.LASF15
 9156 2799 01       		.byte	0x1
 9157 279a 4C06     		.2byte	0x64c
 9158 279c 88000000 		.4byte	0x88
 9159 27a0 D2120000 		.4byte	.LLST146
 9160 27a4 0E       		.uleb128 0xe
 9161 27a5 62756600 		.ascii	"buf\000"
 9162 27a9 01       		.byte	0x1
 9163 27aa 5206     		.2byte	0x652
 9164 27ac 2D270000 		.4byte	0x272d
ARM GAS  C:\Users\Abude\AppData\Local\Temp\ccndXIr0.s 			page 202


 9165 27b0 05       		.uleb128 0x5
 9166 27b1 03       		.byte	0x3
 9167 27b2 D8270200 		.4byte	buf.12525
 9168 27b6 00       		.byte	0
 9169 27b7 0C       		.uleb128 0xc
 9170 27b8 87050000 		.4byte	.LASF161
 9171 27bc 01       		.byte	0x1
 9172 27bd 5706     		.2byte	0x657
 9173 27bf 88000000 		.4byte	0x88
 9174 27c3 00000000 		.4byte	.LFB147
 9175 27c7 0C000000 		.4byte	.LFE147-.LFB147
 9176 27cb 01       		.uleb128 0x1
 9177 27cc 9C       		.byte	0x9c
 9178 27cd F4270000 		.4byte	0x27f4
 9179 27d1 0D       		.uleb128 0xd
 9180 27d2 57080000 		.4byte	.LASF15
 9181 27d6 01       		.byte	0x1
 9182 27d7 5706     		.2byte	0x657
 9183 27d9 88000000 		.4byte	0x88
 9184 27dd F3120000 		.4byte	.LLST147
 9185 27e1 0E       		.uleb128 0xe
 9186 27e2 62756600 		.ascii	"buf\000"
 9187 27e6 01       		.byte	0x1
 9188 27e7 5D06     		.2byte	0x65d
 9189 27e9 F4270000 		.4byte	0x27f4
 9190 27ed 05       		.uleb128 0x5
 9191 27ee 03       		.byte	0x3
 9192 27ef F8270200 		.4byte	buf.12529
 9193 27f3 00       		.byte	0
 9194 27f4 09       		.uleb128 0x9
 9195 27f5 76000000 		.4byte	0x76
 9196 27f9 04280000 		.4byte	0x2804
 9197 27fd 0A       		.uleb128 0xa
 9198 27fe D8000000 		.4byte	0xd8
 9199 2802 07       		.byte	0x7
 9200 2803 00       		.byte	0
 9201 2804 0C       		.uleb128 0xc
 9202 2805 94050000 		.4byte	.LASF162
 9203 2809 01       		.byte	0x1
 9204 280a 6206     		.2byte	0x662
 9205 280c 88000000 		.4byte	0x88
 9206 2810 00000000 		.4byte	.LFB148
 9207 2814 0C000000 		.4byte	.LFE148-.LFB148
 9208 2818 01       		.uleb128 0x1
 9209 2819 9C       		.byte	0x9c
 9210 281a 41280000 		.4byte	0x2841
 9211 281e 0D       		.uleb128 0xd
 9212 281f 57080000 		.4byte	.LASF15
 9213 2823 01       		.byte	0x1
 9214 2824 6206     		.2byte	0x662
 9215 2826 88000000 		.4byte	0x88
 9216 282a 14130000 		.4byte	.LLST148
 9217 282e 0E       		.uleb128 0xe
 9218 282f 62756600 		.ascii	"buf\000"
 9219 2833 01       		.byte	0x1
 9220 2834 6806     		.2byte	0x668
 9221 2836 41280000 		.4byte	0x2841
ARM GAS  C:\Users\Abude\AppData\Local\Temp\ccndXIr0.s 			page 203


 9222 283a 05       		.uleb128 0x5
 9223 283b 03       		.byte	0x3
 9224 283c 00280200 		.4byte	buf.12533
 9225 2840 00       		.byte	0
 9226 2841 09       		.uleb128 0x9
 9227 2842 76000000 		.4byte	0x76
 9228 2846 51280000 		.4byte	0x2851
 9229 284a 0A       		.uleb128 0xa
 9230 284b D8000000 		.4byte	0xd8
 9231 284f 0F       		.byte	0xf
 9232 2850 00       		.byte	0
 9233 2851 0C       		.uleb128 0xc
 9234 2852 4A060000 		.4byte	.LASF163
 9235 2856 01       		.byte	0x1
 9236 2857 6D06     		.2byte	0x66d
 9237 2859 88000000 		.4byte	0x88
 9238 285d 00000000 		.4byte	.LFB149
 9239 2861 0C000000 		.4byte	.LFE149-.LFB149
 9240 2865 01       		.uleb128 0x1
 9241 2866 9C       		.byte	0x9c
 9242 2867 8E280000 		.4byte	0x288e
 9243 286b 0D       		.uleb128 0xd
 9244 286c 57080000 		.4byte	.LASF15
 9245 2870 01       		.byte	0x1
 9246 2871 6D06     		.2byte	0x66d
 9247 2873 88000000 		.4byte	0x88
 9248 2877 35130000 		.4byte	.LLST149
 9249 287b 0E       		.uleb128 0xe
 9250 287c 62756600 		.ascii	"buf\000"
 9251 2880 01       		.byte	0x1
 9252 2881 7306     		.2byte	0x673
 9253 2883 F4270000 		.4byte	0x27f4
 9254 2887 05       		.uleb128 0x5
 9255 2888 03       		.byte	0x3
 9256 2889 10280200 		.4byte	buf.12537
 9257 288d 00       		.byte	0
 9258 288e 0C       		.uleb128 0xc
 9259 288f CF030000 		.4byte	.LASF164
 9260 2893 01       		.byte	0x1
 9261 2894 7806     		.2byte	0x678
 9262 2896 88000000 		.4byte	0x88
 9263 289a 00000000 		.4byte	.LFB150
 9264 289e 0C000000 		.4byte	.LFE150-.LFB150
 9265 28a2 01       		.uleb128 0x1
 9266 28a3 9C       		.byte	0x9c
 9267 28a4 CB280000 		.4byte	0x28cb
 9268 28a8 0D       		.uleb128 0xd
 9269 28a9 57080000 		.4byte	.LASF15
 9270 28ad 01       		.byte	0x1
 9271 28ae 7806     		.2byte	0x678
 9272 28b0 88000000 		.4byte	0x88
 9273 28b4 56130000 		.4byte	.LLST150
 9274 28b8 0E       		.uleb128 0xe
 9275 28b9 62756600 		.ascii	"buf\000"
 9276 28bd 01       		.byte	0x1
 9277 28be 7E06     		.2byte	0x67e
 9278 28c0 060B0000 		.4byte	0xb06
ARM GAS  C:\Users\Abude\AppData\Local\Temp\ccndXIr0.s 			page 204


 9279 28c4 05       		.uleb128 0x5
 9280 28c5 03       		.byte	0x3
 9281 28c6 18280200 		.4byte	buf.12541
 9282 28ca 00       		.byte	0
 9283 28cb 0C       		.uleb128 0xc
 9284 28cc DE030000 		.4byte	.LASF165
 9285 28d0 01       		.byte	0x1
 9286 28d1 8306     		.2byte	0x683
 9287 28d3 88000000 		.4byte	0x88
 9288 28d7 00000000 		.4byte	.LFB151
 9289 28db 0C000000 		.4byte	.LFE151-.LFB151
 9290 28df 01       		.uleb128 0x1
 9291 28e0 9C       		.byte	0x9c
 9292 28e1 08290000 		.4byte	0x2908
 9293 28e5 0D       		.uleb128 0xd
 9294 28e6 57080000 		.4byte	.LASF15
 9295 28ea 01       		.byte	0x1
 9296 28eb 8306     		.2byte	0x683
 9297 28ed 88000000 		.4byte	0x88
 9298 28f1 77130000 		.4byte	.LLST151
 9299 28f5 0E       		.uleb128 0xe
 9300 28f6 62756600 		.ascii	"buf\000"
 9301 28fa 01       		.byte	0x1
 9302 28fb 8906     		.2byte	0x689
 9303 28fd CB0E0000 		.4byte	0xecb
 9304 2901 05       		.uleb128 0x5
 9305 2902 03       		.byte	0x3
 9306 2903 98290200 		.4byte	buf.12545
 9307 2907 00       		.byte	0
 9308 2908 0C       		.uleb128 0xc
 9309 2909 6D040000 		.4byte	.LASF166
 9310 290d 01       		.byte	0x1
 9311 290e 8E06     		.2byte	0x68e
 9312 2910 88000000 		.4byte	0x88
 9313 2914 00000000 		.4byte	.LFB152
 9314 2918 0C000000 		.4byte	.LFE152-.LFB152
 9315 291c 01       		.uleb128 0x1
 9316 291d 9C       		.byte	0x9c
 9317 291e 45290000 		.4byte	0x2945
 9318 2922 0D       		.uleb128 0xd
 9319 2923 57080000 		.4byte	.LASF15
 9320 2927 01       		.byte	0x1
 9321 2928 8E06     		.2byte	0x68e
 9322 292a 88000000 		.4byte	0x88
 9323 292e 98130000 		.4byte	.LLST152
 9324 2932 0E       		.uleb128 0xe
 9325 2933 62756600 		.ascii	"buf\000"
 9326 2937 01       		.byte	0x1
 9327 2938 9406     		.2byte	0x694
 9328 293a 45290000 		.4byte	0x2945
 9329 293e 05       		.uleb128 0x5
 9330 293f 03       		.byte	0x3
 9331 2940 982C0200 		.4byte	buf.12549
 9332 2944 00       		.byte	0
 9333 2945 0F       		.uleb128 0xf
 9334 2946 76000000 		.4byte	0x76
 9335 294a 0B       		.uleb128 0xb
ARM GAS  C:\Users\Abude\AppData\Local\Temp\ccndXIr0.s 			page 205


 9336 294b D8000000 		.4byte	0xd8
 9337 294f FF2C     		.2byte	0x2cff
 9338 2951 00       		.byte	0
 9339 2952 00       		.byte	0
 9340              		.section	.debug_abbrev,"",%progbits
 9341              	.Ldebug_abbrev0:
 9342 0000 01       		.uleb128 0x1
 9343 0001 11       		.uleb128 0x11
 9344 0002 01       		.byte	0x1
 9345 0003 25       		.uleb128 0x25
 9346 0004 0E       		.uleb128 0xe
 9347 0005 13       		.uleb128 0x13
 9348 0006 0B       		.uleb128 0xb
 9349 0007 03       		.uleb128 0x3
 9350 0008 0E       		.uleb128 0xe
 9351 0009 1B       		.uleb128 0x1b
 9352 000a 0E       		.uleb128 0xe
 9353 000b 55       		.uleb128 0x55
 9354 000c 17       		.uleb128 0x17
 9355 000d 11       		.uleb128 0x11
 9356 000e 01       		.uleb128 0x1
 9357 000f 10       		.uleb128 0x10
 9358 0010 17       		.uleb128 0x17
 9359 0011 00       		.byte	0
 9360 0012 00       		.byte	0
 9361 0013 02       		.uleb128 0x2
 9362 0014 24       		.uleb128 0x24
 9363 0015 00       		.byte	0
 9364 0016 0B       		.uleb128 0xb
 9365 0017 0B       		.uleb128 0xb
 9366 0018 3E       		.uleb128 0x3e
 9367 0019 0B       		.uleb128 0xb
 9368 001a 03       		.uleb128 0x3
 9369 001b 0E       		.uleb128 0xe
 9370 001c 00       		.byte	0
 9371 001d 00       		.byte	0
 9372 001e 03       		.uleb128 0x3
 9373 001f 16       		.uleb128 0x16
 9374 0020 00       		.byte	0
 9375 0021 03       		.uleb128 0x3
 9376 0022 0E       		.uleb128 0xe
 9377 0023 3A       		.uleb128 0x3a
 9378 0024 0B       		.uleb128 0xb
 9379 0025 3B       		.uleb128 0x3b
 9380 0026 0B       		.uleb128 0xb
 9381 0027 49       		.uleb128 0x49
 9382 0028 13       		.uleb128 0x13
 9383 0029 00       		.byte	0
 9384 002a 00       		.byte	0
 9385 002b 04       		.uleb128 0x4
 9386 002c 24       		.uleb128 0x24
 9387 002d 00       		.byte	0
 9388 002e 0B       		.uleb128 0xb
 9389 002f 0B       		.uleb128 0xb
 9390 0030 3E       		.uleb128 0x3e
 9391 0031 0B       		.uleb128 0xb
 9392 0032 03       		.uleb128 0x3
ARM GAS  C:\Users\Abude\AppData\Local\Temp\ccndXIr0.s 			page 206


 9393 0033 08       		.uleb128 0x8
 9394 0034 00       		.byte	0
 9395 0035 00       		.byte	0
 9396 0036 05       		.uleb128 0x5
 9397 0037 0F       		.uleb128 0xf
 9398 0038 00       		.byte	0
 9399 0039 0B       		.uleb128 0xb
 9400 003a 0B       		.uleb128 0xb
 9401 003b 49       		.uleb128 0x49
 9402 003c 13       		.uleb128 0x13
 9403 003d 00       		.byte	0
 9404 003e 00       		.byte	0
 9405 003f 06       		.uleb128 0x6
 9406 0040 2E       		.uleb128 0x2e
 9407 0041 01       		.byte	0x1
 9408 0042 3F       		.uleb128 0x3f
 9409 0043 19       		.uleb128 0x19
 9410 0044 03       		.uleb128 0x3
 9411 0045 0E       		.uleb128 0xe
 9412 0046 3A       		.uleb128 0x3a
 9413 0047 0B       		.uleb128 0xb
 9414 0048 3B       		.uleb128 0x3b
 9415 0049 0B       		.uleb128 0xb
 9416 004a 27       		.uleb128 0x27
 9417 004b 19       		.uleb128 0x19
 9418 004c 49       		.uleb128 0x49
 9419 004d 13       		.uleb128 0x13
 9420 004e 11       		.uleb128 0x11
 9421 004f 01       		.uleb128 0x1
 9422 0050 12       		.uleb128 0x12
 9423 0051 06       		.uleb128 0x6
 9424 0052 40       		.uleb128 0x40
 9425 0053 18       		.uleb128 0x18
 9426 0054 9742     		.uleb128 0x2117
 9427 0056 19       		.uleb128 0x19
 9428 0057 01       		.uleb128 0x1
 9429 0058 13       		.uleb128 0x13
 9430 0059 00       		.byte	0
 9431 005a 00       		.byte	0
 9432 005b 07       		.uleb128 0x7
 9433 005c 05       		.uleb128 0x5
 9434 005d 00       		.byte	0
 9435 005e 03       		.uleb128 0x3
 9436 005f 0E       		.uleb128 0xe
 9437 0060 3A       		.uleb128 0x3a
 9438 0061 0B       		.uleb128 0xb
 9439 0062 3B       		.uleb128 0x3b
 9440 0063 0B       		.uleb128 0xb
 9441 0064 49       		.uleb128 0x49
 9442 0065 13       		.uleb128 0x13
 9443 0066 02       		.uleb128 0x2
 9444 0067 17       		.uleb128 0x17
 9445 0068 00       		.byte	0
 9446 0069 00       		.byte	0
 9447 006a 08       		.uleb128 0x8
 9448 006b 34       		.uleb128 0x34
 9449 006c 00       		.byte	0
ARM GAS  C:\Users\Abude\AppData\Local\Temp\ccndXIr0.s 			page 207


 9450 006d 03       		.uleb128 0x3
 9451 006e 08       		.uleb128 0x8
 9452 006f 3A       		.uleb128 0x3a
 9453 0070 0B       		.uleb128 0xb
 9454 0071 3B       		.uleb128 0x3b
 9455 0072 0B       		.uleb128 0xb
 9456 0073 49       		.uleb128 0x49
 9457 0074 13       		.uleb128 0x13
 9458 0075 02       		.uleb128 0x2
 9459 0076 18       		.uleb128 0x18
 9460 0077 00       		.byte	0
 9461 0078 00       		.byte	0
 9462 0079 09       		.uleb128 0x9
 9463 007a 01       		.uleb128 0x1
 9464 007b 01       		.byte	0x1
 9465 007c 49       		.uleb128 0x49
 9466 007d 13       		.uleb128 0x13
 9467 007e 01       		.uleb128 0x1
 9468 007f 13       		.uleb128 0x13
 9469 0080 00       		.byte	0
 9470 0081 00       		.byte	0
 9471 0082 0A       		.uleb128 0xa
 9472 0083 21       		.uleb128 0x21
 9473 0084 00       		.byte	0
 9474 0085 49       		.uleb128 0x49
 9475 0086 13       		.uleb128 0x13
 9476 0087 2F       		.uleb128 0x2f
 9477 0088 0B       		.uleb128 0xb
 9478 0089 00       		.byte	0
 9479 008a 00       		.byte	0
 9480 008b 0B       		.uleb128 0xb
 9481 008c 21       		.uleb128 0x21
 9482 008d 00       		.byte	0
 9483 008e 49       		.uleb128 0x49
 9484 008f 13       		.uleb128 0x13
 9485 0090 2F       		.uleb128 0x2f
 9486 0091 05       		.uleb128 0x5
 9487 0092 00       		.byte	0
 9488 0093 00       		.byte	0
 9489 0094 0C       		.uleb128 0xc
 9490 0095 2E       		.uleb128 0x2e
 9491 0096 01       		.byte	0x1
 9492 0097 3F       		.uleb128 0x3f
 9493 0098 19       		.uleb128 0x19
 9494 0099 03       		.uleb128 0x3
 9495 009a 0E       		.uleb128 0xe
 9496 009b 3A       		.uleb128 0x3a
 9497 009c 0B       		.uleb128 0xb
 9498 009d 3B       		.uleb128 0x3b
 9499 009e 05       		.uleb128 0x5
 9500 009f 27       		.uleb128 0x27
 9501 00a0 19       		.uleb128 0x19
 9502 00a1 49       		.uleb128 0x49
 9503 00a2 13       		.uleb128 0x13
 9504 00a3 11       		.uleb128 0x11
 9505 00a4 01       		.uleb128 0x1
 9506 00a5 12       		.uleb128 0x12
ARM GAS  C:\Users\Abude\AppData\Local\Temp\ccndXIr0.s 			page 208


 9507 00a6 06       		.uleb128 0x6
 9508 00a7 40       		.uleb128 0x40
 9509 00a8 18       		.uleb128 0x18
 9510 00a9 9742     		.uleb128 0x2117
 9511 00ab 19       		.uleb128 0x19
 9512 00ac 01       		.uleb128 0x1
 9513 00ad 13       		.uleb128 0x13
 9514 00ae 00       		.byte	0
 9515 00af 00       		.byte	0
 9516 00b0 0D       		.uleb128 0xd
 9517 00b1 05       		.uleb128 0x5
 9518 00b2 00       		.byte	0
 9519 00b3 03       		.uleb128 0x3
 9520 00b4 0E       		.uleb128 0xe
 9521 00b5 3A       		.uleb128 0x3a
 9522 00b6 0B       		.uleb128 0xb
 9523 00b7 3B       		.uleb128 0x3b
 9524 00b8 05       		.uleb128 0x5
 9525 00b9 49       		.uleb128 0x49
 9526 00ba 13       		.uleb128 0x13
 9527 00bb 02       		.uleb128 0x2
 9528 00bc 17       		.uleb128 0x17
 9529 00bd 00       		.byte	0
 9530 00be 00       		.byte	0
 9531 00bf 0E       		.uleb128 0xe
 9532 00c0 34       		.uleb128 0x34
 9533 00c1 00       		.byte	0
 9534 00c2 03       		.uleb128 0x3
 9535 00c3 08       		.uleb128 0x8
 9536 00c4 3A       		.uleb128 0x3a
 9537 00c5 0B       		.uleb128 0xb
 9538 00c6 3B       		.uleb128 0x3b
 9539 00c7 05       		.uleb128 0x5
 9540 00c8 49       		.uleb128 0x49
 9541 00c9 13       		.uleb128 0x13
 9542 00ca 02       		.uleb128 0x2
 9543 00cb 18       		.uleb128 0x18
 9544 00cc 00       		.byte	0
 9545 00cd 00       		.byte	0
 9546 00ce 0F       		.uleb128 0xf
 9547 00cf 01       		.uleb128 0x1
 9548 00d0 01       		.byte	0x1
 9549 00d1 49       		.uleb128 0x49
 9550 00d2 13       		.uleb128 0x13
 9551 00d3 00       		.byte	0
 9552 00d4 00       		.byte	0
 9553 00d5 00       		.byte	0
 9554              		.section	.debug_loc,"",%progbits
 9555              	.Ldebug_loc0:
 9556              	.LLST0:
 9557 0000 00000000 		.4byte	.LVL0
 9558 0004 06000000 		.4byte	.LVL1
 9559 0008 0100     		.2byte	0x1
 9560 000a 50       		.byte	0x50
 9561 000b 06000000 		.4byte	.LVL1
 9562 000f 0C000000 		.4byte	.LFE0
 9563 0013 0400     		.2byte	0x4
ARM GAS  C:\Users\Abude\AppData\Local\Temp\ccndXIr0.s 			page 209


 9564 0015 F3       		.byte	0xf3
 9565 0016 01       		.uleb128 0x1
 9566 0017 50       		.byte	0x50
 9567 0018 9F       		.byte	0x9f
 9568 0019 00000000 		.4byte	0
 9569 001d 00000000 		.4byte	0
 9570              	.LLST1:
 9571 0021 00000000 		.4byte	.LVL2
 9572 0025 06000000 		.4byte	.LVL3
 9573 0029 0100     		.2byte	0x1
 9574 002b 50       		.byte	0x50
 9575 002c 06000000 		.4byte	.LVL3
 9576 0030 0C000000 		.4byte	.LFE1
 9577 0034 0400     		.2byte	0x4
 9578 0036 F3       		.byte	0xf3
 9579 0037 01       		.uleb128 0x1
 9580 0038 50       		.byte	0x50
 9581 0039 9F       		.byte	0x9f
 9582 003a 00000000 		.4byte	0
 9583 003e 00000000 		.4byte	0
 9584              	.LLST2:
 9585 0042 00000000 		.4byte	.LVL4
 9586 0046 06000000 		.4byte	.LVL5
 9587 004a 0100     		.2byte	0x1
 9588 004c 50       		.byte	0x50
 9589 004d 06000000 		.4byte	.LVL5
 9590 0051 0C000000 		.4byte	.LFE2
 9591 0055 0400     		.2byte	0x4
 9592 0057 F3       		.byte	0xf3
 9593 0058 01       		.uleb128 0x1
 9594 0059 50       		.byte	0x50
 9595 005a 9F       		.byte	0x9f
 9596 005b 00000000 		.4byte	0
 9597 005f 00000000 		.4byte	0
 9598              	.LLST3:
 9599 0063 00000000 		.4byte	.LVL6
 9600 0067 06000000 		.4byte	.LVL7
 9601 006b 0100     		.2byte	0x1
 9602 006d 50       		.byte	0x50
 9603 006e 06000000 		.4byte	.LVL7
 9604 0072 0C000000 		.4byte	.LFE3
 9605 0076 0400     		.2byte	0x4
 9606 0078 F3       		.byte	0xf3
 9607 0079 01       		.uleb128 0x1
 9608 007a 50       		.byte	0x50
 9609 007b 9F       		.byte	0x9f
 9610 007c 00000000 		.4byte	0
 9611 0080 00000000 		.4byte	0
 9612              	.LLST4:
 9613 0084 00000000 		.4byte	.LVL8
 9614 0088 06000000 		.4byte	.LVL9
 9615 008c 0100     		.2byte	0x1
 9616 008e 50       		.byte	0x50
 9617 008f 06000000 		.4byte	.LVL9
 9618 0093 0C000000 		.4byte	.LFE4
 9619 0097 0400     		.2byte	0x4
 9620 0099 F3       		.byte	0xf3
ARM GAS  C:\Users\Abude\AppData\Local\Temp\ccndXIr0.s 			page 210


 9621 009a 01       		.uleb128 0x1
 9622 009b 50       		.byte	0x50
 9623 009c 9F       		.byte	0x9f
 9624 009d 00000000 		.4byte	0
 9625 00a1 00000000 		.4byte	0
 9626              	.LLST5:
 9627 00a5 00000000 		.4byte	.LVL10
 9628 00a9 06000000 		.4byte	.LVL11
 9629 00ad 0100     		.2byte	0x1
 9630 00af 50       		.byte	0x50
 9631 00b0 06000000 		.4byte	.LVL11
 9632 00b4 0C000000 		.4byte	.LFE5
 9633 00b8 0400     		.2byte	0x4
 9634 00ba F3       		.byte	0xf3
 9635 00bb 01       		.uleb128 0x1
 9636 00bc 50       		.byte	0x50
 9637 00bd 9F       		.byte	0x9f
 9638 00be 00000000 		.4byte	0
 9639 00c2 00000000 		.4byte	0
 9640              	.LLST6:
 9641 00c6 00000000 		.4byte	.LVL12
 9642 00ca 06000000 		.4byte	.LVL13
 9643 00ce 0100     		.2byte	0x1
 9644 00d0 50       		.byte	0x50
 9645 00d1 06000000 		.4byte	.LVL13
 9646 00d5 0C000000 		.4byte	.LFE6
 9647 00d9 0400     		.2byte	0x4
 9648 00db F3       		.byte	0xf3
 9649 00dc 01       		.uleb128 0x1
 9650 00dd 50       		.byte	0x50
 9651 00de 9F       		.byte	0x9f
 9652 00df 00000000 		.4byte	0
 9653 00e3 00000000 		.4byte	0
 9654              	.LLST7:
 9655 00e7 00000000 		.4byte	.LVL14
 9656 00eb 06000000 		.4byte	.LVL15
 9657 00ef 0100     		.2byte	0x1
 9658 00f1 50       		.byte	0x50
 9659 00f2 06000000 		.4byte	.LVL15
 9660 00f6 0C000000 		.4byte	.LFE7
 9661 00fa 0400     		.2byte	0x4
 9662 00fc F3       		.byte	0xf3
 9663 00fd 01       		.uleb128 0x1
 9664 00fe 50       		.byte	0x50
 9665 00ff 9F       		.byte	0x9f
 9666 0100 00000000 		.4byte	0
 9667 0104 00000000 		.4byte	0
 9668              	.LLST8:
 9669 0108 00000000 		.4byte	.LVL16
 9670 010c 06000000 		.4byte	.LVL17
 9671 0110 0100     		.2byte	0x1
 9672 0112 50       		.byte	0x50
 9673 0113 06000000 		.4byte	.LVL17
 9674 0117 0C000000 		.4byte	.LFE8
 9675 011b 0400     		.2byte	0x4
 9676 011d F3       		.byte	0xf3
 9677 011e 01       		.uleb128 0x1
ARM GAS  C:\Users\Abude\AppData\Local\Temp\ccndXIr0.s 			page 211


 9678 011f 50       		.byte	0x50
 9679 0120 9F       		.byte	0x9f
 9680 0121 00000000 		.4byte	0
 9681 0125 00000000 		.4byte	0
 9682              	.LLST9:
 9683 0129 00000000 		.4byte	.LVL18
 9684 012d 06000000 		.4byte	.LVL19
 9685 0131 0100     		.2byte	0x1
 9686 0133 50       		.byte	0x50
 9687 0134 06000000 		.4byte	.LVL19
 9688 0138 0C000000 		.4byte	.LFE9
 9689 013c 0400     		.2byte	0x4
 9690 013e F3       		.byte	0xf3
 9691 013f 01       		.uleb128 0x1
 9692 0140 50       		.byte	0x50
 9693 0141 9F       		.byte	0x9f
 9694 0142 00000000 		.4byte	0
 9695 0146 00000000 		.4byte	0
 9696              	.LLST10:
 9697 014a 00000000 		.4byte	.LVL20
 9698 014e 06000000 		.4byte	.LVL21
 9699 0152 0100     		.2byte	0x1
 9700 0154 50       		.byte	0x50
 9701 0155 06000000 		.4byte	.LVL21
 9702 0159 0C000000 		.4byte	.LFE10
 9703 015d 0400     		.2byte	0x4
 9704 015f F3       		.byte	0xf3
 9705 0160 01       		.uleb128 0x1
 9706 0161 50       		.byte	0x50
 9707 0162 9F       		.byte	0x9f
 9708 0163 00000000 		.4byte	0
 9709 0167 00000000 		.4byte	0
 9710              	.LLST11:
 9711 016b 00000000 		.4byte	.LVL22
 9712 016f 06000000 		.4byte	.LVL23
 9713 0173 0100     		.2byte	0x1
 9714 0175 50       		.byte	0x50
 9715 0176 06000000 		.4byte	.LVL23
 9716 017a 0C000000 		.4byte	.LFE11
 9717 017e 0400     		.2byte	0x4
 9718 0180 F3       		.byte	0xf3
 9719 0181 01       		.uleb128 0x1
 9720 0182 50       		.byte	0x50
 9721 0183 9F       		.byte	0x9f
 9722 0184 00000000 		.4byte	0
 9723 0188 00000000 		.4byte	0
 9724              	.LLST12:
 9725 018c 00000000 		.4byte	.LVL24
 9726 0190 06000000 		.4byte	.LVL25
 9727 0194 0100     		.2byte	0x1
 9728 0196 50       		.byte	0x50
 9729 0197 06000000 		.4byte	.LVL25
 9730 019b 0C000000 		.4byte	.LFE12
 9731 019f 0400     		.2byte	0x4
 9732 01a1 F3       		.byte	0xf3
 9733 01a2 01       		.uleb128 0x1
 9734 01a3 50       		.byte	0x50
ARM GAS  C:\Users\Abude\AppData\Local\Temp\ccndXIr0.s 			page 212


 9735 01a4 9F       		.byte	0x9f
 9736 01a5 00000000 		.4byte	0
 9737 01a9 00000000 		.4byte	0
 9738              	.LLST13:
 9739 01ad 00000000 		.4byte	.LVL26
 9740 01b1 06000000 		.4byte	.LVL27
 9741 01b5 0100     		.2byte	0x1
 9742 01b7 50       		.byte	0x50
 9743 01b8 06000000 		.4byte	.LVL27
 9744 01bc 0C000000 		.4byte	.LFE13
 9745 01c0 0400     		.2byte	0x4
 9746 01c2 F3       		.byte	0xf3
 9747 01c3 01       		.uleb128 0x1
 9748 01c4 50       		.byte	0x50
 9749 01c5 9F       		.byte	0x9f
 9750 01c6 00000000 		.4byte	0
 9751 01ca 00000000 		.4byte	0
 9752              	.LLST14:
 9753 01ce 00000000 		.4byte	.LVL28
 9754 01d2 06000000 		.4byte	.LVL29
 9755 01d6 0100     		.2byte	0x1
 9756 01d8 50       		.byte	0x50
 9757 01d9 06000000 		.4byte	.LVL29
 9758 01dd 0C000000 		.4byte	.LFE14
 9759 01e1 0400     		.2byte	0x4
 9760 01e3 F3       		.byte	0xf3
 9761 01e4 01       		.uleb128 0x1
 9762 01e5 50       		.byte	0x50
 9763 01e6 9F       		.byte	0x9f
 9764 01e7 00000000 		.4byte	0
 9765 01eb 00000000 		.4byte	0
 9766              	.LLST15:
 9767 01ef 00000000 		.4byte	.LVL30
 9768 01f3 06000000 		.4byte	.LVL31
 9769 01f7 0100     		.2byte	0x1
 9770 01f9 50       		.byte	0x50
 9771 01fa 06000000 		.4byte	.LVL31
 9772 01fe 0C000000 		.4byte	.LFE15
 9773 0202 0400     		.2byte	0x4
 9774 0204 F3       		.byte	0xf3
 9775 0205 01       		.uleb128 0x1
 9776 0206 50       		.byte	0x50
 9777 0207 9F       		.byte	0x9f
 9778 0208 00000000 		.4byte	0
 9779 020c 00000000 		.4byte	0
 9780              	.LLST16:
 9781 0210 00000000 		.4byte	.LVL32
 9782 0214 06000000 		.4byte	.LVL33
 9783 0218 0100     		.2byte	0x1
 9784 021a 50       		.byte	0x50
 9785 021b 06000000 		.4byte	.LVL33
 9786 021f 0C000000 		.4byte	.LFE16
 9787 0223 0400     		.2byte	0x4
 9788 0225 F3       		.byte	0xf3
 9789 0226 01       		.uleb128 0x1
 9790 0227 50       		.byte	0x50
 9791 0228 9F       		.byte	0x9f
ARM GAS  C:\Users\Abude\AppData\Local\Temp\ccndXIr0.s 			page 213


 9792 0229 00000000 		.4byte	0
 9793 022d 00000000 		.4byte	0
 9794              	.LLST17:
 9795 0231 00000000 		.4byte	.LVL34
 9796 0235 06000000 		.4byte	.LVL35
 9797 0239 0100     		.2byte	0x1
 9798 023b 50       		.byte	0x50
 9799 023c 06000000 		.4byte	.LVL35
 9800 0240 0C000000 		.4byte	.LFE17
 9801 0244 0400     		.2byte	0x4
 9802 0246 F3       		.byte	0xf3
 9803 0247 01       		.uleb128 0x1
 9804 0248 50       		.byte	0x50
 9805 0249 9F       		.byte	0x9f
 9806 024a 00000000 		.4byte	0
 9807 024e 00000000 		.4byte	0
 9808              	.LLST18:
 9809 0252 00000000 		.4byte	.LVL36
 9810 0256 06000000 		.4byte	.LVL37
 9811 025a 0100     		.2byte	0x1
 9812 025c 50       		.byte	0x50
 9813 025d 06000000 		.4byte	.LVL37
 9814 0261 0C000000 		.4byte	.LFE18
 9815 0265 0400     		.2byte	0x4
 9816 0267 F3       		.byte	0xf3
 9817 0268 01       		.uleb128 0x1
 9818 0269 50       		.byte	0x50
 9819 026a 9F       		.byte	0x9f
 9820 026b 00000000 		.4byte	0
 9821 026f 00000000 		.4byte	0
 9822              	.LLST19:
 9823 0273 00000000 		.4byte	.LVL38
 9824 0277 06000000 		.4byte	.LVL39
 9825 027b 0100     		.2byte	0x1
 9826 027d 50       		.byte	0x50
 9827 027e 06000000 		.4byte	.LVL39
 9828 0282 0C000000 		.4byte	.LFE19
 9829 0286 0400     		.2byte	0x4
 9830 0288 F3       		.byte	0xf3
 9831 0289 01       		.uleb128 0x1
 9832 028a 50       		.byte	0x50
 9833 028b 9F       		.byte	0x9f
 9834 028c 00000000 		.4byte	0
 9835 0290 00000000 		.4byte	0
 9836              	.LLST20:
 9837 0294 00000000 		.4byte	.LVL40
 9838 0298 06000000 		.4byte	.LVL41
 9839 029c 0100     		.2byte	0x1
 9840 029e 50       		.byte	0x50
 9841 029f 06000000 		.4byte	.LVL41
 9842 02a3 0C000000 		.4byte	.LFE20
 9843 02a7 0400     		.2byte	0x4
 9844 02a9 F3       		.byte	0xf3
 9845 02aa 01       		.uleb128 0x1
 9846 02ab 50       		.byte	0x50
 9847 02ac 9F       		.byte	0x9f
 9848 02ad 00000000 		.4byte	0
ARM GAS  C:\Users\Abude\AppData\Local\Temp\ccndXIr0.s 			page 214


 9849 02b1 00000000 		.4byte	0
 9850              	.LLST21:
 9851 02b5 00000000 		.4byte	.LVL42
 9852 02b9 06000000 		.4byte	.LVL43
 9853 02bd 0100     		.2byte	0x1
 9854 02bf 50       		.byte	0x50
 9855 02c0 06000000 		.4byte	.LVL43
 9856 02c4 0C000000 		.4byte	.LFE21
 9857 02c8 0400     		.2byte	0x4
 9858 02ca F3       		.byte	0xf3
 9859 02cb 01       		.uleb128 0x1
 9860 02cc 50       		.byte	0x50
 9861 02cd 9F       		.byte	0x9f
 9862 02ce 00000000 		.4byte	0
 9863 02d2 00000000 		.4byte	0
 9864              	.LLST22:
 9865 02d6 00000000 		.4byte	.LVL44
 9866 02da 06000000 		.4byte	.LVL45
 9867 02de 0100     		.2byte	0x1
 9868 02e0 50       		.byte	0x50
 9869 02e1 06000000 		.4byte	.LVL45
 9870 02e5 0C000000 		.4byte	.LFE22
 9871 02e9 0400     		.2byte	0x4
 9872 02eb F3       		.byte	0xf3
 9873 02ec 01       		.uleb128 0x1
 9874 02ed 50       		.byte	0x50
 9875 02ee 9F       		.byte	0x9f
 9876 02ef 00000000 		.4byte	0
 9877 02f3 00000000 		.4byte	0
 9878              	.LLST23:
 9879 02f7 00000000 		.4byte	.LVL46
 9880 02fb 06000000 		.4byte	.LVL47
 9881 02ff 0100     		.2byte	0x1
 9882 0301 50       		.byte	0x50
 9883 0302 06000000 		.4byte	.LVL47
 9884 0306 0C000000 		.4byte	.LFE23
 9885 030a 0400     		.2byte	0x4
 9886 030c F3       		.byte	0xf3
 9887 030d 01       		.uleb128 0x1
 9888 030e 50       		.byte	0x50
 9889 030f 9F       		.byte	0x9f
 9890 0310 00000000 		.4byte	0
 9891 0314 00000000 		.4byte	0
 9892              	.LLST24:
 9893 0318 00000000 		.4byte	.LVL48
 9894 031c 06000000 		.4byte	.LVL49
 9895 0320 0100     		.2byte	0x1
 9896 0322 50       		.byte	0x50
 9897 0323 06000000 		.4byte	.LVL49
 9898 0327 0C000000 		.4byte	.LFE24
 9899 032b 0400     		.2byte	0x4
 9900 032d F3       		.byte	0xf3
 9901 032e 01       		.uleb128 0x1
 9902 032f 50       		.byte	0x50
 9903 0330 9F       		.byte	0x9f
 9904 0331 00000000 		.4byte	0
 9905 0335 00000000 		.4byte	0
ARM GAS  C:\Users\Abude\AppData\Local\Temp\ccndXIr0.s 			page 215


 9906              	.LLST25:
 9907 0339 00000000 		.4byte	.LVL50
 9908 033d 06000000 		.4byte	.LVL51
 9909 0341 0100     		.2byte	0x1
 9910 0343 50       		.byte	0x50
 9911 0344 06000000 		.4byte	.LVL51
 9912 0348 0C000000 		.4byte	.LFE25
 9913 034c 0400     		.2byte	0x4
 9914 034e F3       		.byte	0xf3
 9915 034f 01       		.uleb128 0x1
 9916 0350 50       		.byte	0x50
 9917 0351 9F       		.byte	0x9f
 9918 0352 00000000 		.4byte	0
 9919 0356 00000000 		.4byte	0
 9920              	.LLST26:
 9921 035a 00000000 		.4byte	.LVL52
 9922 035e 06000000 		.4byte	.LVL53
 9923 0362 0100     		.2byte	0x1
 9924 0364 50       		.byte	0x50
 9925 0365 06000000 		.4byte	.LVL53
 9926 0369 0C000000 		.4byte	.LFE26
 9927 036d 0400     		.2byte	0x4
 9928 036f F3       		.byte	0xf3
 9929 0370 01       		.uleb128 0x1
 9930 0371 50       		.byte	0x50
 9931 0372 9F       		.byte	0x9f
 9932 0373 00000000 		.4byte	0
 9933 0377 00000000 		.4byte	0
 9934              	.LLST27:
 9935 037b 00000000 		.4byte	.LVL54
 9936 037f 06000000 		.4byte	.LVL55
 9937 0383 0100     		.2byte	0x1
 9938 0385 50       		.byte	0x50
 9939 0386 06000000 		.4byte	.LVL55
 9940 038a 0C000000 		.4byte	.LFE27
 9941 038e 0400     		.2byte	0x4
 9942 0390 F3       		.byte	0xf3
 9943 0391 01       		.uleb128 0x1
 9944 0392 50       		.byte	0x50
 9945 0393 9F       		.byte	0x9f
 9946 0394 00000000 		.4byte	0
 9947 0398 00000000 		.4byte	0
 9948              	.LLST28:
 9949 039c 00000000 		.4byte	.LVL56
 9950 03a0 06000000 		.4byte	.LVL57
 9951 03a4 0100     		.2byte	0x1
 9952 03a6 50       		.byte	0x50
 9953 03a7 06000000 		.4byte	.LVL57
 9954 03ab 0C000000 		.4byte	.LFE28
 9955 03af 0400     		.2byte	0x4
 9956 03b1 F3       		.byte	0xf3
 9957 03b2 01       		.uleb128 0x1
 9958 03b3 50       		.byte	0x50
 9959 03b4 9F       		.byte	0x9f
 9960 03b5 00000000 		.4byte	0
 9961 03b9 00000000 		.4byte	0
 9962              	.LLST29:
ARM GAS  C:\Users\Abude\AppData\Local\Temp\ccndXIr0.s 			page 216


 9963 03bd 00000000 		.4byte	.LVL58
 9964 03c1 06000000 		.4byte	.LVL59
 9965 03c5 0100     		.2byte	0x1
 9966 03c7 50       		.byte	0x50
 9967 03c8 06000000 		.4byte	.LVL59
 9968 03cc 0C000000 		.4byte	.LFE29
 9969 03d0 0400     		.2byte	0x4
 9970 03d2 F3       		.byte	0xf3
 9971 03d3 01       		.uleb128 0x1
 9972 03d4 50       		.byte	0x50
 9973 03d5 9F       		.byte	0x9f
 9974 03d6 00000000 		.4byte	0
 9975 03da 00000000 		.4byte	0
 9976              	.LLST30:
 9977 03de 00000000 		.4byte	.LVL60
 9978 03e2 06000000 		.4byte	.LVL61
 9979 03e6 0100     		.2byte	0x1
 9980 03e8 50       		.byte	0x50
 9981 03e9 06000000 		.4byte	.LVL61
 9982 03ed 0C000000 		.4byte	.LFE30
 9983 03f1 0400     		.2byte	0x4
 9984 03f3 F3       		.byte	0xf3
 9985 03f4 01       		.uleb128 0x1
 9986 03f5 50       		.byte	0x50
 9987 03f6 9F       		.byte	0x9f
 9988 03f7 00000000 		.4byte	0
 9989 03fb 00000000 		.4byte	0
 9990              	.LLST31:
 9991 03ff 00000000 		.4byte	.LVL62
 9992 0403 06000000 		.4byte	.LVL63
 9993 0407 0100     		.2byte	0x1
 9994 0409 50       		.byte	0x50
 9995 040a 06000000 		.4byte	.LVL63
 9996 040e 0C000000 		.4byte	.LFE31
 9997 0412 0400     		.2byte	0x4
 9998 0414 F3       		.byte	0xf3
 9999 0415 01       		.uleb128 0x1
 10000 0416 50       		.byte	0x50
 10001 0417 9F       		.byte	0x9f
 10002 0418 00000000 		.4byte	0
 10003 041c 00000000 		.4byte	0
 10004              	.LLST32:
 10005 0420 00000000 		.4byte	.LVL64
 10006 0424 06000000 		.4byte	.LVL65
 10007 0428 0100     		.2byte	0x1
 10008 042a 50       		.byte	0x50
 10009 042b 06000000 		.4byte	.LVL65
 10010 042f 0C000000 		.4byte	.LFE32
 10011 0433 0400     		.2byte	0x4
 10012 0435 F3       		.byte	0xf3
 10013 0436 01       		.uleb128 0x1
 10014 0437 50       		.byte	0x50
 10015 0438 9F       		.byte	0x9f
 10016 0439 00000000 		.4byte	0
 10017 043d 00000000 		.4byte	0
 10018              	.LLST33:
 10019 0441 00000000 		.4byte	.LVL66
ARM GAS  C:\Users\Abude\AppData\Local\Temp\ccndXIr0.s 			page 217


 10020 0445 06000000 		.4byte	.LVL67
 10021 0449 0100     		.2byte	0x1
 10022 044b 50       		.byte	0x50
 10023 044c 06000000 		.4byte	.LVL67
 10024 0450 0C000000 		.4byte	.LFE33
 10025 0454 0400     		.2byte	0x4
 10026 0456 F3       		.byte	0xf3
 10027 0457 01       		.uleb128 0x1
 10028 0458 50       		.byte	0x50
 10029 0459 9F       		.byte	0x9f
 10030 045a 00000000 		.4byte	0
 10031 045e 00000000 		.4byte	0
 10032              	.LLST34:
 10033 0462 00000000 		.4byte	.LVL68
 10034 0466 06000000 		.4byte	.LVL69
 10035 046a 0100     		.2byte	0x1
 10036 046c 50       		.byte	0x50
 10037 046d 06000000 		.4byte	.LVL69
 10038 0471 0C000000 		.4byte	.LFE34
 10039 0475 0400     		.2byte	0x4
 10040 0477 F3       		.byte	0xf3
 10041 0478 01       		.uleb128 0x1
 10042 0479 50       		.byte	0x50
 10043 047a 9F       		.byte	0x9f
 10044 047b 00000000 		.4byte	0
 10045 047f 00000000 		.4byte	0
 10046              	.LLST35:
 10047 0483 00000000 		.4byte	.LVL70
 10048 0487 06000000 		.4byte	.LVL71
 10049 048b 0100     		.2byte	0x1
 10050 048d 50       		.byte	0x50
 10051 048e 06000000 		.4byte	.LVL71
 10052 0492 0C000000 		.4byte	.LFE35
 10053 0496 0400     		.2byte	0x4
 10054 0498 F3       		.byte	0xf3
 10055 0499 01       		.uleb128 0x1
 10056 049a 50       		.byte	0x50
 10057 049b 9F       		.byte	0x9f
 10058 049c 00000000 		.4byte	0
 10059 04a0 00000000 		.4byte	0
 10060              	.LLST36:
 10061 04a4 00000000 		.4byte	.LVL72
 10062 04a8 06000000 		.4byte	.LVL73
 10063 04ac 0100     		.2byte	0x1
 10064 04ae 50       		.byte	0x50
 10065 04af 06000000 		.4byte	.LVL73
 10066 04b3 0C000000 		.4byte	.LFE36
 10067 04b7 0400     		.2byte	0x4
 10068 04b9 F3       		.byte	0xf3
 10069 04ba 01       		.uleb128 0x1
 10070 04bb 50       		.byte	0x50
 10071 04bc 9F       		.byte	0x9f
 10072 04bd 00000000 		.4byte	0
 10073 04c1 00000000 		.4byte	0
 10074              	.LLST37:
 10075 04c5 00000000 		.4byte	.LVL74
 10076 04c9 06000000 		.4byte	.LVL75
ARM GAS  C:\Users\Abude\AppData\Local\Temp\ccndXIr0.s 			page 218


 10077 04cd 0100     		.2byte	0x1
 10078 04cf 50       		.byte	0x50
 10079 04d0 06000000 		.4byte	.LVL75
 10080 04d4 0C000000 		.4byte	.LFE37
 10081 04d8 0400     		.2byte	0x4
 10082 04da F3       		.byte	0xf3
 10083 04db 01       		.uleb128 0x1
 10084 04dc 50       		.byte	0x50
 10085 04dd 9F       		.byte	0x9f
 10086 04de 00000000 		.4byte	0
 10087 04e2 00000000 		.4byte	0
 10088              	.LLST38:
 10089 04e6 00000000 		.4byte	.LVL76
 10090 04ea 06000000 		.4byte	.LVL77
 10091 04ee 0100     		.2byte	0x1
 10092 04f0 50       		.byte	0x50
 10093 04f1 06000000 		.4byte	.LVL77
 10094 04f5 0C000000 		.4byte	.LFE38
 10095 04f9 0400     		.2byte	0x4
 10096 04fb F3       		.byte	0xf3
 10097 04fc 01       		.uleb128 0x1
 10098 04fd 50       		.byte	0x50
 10099 04fe 9F       		.byte	0x9f
 10100 04ff 00000000 		.4byte	0
 10101 0503 00000000 		.4byte	0
 10102              	.LLST39:
 10103 0507 00000000 		.4byte	.LVL78
 10104 050b 06000000 		.4byte	.LVL79
 10105 050f 0100     		.2byte	0x1
 10106 0511 50       		.byte	0x50
 10107 0512 06000000 		.4byte	.LVL79
 10108 0516 0C000000 		.4byte	.LFE39
 10109 051a 0400     		.2byte	0x4
 10110 051c F3       		.byte	0xf3
 10111 051d 01       		.uleb128 0x1
 10112 051e 50       		.byte	0x50
 10113 051f 9F       		.byte	0x9f
 10114 0520 00000000 		.4byte	0
 10115 0524 00000000 		.4byte	0
 10116              	.LLST40:
 10117 0528 00000000 		.4byte	.LVL80
 10118 052c 06000000 		.4byte	.LVL81
 10119 0530 0100     		.2byte	0x1
 10120 0532 50       		.byte	0x50
 10121 0533 06000000 		.4byte	.LVL81
 10122 0537 0C000000 		.4byte	.LFE40
 10123 053b 0400     		.2byte	0x4
 10124 053d F3       		.byte	0xf3
 10125 053e 01       		.uleb128 0x1
 10126 053f 50       		.byte	0x50
 10127 0540 9F       		.byte	0x9f
 10128 0541 00000000 		.4byte	0
 10129 0545 00000000 		.4byte	0
 10130              	.LLST41:
 10131 0549 00000000 		.4byte	.LVL82
 10132 054d 06000000 		.4byte	.LVL83
 10133 0551 0100     		.2byte	0x1
ARM GAS  C:\Users\Abude\AppData\Local\Temp\ccndXIr0.s 			page 219


 10134 0553 50       		.byte	0x50
 10135 0554 06000000 		.4byte	.LVL83
 10136 0558 0C000000 		.4byte	.LFE41
 10137 055c 0400     		.2byte	0x4
 10138 055e F3       		.byte	0xf3
 10139 055f 01       		.uleb128 0x1
 10140 0560 50       		.byte	0x50
 10141 0561 9F       		.byte	0x9f
 10142 0562 00000000 		.4byte	0
 10143 0566 00000000 		.4byte	0
 10144              	.LLST42:
 10145 056a 00000000 		.4byte	.LVL84
 10146 056e 06000000 		.4byte	.LVL85
 10147 0572 0100     		.2byte	0x1
 10148 0574 50       		.byte	0x50
 10149 0575 06000000 		.4byte	.LVL85
 10150 0579 0C000000 		.4byte	.LFE42
 10151 057d 0400     		.2byte	0x4
 10152 057f F3       		.byte	0xf3
 10153 0580 01       		.uleb128 0x1
 10154 0581 50       		.byte	0x50
 10155 0582 9F       		.byte	0x9f
 10156 0583 00000000 		.4byte	0
 10157 0587 00000000 		.4byte	0
 10158              	.LLST43:
 10159 058b 00000000 		.4byte	.LVL86
 10160 058f 06000000 		.4byte	.LVL87
 10161 0593 0100     		.2byte	0x1
 10162 0595 50       		.byte	0x50
 10163 0596 06000000 		.4byte	.LVL87
 10164 059a 0C000000 		.4byte	.LFE43
 10165 059e 0400     		.2byte	0x4
 10166 05a0 F3       		.byte	0xf3
 10167 05a1 01       		.uleb128 0x1
 10168 05a2 50       		.byte	0x50
 10169 05a3 9F       		.byte	0x9f
 10170 05a4 00000000 		.4byte	0
 10171 05a8 00000000 		.4byte	0
 10172              	.LLST44:
 10173 05ac 00000000 		.4byte	.LVL88
 10174 05b0 06000000 		.4byte	.LVL89
 10175 05b4 0100     		.2byte	0x1
 10176 05b6 50       		.byte	0x50
 10177 05b7 06000000 		.4byte	.LVL89
 10178 05bb 0C000000 		.4byte	.LFE44
 10179 05bf 0400     		.2byte	0x4
 10180 05c1 F3       		.byte	0xf3
 10181 05c2 01       		.uleb128 0x1
 10182 05c3 50       		.byte	0x50
 10183 05c4 9F       		.byte	0x9f
 10184 05c5 00000000 		.4byte	0
 10185 05c9 00000000 		.4byte	0
 10186              	.LLST45:
 10187 05cd 00000000 		.4byte	.LVL90
 10188 05d1 06000000 		.4byte	.LVL91
 10189 05d5 0100     		.2byte	0x1
 10190 05d7 50       		.byte	0x50
ARM GAS  C:\Users\Abude\AppData\Local\Temp\ccndXIr0.s 			page 220


 10191 05d8 06000000 		.4byte	.LVL91
 10192 05dc 0C000000 		.4byte	.LFE45
 10193 05e0 0400     		.2byte	0x4
 10194 05e2 F3       		.byte	0xf3
 10195 05e3 01       		.uleb128 0x1
 10196 05e4 50       		.byte	0x50
 10197 05e5 9F       		.byte	0x9f
 10198 05e6 00000000 		.4byte	0
 10199 05ea 00000000 		.4byte	0
 10200              	.LLST46:
 10201 05ee 00000000 		.4byte	.LVL92
 10202 05f2 06000000 		.4byte	.LVL93
 10203 05f6 0100     		.2byte	0x1
 10204 05f8 50       		.byte	0x50
 10205 05f9 06000000 		.4byte	.LVL93
 10206 05fd 0C000000 		.4byte	.LFE46
 10207 0601 0400     		.2byte	0x4
 10208 0603 F3       		.byte	0xf3
 10209 0604 01       		.uleb128 0x1
 10210 0605 50       		.byte	0x50
 10211 0606 9F       		.byte	0x9f
 10212 0607 00000000 		.4byte	0
 10213 060b 00000000 		.4byte	0
 10214              	.LLST47:
 10215 060f 00000000 		.4byte	.LVL94
 10216 0613 06000000 		.4byte	.LVL95
 10217 0617 0100     		.2byte	0x1
 10218 0619 50       		.byte	0x50
 10219 061a 06000000 		.4byte	.LVL95
 10220 061e 0C000000 		.4byte	.LFE47
 10221 0622 0400     		.2byte	0x4
 10222 0624 F3       		.byte	0xf3
 10223 0625 01       		.uleb128 0x1
 10224 0626 50       		.byte	0x50
 10225 0627 9F       		.byte	0x9f
 10226 0628 00000000 		.4byte	0
 10227 062c 00000000 		.4byte	0
 10228              	.LLST48:
 10229 0630 00000000 		.4byte	.LVL96
 10230 0634 06000000 		.4byte	.LVL97
 10231 0638 0100     		.2byte	0x1
 10232 063a 50       		.byte	0x50
 10233 063b 06000000 		.4byte	.LVL97
 10234 063f 0C000000 		.4byte	.LFE48
 10235 0643 0400     		.2byte	0x4
 10236 0645 F3       		.byte	0xf3
 10237 0646 01       		.uleb128 0x1
 10238 0647 50       		.byte	0x50
 10239 0648 9F       		.byte	0x9f
 10240 0649 00000000 		.4byte	0
 10241 064d 00000000 		.4byte	0
 10242              	.LLST49:
 10243 0651 00000000 		.4byte	.LVL98
 10244 0655 06000000 		.4byte	.LVL99
 10245 0659 0100     		.2byte	0x1
 10246 065b 50       		.byte	0x50
 10247 065c 06000000 		.4byte	.LVL99
ARM GAS  C:\Users\Abude\AppData\Local\Temp\ccndXIr0.s 			page 221


 10248 0660 0C000000 		.4byte	.LFE49
 10249 0664 0400     		.2byte	0x4
 10250 0666 F3       		.byte	0xf3
 10251 0667 01       		.uleb128 0x1
 10252 0668 50       		.byte	0x50
 10253 0669 9F       		.byte	0x9f
 10254 066a 00000000 		.4byte	0
 10255 066e 00000000 		.4byte	0
 10256              	.LLST50:
 10257 0672 00000000 		.4byte	.LVL100
 10258 0676 06000000 		.4byte	.LVL101
 10259 067a 0100     		.2byte	0x1
 10260 067c 50       		.byte	0x50
 10261 067d 06000000 		.4byte	.LVL101
 10262 0681 0C000000 		.4byte	.LFE50
 10263 0685 0400     		.2byte	0x4
 10264 0687 F3       		.byte	0xf3
 10265 0688 01       		.uleb128 0x1
 10266 0689 50       		.byte	0x50
 10267 068a 9F       		.byte	0x9f
 10268 068b 00000000 		.4byte	0
 10269 068f 00000000 		.4byte	0
 10270              	.LLST51:
 10271 0693 00000000 		.4byte	.LVL102
 10272 0697 06000000 		.4byte	.LVL103
 10273 069b 0100     		.2byte	0x1
 10274 069d 50       		.byte	0x50
 10275 069e 06000000 		.4byte	.LVL103
 10276 06a2 0C000000 		.4byte	.LFE51
 10277 06a6 0400     		.2byte	0x4
 10278 06a8 F3       		.byte	0xf3
 10279 06a9 01       		.uleb128 0x1
 10280 06aa 50       		.byte	0x50
 10281 06ab 9F       		.byte	0x9f
 10282 06ac 00000000 		.4byte	0
 10283 06b0 00000000 		.4byte	0
 10284              	.LLST52:
 10285 06b4 00000000 		.4byte	.LVL104
 10286 06b8 06000000 		.4byte	.LVL105
 10287 06bc 0100     		.2byte	0x1
 10288 06be 50       		.byte	0x50
 10289 06bf 06000000 		.4byte	.LVL105
 10290 06c3 0C000000 		.4byte	.LFE52
 10291 06c7 0400     		.2byte	0x4
 10292 06c9 F3       		.byte	0xf3
 10293 06ca 01       		.uleb128 0x1
 10294 06cb 50       		.byte	0x50
 10295 06cc 9F       		.byte	0x9f
 10296 06cd 00000000 		.4byte	0
 10297 06d1 00000000 		.4byte	0
 10298              	.LLST53:
 10299 06d5 00000000 		.4byte	.LVL106
 10300 06d9 06000000 		.4byte	.LVL107
 10301 06dd 0100     		.2byte	0x1
 10302 06df 50       		.byte	0x50
 10303 06e0 06000000 		.4byte	.LVL107
 10304 06e4 0C000000 		.4byte	.LFE53
ARM GAS  C:\Users\Abude\AppData\Local\Temp\ccndXIr0.s 			page 222


 10305 06e8 0400     		.2byte	0x4
 10306 06ea F3       		.byte	0xf3
 10307 06eb 01       		.uleb128 0x1
 10308 06ec 50       		.byte	0x50
 10309 06ed 9F       		.byte	0x9f
 10310 06ee 00000000 		.4byte	0
 10311 06f2 00000000 		.4byte	0
 10312              	.LLST54:
 10313 06f6 00000000 		.4byte	.LVL108
 10314 06fa 06000000 		.4byte	.LVL109
 10315 06fe 0100     		.2byte	0x1
 10316 0700 50       		.byte	0x50
 10317 0701 06000000 		.4byte	.LVL109
 10318 0705 0C000000 		.4byte	.LFE54
 10319 0709 0400     		.2byte	0x4
 10320 070b F3       		.byte	0xf3
 10321 070c 01       		.uleb128 0x1
 10322 070d 50       		.byte	0x50
 10323 070e 9F       		.byte	0x9f
 10324 070f 00000000 		.4byte	0
 10325 0713 00000000 		.4byte	0
 10326              	.LLST55:
 10327 0717 00000000 		.4byte	.LVL110
 10328 071b 06000000 		.4byte	.LVL111
 10329 071f 0100     		.2byte	0x1
 10330 0721 50       		.byte	0x50
 10331 0722 06000000 		.4byte	.LVL111
 10332 0726 0C000000 		.4byte	.LFE55
 10333 072a 0400     		.2byte	0x4
 10334 072c F3       		.byte	0xf3
 10335 072d 01       		.uleb128 0x1
 10336 072e 50       		.byte	0x50
 10337 072f 9F       		.byte	0x9f
 10338 0730 00000000 		.4byte	0
 10339 0734 00000000 		.4byte	0
 10340              	.LLST56:
 10341 0738 00000000 		.4byte	.LVL112
 10342 073c 06000000 		.4byte	.LVL113
 10343 0740 0100     		.2byte	0x1
 10344 0742 50       		.byte	0x50
 10345 0743 06000000 		.4byte	.LVL113
 10346 0747 0C000000 		.4byte	.LFE56
 10347 074b 0400     		.2byte	0x4
 10348 074d F3       		.byte	0xf3
 10349 074e 01       		.uleb128 0x1
 10350 074f 50       		.byte	0x50
 10351 0750 9F       		.byte	0x9f
 10352 0751 00000000 		.4byte	0
 10353 0755 00000000 		.4byte	0
 10354              	.LLST57:
 10355 0759 00000000 		.4byte	.LVL114
 10356 075d 06000000 		.4byte	.LVL115
 10357 0761 0100     		.2byte	0x1
 10358 0763 50       		.byte	0x50
 10359 0764 06000000 		.4byte	.LVL115
 10360 0768 0C000000 		.4byte	.LFE57
 10361 076c 0400     		.2byte	0x4
ARM GAS  C:\Users\Abude\AppData\Local\Temp\ccndXIr0.s 			page 223


 10362 076e F3       		.byte	0xf3
 10363 076f 01       		.uleb128 0x1
 10364 0770 50       		.byte	0x50
 10365 0771 9F       		.byte	0x9f
 10366 0772 00000000 		.4byte	0
 10367 0776 00000000 		.4byte	0
 10368              	.LLST58:
 10369 077a 00000000 		.4byte	.LVL116
 10370 077e 06000000 		.4byte	.LVL117
 10371 0782 0100     		.2byte	0x1
 10372 0784 50       		.byte	0x50
 10373 0785 06000000 		.4byte	.LVL117
 10374 0789 0C000000 		.4byte	.LFE58
 10375 078d 0400     		.2byte	0x4
 10376 078f F3       		.byte	0xf3
 10377 0790 01       		.uleb128 0x1
 10378 0791 50       		.byte	0x50
 10379 0792 9F       		.byte	0x9f
 10380 0793 00000000 		.4byte	0
 10381 0797 00000000 		.4byte	0
 10382              	.LLST59:
 10383 079b 00000000 		.4byte	.LVL118
 10384 079f 06000000 		.4byte	.LVL119
 10385 07a3 0100     		.2byte	0x1
 10386 07a5 50       		.byte	0x50
 10387 07a6 06000000 		.4byte	.LVL119
 10388 07aa 0C000000 		.4byte	.LFE59
 10389 07ae 0400     		.2byte	0x4
 10390 07b0 F3       		.byte	0xf3
 10391 07b1 01       		.uleb128 0x1
 10392 07b2 50       		.byte	0x50
 10393 07b3 9F       		.byte	0x9f
 10394 07b4 00000000 		.4byte	0
 10395 07b8 00000000 		.4byte	0
 10396              	.LLST60:
 10397 07bc 00000000 		.4byte	.LVL120
 10398 07c0 06000000 		.4byte	.LVL121
 10399 07c4 0100     		.2byte	0x1
 10400 07c6 50       		.byte	0x50
 10401 07c7 06000000 		.4byte	.LVL121
 10402 07cb 0C000000 		.4byte	.LFE60
 10403 07cf 0400     		.2byte	0x4
 10404 07d1 F3       		.byte	0xf3
 10405 07d2 01       		.uleb128 0x1
 10406 07d3 50       		.byte	0x50
 10407 07d4 9F       		.byte	0x9f
 10408 07d5 00000000 		.4byte	0
 10409 07d9 00000000 		.4byte	0
 10410              	.LLST61:
 10411 07dd 00000000 		.4byte	.LVL122
 10412 07e1 06000000 		.4byte	.LVL123
 10413 07e5 0100     		.2byte	0x1
 10414 07e7 50       		.byte	0x50
 10415 07e8 06000000 		.4byte	.LVL123
 10416 07ec 0C000000 		.4byte	.LFE61
 10417 07f0 0400     		.2byte	0x4
 10418 07f2 F3       		.byte	0xf3
ARM GAS  C:\Users\Abude\AppData\Local\Temp\ccndXIr0.s 			page 224


 10419 07f3 01       		.uleb128 0x1
 10420 07f4 50       		.byte	0x50
 10421 07f5 9F       		.byte	0x9f
 10422 07f6 00000000 		.4byte	0
 10423 07fa 00000000 		.4byte	0
 10424              	.LLST62:
 10425 07fe 00000000 		.4byte	.LVL124
 10426 0802 06000000 		.4byte	.LVL125
 10427 0806 0100     		.2byte	0x1
 10428 0808 50       		.byte	0x50
 10429 0809 06000000 		.4byte	.LVL125
 10430 080d 0C000000 		.4byte	.LFE62
 10431 0811 0400     		.2byte	0x4
 10432 0813 F3       		.byte	0xf3
 10433 0814 01       		.uleb128 0x1
 10434 0815 50       		.byte	0x50
 10435 0816 9F       		.byte	0x9f
 10436 0817 00000000 		.4byte	0
 10437 081b 00000000 		.4byte	0
 10438              	.LLST63:
 10439 081f 00000000 		.4byte	.LVL126
 10440 0823 06000000 		.4byte	.LVL127
 10441 0827 0100     		.2byte	0x1
 10442 0829 50       		.byte	0x50
 10443 082a 06000000 		.4byte	.LVL127
 10444 082e 0C000000 		.4byte	.LFE63
 10445 0832 0400     		.2byte	0x4
 10446 0834 F3       		.byte	0xf3
 10447 0835 01       		.uleb128 0x1
 10448 0836 50       		.byte	0x50
 10449 0837 9F       		.byte	0x9f
 10450 0838 00000000 		.4byte	0
 10451 083c 00000000 		.4byte	0
 10452              	.LLST64:
 10453 0840 00000000 		.4byte	.LVL128
 10454 0844 06000000 		.4byte	.LVL129
 10455 0848 0100     		.2byte	0x1
 10456 084a 50       		.byte	0x50
 10457 084b 06000000 		.4byte	.LVL129
 10458 084f 0C000000 		.4byte	.LFE64
 10459 0853 0400     		.2byte	0x4
 10460 0855 F3       		.byte	0xf3
 10461 0856 01       		.uleb128 0x1
 10462 0857 50       		.byte	0x50
 10463 0858 9F       		.byte	0x9f
 10464 0859 00000000 		.4byte	0
 10465 085d 00000000 		.4byte	0
 10466              	.LLST65:
 10467 0861 00000000 		.4byte	.LVL130
 10468 0865 06000000 		.4byte	.LVL131
 10469 0869 0100     		.2byte	0x1
 10470 086b 50       		.byte	0x50
 10471 086c 06000000 		.4byte	.LVL131
 10472 0870 0C000000 		.4byte	.LFE65
 10473 0874 0400     		.2byte	0x4
 10474 0876 F3       		.byte	0xf3
 10475 0877 01       		.uleb128 0x1
ARM GAS  C:\Users\Abude\AppData\Local\Temp\ccndXIr0.s 			page 225


 10476 0878 50       		.byte	0x50
 10477 0879 9F       		.byte	0x9f
 10478 087a 00000000 		.4byte	0
 10479 087e 00000000 		.4byte	0
 10480              	.LLST66:
 10481 0882 00000000 		.4byte	.LVL132
 10482 0886 06000000 		.4byte	.LVL133
 10483 088a 0100     		.2byte	0x1
 10484 088c 50       		.byte	0x50
 10485 088d 06000000 		.4byte	.LVL133
 10486 0891 0C000000 		.4byte	.LFE66
 10487 0895 0400     		.2byte	0x4
 10488 0897 F3       		.byte	0xf3
 10489 0898 01       		.uleb128 0x1
 10490 0899 50       		.byte	0x50
 10491 089a 9F       		.byte	0x9f
 10492 089b 00000000 		.4byte	0
 10493 089f 00000000 		.4byte	0
 10494              	.LLST67:
 10495 08a3 00000000 		.4byte	.LVL134
 10496 08a7 06000000 		.4byte	.LVL135
 10497 08ab 0100     		.2byte	0x1
 10498 08ad 50       		.byte	0x50
 10499 08ae 06000000 		.4byte	.LVL135
 10500 08b2 0C000000 		.4byte	.LFE67
 10501 08b6 0400     		.2byte	0x4
 10502 08b8 F3       		.byte	0xf3
 10503 08b9 01       		.uleb128 0x1
 10504 08ba 50       		.byte	0x50
 10505 08bb 9F       		.byte	0x9f
 10506 08bc 00000000 		.4byte	0
 10507 08c0 00000000 		.4byte	0
 10508              	.LLST68:
 10509 08c4 00000000 		.4byte	.LVL136
 10510 08c8 06000000 		.4byte	.LVL137
 10511 08cc 0100     		.2byte	0x1
 10512 08ce 50       		.byte	0x50
 10513 08cf 06000000 		.4byte	.LVL137
 10514 08d3 0C000000 		.4byte	.LFE68
 10515 08d7 0400     		.2byte	0x4
 10516 08d9 F3       		.byte	0xf3
 10517 08da 01       		.uleb128 0x1
 10518 08db 50       		.byte	0x50
 10519 08dc 9F       		.byte	0x9f
 10520 08dd 00000000 		.4byte	0
 10521 08e1 00000000 		.4byte	0
 10522              	.LLST69:
 10523 08e5 00000000 		.4byte	.LVL138
 10524 08e9 06000000 		.4byte	.LVL139
 10525 08ed 0100     		.2byte	0x1
 10526 08ef 50       		.byte	0x50
 10527 08f0 06000000 		.4byte	.LVL139
 10528 08f4 0C000000 		.4byte	.LFE69
 10529 08f8 0400     		.2byte	0x4
 10530 08fa F3       		.byte	0xf3
 10531 08fb 01       		.uleb128 0x1
 10532 08fc 50       		.byte	0x50
ARM GAS  C:\Users\Abude\AppData\Local\Temp\ccndXIr0.s 			page 226


 10533 08fd 9F       		.byte	0x9f
 10534 08fe 00000000 		.4byte	0
 10535 0902 00000000 		.4byte	0
 10536              	.LLST70:
 10537 0906 00000000 		.4byte	.LVL140
 10538 090a 06000000 		.4byte	.LVL141
 10539 090e 0100     		.2byte	0x1
 10540 0910 50       		.byte	0x50
 10541 0911 06000000 		.4byte	.LVL141
 10542 0915 0C000000 		.4byte	.LFE70
 10543 0919 0400     		.2byte	0x4
 10544 091b F3       		.byte	0xf3
 10545 091c 01       		.uleb128 0x1
 10546 091d 50       		.byte	0x50
 10547 091e 9F       		.byte	0x9f
 10548 091f 00000000 		.4byte	0
 10549 0923 00000000 		.4byte	0
 10550              	.LLST71:
 10551 0927 00000000 		.4byte	.LVL142
 10552 092b 06000000 		.4byte	.LVL143
 10553 092f 0100     		.2byte	0x1
 10554 0931 50       		.byte	0x50
 10555 0932 06000000 		.4byte	.LVL143
 10556 0936 0C000000 		.4byte	.LFE71
 10557 093a 0400     		.2byte	0x4
 10558 093c F3       		.byte	0xf3
 10559 093d 01       		.uleb128 0x1
 10560 093e 50       		.byte	0x50
 10561 093f 9F       		.byte	0x9f
 10562 0940 00000000 		.4byte	0
 10563 0944 00000000 		.4byte	0
 10564              	.LLST72:
 10565 0948 00000000 		.4byte	.LVL144
 10566 094c 06000000 		.4byte	.LVL145
 10567 0950 0100     		.2byte	0x1
 10568 0952 50       		.byte	0x50
 10569 0953 06000000 		.4byte	.LVL145
 10570 0957 0C000000 		.4byte	.LFE72
 10571 095b 0400     		.2byte	0x4
 10572 095d F3       		.byte	0xf3
 10573 095e 01       		.uleb128 0x1
 10574 095f 50       		.byte	0x50
 10575 0960 9F       		.byte	0x9f
 10576 0961 00000000 		.4byte	0
 10577 0965 00000000 		.4byte	0
 10578              	.LLST73:
 10579 0969 00000000 		.4byte	.LVL146
 10580 096d 06000000 		.4byte	.LVL147
 10581 0971 0100     		.2byte	0x1
 10582 0973 50       		.byte	0x50
 10583 0974 06000000 		.4byte	.LVL147
 10584 0978 0C000000 		.4byte	.LFE73
 10585 097c 0400     		.2byte	0x4
 10586 097e F3       		.byte	0xf3
 10587 097f 01       		.uleb128 0x1
 10588 0980 50       		.byte	0x50
 10589 0981 9F       		.byte	0x9f
ARM GAS  C:\Users\Abude\AppData\Local\Temp\ccndXIr0.s 			page 227


 10590 0982 00000000 		.4byte	0
 10591 0986 00000000 		.4byte	0
 10592              	.LLST74:
 10593 098a 00000000 		.4byte	.LVL148
 10594 098e 06000000 		.4byte	.LVL149
 10595 0992 0100     		.2byte	0x1
 10596 0994 50       		.byte	0x50
 10597 0995 06000000 		.4byte	.LVL149
 10598 0999 0C000000 		.4byte	.LFE74
 10599 099d 0400     		.2byte	0x4
 10600 099f F3       		.byte	0xf3
 10601 09a0 01       		.uleb128 0x1
 10602 09a1 50       		.byte	0x50
 10603 09a2 9F       		.byte	0x9f
 10604 09a3 00000000 		.4byte	0
 10605 09a7 00000000 		.4byte	0
 10606              	.LLST75:
 10607 09ab 00000000 		.4byte	.LVL150
 10608 09af 06000000 		.4byte	.LVL151
 10609 09b3 0100     		.2byte	0x1
 10610 09b5 50       		.byte	0x50
 10611 09b6 06000000 		.4byte	.LVL151
 10612 09ba 0C000000 		.4byte	.LFE75
 10613 09be 0400     		.2byte	0x4
 10614 09c0 F3       		.byte	0xf3
 10615 09c1 01       		.uleb128 0x1
 10616 09c2 50       		.byte	0x50
 10617 09c3 9F       		.byte	0x9f
 10618 09c4 00000000 		.4byte	0
 10619 09c8 00000000 		.4byte	0
 10620              	.LLST76:
 10621 09cc 00000000 		.4byte	.LVL152
 10622 09d0 06000000 		.4byte	.LVL153
 10623 09d4 0100     		.2byte	0x1
 10624 09d6 50       		.byte	0x50
 10625 09d7 06000000 		.4byte	.LVL153
 10626 09db 0C000000 		.4byte	.LFE76
 10627 09df 0400     		.2byte	0x4
 10628 09e1 F3       		.byte	0xf3
 10629 09e2 01       		.uleb128 0x1
 10630 09e3 50       		.byte	0x50
 10631 09e4 9F       		.byte	0x9f
 10632 09e5 00000000 		.4byte	0
 10633 09e9 00000000 		.4byte	0
 10634              	.LLST77:
 10635 09ed 00000000 		.4byte	.LVL154
 10636 09f1 06000000 		.4byte	.LVL155
 10637 09f5 0100     		.2byte	0x1
 10638 09f7 50       		.byte	0x50
 10639 09f8 06000000 		.4byte	.LVL155
 10640 09fc 0C000000 		.4byte	.LFE77
 10641 0a00 0400     		.2byte	0x4
 10642 0a02 F3       		.byte	0xf3
 10643 0a03 01       		.uleb128 0x1
 10644 0a04 50       		.byte	0x50
 10645 0a05 9F       		.byte	0x9f
 10646 0a06 00000000 		.4byte	0
ARM GAS  C:\Users\Abude\AppData\Local\Temp\ccndXIr0.s 			page 228


 10647 0a0a 00000000 		.4byte	0
 10648              	.LLST78:
 10649 0a0e 00000000 		.4byte	.LVL156
 10650 0a12 06000000 		.4byte	.LVL157
 10651 0a16 0100     		.2byte	0x1
 10652 0a18 50       		.byte	0x50
 10653 0a19 06000000 		.4byte	.LVL157
 10654 0a1d 0C000000 		.4byte	.LFE78
 10655 0a21 0400     		.2byte	0x4
 10656 0a23 F3       		.byte	0xf3
 10657 0a24 01       		.uleb128 0x1
 10658 0a25 50       		.byte	0x50
 10659 0a26 9F       		.byte	0x9f
 10660 0a27 00000000 		.4byte	0
 10661 0a2b 00000000 		.4byte	0
 10662              	.LLST79:
 10663 0a2f 00000000 		.4byte	.LVL158
 10664 0a33 06000000 		.4byte	.LVL159
 10665 0a37 0100     		.2byte	0x1
 10666 0a39 50       		.byte	0x50
 10667 0a3a 06000000 		.4byte	.LVL159
 10668 0a3e 0C000000 		.4byte	.LFE79
 10669 0a42 0400     		.2byte	0x4
 10670 0a44 F3       		.byte	0xf3
 10671 0a45 01       		.uleb128 0x1
 10672 0a46 50       		.byte	0x50
 10673 0a47 9F       		.byte	0x9f
 10674 0a48 00000000 		.4byte	0
 10675 0a4c 00000000 		.4byte	0
 10676              	.LLST80:
 10677 0a50 00000000 		.4byte	.LVL160
 10678 0a54 06000000 		.4byte	.LVL161
 10679 0a58 0100     		.2byte	0x1
 10680 0a5a 50       		.byte	0x50
 10681 0a5b 06000000 		.4byte	.LVL161
 10682 0a5f 0C000000 		.4byte	.LFE80
 10683 0a63 0400     		.2byte	0x4
 10684 0a65 F3       		.byte	0xf3
 10685 0a66 01       		.uleb128 0x1
 10686 0a67 50       		.byte	0x50
 10687 0a68 9F       		.byte	0x9f
 10688 0a69 00000000 		.4byte	0
 10689 0a6d 00000000 		.4byte	0
 10690              	.LLST81:
 10691 0a71 00000000 		.4byte	.LVL162
 10692 0a75 06000000 		.4byte	.LVL163
 10693 0a79 0100     		.2byte	0x1
 10694 0a7b 50       		.byte	0x50
 10695 0a7c 06000000 		.4byte	.LVL163
 10696 0a80 0C000000 		.4byte	.LFE81
 10697 0a84 0400     		.2byte	0x4
 10698 0a86 F3       		.byte	0xf3
 10699 0a87 01       		.uleb128 0x1
 10700 0a88 50       		.byte	0x50
 10701 0a89 9F       		.byte	0x9f
 10702 0a8a 00000000 		.4byte	0
 10703 0a8e 00000000 		.4byte	0
ARM GAS  C:\Users\Abude\AppData\Local\Temp\ccndXIr0.s 			page 229


 10704              	.LLST82:
 10705 0a92 00000000 		.4byte	.LVL164
 10706 0a96 06000000 		.4byte	.LVL165
 10707 0a9a 0100     		.2byte	0x1
 10708 0a9c 50       		.byte	0x50
 10709 0a9d 06000000 		.4byte	.LVL165
 10710 0aa1 0C000000 		.4byte	.LFE82
 10711 0aa5 0400     		.2byte	0x4
 10712 0aa7 F3       		.byte	0xf3
 10713 0aa8 01       		.uleb128 0x1
 10714 0aa9 50       		.byte	0x50
 10715 0aaa 9F       		.byte	0x9f
 10716 0aab 00000000 		.4byte	0
 10717 0aaf 00000000 		.4byte	0
 10718              	.LLST83:
 10719 0ab3 00000000 		.4byte	.LVL166
 10720 0ab7 06000000 		.4byte	.LVL167
 10721 0abb 0100     		.2byte	0x1
 10722 0abd 50       		.byte	0x50
 10723 0abe 06000000 		.4byte	.LVL167
 10724 0ac2 0C000000 		.4byte	.LFE83
 10725 0ac6 0400     		.2byte	0x4
 10726 0ac8 F3       		.byte	0xf3
 10727 0ac9 01       		.uleb128 0x1
 10728 0aca 50       		.byte	0x50
 10729 0acb 9F       		.byte	0x9f
 10730 0acc 00000000 		.4byte	0
 10731 0ad0 00000000 		.4byte	0
 10732              	.LLST84:
 10733 0ad4 00000000 		.4byte	.LVL168
 10734 0ad8 06000000 		.4byte	.LVL169
 10735 0adc 0100     		.2byte	0x1
 10736 0ade 50       		.byte	0x50
 10737 0adf 06000000 		.4byte	.LVL169
 10738 0ae3 0C000000 		.4byte	.LFE84
 10739 0ae7 0400     		.2byte	0x4
 10740 0ae9 F3       		.byte	0xf3
 10741 0aea 01       		.uleb128 0x1
 10742 0aeb 50       		.byte	0x50
 10743 0aec 9F       		.byte	0x9f
 10744 0aed 00000000 		.4byte	0
 10745 0af1 00000000 		.4byte	0
 10746              	.LLST85:
 10747 0af5 00000000 		.4byte	.LVL170
 10748 0af9 06000000 		.4byte	.LVL171
 10749 0afd 0100     		.2byte	0x1
 10750 0aff 50       		.byte	0x50
 10751 0b00 06000000 		.4byte	.LVL171
 10752 0b04 0C000000 		.4byte	.LFE85
 10753 0b08 0400     		.2byte	0x4
 10754 0b0a F3       		.byte	0xf3
 10755 0b0b 01       		.uleb128 0x1
 10756 0b0c 50       		.byte	0x50
 10757 0b0d 9F       		.byte	0x9f
 10758 0b0e 00000000 		.4byte	0
 10759 0b12 00000000 		.4byte	0
 10760              	.LLST86:
ARM GAS  C:\Users\Abude\AppData\Local\Temp\ccndXIr0.s 			page 230


 10761 0b16 00000000 		.4byte	.LVL172
 10762 0b1a 06000000 		.4byte	.LVL173
 10763 0b1e 0100     		.2byte	0x1
 10764 0b20 50       		.byte	0x50
 10765 0b21 06000000 		.4byte	.LVL173
 10766 0b25 0C000000 		.4byte	.LFE86
 10767 0b29 0400     		.2byte	0x4
 10768 0b2b F3       		.byte	0xf3
 10769 0b2c 01       		.uleb128 0x1
 10770 0b2d 50       		.byte	0x50
 10771 0b2e 9F       		.byte	0x9f
 10772 0b2f 00000000 		.4byte	0
 10773 0b33 00000000 		.4byte	0
 10774              	.LLST87:
 10775 0b37 00000000 		.4byte	.LVL174
 10776 0b3b 06000000 		.4byte	.LVL175
 10777 0b3f 0100     		.2byte	0x1
 10778 0b41 50       		.byte	0x50
 10779 0b42 06000000 		.4byte	.LVL175
 10780 0b46 0C000000 		.4byte	.LFE87
 10781 0b4a 0400     		.2byte	0x4
 10782 0b4c F3       		.byte	0xf3
 10783 0b4d 01       		.uleb128 0x1
 10784 0b4e 50       		.byte	0x50
 10785 0b4f 9F       		.byte	0x9f
 10786 0b50 00000000 		.4byte	0
 10787 0b54 00000000 		.4byte	0
 10788              	.LLST88:
 10789 0b58 00000000 		.4byte	.LVL176
 10790 0b5c 06000000 		.4byte	.LVL177
 10791 0b60 0100     		.2byte	0x1
 10792 0b62 50       		.byte	0x50
 10793 0b63 06000000 		.4byte	.LVL177
 10794 0b67 0C000000 		.4byte	.LFE88
 10795 0b6b 0400     		.2byte	0x4
 10796 0b6d F3       		.byte	0xf3
 10797 0b6e 01       		.uleb128 0x1
 10798 0b6f 50       		.byte	0x50
 10799 0b70 9F       		.byte	0x9f
 10800 0b71 00000000 		.4byte	0
 10801 0b75 00000000 		.4byte	0
 10802              	.LLST89:
 10803 0b79 00000000 		.4byte	.LVL178
 10804 0b7d 06000000 		.4byte	.LVL179
 10805 0b81 0100     		.2byte	0x1
 10806 0b83 50       		.byte	0x50
 10807 0b84 06000000 		.4byte	.LVL179
 10808 0b88 0C000000 		.4byte	.LFE89
 10809 0b8c 0400     		.2byte	0x4
 10810 0b8e F3       		.byte	0xf3
 10811 0b8f 01       		.uleb128 0x1
 10812 0b90 50       		.byte	0x50
 10813 0b91 9F       		.byte	0x9f
 10814 0b92 00000000 		.4byte	0
 10815 0b96 00000000 		.4byte	0
 10816              	.LLST90:
 10817 0b9a 00000000 		.4byte	.LVL180
ARM GAS  C:\Users\Abude\AppData\Local\Temp\ccndXIr0.s 			page 231


 10818 0b9e 06000000 		.4byte	.LVL181
 10819 0ba2 0100     		.2byte	0x1
 10820 0ba4 50       		.byte	0x50
 10821 0ba5 06000000 		.4byte	.LVL181
 10822 0ba9 0C000000 		.4byte	.LFE90
 10823 0bad 0400     		.2byte	0x4
 10824 0baf F3       		.byte	0xf3
 10825 0bb0 01       		.uleb128 0x1
 10826 0bb1 50       		.byte	0x50
 10827 0bb2 9F       		.byte	0x9f
 10828 0bb3 00000000 		.4byte	0
 10829 0bb7 00000000 		.4byte	0
 10830              	.LLST91:
 10831 0bbb 00000000 		.4byte	.LVL182
 10832 0bbf 06000000 		.4byte	.LVL183
 10833 0bc3 0100     		.2byte	0x1
 10834 0bc5 50       		.byte	0x50
 10835 0bc6 06000000 		.4byte	.LVL183
 10836 0bca 0C000000 		.4byte	.LFE91
 10837 0bce 0400     		.2byte	0x4
 10838 0bd0 F3       		.byte	0xf3
 10839 0bd1 01       		.uleb128 0x1
 10840 0bd2 50       		.byte	0x50
 10841 0bd3 9F       		.byte	0x9f
 10842 0bd4 00000000 		.4byte	0
 10843 0bd8 00000000 		.4byte	0
 10844              	.LLST92:
 10845 0bdc 00000000 		.4byte	.LVL184
 10846 0be0 06000000 		.4byte	.LVL185
 10847 0be4 0100     		.2byte	0x1
 10848 0be6 50       		.byte	0x50
 10849 0be7 06000000 		.4byte	.LVL185
 10850 0beb 0C000000 		.4byte	.LFE92
 10851 0bef 0400     		.2byte	0x4
 10852 0bf1 F3       		.byte	0xf3
 10853 0bf2 01       		.uleb128 0x1
 10854 0bf3 50       		.byte	0x50
 10855 0bf4 9F       		.byte	0x9f
 10856 0bf5 00000000 		.4byte	0
 10857 0bf9 00000000 		.4byte	0
 10858              	.LLST93:
 10859 0bfd 00000000 		.4byte	.LVL186
 10860 0c01 06000000 		.4byte	.LVL187
 10861 0c05 0100     		.2byte	0x1
 10862 0c07 50       		.byte	0x50
 10863 0c08 06000000 		.4byte	.LVL187
 10864 0c0c 0C000000 		.4byte	.LFE93
 10865 0c10 0400     		.2byte	0x4
 10866 0c12 F3       		.byte	0xf3
 10867 0c13 01       		.uleb128 0x1
 10868 0c14 50       		.byte	0x50
 10869 0c15 9F       		.byte	0x9f
 10870 0c16 00000000 		.4byte	0
 10871 0c1a 00000000 		.4byte	0
 10872              	.LLST94:
 10873 0c1e 00000000 		.4byte	.LVL188
 10874 0c22 06000000 		.4byte	.LVL189
ARM GAS  C:\Users\Abude\AppData\Local\Temp\ccndXIr0.s 			page 232


 10875 0c26 0100     		.2byte	0x1
 10876 0c28 50       		.byte	0x50
 10877 0c29 06000000 		.4byte	.LVL189
 10878 0c2d 0C000000 		.4byte	.LFE94
 10879 0c31 0400     		.2byte	0x4
 10880 0c33 F3       		.byte	0xf3
 10881 0c34 01       		.uleb128 0x1
 10882 0c35 50       		.byte	0x50
 10883 0c36 9F       		.byte	0x9f
 10884 0c37 00000000 		.4byte	0
 10885 0c3b 00000000 		.4byte	0
 10886              	.LLST95:
 10887 0c3f 00000000 		.4byte	.LVL190
 10888 0c43 06000000 		.4byte	.LVL191
 10889 0c47 0100     		.2byte	0x1
 10890 0c49 50       		.byte	0x50
 10891 0c4a 06000000 		.4byte	.LVL191
 10892 0c4e 0C000000 		.4byte	.LFE95
 10893 0c52 0400     		.2byte	0x4
 10894 0c54 F3       		.byte	0xf3
 10895 0c55 01       		.uleb128 0x1
 10896 0c56 50       		.byte	0x50
 10897 0c57 9F       		.byte	0x9f
 10898 0c58 00000000 		.4byte	0
 10899 0c5c 00000000 		.4byte	0
 10900              	.LLST96:
 10901 0c60 00000000 		.4byte	.LVL192
 10902 0c64 06000000 		.4byte	.LVL193
 10903 0c68 0100     		.2byte	0x1
 10904 0c6a 50       		.byte	0x50
 10905 0c6b 06000000 		.4byte	.LVL193
 10906 0c6f 0C000000 		.4byte	.LFE96
 10907 0c73 0400     		.2byte	0x4
 10908 0c75 F3       		.byte	0xf3
 10909 0c76 01       		.uleb128 0x1
 10910 0c77 50       		.byte	0x50
 10911 0c78 9F       		.byte	0x9f
 10912 0c79 00000000 		.4byte	0
 10913 0c7d 00000000 		.4byte	0
 10914              	.LLST97:
 10915 0c81 00000000 		.4byte	.LVL194
 10916 0c85 06000000 		.4byte	.LVL195
 10917 0c89 0100     		.2byte	0x1
 10918 0c8b 50       		.byte	0x50
 10919 0c8c 06000000 		.4byte	.LVL195
 10920 0c90 0C000000 		.4byte	.LFE97
 10921 0c94 0400     		.2byte	0x4
 10922 0c96 F3       		.byte	0xf3
 10923 0c97 01       		.uleb128 0x1
 10924 0c98 50       		.byte	0x50
 10925 0c99 9F       		.byte	0x9f
 10926 0c9a 00000000 		.4byte	0
 10927 0c9e 00000000 		.4byte	0
 10928              	.LLST98:
 10929 0ca2 00000000 		.4byte	.LVL196
 10930 0ca6 06000000 		.4byte	.LVL197
 10931 0caa 0100     		.2byte	0x1
ARM GAS  C:\Users\Abude\AppData\Local\Temp\ccndXIr0.s 			page 233


 10932 0cac 50       		.byte	0x50
 10933 0cad 06000000 		.4byte	.LVL197
 10934 0cb1 0C000000 		.4byte	.LFE98
 10935 0cb5 0400     		.2byte	0x4
 10936 0cb7 F3       		.byte	0xf3
 10937 0cb8 01       		.uleb128 0x1
 10938 0cb9 50       		.byte	0x50
 10939 0cba 9F       		.byte	0x9f
 10940 0cbb 00000000 		.4byte	0
 10941 0cbf 00000000 		.4byte	0
 10942              	.LLST99:
 10943 0cc3 00000000 		.4byte	.LVL198
 10944 0cc7 06000000 		.4byte	.LVL199
 10945 0ccb 0100     		.2byte	0x1
 10946 0ccd 50       		.byte	0x50
 10947 0cce 06000000 		.4byte	.LVL199
 10948 0cd2 0C000000 		.4byte	.LFE99
 10949 0cd6 0400     		.2byte	0x4
 10950 0cd8 F3       		.byte	0xf3
 10951 0cd9 01       		.uleb128 0x1
 10952 0cda 50       		.byte	0x50
 10953 0cdb 9F       		.byte	0x9f
 10954 0cdc 00000000 		.4byte	0
 10955 0ce0 00000000 		.4byte	0
 10956              	.LLST100:
 10957 0ce4 00000000 		.4byte	.LVL200
 10958 0ce8 06000000 		.4byte	.LVL201
 10959 0cec 0100     		.2byte	0x1
 10960 0cee 50       		.byte	0x50
 10961 0cef 06000000 		.4byte	.LVL201
 10962 0cf3 0C000000 		.4byte	.LFE100
 10963 0cf7 0400     		.2byte	0x4
 10964 0cf9 F3       		.byte	0xf3
 10965 0cfa 01       		.uleb128 0x1
 10966 0cfb 50       		.byte	0x50
 10967 0cfc 9F       		.byte	0x9f
 10968 0cfd 00000000 		.4byte	0
 10969 0d01 00000000 		.4byte	0
 10970              	.LLST101:
 10971 0d05 00000000 		.4byte	.LVL202
 10972 0d09 06000000 		.4byte	.LVL203
 10973 0d0d 0100     		.2byte	0x1
 10974 0d0f 50       		.byte	0x50
 10975 0d10 06000000 		.4byte	.LVL203
 10976 0d14 0C000000 		.4byte	.LFE101
 10977 0d18 0400     		.2byte	0x4
 10978 0d1a F3       		.byte	0xf3
 10979 0d1b 01       		.uleb128 0x1
 10980 0d1c 50       		.byte	0x50
 10981 0d1d 9F       		.byte	0x9f
 10982 0d1e 00000000 		.4byte	0
 10983 0d22 00000000 		.4byte	0
 10984              	.LLST102:
 10985 0d26 00000000 		.4byte	.LVL204
 10986 0d2a 06000000 		.4byte	.LVL205
 10987 0d2e 0100     		.2byte	0x1
 10988 0d30 50       		.byte	0x50
ARM GAS  C:\Users\Abude\AppData\Local\Temp\ccndXIr0.s 			page 234


 10989 0d31 06000000 		.4byte	.LVL205
 10990 0d35 0C000000 		.4byte	.LFE102
 10991 0d39 0400     		.2byte	0x4
 10992 0d3b F3       		.byte	0xf3
 10993 0d3c 01       		.uleb128 0x1
 10994 0d3d 50       		.byte	0x50
 10995 0d3e 9F       		.byte	0x9f
 10996 0d3f 00000000 		.4byte	0
 10997 0d43 00000000 		.4byte	0
 10998              	.LLST103:
 10999 0d47 00000000 		.4byte	.LVL206
 11000 0d4b 06000000 		.4byte	.LVL207
 11001 0d4f 0100     		.2byte	0x1
 11002 0d51 50       		.byte	0x50
 11003 0d52 06000000 		.4byte	.LVL207
 11004 0d56 0C000000 		.4byte	.LFE103
 11005 0d5a 0400     		.2byte	0x4
 11006 0d5c F3       		.byte	0xf3
 11007 0d5d 01       		.uleb128 0x1
 11008 0d5e 50       		.byte	0x50
 11009 0d5f 9F       		.byte	0x9f
 11010 0d60 00000000 		.4byte	0
 11011 0d64 00000000 		.4byte	0
 11012              	.LLST104:
 11013 0d68 00000000 		.4byte	.LVL208
 11014 0d6c 06000000 		.4byte	.LVL209
 11015 0d70 0100     		.2byte	0x1
 11016 0d72 50       		.byte	0x50
 11017 0d73 06000000 		.4byte	.LVL209
 11018 0d77 0C000000 		.4byte	.LFE104
 11019 0d7b 0400     		.2byte	0x4
 11020 0d7d F3       		.byte	0xf3
 11021 0d7e 01       		.uleb128 0x1
 11022 0d7f 50       		.byte	0x50
 11023 0d80 9F       		.byte	0x9f
 11024 0d81 00000000 		.4byte	0
 11025 0d85 00000000 		.4byte	0
 11026              	.LLST105:
 11027 0d89 00000000 		.4byte	.LVL210
 11028 0d8d 06000000 		.4byte	.LVL211
 11029 0d91 0100     		.2byte	0x1
 11030 0d93 50       		.byte	0x50
 11031 0d94 06000000 		.4byte	.LVL211
 11032 0d98 0C000000 		.4byte	.LFE105
 11033 0d9c 0400     		.2byte	0x4
 11034 0d9e F3       		.byte	0xf3
 11035 0d9f 01       		.uleb128 0x1
 11036 0da0 50       		.byte	0x50
 11037 0da1 9F       		.byte	0x9f
 11038 0da2 00000000 		.4byte	0
 11039 0da6 00000000 		.4byte	0
 11040              	.LLST106:
 11041 0daa 00000000 		.4byte	.LVL212
 11042 0dae 06000000 		.4byte	.LVL213
 11043 0db2 0100     		.2byte	0x1
 11044 0db4 50       		.byte	0x50
 11045 0db5 06000000 		.4byte	.LVL213
ARM GAS  C:\Users\Abude\AppData\Local\Temp\ccndXIr0.s 			page 235


 11046 0db9 0C000000 		.4byte	.LFE106
 11047 0dbd 0400     		.2byte	0x4
 11048 0dbf F3       		.byte	0xf3
 11049 0dc0 01       		.uleb128 0x1
 11050 0dc1 50       		.byte	0x50
 11051 0dc2 9F       		.byte	0x9f
 11052 0dc3 00000000 		.4byte	0
 11053 0dc7 00000000 		.4byte	0
 11054              	.LLST107:
 11055 0dcb 00000000 		.4byte	.LVL214
 11056 0dcf 06000000 		.4byte	.LVL215
 11057 0dd3 0100     		.2byte	0x1
 11058 0dd5 50       		.byte	0x50
 11059 0dd6 06000000 		.4byte	.LVL215
 11060 0dda 0C000000 		.4byte	.LFE107
 11061 0dde 0400     		.2byte	0x4
 11062 0de0 F3       		.byte	0xf3
 11063 0de1 01       		.uleb128 0x1
 11064 0de2 50       		.byte	0x50
 11065 0de3 9F       		.byte	0x9f
 11066 0de4 00000000 		.4byte	0
 11067 0de8 00000000 		.4byte	0
 11068              	.LLST108:
 11069 0dec 00000000 		.4byte	.LVL216
 11070 0df0 06000000 		.4byte	.LVL217
 11071 0df4 0100     		.2byte	0x1
 11072 0df6 50       		.byte	0x50
 11073 0df7 06000000 		.4byte	.LVL217
 11074 0dfb 0C000000 		.4byte	.LFE108
 11075 0dff 0400     		.2byte	0x4
 11076 0e01 F3       		.byte	0xf3
 11077 0e02 01       		.uleb128 0x1
 11078 0e03 50       		.byte	0x50
 11079 0e04 9F       		.byte	0x9f
 11080 0e05 00000000 		.4byte	0
 11081 0e09 00000000 		.4byte	0
 11082              	.LLST109:
 11083 0e0d 00000000 		.4byte	.LVL218
 11084 0e11 06000000 		.4byte	.LVL219
 11085 0e15 0100     		.2byte	0x1
 11086 0e17 50       		.byte	0x50
 11087 0e18 06000000 		.4byte	.LVL219
 11088 0e1c 0C000000 		.4byte	.LFE109
 11089 0e20 0400     		.2byte	0x4
 11090 0e22 F3       		.byte	0xf3
 11091 0e23 01       		.uleb128 0x1
 11092 0e24 50       		.byte	0x50
 11093 0e25 9F       		.byte	0x9f
 11094 0e26 00000000 		.4byte	0
 11095 0e2a 00000000 		.4byte	0
 11096              	.LLST110:
 11097 0e2e 00000000 		.4byte	.LVL220
 11098 0e32 06000000 		.4byte	.LVL221
 11099 0e36 0100     		.2byte	0x1
 11100 0e38 50       		.byte	0x50
 11101 0e39 06000000 		.4byte	.LVL221
 11102 0e3d 0C000000 		.4byte	.LFE110
ARM GAS  C:\Users\Abude\AppData\Local\Temp\ccndXIr0.s 			page 236


 11103 0e41 0400     		.2byte	0x4
 11104 0e43 F3       		.byte	0xf3
 11105 0e44 01       		.uleb128 0x1
 11106 0e45 50       		.byte	0x50
 11107 0e46 9F       		.byte	0x9f
 11108 0e47 00000000 		.4byte	0
 11109 0e4b 00000000 		.4byte	0
 11110              	.LLST111:
 11111 0e4f 00000000 		.4byte	.LVL222
 11112 0e53 06000000 		.4byte	.LVL223
 11113 0e57 0100     		.2byte	0x1
 11114 0e59 50       		.byte	0x50
 11115 0e5a 06000000 		.4byte	.LVL223
 11116 0e5e 0C000000 		.4byte	.LFE111
 11117 0e62 0400     		.2byte	0x4
 11118 0e64 F3       		.byte	0xf3
 11119 0e65 01       		.uleb128 0x1
 11120 0e66 50       		.byte	0x50
 11121 0e67 9F       		.byte	0x9f
 11122 0e68 00000000 		.4byte	0
 11123 0e6c 00000000 		.4byte	0
 11124              	.LLST112:
 11125 0e70 00000000 		.4byte	.LVL224
 11126 0e74 06000000 		.4byte	.LVL225
 11127 0e78 0100     		.2byte	0x1
 11128 0e7a 50       		.byte	0x50
 11129 0e7b 06000000 		.4byte	.LVL225
 11130 0e7f 0C000000 		.4byte	.LFE112
 11131 0e83 0400     		.2byte	0x4
 11132 0e85 F3       		.byte	0xf3
 11133 0e86 01       		.uleb128 0x1
 11134 0e87 50       		.byte	0x50
 11135 0e88 9F       		.byte	0x9f
 11136 0e89 00000000 		.4byte	0
 11137 0e8d 00000000 		.4byte	0
 11138              	.LLST113:
 11139 0e91 00000000 		.4byte	.LVL226
 11140 0e95 06000000 		.4byte	.LVL227
 11141 0e99 0100     		.2byte	0x1
 11142 0e9b 50       		.byte	0x50
 11143 0e9c 06000000 		.4byte	.LVL227
 11144 0ea0 0C000000 		.4byte	.LFE113
 11145 0ea4 0400     		.2byte	0x4
 11146 0ea6 F3       		.byte	0xf3
 11147 0ea7 01       		.uleb128 0x1
 11148 0ea8 50       		.byte	0x50
 11149 0ea9 9F       		.byte	0x9f
 11150 0eaa 00000000 		.4byte	0
 11151 0eae 00000000 		.4byte	0
 11152              	.LLST114:
 11153 0eb2 00000000 		.4byte	.LVL228
 11154 0eb6 06000000 		.4byte	.LVL229
 11155 0eba 0100     		.2byte	0x1
 11156 0ebc 50       		.byte	0x50
 11157 0ebd 06000000 		.4byte	.LVL229
 11158 0ec1 0C000000 		.4byte	.LFE114
 11159 0ec5 0400     		.2byte	0x4
ARM GAS  C:\Users\Abude\AppData\Local\Temp\ccndXIr0.s 			page 237


 11160 0ec7 F3       		.byte	0xf3
 11161 0ec8 01       		.uleb128 0x1
 11162 0ec9 50       		.byte	0x50
 11163 0eca 9F       		.byte	0x9f
 11164 0ecb 00000000 		.4byte	0
 11165 0ecf 00000000 		.4byte	0
 11166              	.LLST115:
 11167 0ed3 00000000 		.4byte	.LVL230
 11168 0ed7 06000000 		.4byte	.LVL231
 11169 0edb 0100     		.2byte	0x1
 11170 0edd 50       		.byte	0x50
 11171 0ede 06000000 		.4byte	.LVL231
 11172 0ee2 0C000000 		.4byte	.LFE115
 11173 0ee6 0400     		.2byte	0x4
 11174 0ee8 F3       		.byte	0xf3
 11175 0ee9 01       		.uleb128 0x1
 11176 0eea 50       		.byte	0x50
 11177 0eeb 9F       		.byte	0x9f
 11178 0eec 00000000 		.4byte	0
 11179 0ef0 00000000 		.4byte	0
 11180              	.LLST116:
 11181 0ef4 00000000 		.4byte	.LVL232
 11182 0ef8 06000000 		.4byte	.LVL233
 11183 0efc 0100     		.2byte	0x1
 11184 0efe 50       		.byte	0x50
 11185 0eff 06000000 		.4byte	.LVL233
 11186 0f03 0C000000 		.4byte	.LFE116
 11187 0f07 0400     		.2byte	0x4
 11188 0f09 F3       		.byte	0xf3
 11189 0f0a 01       		.uleb128 0x1
 11190 0f0b 50       		.byte	0x50
 11191 0f0c 9F       		.byte	0x9f
 11192 0f0d 00000000 		.4byte	0
 11193 0f11 00000000 		.4byte	0
 11194              	.LLST117:
 11195 0f15 00000000 		.4byte	.LVL234
 11196 0f19 06000000 		.4byte	.LVL235
 11197 0f1d 0100     		.2byte	0x1
 11198 0f1f 50       		.byte	0x50
 11199 0f20 06000000 		.4byte	.LVL235
 11200 0f24 0C000000 		.4byte	.LFE117
 11201 0f28 0400     		.2byte	0x4
 11202 0f2a F3       		.byte	0xf3
 11203 0f2b 01       		.uleb128 0x1
 11204 0f2c 50       		.byte	0x50
 11205 0f2d 9F       		.byte	0x9f
 11206 0f2e 00000000 		.4byte	0
 11207 0f32 00000000 		.4byte	0
 11208              	.LLST118:
 11209 0f36 00000000 		.4byte	.LVL236
 11210 0f3a 06000000 		.4byte	.LVL237
 11211 0f3e 0100     		.2byte	0x1
 11212 0f40 50       		.byte	0x50
 11213 0f41 06000000 		.4byte	.LVL237
 11214 0f45 0C000000 		.4byte	.LFE118
 11215 0f49 0400     		.2byte	0x4
 11216 0f4b F3       		.byte	0xf3
ARM GAS  C:\Users\Abude\AppData\Local\Temp\ccndXIr0.s 			page 238


 11217 0f4c 01       		.uleb128 0x1
 11218 0f4d 50       		.byte	0x50
 11219 0f4e 9F       		.byte	0x9f
 11220 0f4f 00000000 		.4byte	0
 11221 0f53 00000000 		.4byte	0
 11222              	.LLST119:
 11223 0f57 00000000 		.4byte	.LVL238
 11224 0f5b 06000000 		.4byte	.LVL239
 11225 0f5f 0100     		.2byte	0x1
 11226 0f61 50       		.byte	0x50
 11227 0f62 06000000 		.4byte	.LVL239
 11228 0f66 0C000000 		.4byte	.LFE119
 11229 0f6a 0400     		.2byte	0x4
 11230 0f6c F3       		.byte	0xf3
 11231 0f6d 01       		.uleb128 0x1
 11232 0f6e 50       		.byte	0x50
 11233 0f6f 9F       		.byte	0x9f
 11234 0f70 00000000 		.4byte	0
 11235 0f74 00000000 		.4byte	0
 11236              	.LLST120:
 11237 0f78 00000000 		.4byte	.LVL240
 11238 0f7c 06000000 		.4byte	.LVL241
 11239 0f80 0100     		.2byte	0x1
 11240 0f82 50       		.byte	0x50
 11241 0f83 06000000 		.4byte	.LVL241
 11242 0f87 0C000000 		.4byte	.LFE120
 11243 0f8b 0400     		.2byte	0x4
 11244 0f8d F3       		.byte	0xf3
 11245 0f8e 01       		.uleb128 0x1
 11246 0f8f 50       		.byte	0x50
 11247 0f90 9F       		.byte	0x9f
 11248 0f91 00000000 		.4byte	0
 11249 0f95 00000000 		.4byte	0
 11250              	.LLST121:
 11251 0f99 00000000 		.4byte	.LVL242
 11252 0f9d 06000000 		.4byte	.LVL243
 11253 0fa1 0100     		.2byte	0x1
 11254 0fa3 50       		.byte	0x50
 11255 0fa4 06000000 		.4byte	.LVL243
 11256 0fa8 0C000000 		.4byte	.LFE121
 11257 0fac 0400     		.2byte	0x4
 11258 0fae F3       		.byte	0xf3
 11259 0faf 01       		.uleb128 0x1
 11260 0fb0 50       		.byte	0x50
 11261 0fb1 9F       		.byte	0x9f
 11262 0fb2 00000000 		.4byte	0
 11263 0fb6 00000000 		.4byte	0
 11264              	.LLST122:
 11265 0fba 00000000 		.4byte	.LVL244
 11266 0fbe 06000000 		.4byte	.LVL245
 11267 0fc2 0100     		.2byte	0x1
 11268 0fc4 50       		.byte	0x50
 11269 0fc5 06000000 		.4byte	.LVL245
 11270 0fc9 0C000000 		.4byte	.LFE122
 11271 0fcd 0400     		.2byte	0x4
 11272 0fcf F3       		.byte	0xf3
 11273 0fd0 01       		.uleb128 0x1
ARM GAS  C:\Users\Abude\AppData\Local\Temp\ccndXIr0.s 			page 239


 11274 0fd1 50       		.byte	0x50
 11275 0fd2 9F       		.byte	0x9f
 11276 0fd3 00000000 		.4byte	0
 11277 0fd7 00000000 		.4byte	0
 11278              	.LLST123:
 11279 0fdb 00000000 		.4byte	.LVL246
 11280 0fdf 06000000 		.4byte	.LVL247
 11281 0fe3 0100     		.2byte	0x1
 11282 0fe5 50       		.byte	0x50
 11283 0fe6 06000000 		.4byte	.LVL247
 11284 0fea 0C000000 		.4byte	.LFE123
 11285 0fee 0400     		.2byte	0x4
 11286 0ff0 F3       		.byte	0xf3
 11287 0ff1 01       		.uleb128 0x1
 11288 0ff2 50       		.byte	0x50
 11289 0ff3 9F       		.byte	0x9f
 11290 0ff4 00000000 		.4byte	0
 11291 0ff8 00000000 		.4byte	0
 11292              	.LLST124:
 11293 0ffc 00000000 		.4byte	.LVL248
 11294 1000 06000000 		.4byte	.LVL249
 11295 1004 0100     		.2byte	0x1
 11296 1006 50       		.byte	0x50
 11297 1007 06000000 		.4byte	.LVL249
 11298 100b 0C000000 		.4byte	.LFE124
 11299 100f 0400     		.2byte	0x4
 11300 1011 F3       		.byte	0xf3
 11301 1012 01       		.uleb128 0x1
 11302 1013 50       		.byte	0x50
 11303 1014 9F       		.byte	0x9f
 11304 1015 00000000 		.4byte	0
 11305 1019 00000000 		.4byte	0
 11306              	.LLST125:
 11307 101d 00000000 		.4byte	.LVL250
 11308 1021 06000000 		.4byte	.LVL251
 11309 1025 0100     		.2byte	0x1
 11310 1027 50       		.byte	0x50
 11311 1028 06000000 		.4byte	.LVL251
 11312 102c 0C000000 		.4byte	.LFE125
 11313 1030 0400     		.2byte	0x4
 11314 1032 F3       		.byte	0xf3
 11315 1033 01       		.uleb128 0x1
 11316 1034 50       		.byte	0x50
 11317 1035 9F       		.byte	0x9f
 11318 1036 00000000 		.4byte	0
 11319 103a 00000000 		.4byte	0
 11320              	.LLST126:
 11321 103e 00000000 		.4byte	.LVL252
 11322 1042 06000000 		.4byte	.LVL253
 11323 1046 0100     		.2byte	0x1
 11324 1048 50       		.byte	0x50
 11325 1049 06000000 		.4byte	.LVL253
 11326 104d 0C000000 		.4byte	.LFE126
 11327 1051 0400     		.2byte	0x4
 11328 1053 F3       		.byte	0xf3
 11329 1054 01       		.uleb128 0x1
 11330 1055 50       		.byte	0x50
ARM GAS  C:\Users\Abude\AppData\Local\Temp\ccndXIr0.s 			page 240


 11331 1056 9F       		.byte	0x9f
 11332 1057 00000000 		.4byte	0
 11333 105b 00000000 		.4byte	0
 11334              	.LLST127:
 11335 105f 00000000 		.4byte	.LVL254
 11336 1063 06000000 		.4byte	.LVL255
 11337 1067 0100     		.2byte	0x1
 11338 1069 50       		.byte	0x50
 11339 106a 06000000 		.4byte	.LVL255
 11340 106e 0C000000 		.4byte	.LFE127
 11341 1072 0400     		.2byte	0x4
 11342 1074 F3       		.byte	0xf3
 11343 1075 01       		.uleb128 0x1
 11344 1076 50       		.byte	0x50
 11345 1077 9F       		.byte	0x9f
 11346 1078 00000000 		.4byte	0
 11347 107c 00000000 		.4byte	0
 11348              	.LLST128:
 11349 1080 00000000 		.4byte	.LVL256
 11350 1084 06000000 		.4byte	.LVL257
 11351 1088 0100     		.2byte	0x1
 11352 108a 50       		.byte	0x50
 11353 108b 06000000 		.4byte	.LVL257
 11354 108f 0C000000 		.4byte	.LFE128
 11355 1093 0400     		.2byte	0x4
 11356 1095 F3       		.byte	0xf3
 11357 1096 01       		.uleb128 0x1
 11358 1097 50       		.byte	0x50
 11359 1098 9F       		.byte	0x9f
 11360 1099 00000000 		.4byte	0
 11361 109d 00000000 		.4byte	0
 11362              	.LLST129:
 11363 10a1 00000000 		.4byte	.LVL258
 11364 10a5 06000000 		.4byte	.LVL259
 11365 10a9 0100     		.2byte	0x1
 11366 10ab 50       		.byte	0x50
 11367 10ac 06000000 		.4byte	.LVL259
 11368 10b0 0C000000 		.4byte	.LFE129
 11369 10b4 0400     		.2byte	0x4
 11370 10b6 F3       		.byte	0xf3
 11371 10b7 01       		.uleb128 0x1
 11372 10b8 50       		.byte	0x50
 11373 10b9 9F       		.byte	0x9f
 11374 10ba 00000000 		.4byte	0
 11375 10be 00000000 		.4byte	0
 11376              	.LLST130:
 11377 10c2 00000000 		.4byte	.LVL260
 11378 10c6 06000000 		.4byte	.LVL261
 11379 10ca 0100     		.2byte	0x1
 11380 10cc 50       		.byte	0x50
 11381 10cd 06000000 		.4byte	.LVL261
 11382 10d1 0C000000 		.4byte	.LFE130
 11383 10d5 0400     		.2byte	0x4
 11384 10d7 F3       		.byte	0xf3
 11385 10d8 01       		.uleb128 0x1
 11386 10d9 50       		.byte	0x50
 11387 10da 9F       		.byte	0x9f
ARM GAS  C:\Users\Abude\AppData\Local\Temp\ccndXIr0.s 			page 241


 11388 10db 00000000 		.4byte	0
 11389 10df 00000000 		.4byte	0
 11390              	.LLST131:
 11391 10e3 00000000 		.4byte	.LVL262
 11392 10e7 06000000 		.4byte	.LVL263
 11393 10eb 0100     		.2byte	0x1
 11394 10ed 50       		.byte	0x50
 11395 10ee 06000000 		.4byte	.LVL263
 11396 10f2 0C000000 		.4byte	.LFE131
 11397 10f6 0400     		.2byte	0x4
 11398 10f8 F3       		.byte	0xf3
 11399 10f9 01       		.uleb128 0x1
 11400 10fa 50       		.byte	0x50
 11401 10fb 9F       		.byte	0x9f
 11402 10fc 00000000 		.4byte	0
 11403 1100 00000000 		.4byte	0
 11404              	.LLST132:
 11405 1104 00000000 		.4byte	.LVL264
 11406 1108 06000000 		.4byte	.LVL265
 11407 110c 0100     		.2byte	0x1
 11408 110e 50       		.byte	0x50
 11409 110f 06000000 		.4byte	.LVL265
 11410 1113 0C000000 		.4byte	.LFE132
 11411 1117 0400     		.2byte	0x4
 11412 1119 F3       		.byte	0xf3
 11413 111a 01       		.uleb128 0x1
 11414 111b 50       		.byte	0x50
 11415 111c 9F       		.byte	0x9f
 11416 111d 00000000 		.4byte	0
 11417 1121 00000000 		.4byte	0
 11418              	.LLST133:
 11419 1125 00000000 		.4byte	.LVL266
 11420 1129 06000000 		.4byte	.LVL267
 11421 112d 0100     		.2byte	0x1
 11422 112f 50       		.byte	0x50
 11423 1130 06000000 		.4byte	.LVL267
 11424 1134 0C000000 		.4byte	.LFE133
 11425 1138 0400     		.2byte	0x4
 11426 113a F3       		.byte	0xf3
 11427 113b 01       		.uleb128 0x1
 11428 113c 50       		.byte	0x50
 11429 113d 9F       		.byte	0x9f
 11430 113e 00000000 		.4byte	0
 11431 1142 00000000 		.4byte	0
 11432              	.LLST134:
 11433 1146 00000000 		.4byte	.LVL268
 11434 114a 06000000 		.4byte	.LVL269
 11435 114e 0100     		.2byte	0x1
 11436 1150 50       		.byte	0x50
 11437 1151 06000000 		.4byte	.LVL269
 11438 1155 0C000000 		.4byte	.LFE134
 11439 1159 0400     		.2byte	0x4
 11440 115b F3       		.byte	0xf3
 11441 115c 01       		.uleb128 0x1
 11442 115d 50       		.byte	0x50
 11443 115e 9F       		.byte	0x9f
 11444 115f 00000000 		.4byte	0
ARM GAS  C:\Users\Abude\AppData\Local\Temp\ccndXIr0.s 			page 242


 11445 1163 00000000 		.4byte	0
 11446              	.LLST135:
 11447 1167 00000000 		.4byte	.LVL270
 11448 116b 06000000 		.4byte	.LVL271
 11449 116f 0100     		.2byte	0x1
 11450 1171 50       		.byte	0x50
 11451 1172 06000000 		.4byte	.LVL271
 11452 1176 0C000000 		.4byte	.LFE135
 11453 117a 0400     		.2byte	0x4
 11454 117c F3       		.byte	0xf3
 11455 117d 01       		.uleb128 0x1
 11456 117e 50       		.byte	0x50
 11457 117f 9F       		.byte	0x9f
 11458 1180 00000000 		.4byte	0
 11459 1184 00000000 		.4byte	0
 11460              	.LLST136:
 11461 1188 00000000 		.4byte	.LVL272
 11462 118c 06000000 		.4byte	.LVL273
 11463 1190 0100     		.2byte	0x1
 11464 1192 50       		.byte	0x50
 11465 1193 06000000 		.4byte	.LVL273
 11466 1197 0C000000 		.4byte	.LFE136
 11467 119b 0400     		.2byte	0x4
 11468 119d F3       		.byte	0xf3
 11469 119e 01       		.uleb128 0x1
 11470 119f 50       		.byte	0x50
 11471 11a0 9F       		.byte	0x9f
 11472 11a1 00000000 		.4byte	0
 11473 11a5 00000000 		.4byte	0
 11474              	.LLST137:
 11475 11a9 00000000 		.4byte	.LVL274
 11476 11ad 06000000 		.4byte	.LVL275
 11477 11b1 0100     		.2byte	0x1
 11478 11b3 50       		.byte	0x50
 11479 11b4 06000000 		.4byte	.LVL275
 11480 11b8 0C000000 		.4byte	.LFE137
 11481 11bc 0400     		.2byte	0x4
 11482 11be F3       		.byte	0xf3
 11483 11bf 01       		.uleb128 0x1
 11484 11c0 50       		.byte	0x50
 11485 11c1 9F       		.byte	0x9f
 11486 11c2 00000000 		.4byte	0
 11487 11c6 00000000 		.4byte	0
 11488              	.LLST138:
 11489 11ca 00000000 		.4byte	.LVL276
 11490 11ce 06000000 		.4byte	.LVL277
 11491 11d2 0100     		.2byte	0x1
 11492 11d4 50       		.byte	0x50
 11493 11d5 06000000 		.4byte	.LVL277
 11494 11d9 0C000000 		.4byte	.LFE138
 11495 11dd 0400     		.2byte	0x4
 11496 11df F3       		.byte	0xf3
 11497 11e0 01       		.uleb128 0x1
 11498 11e1 50       		.byte	0x50
 11499 11e2 9F       		.byte	0x9f
 11500 11e3 00000000 		.4byte	0
 11501 11e7 00000000 		.4byte	0
ARM GAS  C:\Users\Abude\AppData\Local\Temp\ccndXIr0.s 			page 243


 11502              	.LLST139:
 11503 11eb 00000000 		.4byte	.LVL278
 11504 11ef 06000000 		.4byte	.LVL279
 11505 11f3 0100     		.2byte	0x1
 11506 11f5 50       		.byte	0x50
 11507 11f6 06000000 		.4byte	.LVL279
 11508 11fa 0C000000 		.4byte	.LFE139
 11509 11fe 0400     		.2byte	0x4
 11510 1200 F3       		.byte	0xf3
 11511 1201 01       		.uleb128 0x1
 11512 1202 50       		.byte	0x50
 11513 1203 9F       		.byte	0x9f
 11514 1204 00000000 		.4byte	0
 11515 1208 00000000 		.4byte	0
 11516              	.LLST140:
 11517 120c 00000000 		.4byte	.LVL280
 11518 1210 06000000 		.4byte	.LVL281
 11519 1214 0100     		.2byte	0x1
 11520 1216 50       		.byte	0x50
 11521 1217 06000000 		.4byte	.LVL281
 11522 121b 0C000000 		.4byte	.LFE140
 11523 121f 0400     		.2byte	0x4
 11524 1221 F3       		.byte	0xf3
 11525 1222 01       		.uleb128 0x1
 11526 1223 50       		.byte	0x50
 11527 1224 9F       		.byte	0x9f
 11528 1225 00000000 		.4byte	0
 11529 1229 00000000 		.4byte	0
 11530              	.LLST141:
 11531 122d 00000000 		.4byte	.LVL282
 11532 1231 06000000 		.4byte	.LVL283
 11533 1235 0100     		.2byte	0x1
 11534 1237 50       		.byte	0x50
 11535 1238 06000000 		.4byte	.LVL283
 11536 123c 0C000000 		.4byte	.LFE141
 11537 1240 0400     		.2byte	0x4
 11538 1242 F3       		.byte	0xf3
 11539 1243 01       		.uleb128 0x1
 11540 1244 50       		.byte	0x50
 11541 1245 9F       		.byte	0x9f
 11542 1246 00000000 		.4byte	0
 11543 124a 00000000 		.4byte	0
 11544              	.LLST142:
 11545 124e 00000000 		.4byte	.LVL284
 11546 1252 06000000 		.4byte	.LVL285
 11547 1256 0100     		.2byte	0x1
 11548 1258 50       		.byte	0x50
 11549 1259 06000000 		.4byte	.LVL285
 11550 125d 0C000000 		.4byte	.LFE142
 11551 1261 0400     		.2byte	0x4
 11552 1263 F3       		.byte	0xf3
 11553 1264 01       		.uleb128 0x1
 11554 1265 50       		.byte	0x50
 11555 1266 9F       		.byte	0x9f
 11556 1267 00000000 		.4byte	0
 11557 126b 00000000 		.4byte	0
 11558              	.LLST143:
ARM GAS  C:\Users\Abude\AppData\Local\Temp\ccndXIr0.s 			page 244


 11559 126f 00000000 		.4byte	.LVL286
 11560 1273 06000000 		.4byte	.LVL287
 11561 1277 0100     		.2byte	0x1
 11562 1279 50       		.byte	0x50
 11563 127a 06000000 		.4byte	.LVL287
 11564 127e 0C000000 		.4byte	.LFE143
 11565 1282 0400     		.2byte	0x4
 11566 1284 F3       		.byte	0xf3
 11567 1285 01       		.uleb128 0x1
 11568 1286 50       		.byte	0x50
 11569 1287 9F       		.byte	0x9f
 11570 1288 00000000 		.4byte	0
 11571 128c 00000000 		.4byte	0
 11572              	.LLST144:
 11573 1290 00000000 		.4byte	.LVL288
 11574 1294 06000000 		.4byte	.LVL289
 11575 1298 0100     		.2byte	0x1
 11576 129a 50       		.byte	0x50
 11577 129b 06000000 		.4byte	.LVL289
 11578 129f 0C000000 		.4byte	.LFE144
 11579 12a3 0400     		.2byte	0x4
 11580 12a5 F3       		.byte	0xf3
 11581 12a6 01       		.uleb128 0x1
 11582 12a7 50       		.byte	0x50
 11583 12a8 9F       		.byte	0x9f
 11584 12a9 00000000 		.4byte	0
 11585 12ad 00000000 		.4byte	0
 11586              	.LLST145:
 11587 12b1 00000000 		.4byte	.LVL290
 11588 12b5 06000000 		.4byte	.LVL291
 11589 12b9 0100     		.2byte	0x1
 11590 12bb 50       		.byte	0x50
 11591 12bc 06000000 		.4byte	.LVL291
 11592 12c0 0C000000 		.4byte	.LFE145
 11593 12c4 0400     		.2byte	0x4
 11594 12c6 F3       		.byte	0xf3
 11595 12c7 01       		.uleb128 0x1
 11596 12c8 50       		.byte	0x50
 11597 12c9 9F       		.byte	0x9f
 11598 12ca 00000000 		.4byte	0
 11599 12ce 00000000 		.4byte	0
 11600              	.LLST146:
 11601 12d2 00000000 		.4byte	.LVL292
 11602 12d6 06000000 		.4byte	.LVL293
 11603 12da 0100     		.2byte	0x1
 11604 12dc 50       		.byte	0x50
 11605 12dd 06000000 		.4byte	.LVL293
 11606 12e1 0C000000 		.4byte	.LFE146
 11607 12e5 0400     		.2byte	0x4
 11608 12e7 F3       		.byte	0xf3
 11609 12e8 01       		.uleb128 0x1
 11610 12e9 50       		.byte	0x50
 11611 12ea 9F       		.byte	0x9f
 11612 12eb 00000000 		.4byte	0
 11613 12ef 00000000 		.4byte	0
 11614              	.LLST147:
 11615 12f3 00000000 		.4byte	.LVL294
ARM GAS  C:\Users\Abude\AppData\Local\Temp\ccndXIr0.s 			page 245


 11616 12f7 06000000 		.4byte	.LVL295
 11617 12fb 0100     		.2byte	0x1
 11618 12fd 50       		.byte	0x50
 11619 12fe 06000000 		.4byte	.LVL295
 11620 1302 0C000000 		.4byte	.LFE147
 11621 1306 0400     		.2byte	0x4
 11622 1308 F3       		.byte	0xf3
 11623 1309 01       		.uleb128 0x1
 11624 130a 50       		.byte	0x50
 11625 130b 9F       		.byte	0x9f
 11626 130c 00000000 		.4byte	0
 11627 1310 00000000 		.4byte	0
 11628              	.LLST148:
 11629 1314 00000000 		.4byte	.LVL296
 11630 1318 06000000 		.4byte	.LVL297
 11631 131c 0100     		.2byte	0x1
 11632 131e 50       		.byte	0x50
 11633 131f 06000000 		.4byte	.LVL297
 11634 1323 0C000000 		.4byte	.LFE148
 11635 1327 0400     		.2byte	0x4
 11636 1329 F3       		.byte	0xf3
 11637 132a 01       		.uleb128 0x1
 11638 132b 50       		.byte	0x50
 11639 132c 9F       		.byte	0x9f
 11640 132d 00000000 		.4byte	0
 11641 1331 00000000 		.4byte	0
 11642              	.LLST149:
 11643 1335 00000000 		.4byte	.LVL298
 11644 1339 06000000 		.4byte	.LVL299
 11645 133d 0100     		.2byte	0x1
 11646 133f 50       		.byte	0x50
 11647 1340 06000000 		.4byte	.LVL299
 11648 1344 0C000000 		.4byte	.LFE149
 11649 1348 0400     		.2byte	0x4
 11650 134a F3       		.byte	0xf3
 11651 134b 01       		.uleb128 0x1
 11652 134c 50       		.byte	0x50
 11653 134d 9F       		.byte	0x9f
 11654 134e 00000000 		.4byte	0
 11655 1352 00000000 		.4byte	0
 11656              	.LLST150:
 11657 1356 00000000 		.4byte	.LVL300
 11658 135a 06000000 		.4byte	.LVL301
 11659 135e 0100     		.2byte	0x1
 11660 1360 50       		.byte	0x50
 11661 1361 06000000 		.4byte	.LVL301
 11662 1365 0C000000 		.4byte	.LFE150
 11663 1369 0400     		.2byte	0x4
 11664 136b F3       		.byte	0xf3
 11665 136c 01       		.uleb128 0x1
 11666 136d 50       		.byte	0x50
 11667 136e 9F       		.byte	0x9f
 11668 136f 00000000 		.4byte	0
 11669 1373 00000000 		.4byte	0
 11670              	.LLST151:
 11671 1377 00000000 		.4byte	.LVL302
 11672 137b 06000000 		.4byte	.LVL303
ARM GAS  C:\Users\Abude\AppData\Local\Temp\ccndXIr0.s 			page 246


 11673 137f 0100     		.2byte	0x1
 11674 1381 50       		.byte	0x50
 11675 1382 06000000 		.4byte	.LVL303
 11676 1386 0C000000 		.4byte	.LFE151
 11677 138a 0400     		.2byte	0x4
 11678 138c F3       		.byte	0xf3
 11679 138d 01       		.uleb128 0x1
 11680 138e 50       		.byte	0x50
 11681 138f 9F       		.byte	0x9f
 11682 1390 00000000 		.4byte	0
 11683 1394 00000000 		.4byte	0
 11684              	.LLST152:
 11685 1398 00000000 		.4byte	.LVL304
 11686 139c 06000000 		.4byte	.LVL305
 11687 13a0 0100     		.2byte	0x1
 11688 13a2 50       		.byte	0x50
 11689 13a3 06000000 		.4byte	.LVL305
 11690 13a7 0C000000 		.4byte	.LFE152
 11691 13ab 0400     		.2byte	0x4
 11692 13ad F3       		.byte	0xf3
 11693 13ae 01       		.uleb128 0x1
 11694 13af 50       		.byte	0x50
 11695 13b0 9F       		.byte	0x9f
 11696 13b1 00000000 		.4byte	0
 11697 13b5 00000000 		.4byte	0
 11698              		.section	.debug_aranges,"",%progbits
 11699 0000 DC040000 		.4byte	0x4dc
 11700 0004 0200     		.2byte	0x2
 11701 0006 00000000 		.4byte	.Ldebug_info0
 11702 000a 04       		.byte	0x4
 11703 000b 00       		.byte	0
 11704 000c 0000     		.2byte	0
 11705 000e 0000     		.2byte	0
 11706 0010 00000000 		.4byte	.LFB0
 11707 0014 0C000000 		.4byte	.LFE0-.LFB0
 11708 0018 00000000 		.4byte	.LFB1
 11709 001c 0C000000 		.4byte	.LFE1-.LFB1
 11710 0020 00000000 		.4byte	.LFB2
 11711 0024 0C000000 		.4byte	.LFE2-.LFB2
 11712 0028 00000000 		.4byte	.LFB3
 11713 002c 0C000000 		.4byte	.LFE3-.LFB3
 11714 0030 00000000 		.4byte	.LFB4
 11715 0034 0C000000 		.4byte	.LFE4-.LFB4
 11716 0038 00000000 		.4byte	.LFB5
 11717 003c 0C000000 		.4byte	.LFE5-.LFB5
 11718 0040 00000000 		.4byte	.LFB6
 11719 0044 0C000000 		.4byte	.LFE6-.LFB6
 11720 0048 00000000 		.4byte	.LFB7
 11721 004c 0C000000 		.4byte	.LFE7-.LFB7
 11722 0050 00000000 		.4byte	.LFB8
 11723 0054 0C000000 		.4byte	.LFE8-.LFB8
 11724 0058 00000000 		.4byte	.LFB9
 11725 005c 0C000000 		.4byte	.LFE9-.LFB9
 11726 0060 00000000 		.4byte	.LFB10
 11727 0064 0C000000 		.4byte	.LFE10-.LFB10
 11728 0068 00000000 		.4byte	.LFB11
 11729 006c 0C000000 		.4byte	.LFE11-.LFB11
ARM GAS  C:\Users\Abude\AppData\Local\Temp\ccndXIr0.s 			page 247


 11730 0070 00000000 		.4byte	.LFB12
 11731 0074 0C000000 		.4byte	.LFE12-.LFB12
 11732 0078 00000000 		.4byte	.LFB13
 11733 007c 0C000000 		.4byte	.LFE13-.LFB13
 11734 0080 00000000 		.4byte	.LFB14
 11735 0084 0C000000 		.4byte	.LFE14-.LFB14
 11736 0088 00000000 		.4byte	.LFB15
 11737 008c 0C000000 		.4byte	.LFE15-.LFB15
 11738 0090 00000000 		.4byte	.LFB16
 11739 0094 0C000000 		.4byte	.LFE16-.LFB16
 11740 0098 00000000 		.4byte	.LFB17
 11741 009c 0C000000 		.4byte	.LFE17-.LFB17
 11742 00a0 00000000 		.4byte	.LFB18
 11743 00a4 0C000000 		.4byte	.LFE18-.LFB18
 11744 00a8 00000000 		.4byte	.LFB19
 11745 00ac 0C000000 		.4byte	.LFE19-.LFB19
 11746 00b0 00000000 		.4byte	.LFB20
 11747 00b4 0C000000 		.4byte	.LFE20-.LFB20
 11748 00b8 00000000 		.4byte	.LFB21
 11749 00bc 0C000000 		.4byte	.LFE21-.LFB21
 11750 00c0 00000000 		.4byte	.LFB22
 11751 00c4 0C000000 		.4byte	.LFE22-.LFB22
 11752 00c8 00000000 		.4byte	.LFB23
 11753 00cc 0C000000 		.4byte	.LFE23-.LFB23
 11754 00d0 00000000 		.4byte	.LFB24
 11755 00d4 0C000000 		.4byte	.LFE24-.LFB24
 11756 00d8 00000000 		.4byte	.LFB25
 11757 00dc 0C000000 		.4byte	.LFE25-.LFB25
 11758 00e0 00000000 		.4byte	.LFB26
 11759 00e4 0C000000 		.4byte	.LFE26-.LFB26
 11760 00e8 00000000 		.4byte	.LFB27
 11761 00ec 0C000000 		.4byte	.LFE27-.LFB27
 11762 00f0 00000000 		.4byte	.LFB28
 11763 00f4 0C000000 		.4byte	.LFE28-.LFB28
 11764 00f8 00000000 		.4byte	.LFB29
 11765 00fc 0C000000 		.4byte	.LFE29-.LFB29
 11766 0100 00000000 		.4byte	.LFB30
 11767 0104 0C000000 		.4byte	.LFE30-.LFB30
 11768 0108 00000000 		.4byte	.LFB31
 11769 010c 0C000000 		.4byte	.LFE31-.LFB31
 11770 0110 00000000 		.4byte	.LFB32
 11771 0114 0C000000 		.4byte	.LFE32-.LFB32
 11772 0118 00000000 		.4byte	.LFB33
 11773 011c 0C000000 		.4byte	.LFE33-.LFB33
 11774 0120 00000000 		.4byte	.LFB34
 11775 0124 0C000000 		.4byte	.LFE34-.LFB34
 11776 0128 00000000 		.4byte	.LFB35
 11777 012c 0C000000 		.4byte	.LFE35-.LFB35
 11778 0130 00000000 		.4byte	.LFB36
 11779 0134 0C000000 		.4byte	.LFE36-.LFB36
 11780 0138 00000000 		.4byte	.LFB37
 11781 013c 0C000000 		.4byte	.LFE37-.LFB37
 11782 0140 00000000 		.4byte	.LFB38
 11783 0144 0C000000 		.4byte	.LFE38-.LFB38
 11784 0148 00000000 		.4byte	.LFB39
 11785 014c 0C000000 		.4byte	.LFE39-.LFB39
 11786 0150 00000000 		.4byte	.LFB40
ARM GAS  C:\Users\Abude\AppData\Local\Temp\ccndXIr0.s 			page 248


 11787 0154 0C000000 		.4byte	.LFE40-.LFB40
 11788 0158 00000000 		.4byte	.LFB41
 11789 015c 0C000000 		.4byte	.LFE41-.LFB41
 11790 0160 00000000 		.4byte	.LFB42
 11791 0164 0C000000 		.4byte	.LFE42-.LFB42
 11792 0168 00000000 		.4byte	.LFB43
 11793 016c 0C000000 		.4byte	.LFE43-.LFB43
 11794 0170 00000000 		.4byte	.LFB44
 11795 0174 0C000000 		.4byte	.LFE44-.LFB44
 11796 0178 00000000 		.4byte	.LFB45
 11797 017c 0C000000 		.4byte	.LFE45-.LFB45
 11798 0180 00000000 		.4byte	.LFB46
 11799 0184 0C000000 		.4byte	.LFE46-.LFB46
 11800 0188 00000000 		.4byte	.LFB47
 11801 018c 0C000000 		.4byte	.LFE47-.LFB47
 11802 0190 00000000 		.4byte	.LFB48
 11803 0194 0C000000 		.4byte	.LFE48-.LFB48
 11804 0198 00000000 		.4byte	.LFB49
 11805 019c 0C000000 		.4byte	.LFE49-.LFB49
 11806 01a0 00000000 		.4byte	.LFB50
 11807 01a4 0C000000 		.4byte	.LFE50-.LFB50
 11808 01a8 00000000 		.4byte	.LFB51
 11809 01ac 0C000000 		.4byte	.LFE51-.LFB51
 11810 01b0 00000000 		.4byte	.LFB52
 11811 01b4 0C000000 		.4byte	.LFE52-.LFB52
 11812 01b8 00000000 		.4byte	.LFB53
 11813 01bc 0C000000 		.4byte	.LFE53-.LFB53
 11814 01c0 00000000 		.4byte	.LFB54
 11815 01c4 0C000000 		.4byte	.LFE54-.LFB54
 11816 01c8 00000000 		.4byte	.LFB55
 11817 01cc 0C000000 		.4byte	.LFE55-.LFB55
 11818 01d0 00000000 		.4byte	.LFB56
 11819 01d4 0C000000 		.4byte	.LFE56-.LFB56
 11820 01d8 00000000 		.4byte	.LFB57
 11821 01dc 0C000000 		.4byte	.LFE57-.LFB57
 11822 01e0 00000000 		.4byte	.LFB58
 11823 01e4 0C000000 		.4byte	.LFE58-.LFB58
 11824 01e8 00000000 		.4byte	.LFB59
 11825 01ec 0C000000 		.4byte	.LFE59-.LFB59
 11826 01f0 00000000 		.4byte	.LFB60
 11827 01f4 0C000000 		.4byte	.LFE60-.LFB60
 11828 01f8 00000000 		.4byte	.LFB61
 11829 01fc 0C000000 		.4byte	.LFE61-.LFB61
 11830 0200 00000000 		.4byte	.LFB62
 11831 0204 0C000000 		.4byte	.LFE62-.LFB62
 11832 0208 00000000 		.4byte	.LFB63
 11833 020c 0C000000 		.4byte	.LFE63-.LFB63
 11834 0210 00000000 		.4byte	.LFB64
 11835 0214 0C000000 		.4byte	.LFE64-.LFB64
 11836 0218 00000000 		.4byte	.LFB65
 11837 021c 0C000000 		.4byte	.LFE65-.LFB65
 11838 0220 00000000 		.4byte	.LFB66
 11839 0224 0C000000 		.4byte	.LFE66-.LFB66
 11840 0228 00000000 		.4byte	.LFB67
 11841 022c 0C000000 		.4byte	.LFE67-.LFB67
 11842 0230 00000000 		.4byte	.LFB68
 11843 0234 0C000000 		.4byte	.LFE68-.LFB68
ARM GAS  C:\Users\Abude\AppData\Local\Temp\ccndXIr0.s 			page 249


 11844 0238 00000000 		.4byte	.LFB69
 11845 023c 0C000000 		.4byte	.LFE69-.LFB69
 11846 0240 00000000 		.4byte	.LFB70
 11847 0244 0C000000 		.4byte	.LFE70-.LFB70
 11848 0248 00000000 		.4byte	.LFB71
 11849 024c 0C000000 		.4byte	.LFE71-.LFB71
 11850 0250 00000000 		.4byte	.LFB72
 11851 0254 0C000000 		.4byte	.LFE72-.LFB72
 11852 0258 00000000 		.4byte	.LFB73
 11853 025c 0C000000 		.4byte	.LFE73-.LFB73
 11854 0260 00000000 		.4byte	.LFB74
 11855 0264 0C000000 		.4byte	.LFE74-.LFB74
 11856 0268 00000000 		.4byte	.LFB75
 11857 026c 0C000000 		.4byte	.LFE75-.LFB75
 11858 0270 00000000 		.4byte	.LFB76
 11859 0274 0C000000 		.4byte	.LFE76-.LFB76
 11860 0278 00000000 		.4byte	.LFB77
 11861 027c 0C000000 		.4byte	.LFE77-.LFB77
 11862 0280 00000000 		.4byte	.LFB78
 11863 0284 0C000000 		.4byte	.LFE78-.LFB78
 11864 0288 00000000 		.4byte	.LFB79
 11865 028c 0C000000 		.4byte	.LFE79-.LFB79
 11866 0290 00000000 		.4byte	.LFB80
 11867 0294 0C000000 		.4byte	.LFE80-.LFB80
 11868 0298 00000000 		.4byte	.LFB81
 11869 029c 0C000000 		.4byte	.LFE81-.LFB81
 11870 02a0 00000000 		.4byte	.LFB82
 11871 02a4 0C000000 		.4byte	.LFE82-.LFB82
 11872 02a8 00000000 		.4byte	.LFB83
 11873 02ac 0C000000 		.4byte	.LFE83-.LFB83
 11874 02b0 00000000 		.4byte	.LFB84
 11875 02b4 0C000000 		.4byte	.LFE84-.LFB84
 11876 02b8 00000000 		.4byte	.LFB85
 11877 02bc 0C000000 		.4byte	.LFE85-.LFB85
 11878 02c0 00000000 		.4byte	.LFB86
 11879 02c4 0C000000 		.4byte	.LFE86-.LFB86
 11880 02c8 00000000 		.4byte	.LFB87
 11881 02cc 0C000000 		.4byte	.LFE87-.LFB87
 11882 02d0 00000000 		.4byte	.LFB88
 11883 02d4 0C000000 		.4byte	.LFE88-.LFB88
 11884 02d8 00000000 		.4byte	.LFB89
 11885 02dc 0C000000 		.4byte	.LFE89-.LFB89
 11886 02e0 00000000 		.4byte	.LFB90
 11887 02e4 0C000000 		.4byte	.LFE90-.LFB90
 11888 02e8 00000000 		.4byte	.LFB91
 11889 02ec 0C000000 		.4byte	.LFE91-.LFB91
 11890 02f0 00000000 		.4byte	.LFB92
 11891 02f4 0C000000 		.4byte	.LFE92-.LFB92
 11892 02f8 00000000 		.4byte	.LFB93
 11893 02fc 0C000000 		.4byte	.LFE93-.LFB93
 11894 0300 00000000 		.4byte	.LFB94
 11895 0304 0C000000 		.4byte	.LFE94-.LFB94
 11896 0308 00000000 		.4byte	.LFB95
 11897 030c 0C000000 		.4byte	.LFE95-.LFB95
 11898 0310 00000000 		.4byte	.LFB96
 11899 0314 0C000000 		.4byte	.LFE96-.LFB96
 11900 0318 00000000 		.4byte	.LFB97
ARM GAS  C:\Users\Abude\AppData\Local\Temp\ccndXIr0.s 			page 250


 11901 031c 0C000000 		.4byte	.LFE97-.LFB97
 11902 0320 00000000 		.4byte	.LFB98
 11903 0324 0C000000 		.4byte	.LFE98-.LFB98
 11904 0328 00000000 		.4byte	.LFB99
 11905 032c 0C000000 		.4byte	.LFE99-.LFB99
 11906 0330 00000000 		.4byte	.LFB100
 11907 0334 0C000000 		.4byte	.LFE100-.LFB100
 11908 0338 00000000 		.4byte	.LFB101
 11909 033c 0C000000 		.4byte	.LFE101-.LFB101
 11910 0340 00000000 		.4byte	.LFB102
 11911 0344 0C000000 		.4byte	.LFE102-.LFB102
 11912 0348 00000000 		.4byte	.LFB103
 11913 034c 0C000000 		.4byte	.LFE103-.LFB103
 11914 0350 00000000 		.4byte	.LFB104
 11915 0354 0C000000 		.4byte	.LFE104-.LFB104
 11916 0358 00000000 		.4byte	.LFB105
 11917 035c 0C000000 		.4byte	.LFE105-.LFB105
 11918 0360 00000000 		.4byte	.LFB106
 11919 0364 0C000000 		.4byte	.LFE106-.LFB106
 11920 0368 00000000 		.4byte	.LFB107
 11921 036c 0C000000 		.4byte	.LFE107-.LFB107
 11922 0370 00000000 		.4byte	.LFB108
 11923 0374 0C000000 		.4byte	.LFE108-.LFB108
 11924 0378 00000000 		.4byte	.LFB109
 11925 037c 0C000000 		.4byte	.LFE109-.LFB109
 11926 0380 00000000 		.4byte	.LFB110
 11927 0384 0C000000 		.4byte	.LFE110-.LFB110
 11928 0388 00000000 		.4byte	.LFB111
 11929 038c 0C000000 		.4byte	.LFE111-.LFB111
 11930 0390 00000000 		.4byte	.LFB112
 11931 0394 0C000000 		.4byte	.LFE112-.LFB112
 11932 0398 00000000 		.4byte	.LFB113
 11933 039c 0C000000 		.4byte	.LFE113-.LFB113
 11934 03a0 00000000 		.4byte	.LFB114
 11935 03a4 0C000000 		.4byte	.LFE114-.LFB114
 11936 03a8 00000000 		.4byte	.LFB115
 11937 03ac 0C000000 		.4byte	.LFE115-.LFB115
 11938 03b0 00000000 		.4byte	.LFB116
 11939 03b4 0C000000 		.4byte	.LFE116-.LFB116
 11940 03b8 00000000 		.4byte	.LFB117
 11941 03bc 0C000000 		.4byte	.LFE117-.LFB117
 11942 03c0 00000000 		.4byte	.LFB118
 11943 03c4 0C000000 		.4byte	.LFE118-.LFB118
 11944 03c8 00000000 		.4byte	.LFB119
 11945 03cc 0C000000 		.4byte	.LFE119-.LFB119
 11946 03d0 00000000 		.4byte	.LFB120
 11947 03d4 0C000000 		.4byte	.LFE120-.LFB120
 11948 03d8 00000000 		.4byte	.LFB121
 11949 03dc 0C000000 		.4byte	.LFE121-.LFB121
 11950 03e0 00000000 		.4byte	.LFB122
 11951 03e4 0C000000 		.4byte	.LFE122-.LFB122
 11952 03e8 00000000 		.4byte	.LFB123
 11953 03ec 0C000000 		.4byte	.LFE123-.LFB123
 11954 03f0 00000000 		.4byte	.LFB124
 11955 03f4 0C000000 		.4byte	.LFE124-.LFB124
 11956 03f8 00000000 		.4byte	.LFB125
 11957 03fc 0C000000 		.4byte	.LFE125-.LFB125
ARM GAS  C:\Users\Abude\AppData\Local\Temp\ccndXIr0.s 			page 251


 11958 0400 00000000 		.4byte	.LFB126
 11959 0404 0C000000 		.4byte	.LFE126-.LFB126
 11960 0408 00000000 		.4byte	.LFB127
 11961 040c 0C000000 		.4byte	.LFE127-.LFB127
 11962 0410 00000000 		.4byte	.LFB128
 11963 0414 0C000000 		.4byte	.LFE128-.LFB128
 11964 0418 00000000 		.4byte	.LFB129
 11965 041c 0C000000 		.4byte	.LFE129-.LFB129
 11966 0420 00000000 		.4byte	.LFB130
 11967 0424 0C000000 		.4byte	.LFE130-.LFB130
 11968 0428 00000000 		.4byte	.LFB131
 11969 042c 0C000000 		.4byte	.LFE131-.LFB131
 11970 0430 00000000 		.4byte	.LFB132
 11971 0434 0C000000 		.4byte	.LFE132-.LFB132
 11972 0438 00000000 		.4byte	.LFB133
 11973 043c 0C000000 		.4byte	.LFE133-.LFB133
 11974 0440 00000000 		.4byte	.LFB134
 11975 0444 0C000000 		.4byte	.LFE134-.LFB134
 11976 0448 00000000 		.4byte	.LFB135
 11977 044c 0C000000 		.4byte	.LFE135-.LFB135
 11978 0450 00000000 		.4byte	.LFB136
 11979 0454 0C000000 		.4byte	.LFE136-.LFB136
 11980 0458 00000000 		.4byte	.LFB137
 11981 045c 0C000000 		.4byte	.LFE137-.LFB137
 11982 0460 00000000 		.4byte	.LFB138
 11983 0464 0C000000 		.4byte	.LFE138-.LFB138
 11984 0468 00000000 		.4byte	.LFB139
 11985 046c 0C000000 		.4byte	.LFE139-.LFB139
 11986 0470 00000000 		.4byte	.LFB140
 11987 0474 0C000000 		.4byte	.LFE140-.LFB140
 11988 0478 00000000 		.4byte	.LFB141
 11989 047c 0C000000 		.4byte	.LFE141-.LFB141
 11990 0480 00000000 		.4byte	.LFB142
 11991 0484 0C000000 		.4byte	.LFE142-.LFB142
 11992 0488 00000000 		.4byte	.LFB143
 11993 048c 0C000000 		.4byte	.LFE143-.LFB143
 11994 0490 00000000 		.4byte	.LFB144
 11995 0494 0C000000 		.4byte	.LFE144-.LFB144
 11996 0498 00000000 		.4byte	.LFB145
 11997 049c 0C000000 		.4byte	.LFE145-.LFB145
 11998 04a0 00000000 		.4byte	.LFB146
 11999 04a4 0C000000 		.4byte	.LFE146-.LFB146
 12000 04a8 00000000 		.4byte	.LFB147
 12001 04ac 0C000000 		.4byte	.LFE147-.LFB147
 12002 04b0 00000000 		.4byte	.LFB148
 12003 04b4 0C000000 		.4byte	.LFE148-.LFB148
 12004 04b8 00000000 		.4byte	.LFB149
 12005 04bc 0C000000 		.4byte	.LFE149-.LFB149
 12006 04c0 00000000 		.4byte	.LFB150
 12007 04c4 0C000000 		.4byte	.LFE150-.LFB150
 12008 04c8 00000000 		.4byte	.LFB151
 12009 04cc 0C000000 		.4byte	.LFE151-.LFB151
 12010 04d0 00000000 		.4byte	.LFB152
 12011 04d4 0C000000 		.4byte	.LFE152-.LFB152
 12012 04d8 00000000 		.4byte	0
 12013 04dc 00000000 		.4byte	0
 12014              		.section	.debug_ranges,"",%progbits
ARM GAS  C:\Users\Abude\AppData\Local\Temp\ccndXIr0.s 			page 252


 12015              	.Ldebug_ranges0:
 12016 0000 00000000 		.4byte	.LFB0
 12017 0004 0C000000 		.4byte	.LFE0
 12018 0008 00000000 		.4byte	.LFB1
 12019 000c 0C000000 		.4byte	.LFE1
 12020 0010 00000000 		.4byte	.LFB2
 12021 0014 0C000000 		.4byte	.LFE2
 12022 0018 00000000 		.4byte	.LFB3
 12023 001c 0C000000 		.4byte	.LFE3
 12024 0020 00000000 		.4byte	.LFB4
 12025 0024 0C000000 		.4byte	.LFE4
 12026 0028 00000000 		.4byte	.LFB5
 12027 002c 0C000000 		.4byte	.LFE5
 12028 0030 00000000 		.4byte	.LFB6
 12029 0034 0C000000 		.4byte	.LFE6
 12030 0038 00000000 		.4byte	.LFB7
 12031 003c 0C000000 		.4byte	.LFE7
 12032 0040 00000000 		.4byte	.LFB8
 12033 0044 0C000000 		.4byte	.LFE8
 12034 0048 00000000 		.4byte	.LFB9
 12035 004c 0C000000 		.4byte	.LFE9
 12036 0050 00000000 		.4byte	.LFB10
 12037 0054 0C000000 		.4byte	.LFE10
 12038 0058 00000000 		.4byte	.LFB11
 12039 005c 0C000000 		.4byte	.LFE11
 12040 0060 00000000 		.4byte	.LFB12
 12041 0064 0C000000 		.4byte	.LFE12
 12042 0068 00000000 		.4byte	.LFB13
 12043 006c 0C000000 		.4byte	.LFE13
 12044 0070 00000000 		.4byte	.LFB14
 12045 0074 0C000000 		.4byte	.LFE14
 12046 0078 00000000 		.4byte	.LFB15
 12047 007c 0C000000 		.4byte	.LFE15
 12048 0080 00000000 		.4byte	.LFB16
 12049 0084 0C000000 		.4byte	.LFE16
 12050 0088 00000000 		.4byte	.LFB17
 12051 008c 0C000000 		.4byte	.LFE17
 12052 0090 00000000 		.4byte	.LFB18
 12053 0094 0C000000 		.4byte	.LFE18
 12054 0098 00000000 		.4byte	.LFB19
 12055 009c 0C000000 		.4byte	.LFE19
 12056 00a0 00000000 		.4byte	.LFB20
 12057 00a4 0C000000 		.4byte	.LFE20
 12058 00a8 00000000 		.4byte	.LFB21
 12059 00ac 0C000000 		.4byte	.LFE21
 12060 00b0 00000000 		.4byte	.LFB22
 12061 00b4 0C000000 		.4byte	.LFE22
 12062 00b8 00000000 		.4byte	.LFB23
 12063 00bc 0C000000 		.4byte	.LFE23
 12064 00c0 00000000 		.4byte	.LFB24
 12065 00c4 0C000000 		.4byte	.LFE24
 12066 00c8 00000000 		.4byte	.LFB25
 12067 00cc 0C000000 		.4byte	.LFE25
 12068 00d0 00000000 		.4byte	.LFB26
 12069 00d4 0C000000 		.4byte	.LFE26
 12070 00d8 00000000 		.4byte	.LFB27
 12071 00dc 0C000000 		.4byte	.LFE27
ARM GAS  C:\Users\Abude\AppData\Local\Temp\ccndXIr0.s 			page 253


 12072 00e0 00000000 		.4byte	.LFB28
 12073 00e4 0C000000 		.4byte	.LFE28
 12074 00e8 00000000 		.4byte	.LFB29
 12075 00ec 0C000000 		.4byte	.LFE29
 12076 00f0 00000000 		.4byte	.LFB30
 12077 00f4 0C000000 		.4byte	.LFE30
 12078 00f8 00000000 		.4byte	.LFB31
 12079 00fc 0C000000 		.4byte	.LFE31
 12080 0100 00000000 		.4byte	.LFB32
 12081 0104 0C000000 		.4byte	.LFE32
 12082 0108 00000000 		.4byte	.LFB33
 12083 010c 0C000000 		.4byte	.LFE33
 12084 0110 00000000 		.4byte	.LFB34
 12085 0114 0C000000 		.4byte	.LFE34
 12086 0118 00000000 		.4byte	.LFB35
 12087 011c 0C000000 		.4byte	.LFE35
 12088 0120 00000000 		.4byte	.LFB36
 12089 0124 0C000000 		.4byte	.LFE36
 12090 0128 00000000 		.4byte	.LFB37
 12091 012c 0C000000 		.4byte	.LFE37
 12092 0130 00000000 		.4byte	.LFB38
 12093 0134 0C000000 		.4byte	.LFE38
 12094 0138 00000000 		.4byte	.LFB39
 12095 013c 0C000000 		.4byte	.LFE39
 12096 0140 00000000 		.4byte	.LFB40
 12097 0144 0C000000 		.4byte	.LFE40
 12098 0148 00000000 		.4byte	.LFB41
 12099 014c 0C000000 		.4byte	.LFE41
 12100 0150 00000000 		.4byte	.LFB42
 12101 0154 0C000000 		.4byte	.LFE42
 12102 0158 00000000 		.4byte	.LFB43
 12103 015c 0C000000 		.4byte	.LFE43
 12104 0160 00000000 		.4byte	.LFB44
 12105 0164 0C000000 		.4byte	.LFE44
 12106 0168 00000000 		.4byte	.LFB45
 12107 016c 0C000000 		.4byte	.LFE45
 12108 0170 00000000 		.4byte	.LFB46
 12109 0174 0C000000 		.4byte	.LFE46
 12110 0178 00000000 		.4byte	.LFB47
 12111 017c 0C000000 		.4byte	.LFE47
 12112 0180 00000000 		.4byte	.LFB48
 12113 0184 0C000000 		.4byte	.LFE48
 12114 0188 00000000 		.4byte	.LFB49
 12115 018c 0C000000 		.4byte	.LFE49
 12116 0190 00000000 		.4byte	.LFB50
 12117 0194 0C000000 		.4byte	.LFE50
 12118 0198 00000000 		.4byte	.LFB51
 12119 019c 0C000000 		.4byte	.LFE51
 12120 01a0 00000000 		.4byte	.LFB52
 12121 01a4 0C000000 		.4byte	.LFE52
 12122 01a8 00000000 		.4byte	.LFB53
 12123 01ac 0C000000 		.4byte	.LFE53
 12124 01b0 00000000 		.4byte	.LFB54
 12125 01b4 0C000000 		.4byte	.LFE54
 12126 01b8 00000000 		.4byte	.LFB55
 12127 01bc 0C000000 		.4byte	.LFE55
 12128 01c0 00000000 		.4byte	.LFB56
ARM GAS  C:\Users\Abude\AppData\Local\Temp\ccndXIr0.s 			page 254


 12129 01c4 0C000000 		.4byte	.LFE56
 12130 01c8 00000000 		.4byte	.LFB57
 12131 01cc 0C000000 		.4byte	.LFE57
 12132 01d0 00000000 		.4byte	.LFB58
 12133 01d4 0C000000 		.4byte	.LFE58
 12134 01d8 00000000 		.4byte	.LFB59
 12135 01dc 0C000000 		.4byte	.LFE59
 12136 01e0 00000000 		.4byte	.LFB60
 12137 01e4 0C000000 		.4byte	.LFE60
 12138 01e8 00000000 		.4byte	.LFB61
 12139 01ec 0C000000 		.4byte	.LFE61
 12140 01f0 00000000 		.4byte	.LFB62
 12141 01f4 0C000000 		.4byte	.LFE62
 12142 01f8 00000000 		.4byte	.LFB63
 12143 01fc 0C000000 		.4byte	.LFE63
 12144 0200 00000000 		.4byte	.LFB64
 12145 0204 0C000000 		.4byte	.LFE64
 12146 0208 00000000 		.4byte	.LFB65
 12147 020c 0C000000 		.4byte	.LFE65
 12148 0210 00000000 		.4byte	.LFB66
 12149 0214 0C000000 		.4byte	.LFE66
 12150 0218 00000000 		.4byte	.LFB67
 12151 021c 0C000000 		.4byte	.LFE67
 12152 0220 00000000 		.4byte	.LFB68
 12153 0224 0C000000 		.4byte	.LFE68
 12154 0228 00000000 		.4byte	.LFB69
 12155 022c 0C000000 		.4byte	.LFE69
 12156 0230 00000000 		.4byte	.LFB70
 12157 0234 0C000000 		.4byte	.LFE70
 12158 0238 00000000 		.4byte	.LFB71
 12159 023c 0C000000 		.4byte	.LFE71
 12160 0240 00000000 		.4byte	.LFB72
 12161 0244 0C000000 		.4byte	.LFE72
 12162 0248 00000000 		.4byte	.LFB73
 12163 024c 0C000000 		.4byte	.LFE73
 12164 0250 00000000 		.4byte	.LFB74
 12165 0254 0C000000 		.4byte	.LFE74
 12166 0258 00000000 		.4byte	.LFB75
 12167 025c 0C000000 		.4byte	.LFE75
 12168 0260 00000000 		.4byte	.LFB76
 12169 0264 0C000000 		.4byte	.LFE76
 12170 0268 00000000 		.4byte	.LFB77
 12171 026c 0C000000 		.4byte	.LFE77
 12172 0270 00000000 		.4byte	.LFB78
 12173 0274 0C000000 		.4byte	.LFE78
 12174 0278 00000000 		.4byte	.LFB79
 12175 027c 0C000000 		.4byte	.LFE79
 12176 0280 00000000 		.4byte	.LFB80
 12177 0284 0C000000 		.4byte	.LFE80
 12178 0288 00000000 		.4byte	.LFB81
 12179 028c 0C000000 		.4byte	.LFE81
 12180 0290 00000000 		.4byte	.LFB82
 12181 0294 0C000000 		.4byte	.LFE82
 12182 0298 00000000 		.4byte	.LFB83
 12183 029c 0C000000 		.4byte	.LFE83
 12184 02a0 00000000 		.4byte	.LFB84
 12185 02a4 0C000000 		.4byte	.LFE84
ARM GAS  C:\Users\Abude\AppData\Local\Temp\ccndXIr0.s 			page 255


 12186 02a8 00000000 		.4byte	.LFB85
 12187 02ac 0C000000 		.4byte	.LFE85
 12188 02b0 00000000 		.4byte	.LFB86
 12189 02b4 0C000000 		.4byte	.LFE86
 12190 02b8 00000000 		.4byte	.LFB87
 12191 02bc 0C000000 		.4byte	.LFE87
 12192 02c0 00000000 		.4byte	.LFB88
 12193 02c4 0C000000 		.4byte	.LFE88
 12194 02c8 00000000 		.4byte	.LFB89
 12195 02cc 0C000000 		.4byte	.LFE89
 12196 02d0 00000000 		.4byte	.LFB90
 12197 02d4 0C000000 		.4byte	.LFE90
 12198 02d8 00000000 		.4byte	.LFB91
 12199 02dc 0C000000 		.4byte	.LFE91
 12200 02e0 00000000 		.4byte	.LFB92
 12201 02e4 0C000000 		.4byte	.LFE92
 12202 02e8 00000000 		.4byte	.LFB93
 12203 02ec 0C000000 		.4byte	.LFE93
 12204 02f0 00000000 		.4byte	.LFB94
 12205 02f4 0C000000 		.4byte	.LFE94
 12206 02f8 00000000 		.4byte	.LFB95
 12207 02fc 0C000000 		.4byte	.LFE95
 12208 0300 00000000 		.4byte	.LFB96
 12209 0304 0C000000 		.4byte	.LFE96
 12210 0308 00000000 		.4byte	.LFB97
 12211 030c 0C000000 		.4byte	.LFE97
 12212 0310 00000000 		.4byte	.LFB98
 12213 0314 0C000000 		.4byte	.LFE98
 12214 0318 00000000 		.4byte	.LFB99
 12215 031c 0C000000 		.4byte	.LFE99
 12216 0320 00000000 		.4byte	.LFB100
 12217 0324 0C000000 		.4byte	.LFE100
 12218 0328 00000000 		.4byte	.LFB101
 12219 032c 0C000000 		.4byte	.LFE101
 12220 0330 00000000 		.4byte	.LFB102
 12221 0334 0C000000 		.4byte	.LFE102
 12222 0338 00000000 		.4byte	.LFB103
 12223 033c 0C000000 		.4byte	.LFE103
 12224 0340 00000000 		.4byte	.LFB104
 12225 0344 0C000000 		.4byte	.LFE104
 12226 0348 00000000 		.4byte	.LFB105
 12227 034c 0C000000 		.4byte	.LFE105
 12228 0350 00000000 		.4byte	.LFB106
 12229 0354 0C000000 		.4byte	.LFE106
 12230 0358 00000000 		.4byte	.LFB107
 12231 035c 0C000000 		.4byte	.LFE107
 12232 0360 00000000 		.4byte	.LFB108
 12233 0364 0C000000 		.4byte	.LFE108
 12234 0368 00000000 		.4byte	.LFB109
 12235 036c 0C000000 		.4byte	.LFE109
 12236 0370 00000000 		.4byte	.LFB110
 12237 0374 0C000000 		.4byte	.LFE110
 12238 0378 00000000 		.4byte	.LFB111
 12239 037c 0C000000 		.4byte	.LFE111
 12240 0380 00000000 		.4byte	.LFB112
 12241 0384 0C000000 		.4byte	.LFE112
 12242 0388 00000000 		.4byte	.LFB113
ARM GAS  C:\Users\Abude\AppData\Local\Temp\ccndXIr0.s 			page 256


 12243 038c 0C000000 		.4byte	.LFE113
 12244 0390 00000000 		.4byte	.LFB114
 12245 0394 0C000000 		.4byte	.LFE114
 12246 0398 00000000 		.4byte	.LFB115
 12247 039c 0C000000 		.4byte	.LFE115
 12248 03a0 00000000 		.4byte	.LFB116
 12249 03a4 0C000000 		.4byte	.LFE116
 12250 03a8 00000000 		.4byte	.LFB117
 12251 03ac 0C000000 		.4byte	.LFE117
 12252 03b0 00000000 		.4byte	.LFB118
 12253 03b4 0C000000 		.4byte	.LFE118
 12254 03b8 00000000 		.4byte	.LFB119
 12255 03bc 0C000000 		.4byte	.LFE119
 12256 03c0 00000000 		.4byte	.LFB120
 12257 03c4 0C000000 		.4byte	.LFE120
 12258 03c8 00000000 		.4byte	.LFB121
 12259 03cc 0C000000 		.4byte	.LFE121
 12260 03d0 00000000 		.4byte	.LFB122
 12261 03d4 0C000000 		.4byte	.LFE122
 12262 03d8 00000000 		.4byte	.LFB123
 12263 03dc 0C000000 		.4byte	.LFE123
 12264 03e0 00000000 		.4byte	.LFB124
 12265 03e4 0C000000 		.4byte	.LFE124
 12266 03e8 00000000 		.4byte	.LFB125
 12267 03ec 0C000000 		.4byte	.LFE125
 12268 03f0 00000000 		.4byte	.LFB126
 12269 03f4 0C000000 		.4byte	.LFE126
 12270 03f8 00000000 		.4byte	.LFB127
 12271 03fc 0C000000 		.4byte	.LFE127
 12272 0400 00000000 		.4byte	.LFB128
 12273 0404 0C000000 		.4byte	.LFE128
 12274 0408 00000000 		.4byte	.LFB129
 12275 040c 0C000000 		.4byte	.LFE129
 12276 0410 00000000 		.4byte	.LFB130
 12277 0414 0C000000 		.4byte	.LFE130
 12278 0418 00000000 		.4byte	.LFB131
 12279 041c 0C000000 		.4byte	.LFE131
 12280 0420 00000000 		.4byte	.LFB132
 12281 0424 0C000000 		.4byte	.LFE132
 12282 0428 00000000 		.4byte	.LFB133
 12283 042c 0C000000 		.4byte	.LFE133
 12284 0430 00000000 		.4byte	.LFB134
 12285 0434 0C000000 		.4byte	.LFE134
 12286 0438 00000000 		.4byte	.LFB135
 12287 043c 0C000000 		.4byte	.LFE135
 12288 0440 00000000 		.4byte	.LFB136
 12289 0444 0C000000 		.4byte	.LFE136
 12290 0448 00000000 		.4byte	.LFB137
 12291 044c 0C000000 		.4byte	.LFE137
 12292 0450 00000000 		.4byte	.LFB138
 12293 0454 0C000000 		.4byte	.LFE138
 12294 0458 00000000 		.4byte	.LFB139
 12295 045c 0C000000 		.4byte	.LFE139
 12296 0460 00000000 		.4byte	.LFB140
 12297 0464 0C000000 		.4byte	.LFE140
 12298 0468 00000000 		.4byte	.LFB141
 12299 046c 0C000000 		.4byte	.LFE141
ARM GAS  C:\Users\Abude\AppData\Local\Temp\ccndXIr0.s 			page 257


 12300 0470 00000000 		.4byte	.LFB142
 12301 0474 0C000000 		.4byte	.LFE142
 12302 0478 00000000 		.4byte	.LFB143
 12303 047c 0C000000 		.4byte	.LFE143
 12304 0480 00000000 		.4byte	.LFB144
 12305 0484 0C000000 		.4byte	.LFE144
 12306 0488 00000000 		.4byte	.LFB145
 12307 048c 0C000000 		.4byte	.LFE145
 12308 0490 00000000 		.4byte	.LFB146
 12309 0494 0C000000 		.4byte	.LFE146
 12310 0498 00000000 		.4byte	.LFB147
 12311 049c 0C000000 		.4byte	.LFE147
 12312 04a0 00000000 		.4byte	.LFB148
 12313 04a4 0C000000 		.4byte	.LFE148
 12314 04a8 00000000 		.4byte	.LFB149
 12315 04ac 0C000000 		.4byte	.LFE149
 12316 04b0 00000000 		.4byte	.LFB150
 12317 04b4 0C000000 		.4byte	.LFE150
 12318 04b8 00000000 		.4byte	.LFB151
 12319 04bc 0C000000 		.4byte	.LFE151
 12320 04c0 00000000 		.4byte	.LFB152
 12321 04c4 0C000000 		.4byte	.LFE152
 12322 04c8 00000000 		.4byte	0
 12323 04cc 00000000 		.4byte	0
 12324              		.section	.debug_line,"",%progbits
 12325              	.Ldebug_line0:
 12326 0000 200C0000 		.section	.debug_str,"MS",%progbits,1
 12326      02006001 
 12326      00000201 
 12326      FB0E0D00 
 12326      01010101 
 12327              	.LASF151:
 12328 0000 75386732 		.ascii	"u8g2_m_25_25_f\000"
 12328      5F6D5F32 
 12328      355F3235 
 12328      5F6600
 12329              	.LASF142:
 12330 000f 75386732 		.ascii	"u8g2_m_20_4_f\000"
 12330      5F6D5F32 
 12330      305F345F 
 12330      6600
 12331              	.LASF124:
 12332 001d 75386732 		.ascii	"u8g2_m_48_17_f\000"
 12332      5F6D5F34 
 12332      385F3137 
 12332      5F6600
 12333              	.LASF106:
 12334 002c 75386732 		.ascii	"u8g2_m_30_20_f\000"
 12334      5F6D5F33 
 12334      305F3230 
 12334      5F6600
 12335              	.LASF8:
 12336 003b 756E7369 		.ascii	"unsigned int\000"
 12336      676E6564 
 12336      20696E74 
 12336      00
 12337              	.LASF143:
ARM GAS  C:\Users\Abude\AppData\Local\Temp\ccndXIr0.s 			page 258


 12338 0048 75386732 		.ascii	"u8g2_m_20_17_1\000"
 12338      5F6D5F32 
 12338      305F3137 
 12338      5F3100
 12339              	.LASF144:
 12340 0057 75386732 		.ascii	"u8g2_m_20_17_2\000"
 12340      5F6D5F32 
 12340      305F3137 
 12340      5F3200
 12341              	.LASF119:
 12342 0066 75386732 		.ascii	"u8g2_m_17_8_1\000"
 12342      5F6D5F31 
 12342      375F385F 
 12342      3100
 12343              	.LASF50:
 12344 0074 75386732 		.ascii	"u8g2_m_8_6_1\000"
 12344      5F6D5F38 
 12344      5F365F31 
 12344      00
 12345              	.LASF51:
 12346 0081 75386732 		.ascii	"u8g2_m_8_6_2\000"
 12346      5F6D5F38 
 12346      5F365F32 
 12346      00
 12347              	.LASF155:
 12348 008e 75386732 		.ascii	"u8g2_m_8_1_1\000"
 12348      5F6D5F38 
 12348      5F315F31 
 12348      00
 12349              	.LASF156:
 12350 009b 75386732 		.ascii	"u8g2_m_8_1_2\000"
 12350      5F6D5F38 
 12350      5F315F32 
 12350      00
 12351              	.LASF35:
 12352 00a8 75386732 		.ascii	"u8g2_m_10_16_1\000"
 12352      5F6D5F31 
 12352      305F3136 
 12352      5F3100
 12353              	.LASF36:
 12354 00b7 75386732 		.ascii	"u8g2_m_10_16_2\000"
 12354      5F6D5F31 
 12354      305F3136 
 12354      5F3200
 12355              	.LASF145:
 12356 00c6 75386732 		.ascii	"u8g2_m_20_17_f\000"
 12356      5F6D5F32 
 12356      305F3137 
 12356      5F6600
 12357              	.LASF52:
 12358 00d5 75386732 		.ascii	"u8g2_m_8_6_f\000"
 12358      5F6D5F38 
 12358      5F365F66 
 12358      00
 12359              	.LASF71:
 12360 00e2 75386732 		.ascii	"u8g2_m_50_30_1\000"
 12360      5F6D5F35 
ARM GAS  C:\Users\Abude\AppData\Local\Temp\ccndXIr0.s 			page 259


 12360      305F3330 
 12360      5F3100
 12361              	.LASF72:
 12362 00f1 75386732 		.ascii	"u8g2_m_50_30_2\000"
 12362      5F6D5F35 
 12362      305F3330 
 12362      5F3200
 12363              	.LASF59:
 12364 0100 75386732 		.ascii	"u8g2_m_16_12_1\000"
 12364      5F6D5F31 
 12364      365F3132 
 12364      5F3100
 12365              	.LASF60:
 12366 010f 75386732 		.ascii	"u8g2_m_16_12_2\000"
 12366      5F6D5F31 
 12366      365F3132 
 12366      5F3200
 12367              	.LASF157:
 12368 011e 75386732 		.ascii	"u8g2_m_8_1_f\000"
 12368      5F6D5F38 
 12368      5F315F66 
 12368      00
 12369              	.LASF37:
 12370 012b 75386732 		.ascii	"u8g2_m_10_16_f\000"
 12370      5F6D5F31 
 12370      305F3136 
 12370      5F6600
 12371              	.LASF83:
 12372 013a 75386732 		.ascii	"u8g2_m_24_8_1\000"
 12372      5F6D5F32 
 12372      345F385F 
 12372      3100
 12373              	.LASF84:
 12374 0148 75386732 		.ascii	"u8g2_m_24_8_2\000"
 12374      5F6D5F32 
 12374      345F385F 
 12374      3200
 12375              	.LASF121:
 12376 0156 75386732 		.ascii	"u8g2_m_17_8_f\000"
 12376      5F6D5F31 
 12376      375F385F 
 12376      6600
 12377              	.LASF137:
 12378 0164 75386732 		.ascii	"u8g2_m_20_10_1\000"
 12378      5F6D5F32 
 12378      305F3130 
 12378      5F3100
 12379              	.LASF138:
 12380 0173 75386732 		.ascii	"u8g2_m_20_10_2\000"
 12380      5F6D5F32 
 12380      305F3130 
 12380      5F3200
 12381              	.LASF126:
 12382 0182 75386732 		.ascii	"u8g2_m_20_12_2\000"
 12382      5F6D5F32 
 12382      305F3132 
 12382      5F3200
ARM GAS  C:\Users\Abude\AppData\Local\Temp\ccndXIr0.s 			page 260


 12383              	.LASF73:
 12384 0191 75386732 		.ascii	"u8g2_m_50_30_f\000"
 12384      5F6D5F35 
 12384      305F3330 
 12384      5F6600
 12385              	.LASF61:
 12386 01a0 75386732 		.ascii	"u8g2_m_16_12_f\000"
 12386      5F6D5F31 
 12386      365F3132 
 12386      5F6600
 12387              	.LASF134:
 12388 01af 75386732 		.ascii	"u8g2_m_19_4_1\000"
 12388      5F6D5F31 
 12388      395F345F 
 12388      3100
 12389              	.LASF135:
 12390 01bd 75386732 		.ascii	"u8g2_m_19_4_2\000"
 12390      5F6D5F31 
 12390      395F345F 
 12390      3200
 12391              	.LASF86:
 12392 01cb 75386732 		.ascii	"u8g2_m_30_8_1\000"
 12392      5F6D5F33 
 12392      305F385F 
 12392      3100
 12393              	.LASF87:
 12394 01d9 75386732 		.ascii	"u8g2_m_30_8_2\000"
 12394      5F6D5F33 
 12394      305F385F 
 12394      3200
 12395              	.LASF85:
 12396 01e7 75386732 		.ascii	"u8g2_m_24_8_f\000"
 12396      5F6D5F32 
 12396      345F385F 
 12396      6600
 12397              	.LASF65:
 12398 01f5 75386732 		.ascii	"u8g2_m_12_8_1\000"
 12398      5F6D5F31 
 12398      325F385F 
 12398      3100
 12399              	.LASF66:
 12400 0203 75386732 		.ascii	"u8g2_m_12_8_2\000"
 12400      5F6D5F31 
 12400      325F385F 
 12400      3200
 12401              	.LASF7:
 12402 0211 6C6F6E67 		.ascii	"long long unsigned int\000"
 12402      206C6F6E 
 12402      6720756E 
 12402      7369676E 
 12402      65642069 
 12403              	.LASF92:
 12404 0228 75386732 		.ascii	"u8g2_m_30_16_1\000"
 12404      5F6D5F33 
 12404      305F3136 
 12404      5F3100
 12405              	.LASF93:
ARM GAS  C:\Users\Abude\AppData\Local\Temp\ccndXIr0.s 			page 261


 12406 0237 75386732 		.ascii	"u8g2_m_30_16_2\000"
 12406      5F6D5F33 
 12406      305F3136 
 12406      5F3200
 12407              	.LASF13:
 12408 0246 75386732 		.ascii	"u8g2_m_16_4_1\000"
 12408      5F6D5F31 
 12408      365F345F 
 12408      3100
 12409              	.LASF14:
 12410 0254 75386732 		.ascii	"u8g2_m_16_4_2\000"
 12410      5F6D5F31 
 12410      365F345F 
 12410      3200
 12411              	.LASF136:
 12412 0262 75386732 		.ascii	"u8g2_m_19_4_f\000"
 12412      5F6D5F31 
 12412      395F345F 
 12412      6600
 12413              	.LASF88:
 12414 0270 75386732 		.ascii	"u8g2_m_30_8_f\000"
 12414      5F6D5F33 
 12414      305F385F 
 12414      6600
 12415              	.LASF146:
 12416 027e 75386732 		.ascii	"u8g2_m_22_9_1\000"
 12416      5F6D5F32 
 12416      325F395F 
 12416      3100
 12417              	.LASF147:
 12418 028c 75386732 		.ascii	"u8g2_m_22_9_2\000"
 12418      5F6D5F32 
 12418      325F395F 
 12418      3200
 12419              	.LASF67:
 12420 029a 75386732 		.ascii	"u8g2_m_12_8_f\000"
 12420      5F6D5F31 
 12420      325F385F 
 12420      6600
 12421              	.LASF139:
 12422 02a8 75386732 		.ascii	"u8g2_m_20_10_f\000"
 12422      5F6D5F32 
 12422      305F3130 
 12422      5F6600
 12423              	.LASF94:
 12424 02b7 75386732 		.ascii	"u8g2_m_30_16_f\000"
 12424      5F6D5F33 
 12424      305F3136 
 12424      5F6600
 12425              	.LASF26:
 12426 02c6 75386732 		.ascii	"u8g2_m_8_4_1\000"
 12426      5F6D5F38 
 12426      5F345F31 
 12426      00
 12427              	.LASF27:
 12428 02d3 75386732 		.ascii	"u8g2_m_8_4_2\000"
 12428      5F6D5F38 
ARM GAS  C:\Users\Abude\AppData\Local\Temp\ccndXIr0.s 			page 262


 12428      5F345F32 
 12428      00
 12429              	.LASF167:
 12430 02e0 474E5520 		.ascii	"GNU C11 5.4.1 20160609 (release) [ARM/embedded-5-br"
 12430      43313120 
 12430      352E342E 
 12430      31203230 
 12430      31363036 
 12431 0313 616E6368 		.ascii	"anch revision 237715] -mcpu=cortex-m3 -mthumb -g -O"
 12431      20726576 
 12431      6973696F 
 12431      6E203233 
 12431      37373135 
 12432 0346 67202D66 		.ascii	"g -ffunction-sections -ffat-lto-objects\000"
 12432      66756E63 
 12432      74696F6E 
 12432      2D736563 
 12432      74696F6E 
 12433              	.LASF16:
 12434 036e 75386732 		.ascii	"u8g2_m_16_4_f\000"
 12434      5F6D5F31 
 12434      365F345F 
 12434      6600
 12435              	.LASF148:
 12436 037c 75386732 		.ascii	"u8g2_m_22_9_f\000"
 12436      5F6D5F32 
 12436      325F395F 
 12436      6600
 12437              	.LASF23:
 12438 038a 75386732 		.ascii	"u8g2_m_9_5_1\000"
 12438      5F6D5F39 
 12438      5F355F31 
 12438      00
 12439              	.LASF24:
 12440 0397 75386732 		.ascii	"u8g2_m_9_5_2\000"
 12440      5F6D5F39 
 12440      5F355F32 
 12440      00
 12441              	.LASF28:
 12442 03a4 75386732 		.ascii	"u8g2_m_8_4_f\000"
 12442      5F6D5F38 
 12442      5F345F66 
 12442      00
 12443              	.LASF20:
 12444 03b1 75386732 		.ascii	"u8g2_m_255_2_1\000"
 12444      5F6D5F32 
 12444      35355F32 
 12444      5F3100
 12445              	.LASF21:
 12446 03c0 75386732 		.ascii	"u8g2_m_255_2_2\000"
 12446      5F6D5F32 
 12446      35355F32 
 12446      5F3200
 12447              	.LASF164:
 12448 03cf 75386732 		.ascii	"u8g2_m_48_30_1\000"
 12448      5F6D5F34 
 12448      385F3330 
ARM GAS  C:\Users\Abude\AppData\Local\Temp\ccndXIr0.s 			page 263


 12448      5F3100
 12449              	.LASF165:
 12450 03de 75386732 		.ascii	"u8g2_m_48_30_2\000"
 12450      5F6D5F34 
 12450      385F3330 
 12450      5F3200
 12451              	.LASF169:
 12452 03ed 433A5C55 		.ascii	"C:\\Users\\Abude\\Documents\\PSoC Creator\\Embedded"
 12452      73657273 
 12452      5C416275 
 12452      64655C44 
 12452      6F63756D 
 12453 041b 53797374 		.ascii	"SystemsLab5\\Lab 5.cydsn\000"
 12453      656D734C 
 12453      6162355C 
 12453      4C616220 
 12453      352E6379 
 12454              	.LASF25:
 12455 0433 75386732 		.ascii	"u8g2_m_9_5_f\000"
 12455      5F6D5F39 
 12455      5F355F66 
 12455      00
 12456              	.LASF22:
 12457 0440 75386732 		.ascii	"u8g2_m_255_2_f\000"
 12457      5F6D5F32 
 12457      35355F32 
 12457      5F6600
 12458              	.LASF107:
 12459 044f 75386732 		.ascii	"u8g2_m_32_16_1\000"
 12459      5F6D5F33 
 12459      325F3136 
 12459      5F3100
 12460              	.LASF108:
 12461 045e 75386732 		.ascii	"u8g2_m_32_16_2\000"
 12461      5F6D5F33 
 12461      325F3136 
 12461      5F3200
 12462              	.LASF166:
 12463 046d 75386732 		.ascii	"u8g2_m_48_30_f\000"
 12463      5F6D5F34 
 12463      385F3330 
 12463      5F6600
 12464              	.LASF104:
 12465 047c 75386732 		.ascii	"u8g2_m_30_20_1\000"
 12465      5F6D5F33 
 12465      305F3230 
 12465      5F3100
 12466              	.LASF105:
 12467 048b 75386732 		.ascii	"u8g2_m_30_20_2\000"
 12467      5F6D5F33 
 12467      305F3230 
 12467      5F3200
 12468              	.LASF10:
 12469 049a 75696E74 		.ascii	"uint8_t\000"
 12469      385F7400 
 12470              	.LASF109:
 12471 04a2 75386732 		.ascii	"u8g2_m_32_16_f\000"
ARM GAS  C:\Users\Abude\AppData\Local\Temp\ccndXIr0.s 			page 264


 12471      5F6D5F33 
 12471      325F3136 
 12471      5F6600
 12472              	.LASF29:
 12473 04b1 75386732 		.ascii	"u8g2_m_8_16_1\000"
 12473      5F6D5F38 
 12473      5F31365F 
 12473      3100
 12474              	.LASF30:
 12475 04bf 75386732 		.ascii	"u8g2_m_8_16_2\000"
 12475      5F6D5F38 
 12475      5F31365F 
 12475      3200
 12476              	.LASF101:
 12477 04cd 75386732 		.ascii	"u8g2_m_20_13_1\000"
 12477      5F6D5F32 
 12477      305F3133 
 12477      5F3100
 12478              	.LASF102:
 12479 04dc 75386732 		.ascii	"u8g2_m_20_13_2\000"
 12479      5F6D5F32 
 12479      305F3133 
 12479      5F3200
 12480              	.LASF120:
 12481 04eb 75386732 		.ascii	"u8g2_m_17_8_2\000"
 12481      5F6D5F31 
 12481      375F385F 
 12481      3200
 12482              	.LASF6:
 12483 04f9 6C6F6E67 		.ascii	"long long int\000"
 12483      206C6F6E 
 12483      6720696E 
 12483      7400
 12484              	.LASF152:
 12485 0507 75386732 		.ascii	"u8g2_m_37_16_1\000"
 12485      5F6D5F33 
 12485      375F3136 
 12485      5F3100
 12486              	.LASF153:
 12487 0516 75386732 		.ascii	"u8g2_m_37_16_2\000"
 12487      5F6D5F33 
 12487      375F3136 
 12487      5F3200
 12488              	.LASF158:
 12489 0525 75386732 		.ascii	"u8g2_m_4_1_1\000"
 12489      5F6D5F34 
 12489      5F315F31 
 12489      00
 12490              	.LASF159:
 12491 0532 75386732 		.ascii	"u8g2_m_4_1_2\000"
 12491      5F6D5F34 
 12491      5F315F32 
 12491      00
 12492              	.LASF44:
 12493 053f 75386732 		.ascii	"u8g2_m_32_8_1\000"
 12493      5F6D5F33 
 12493      325F385F 
ARM GAS  C:\Users\Abude\AppData\Local\Temp\ccndXIr0.s 			page 265


 12493      3100
 12494              	.LASF45:
 12495 054d 75386732 		.ascii	"u8g2_m_32_8_2\000"
 12495      5F6D5F33 
 12495      325F385F 
 12495      3200
 12496              	.LASF31:
 12497 055b 75386732 		.ascii	"u8g2_m_8_16_f\000"
 12497      5F6D5F38 
 12497      5F31365F 
 12497      6600
 12498              	.LASF98:
 12499 0569 75386732 		.ascii	"u8g2_m_24_12_1\000"
 12499      5F6D5F32 
 12499      345F3132 
 12499      5F3100
 12500              	.LASF99:
 12501 0578 75386732 		.ascii	"u8g2_m_24_12_2\000"
 12501      5F6D5F32 
 12501      345F3132 
 12501      5F3200
 12502              	.LASF161:
 12503 0587 75386732 		.ascii	"u8g2_m_1_1_1\000"
 12503      5F6D5F31 
 12503      5F315F31 
 12503      00
 12504              	.LASF162:
 12505 0594 75386732 		.ascii	"u8g2_m_1_1_2\000"
 12505      5F6D5F31 
 12505      5F315F32 
 12505      00
 12506              	.LASF154:
 12507 05a1 75386732 		.ascii	"u8g2_m_37_16_f\000"
 12507      5F6D5F33 
 12507      375F3136 
 12507      5F6600
 12508              	.LASF160:
 12509 05b0 75386732 		.ascii	"u8g2_m_4_1_f\000"
 12509      5F6D5F34 
 12509      5F315F66 
 12509      00
 12510              	.LASF46:
 12511 05bd 75386732 		.ascii	"u8g2_m_32_8_f\000"
 12511      5F6D5F33 
 12511      325F385F 
 12511      6600
 12512              	.LASF113:
 12513 05cb 75386732 		.ascii	"u8g2_m_20_8_1\000"
 12513      5F6D5F32 
 12513      305F385F 
 12513      3100
 12514              	.LASF114:
 12515 05d9 75386732 		.ascii	"u8g2_m_20_8_2\000"
 12515      5F6D5F32 
 12515      305F385F 
 12515      3200
 12516              	.LASF110:
ARM GAS  C:\Users\Abude\AppData\Local\Temp\ccndXIr0.s 			page 266


 12517 05e7 75386732 		.ascii	"u8g2_m_40_30_1\000"
 12517      5F6D5F34 
 12517      305F3330 
 12517      5F3100
 12518              	.LASF111:
 12519 05f6 75386732 		.ascii	"u8g2_m_40_30_2\000"
 12519      5F6D5F34 
 12519      305F3330 
 12519      5F3200
 12520              	.LASF53:
 12521 0605 75386732 		.ascii	"u8g2_m_6_8_1\000"
 12521      5F6D5F36 
 12521      5F385F31 
 12521      00
 12522              	.LASF54:
 12523 0612 75386732 		.ascii	"u8g2_m_6_8_2\000"
 12523      5F6D5F36 
 12523      5F385F32 
 12523      00
 12524              	.LASF68:
 12525 061f 75386732 		.ascii	"u8g2_m_24_4_1\000"
 12525      5F6D5F32 
 12525      345F345F 
 12525      3100
 12526              	.LASF69:
 12527 062d 75386732 		.ascii	"u8g2_m_24_4_2\000"
 12527      5F6D5F32 
 12527      345F345F 
 12527      3200
 12528              	.LASF100:
 12529 063b 75386732 		.ascii	"u8g2_m_24_12_f\000"
 12529      5F6D5F32 
 12529      345F3132 
 12529      5F6600
 12530              	.LASF163:
 12531 064a 75386732 		.ascii	"u8g2_m_1_1_f\000"
 12531      5F6D5F31 
 12531      5F315F66 
 12531      00
 12532              	.LASF74:
 12533 0657 75386732 		.ascii	"u8g2_m_18_21_1\000"
 12533      5F6D5F31 
 12533      385F3231 
 12533      5F3100
 12534              	.LASF75:
 12535 0666 75386732 		.ascii	"u8g2_m_18_21_2\000"
 12535      5F6D5F31 
 12535      385F3231 
 12535      5F3200
 12536              	.LASF128:
 12537 0675 75386732 		.ascii	"u8g2_m_32_20_1\000"
 12537      5F6D5F33 
 12537      325F3230 
 12537      5F3100
 12538              	.LASF129:
 12539 0684 75386732 		.ascii	"u8g2_m_32_20_2\000"
 12539      5F6D5F33 
ARM GAS  C:\Users\Abude\AppData\Local\Temp\ccndXIr0.s 			page 267


 12539      325F3230 
 12539      5F3200
 12540              	.LASF115:
 12541 0693 75386732 		.ascii	"u8g2_m_20_8_f\000"
 12541      5F6D5F32 
 12541      305F385F 
 12541      6600
 12542              	.LASF11:
 12543 06a1 6C6F6E67 		.ascii	"long double\000"
 12543      20646F75 
 12543      626C6500 
 12544              	.LASF80:
 12545 06ad 75386732 		.ascii	"u8g2_m_12_9_1\000"
 12545      5F6D5F31 
 12545      325F395F 
 12545      3100
 12546              	.LASF81:
 12547 06bb 75386732 		.ascii	"u8g2_m_12_9_2\000"
 12547      5F6D5F31 
 12547      325F395F 
 12547      3200
 12548              	.LASF112:
 12549 06c9 75386732 		.ascii	"u8g2_m_40_30_f\000"
 12549      5F6D5F34 
 12549      305F3330 
 12549      5F6600
 12550              	.LASF55:
 12551 06d8 75386732 		.ascii	"u8g2_m_6_8_f\000"
 12551      5F6D5F36 
 12551      5F385F66 
 12551      00
 12552              	.LASF70:
 12553 06e5 75386732 		.ascii	"u8g2_m_24_4_f\000"
 12553      5F6D5F32 
 12553      345F345F 
 12553      6600
 12554              	.LASF76:
 12555 06f3 75386732 		.ascii	"u8g2_m_18_21_f\000"
 12555      5F6D5F31 
 12555      385F3231 
 12555      5F6600
 12556              	.LASF131:
 12557 0702 75386732 		.ascii	"u8g2_m_22_13_1\000"
 12557      5F6D5F32 
 12557      325F3133 
 12557      5F3100
 12558              	.LASF132:
 12559 0711 75386732 		.ascii	"u8g2_m_22_13_2\000"
 12559      5F6D5F32 
 12559      325F3133 
 12559      5F3200
 12560              	.LASF130:
 12561 0720 75386732 		.ascii	"u8g2_m_32_20_f\000"
 12561      5F6D5F33 
 12561      325F3230 
 12561      5F6600
 12562              	.LASF2:
ARM GAS  C:\Users\Abude\AppData\Local\Temp\ccndXIr0.s 			page 268


 12563 072f 73686F72 		.ascii	"short int\000"
 12563      7420696E 
 12563      7400
 12564              	.LASF95:
 12565 0739 75386732 		.ascii	"u8g2_m_20_16_1\000"
 12565      5F6D5F32 
 12565      305F3136 
 12565      5F3100
 12566              	.LASF96:
 12567 0748 75386732 		.ascii	"u8g2_m_20_16_2\000"
 12567      5F6D5F32 
 12567      305F3136 
 12567      5F3200
 12568              	.LASF4:
 12569 0757 6C6F6E67 		.ascii	"long int\000"
 12569      20696E74 
 12569      00
 12570              	.LASF168:
 12571 0760 2E2E5C2E 		.ascii	"..\\..\\..\\..\\..\\..\\Dev\\Library embedded l2c d"
 12571      2E5C2E2E 
 12571      5C2E2E5C 
 12571      2E2E5C2E 
 12571      2E5C4465 
 12572 078c 6973706C 		.ascii	"isplay\\u8g2\\csrc\\u8g2_d_memory.c\000"
 12572      61795C75 
 12572      3867325C 
 12572      63737263 
 12572      5C753867 
 12573              	.LASF103:
 12574 07ad 75386732 		.ascii	"u8g2_m_20_13_f\000"
 12574      5F6D5F32 
 12574      305F3133 
 12574      5F6600
 12575              	.LASF133:
 12576 07bc 75386732 		.ascii	"u8g2_m_22_13_f\000"
 12576      5F6D5F32 
 12576      325F3133 
 12576      5F6600
 12577              	.LASF97:
 12578 07cb 75386732 		.ascii	"u8g2_m_20_16_f\000"
 12578      5F6D5F32 
 12578      305F3136 
 12578      5F6600
 12579              	.LASF38:
 12580 07da 75386732 		.ascii	"u8g2_m_16_16_1\000"
 12580      5F6D5F31 
 12580      365F3136 
 12580      5F3100
 12581              	.LASF39:
 12582 07e9 75386732 		.ascii	"u8g2_m_16_16_2\000"
 12582      5F6D5F31 
 12582      365F3136 
 12582      5F3200
 12583              	.LASF9:
 12584 07f8 5F5F7569 		.ascii	"__uint8_t\000"
 12584      6E74385F 
 12584      7400
ARM GAS  C:\Users\Abude\AppData\Local\Temp\ccndXIr0.s 			page 269


 12585              	.LASF12:
 12586 0802 73697A65 		.ascii	"sizetype\000"
 12586      74797065 
 12586      00
 12587              	.LASF5:
 12588 080b 6C6F6E67 		.ascii	"long unsigned int\000"
 12588      20756E73 
 12588      69676E65 
 12588      6420696E 
 12588      7400
 12589              	.LASF40:
 12590 081d 75386732 		.ascii	"u8g2_m_16_16_f\000"
 12590      5F6D5F31 
 12590      365F3136 
 12590      5F6600
 12591              	.LASF77:
 12592 082c 75386732 		.ascii	"u8g2_m_11_6_1\000"
 12592      5F6D5F31 
 12592      315F365F 
 12592      3100
 12593              	.LASF78:
 12594 083a 75386732 		.ascii	"u8g2_m_11_6_2\000"
 12594      5F6D5F31 
 12594      315F365F 
 12594      3200
 12595              	.LASF125:
 12596 0848 75386732 		.ascii	"u8g2_m_20_12_1\000"
 12596      5F6D5F32 
 12596      305F3132 
 12596      5F3100
 12597              	.LASF15:
 12598 0857 70616765 		.ascii	"page_cnt\000"
 12598      5F636E74 
 12598      00
 12599              	.LASF32:
 12600 0860 75386732 		.ascii	"u8g2_m_12_12_1\000"
 12600      5F6D5F31 
 12600      325F3132 
 12600      5F3100
 12601              	.LASF33:
 12602 086f 75386732 		.ascii	"u8g2_m_12_12_2\000"
 12602      5F6D5F31 
 12602      325F3132 
 12602      5F3200
 12603              	.LASF1:
 12604 087e 756E7369 		.ascii	"unsigned char\000"
 12604      676E6564 
 12604      20636861 
 12604      7200
 12605              	.LASF17:
 12606 088c 75386732 		.ascii	"u8g2_m_16_8_1\000"
 12606      5F6D5F31 
 12606      365F385F 
 12606      3100
 12607              	.LASF18:
 12608 089a 75386732 		.ascii	"u8g2_m_16_8_2\000"
 12608      5F6D5F31 
ARM GAS  C:\Users\Abude\AppData\Local\Temp\ccndXIr0.s 			page 270


 12608      365F385F 
 12608      3200
 12609              	.LASF79:
 12610 08a8 75386732 		.ascii	"u8g2_m_11_6_f\000"
 12610      5F6D5F31 
 12610      315F365F 
 12610      6600
 12611              	.LASF89:
 12612 08b6 75386732 		.ascii	"u8g2_m_30_15_1\000"
 12612      5F6D5F33 
 12612      305F3135 
 12612      5F3100
 12613              	.LASF90:
 12614 08c5 75386732 		.ascii	"u8g2_m_30_15_2\000"
 12614      5F6D5F33 
 12614      305F3135 
 12614      5F3200
 12615              	.LASF56:
 12616 08d4 75386732 		.ascii	"u8g2_m_12_2_1\000"
 12616      5F6D5F31 
 12616      325F325F 
 12616      3100
 12617              	.LASF57:
 12618 08e2 75386732 		.ascii	"u8g2_m_12_2_2\000"
 12618      5F6D5F31 
 12618      325F325F 
 12618      3200
 12619              	.LASF34:
 12620 08f0 75386732 		.ascii	"u8g2_m_12_12_f\000"
 12620      5F6D5F31 
 12620      325F3132 
 12620      5F6600
 12621              	.LASF41:
 12622 08ff 75386732 		.ascii	"u8g2_m_20_20_1\000"
 12622      5F6D5F32 
 12622      305F3230 
 12622      5F3100
 12623              	.LASF42:
 12624 090e 75386732 		.ascii	"u8g2_m_20_20_2\000"
 12624      5F6D5F32 
 12624      305F3230 
 12624      5F3200
 12625              	.LASF47:
 12626 091d 75386732 		.ascii	"u8g2_m_13_8_1\000"
 12626      5F6D5F31 
 12626      335F385F 
 12626      3100
 12627              	.LASF48:
 12628 092b 75386732 		.ascii	"u8g2_m_13_8_2\000"
 12628      5F6D5F31 
 12628      335F385F 
 12628      3200
 12629              	.LASF82:
 12630 0939 75386732 		.ascii	"u8g2_m_12_9_f\000"
 12630      5F6D5F31 
 12630      325F395F 
 12630      6600
ARM GAS  C:\Users\Abude\AppData\Local\Temp\ccndXIr0.s 			page 271


 12631              	.LASF19:
 12632 0947 75386732 		.ascii	"u8g2_m_16_8_f\000"
 12632      5F6D5F31 
 12632      365F385F 
 12632      6600
 12633              	.LASF127:
 12634 0955 75386732 		.ascii	"u8g2_m_20_12_f\000"
 12634      5F6D5F32 
 12634      305F3132 
 12634      5F6600
 12635              	.LASF91:
 12636 0964 75386732 		.ascii	"u8g2_m_30_15_f\000"
 12636      5F6D5F33 
 12636      305F3135 
 12636      5F6600
 12637              	.LASF116:
 12638 0973 75386732 		.ascii	"u8g2_m_17_4_1\000"
 12638      5F6D5F31 
 12638      375F345F 
 12638      3100
 12639              	.LASF117:
 12640 0981 75386732 		.ascii	"u8g2_m_17_4_2\000"
 12640      5F6D5F31 
 12640      375F345F 
 12640      3200
 12641              	.LASF58:
 12642 098f 75386732 		.ascii	"u8g2_m_12_2_f\000"
 12642      5F6D5F31 
 12642      325F325F 
 12642      6600
 12643              	.LASF0:
 12644 099d 7369676E 		.ascii	"signed char\000"
 12644      65642063 
 12644      68617200 
 12645              	.LASF3:
 12646 09a9 73686F72 		.ascii	"short unsigned int\000"
 12646      7420756E 
 12646      7369676E 
 12646      65642069 
 12646      6E7400
 12647              	.LASF62:
 12648 09bc 75386732 		.ascii	"u8g2_m_32_4_1\000"
 12648      5F6D5F33 
 12648      325F345F 
 12648      3100
 12649              	.LASF63:
 12650 09ca 75386732 		.ascii	"u8g2_m_32_4_2\000"
 12650      5F6D5F33 
 12650      325F345F 
 12650      3200
 12651              	.LASF43:
 12652 09d8 75386732 		.ascii	"u8g2_m_20_20_f\000"
 12652      5F6D5F32 
 12652      305F3230 
 12652      5F6600
 12653              	.LASF49:
 12654 09e7 75386732 		.ascii	"u8g2_m_13_8_f\000"
ARM GAS  C:\Users\Abude\AppData\Local\Temp\ccndXIr0.s 			page 272


 12654      5F6D5F31 
 12654      335F385F 
 12654      6600
 12655              	.LASF149:
 12656 09f5 75386732 		.ascii	"u8g2_m_25_25_1\000"
 12656      5F6D5F32 
 12656      355F3235 
 12656      5F3100
 12657              	.LASF150:
 12658 0a04 75386732 		.ascii	"u8g2_m_25_25_2\000"
 12658      5F6D5F32 
 12658      355F3235 
 12658      5F3200
 12659              	.LASF118:
 12660 0a13 75386732 		.ascii	"u8g2_m_17_4_f\000"
 12660      5F6D5F31 
 12660      375F345F 
 12660      6600
 12661              	.LASF64:
 12662 0a21 75386732 		.ascii	"u8g2_m_32_4_f\000"
 12662      5F6D5F33 
 12662      325F345F 
 12662      6600
 12663              	.LASF140:
 12664 0a2f 75386732 		.ascii	"u8g2_m_20_4_1\000"
 12664      5F6D5F32 
 12664      305F345F 
 12664      3100
 12665              	.LASF141:
 12666 0a3d 75386732 		.ascii	"u8g2_m_20_4_2\000"
 12666      5F6D5F32 
 12666      305F345F 
 12666      3200
 12667              	.LASF122:
 12668 0a4b 75386732 		.ascii	"u8g2_m_48_17_1\000"
 12668      5F6D5F34 
 12668      385F3137 
 12668      5F3100
 12669              	.LASF123:
 12670 0a5a 75386732 		.ascii	"u8g2_m_48_17_2\000"
 12670      5F6D5F34 
 12670      385F3137 
 12670      5F3200
 12671              		.ident	"GCC: (GNU Tools for ARM Embedded Processors) 5.4.1 20160609 (release) [ARM/embedded-5-bran
