ARM GAS  C:\Users\Abude\AppData\Local\Temp\ccddliKD.s 			page 1


   1              		.syntax unified
   2              		.cpu cortex-m3
   3              		.fpu softvfp
   4              		.eabi_attribute 20, 1
   5              		.eabi_attribute 21, 1
   6              		.eabi_attribute 23, 3
   7              		.eabi_attribute 24, 1
   8              		.eabi_attribute 25, 1
   9              		.eabi_attribute 26, 1
  10              		.eabi_attribute 30, 1
  11              		.eabi_attribute 34, 1
  12              		.eabi_attribute 18, 4
  13              		.thumb
  14              		.syntax unified
  15              		.file	"u8g2_input_value.c"
  16              		.text
  17              	.Ltext0:
  18              		.cfi_sections	.debug_frame
  19              		.section	.text.u8g2_UserInterfaceInputValue,"ax",%progbits
  20              		.align	2
  21              		.global	u8g2_UserInterfaceInputValue
  22              		.thumb
  23              		.thumb_func
  24              		.type	u8g2_UserInterfaceInputValue, %function
  25              	u8g2_UserInterfaceInputValue:
  26              	.LFB0:
  27              		.file 1 "..\\..\\..\\..\\..\\..\\Dev\\Library embedded l2c display\\u8g2\\csrc\\u8g2_input_value.c
   1:..\..\..\..\..\..\Dev\Library embedded l2c display\u8g2\csrc/u8g2_input_value.c **** /*
   2:..\..\..\..\..\..\Dev\Library embedded l2c display\u8g2\csrc/u8g2_input_value.c **** 
   3:..\..\..\..\..\..\Dev\Library embedded l2c display\u8g2\csrc/u8g2_input_value.c ****   u8g2_input_value.c
   4:..\..\..\..\..\..\Dev\Library embedded l2c display\u8g2\csrc/u8g2_input_value.c ****   
   5:..\..\..\..\..\..\Dev\Library embedded l2c display\u8g2\csrc/u8g2_input_value.c ****   Universal 8bit Graphics Library (https://github.com/olikraus/u8g2/)
   6:..\..\..\..\..\..\Dev\Library embedded l2c display\u8g2\csrc/u8g2_input_value.c **** 
   7:..\..\..\..\..\..\Dev\Library embedded l2c display\u8g2\csrc/u8g2_input_value.c ****   Copyright (c) 2016, olikraus@gmail.com
   8:..\..\..\..\..\..\Dev\Library embedded l2c display\u8g2\csrc/u8g2_input_value.c ****   All rights reserved.
   9:..\..\..\..\..\..\Dev\Library embedded l2c display\u8g2\csrc/u8g2_input_value.c **** 
  10:..\..\..\..\..\..\Dev\Library embedded l2c display\u8g2\csrc/u8g2_input_value.c ****   Redistribution and use in source and binary forms, with or without modification, 
  11:..\..\..\..\..\..\Dev\Library embedded l2c display\u8g2\csrc/u8g2_input_value.c ****   are permitted provided that the following conditions are met:
  12:..\..\..\..\..\..\Dev\Library embedded l2c display\u8g2\csrc/u8g2_input_value.c **** 
  13:..\..\..\..\..\..\Dev\Library embedded l2c display\u8g2\csrc/u8g2_input_value.c ****   * Redistributions of source code must retain the above copyright notice, this list 
  14:..\..\..\..\..\..\Dev\Library embedded l2c display\u8g2\csrc/u8g2_input_value.c ****     of conditions and the following disclaimer.
  15:..\..\..\..\..\..\Dev\Library embedded l2c display\u8g2\csrc/u8g2_input_value.c ****     
  16:..\..\..\..\..\..\Dev\Library embedded l2c display\u8g2\csrc/u8g2_input_value.c ****   * Redistributions in binary form must reproduce the above copyright notice, this 
  17:..\..\..\..\..\..\Dev\Library embedded l2c display\u8g2\csrc/u8g2_input_value.c ****     list of conditions and the following disclaimer in the documentation and/or other 
  18:..\..\..\..\..\..\Dev\Library embedded l2c display\u8g2\csrc/u8g2_input_value.c ****     materials provided with the distribution.
  19:..\..\..\..\..\..\Dev\Library embedded l2c display\u8g2\csrc/u8g2_input_value.c **** 
  20:..\..\..\..\..\..\Dev\Library embedded l2c display\u8g2\csrc/u8g2_input_value.c ****   THIS SOFTWARE IS PROVIDED BY THE COPYRIGHT HOLDERS AND 
  21:..\..\..\..\..\..\Dev\Library embedded l2c display\u8g2\csrc/u8g2_input_value.c ****   CONTRIBUTORS "AS IS" AND ANY EXPRESS OR IMPLIED WARRANTIES, 
  22:..\..\..\..\..\..\Dev\Library embedded l2c display\u8g2\csrc/u8g2_input_value.c ****   INCLUDING, BUT NOT LIMITED TO, THE IMPLIED WARRANTIES OF 
  23:..\..\..\..\..\..\Dev\Library embedded l2c display\u8g2\csrc/u8g2_input_value.c ****   MERCHANTABILITY AND FITNESS FOR A PARTICULAR PURPOSE ARE 
  24:..\..\..\..\..\..\Dev\Library embedded l2c display\u8g2\csrc/u8g2_input_value.c ****   DISCLAIMED. IN NO EVENT SHALL THE COPYRIGHT HOLDER OR 
  25:..\..\..\..\..\..\Dev\Library embedded l2c display\u8g2\csrc/u8g2_input_value.c ****   CONTRIBUTORS BE LIABLE FOR ANY DIRECT, INDIRECT, INCIDENTAL, 
  26:..\..\..\..\..\..\Dev\Library embedded l2c display\u8g2\csrc/u8g2_input_value.c ****   SPECIAL, EXEMPLARY, OR CONSEQUENTIAL DAMAGES (INCLUDING, BUT 
  27:..\..\..\..\..\..\Dev\Library embedded l2c display\u8g2\csrc/u8g2_input_value.c ****   NOT LIMITED TO, PROCUREMENT OF SUBSTITUTE GOODS OR SERVICES; 
  28:..\..\..\..\..\..\Dev\Library embedded l2c display\u8g2\csrc/u8g2_input_value.c ****   LOSS OF USE, DATA, OR PROFITS; OR BUSINESS INTERRUPTION) HOWEVER 
  29:..\..\..\..\..\..\Dev\Library embedded l2c display\u8g2\csrc/u8g2_input_value.c ****   CAUSED AND ON ANY THEORY OF LIABILITY, WHETHER IN CONTRACT, 
  30:..\..\..\..\..\..\Dev\Library embedded l2c display\u8g2\csrc/u8g2_input_value.c ****   STRICT LIABILITY, OR TORT (INCLUDING NEGLIGENCE OR OTHERWISE) 
ARM GAS  C:\Users\Abude\AppData\Local\Temp\ccddliKD.s 			page 2


  31:..\..\..\..\..\..\Dev\Library embedded l2c display\u8g2\csrc/u8g2_input_value.c ****   ARISING IN ANY WAY OUT OF THE USE OF THIS SOFTWARE, EVEN IF 
  32:..\..\..\..\..\..\Dev\Library embedded l2c display\u8g2\csrc/u8g2_input_value.c ****   ADVISED OF THE POSSIBILITY OF SUCH DAMAGE.  
  33:..\..\..\..\..\..\Dev\Library embedded l2c display\u8g2\csrc/u8g2_input_value.c ****   
  34:..\..\..\..\..\..\Dev\Library embedded l2c display\u8g2\csrc/u8g2_input_value.c **** */
  35:..\..\..\..\..\..\Dev\Library embedded l2c display\u8g2\csrc/u8g2_input_value.c **** 
  36:..\..\..\..\..\..\Dev\Library embedded l2c display\u8g2\csrc/u8g2_input_value.c **** #include "u8g2.h"
  37:..\..\..\..\..\..\Dev\Library embedded l2c display\u8g2\csrc/u8g2_input_value.c **** 
  38:..\..\..\..\..\..\Dev\Library embedded l2c display\u8g2\csrc/u8g2_input_value.c **** /*
  39:..\..\..\..\..\..\Dev\Library embedded l2c display\u8g2\csrc/u8g2_input_value.c ****   return:
  40:..\..\..\..\..\..\Dev\Library embedded l2c display\u8g2\csrc/u8g2_input_value.c ****     0: value is not changed (HOME/Break Button pressed)
  41:..\..\..\..\..\..\Dev\Library embedded l2c display\u8g2\csrc/u8g2_input_value.c ****     1: value has been updated
  42:..\..\..\..\..\..\Dev\Library embedded l2c display\u8g2\csrc/u8g2_input_value.c **** */
  43:..\..\..\..\..\..\Dev\Library embedded l2c display\u8g2\csrc/u8g2_input_value.c **** 
  44:..\..\..\..\..\..\Dev\Library embedded l2c display\u8g2\csrc/u8g2_input_value.c **** uint8_t u8g2_UserInterfaceInputValue(u8g2_t *u8g2, const char *title, const char *pre, uint8_t *val
  45:..\..\..\..\..\..\Dev\Library embedded l2c display\u8g2\csrc/u8g2_input_value.c **** {
  28              		.loc 1 45 0
  29              		.cfi_startproc
  30              		@ args = 16, pretend = 0, frame = 24
  31              		@ frame_needed = 0, uses_anonymous_args = 0
  32              	.LVL0:
  33 0000 2DE9F04F 		push	{r4, r5, r6, r7, r8, r9, r10, fp, lr}
  34              		.cfi_def_cfa_offset 36
  35              		.cfi_offset 4, -36
  36              		.cfi_offset 5, -32
  37              		.cfi_offset 6, -28
  38              		.cfi_offset 7, -24
  39              		.cfi_offset 8, -20
  40              		.cfi_offset 9, -16
  41              		.cfi_offset 10, -12
  42              		.cfi_offset 11, -8
  43              		.cfi_offset 14, -4
  44 0004 89B0     		sub	sp, sp, #36
  45              		.cfi_def_cfa_offset 72
  46 0006 0446     		mov	r4, r0
  47 0008 8B46     		mov	fp, r1
  48 000a 0392     		str	r2, [sp, #12]
  49 000c 0793     		str	r3, [sp, #28]
  50 000e 9DF84820 		ldrb	r2, [sp, #72]	@ zero_extendqisi2
  51              	.LVL1:
  52 0012 0692     		str	r2, [sp, #24]
  53 0014 9DF84C20 		ldrb	r2, [sp, #76]	@ zero_extendqisi2
  54 0018 0592     		str	r2, [sp, #20]
  55 001a 9DF85020 		ldrb	r2, [sp, #80]	@ zero_extendqisi2
  56 001e 0492     		str	r2, [sp, #16]
  46:..\..\..\..\..\..\Dev\Library embedded l2c display\u8g2\csrc/u8g2_input_value.c ****   uint8_t line_height;
  47:..\..\..\..\..\..\Dev\Library embedded l2c display\u8g2\csrc/u8g2_input_value.c ****   uint8_t height;
  48:..\..\..\..\..\..\Dev\Library embedded l2c display\u8g2\csrc/u8g2_input_value.c ****   u8g2_uint_t pixel_height;
  49:..\..\..\..\..\..\Dev\Library embedded l2c display\u8g2\csrc/u8g2_input_value.c ****   u8g2_uint_t  y, yy;
  50:..\..\..\..\..\..\Dev\Library embedded l2c display\u8g2\csrc/u8g2_input_value.c ****   u8g2_uint_t  pixel_width;
  51:..\..\..\..\..\..\Dev\Library embedded l2c display\u8g2\csrc/u8g2_input_value.c ****   u8g2_uint_t  x, xx;
  52:..\..\..\..\..\..\Dev\Library embedded l2c display\u8g2\csrc/u8g2_input_value.c ****   
  53:..\..\..\..\..\..\Dev\Library embedded l2c display\u8g2\csrc/u8g2_input_value.c ****   uint8_t local_value = *value;
  57              		.loc 1 53 0
  58 0020 93F80090 		ldrb	r9, [r3]	@ zero_extendqisi2
  59              	.LVL2:
  54:..\..\..\..\..\..\Dev\Library embedded l2c display\u8g2\csrc/u8g2_input_value.c ****   //uint8_t r; /* not used ??? */
  55:..\..\..\..\..\..\Dev\Library embedded l2c display\u8g2\csrc/u8g2_input_value.c ****   uint8_t event;
ARM GAS  C:\Users\Abude\AppData\Local\Temp\ccddliKD.s 			page 3


  56:..\..\..\..\..\..\Dev\Library embedded l2c display\u8g2\csrc/u8g2_input_value.c **** 
  57:..\..\..\..\..\..\Dev\Library embedded l2c display\u8g2\csrc/u8g2_input_value.c ****   /* only horizontal strings are supported, so force this here */
  58:..\..\..\..\..\..\Dev\Library embedded l2c display\u8g2\csrc/u8g2_input_value.c ****   u8g2_SetFontDirection(u8g2, 0);
  60              		.loc 1 58 0
  61 0024 0021     		movs	r1, #0
  62              	.LVL3:
  63 0026 FFF7FEFF 		bl	u8g2_SetFontDirection
  64              	.LVL4:
  59:..\..\..\..\..\..\Dev\Library embedded l2c display\u8g2\csrc/u8g2_input_value.c **** 
  60:..\..\..\..\..\..\Dev\Library embedded l2c display\u8g2\csrc/u8g2_input_value.c ****   /* force baseline position */
  61:..\..\..\..\..\..\Dev\Library embedded l2c display\u8g2\csrc/u8g2_input_value.c ****   u8g2_SetFontPosBaseline(u8g2);
  65              		.loc 1 61 0
  66 002a 2046     		mov	r0, r4
  67 002c FFF7FEFF 		bl	u8g2_SetFontPosBaseline
  68              	.LVL5:
  62:..\..\..\..\..\..\Dev\Library embedded l2c display\u8g2\csrc/u8g2_input_value.c ****   
  63:..\..\..\..\..\..\Dev\Library embedded l2c display\u8g2\csrc/u8g2_input_value.c ****   /* calculate line height */
  64:..\..\..\..\..\..\Dev\Library embedded l2c display\u8g2\csrc/u8g2_input_value.c ****   line_height = u8g2_GetAscent(u8g2);
  69              		.loc 1 64 0
  70 0030 94F88E30 		ldrb	r3, [r4, #142]	@ zero_extendqisi2
  71              	.LVL6:
  65:..\..\..\..\..\..\Dev\Library embedded l2c display\u8g2\csrc/u8g2_input_value.c ****   line_height -= u8g2_GetDescent(u8g2);
  72              		.loc 1 65 0
  73 0034 94F98FA0 		ldrsb	r10, [r4, #143]
  74 0038 CAEB030A 		rsb	r10, r10, r3
  75 003c 5FFA8AFA 		uxtb	r10, r10
  76              	.LVL7:
  66:..\..\..\..\..\..\Dev\Library embedded l2c display\u8g2\csrc/u8g2_input_value.c ****   
  67:..\..\..\..\..\..\Dev\Library embedded l2c display\u8g2\csrc/u8g2_input_value.c ****   
  68:..\..\..\..\..\..\Dev\Library embedded l2c display\u8g2\csrc/u8g2_input_value.c ****   /* calculate overall height of the input value box */
  69:..\..\..\..\..\..\Dev\Library embedded l2c display\u8g2\csrc/u8g2_input_value.c ****   height = 1;	/* value input line */
  70:..\..\..\..\..\..\Dev\Library embedded l2c display\u8g2\csrc/u8g2_input_value.c ****   height += u8x8_GetStringLineCnt(title);
  77              		.loc 1 70 0
  78 0040 5846     		mov	r0, fp
  79 0042 FFF7FEFF 		bl	u8x8_GetStringLineCnt
  80              	.LVL8:
  81 0046 0130     		adds	r0, r0, #1
  82              	.LVL9:
  71:..\..\..\..\..\..\Dev\Library embedded l2c display\u8g2\csrc/u8g2_input_value.c **** 
  72:..\..\..\..\..\..\Dev\Library embedded l2c display\u8g2\csrc/u8g2_input_value.c ****   /* calculate the height in pixel */
  73:..\..\..\..\..\..\Dev\Library embedded l2c display\u8g2\csrc/u8g2_input_value.c ****   pixel_height = height;
  83              		.loc 1 73 0
  84 0048 C3B2     		uxtb	r3, r0
  85              	.LVL10:
  74:..\..\..\..\..\..\Dev\Library embedded l2c display\u8g2\csrc/u8g2_input_value.c ****   pixel_height *= line_height;
  86              		.loc 1 74 0
  87 004a 1FFA8AFA 		uxth	r10, r10
  88              	.LVL11:
  89 004e 0AFB03F3 		mul	r3, r10, r3
  90              	.LVL12:
  75:..\..\..\..\..\..\Dev\Library embedded l2c display\u8g2\csrc/u8g2_input_value.c **** 
  76:..\..\..\..\..\..\Dev\Library embedded l2c display\u8g2\csrc/u8g2_input_value.c **** 
  77:..\..\..\..\..\..\Dev\Library embedded l2c display\u8g2\csrc/u8g2_input_value.c ****   /* calculate offset from top */
  78:..\..\..\..\..\..\Dev\Library embedded l2c display\u8g2\csrc/u8g2_input_value.c ****   y = 0;
  79:..\..\..\..\..\..\Dev\Library embedded l2c display\u8g2\csrc/u8g2_input_value.c ****   if ( pixel_height < u8g2_GetDisplayHeight(u8g2)  )
  91              		.loc 1 79 0
  92 0052 B4F84620 		ldrh	r2, [r4, #70]
ARM GAS  C:\Users\Abude\AppData\Local\Temp\ccddliKD.s 			page 4


  93 0056 9342     		cmp	r3, r2
  94 0058 03D2     		bcs	.L13
  95              	.LVL13:
  80:..\..\..\..\..\..\Dev\Library embedded l2c display\u8g2\csrc/u8g2_input_value.c ****   {
  81:..\..\..\..\..\..\Dev\Library embedded l2c display\u8g2\csrc/u8g2_input_value.c ****     y = u8g2_GetDisplayHeight(u8g2);
  82:..\..\..\..\..\..\Dev\Library embedded l2c display\u8g2\csrc/u8g2_input_value.c ****     y -= pixel_height;
  96              		.loc 1 82 0
  97 005a D31A     		subs	r3, r2, r3
  98              	.LVL14:
  83:..\..\..\..\..\..\Dev\Library embedded l2c display\u8g2\csrc/u8g2_input_value.c ****     y /= 2;
  99              		.loc 1 83 0
 100 005c C3F34E08 		ubfx	r8, r3, #1, #15
 101              	.LVL15:
 102 0060 01E0     		b	.L2
 103              	.LVL16:
 104              	.L13:
  78:..\..\..\..\..\..\Dev\Library embedded l2c display\u8g2\csrc/u8g2_input_value.c ****   if ( pixel_height < u8g2_GetDisplayHeight(u8g2)  )
 105              		.loc 1 78 0
 106 0062 4FF00008 		mov	r8, #0
 107              	.LVL17:
 108              	.L2:
  84:..\..\..\..\..\..\Dev\Library embedded l2c display\u8g2\csrc/u8g2_input_value.c ****   }
  85:..\..\..\..\..\..\Dev\Library embedded l2c display\u8g2\csrc/u8g2_input_value.c ****   
  86:..\..\..\..\..\..\Dev\Library embedded l2c display\u8g2\csrc/u8g2_input_value.c ****   /* calculate offset from left for the label */
  87:..\..\..\..\..\..\Dev\Library embedded l2c display\u8g2\csrc/u8g2_input_value.c ****   x = 0;
  88:..\..\..\..\..\..\Dev\Library embedded l2c display\u8g2\csrc/u8g2_input_value.c ****   pixel_width = u8g2_GetUTF8Width(u8g2, pre);
 109              		.loc 1 88 0
 110 0066 0399     		ldr	r1, [sp, #12]
 111 0068 2046     		mov	r0, r4
 112              	.LVL18:
 113 006a FFF7FEFF 		bl	u8g2_GetUTF8Width
 114              	.LVL19:
 115 006e 0546     		mov	r5, r0
 116              	.LVL20:
  89:..\..\..\..\..\..\Dev\Library embedded l2c display\u8g2\csrc/u8g2_input_value.c ****   pixel_width += u8g2_GetUTF8Width(u8g2, "0") * digits;
 117              		.loc 1 89 0
 118 0070 3949     		ldr	r1, .L19
 119 0072 2046     		mov	r0, r4
 120 0074 FFF7FEFF 		bl	u8g2_GetUTF8Width
 121              	.LVL21:
 122 0078 049B     		ldr	r3, [sp, #16]
 123 007a 03FB0050 		mla	r0, r3, r0, r5
 124 007e 85B2     		uxth	r5, r0
 125              	.LVL22:
  90:..\..\..\..\..\..\Dev\Library embedded l2c display\u8g2\csrc/u8g2_input_value.c ****   pixel_width += u8g2_GetUTF8Width(u8g2, post);
 126              		.loc 1 90 0
 127 0080 1599     		ldr	r1, [sp, #84]
 128 0082 2046     		mov	r0, r4
 129 0084 FFF7FEFF 		bl	u8g2_GetUTF8Width
 130              	.LVL23:
 131 0088 2844     		add	r0, r0, r5
 132 008a 80B2     		uxth	r0, r0
 133              	.LVL24:
  91:..\..\..\..\..\..\Dev\Library embedded l2c display\u8g2\csrc/u8g2_input_value.c ****   if ( pixel_width < u8g2_GetDisplayWidth(u8g2) )
 134              		.loc 1 91 0
 135 008c B4F84430 		ldrh	r3, [r4, #68]
 136 0090 9842     		cmp	r0, r3
ARM GAS  C:\Users\Abude\AppData\Local\Temp\ccddliKD.s 			page 5


 137 0092 03D2     		bcs	.L14
 138              	.LVL25:
  92:..\..\..\..\..\..\Dev\Library embedded l2c display\u8g2\csrc/u8g2_input_value.c ****   {
  93:..\..\..\..\..\..\Dev\Library embedded l2c display\u8g2\csrc/u8g2_input_value.c ****     x = u8g2_GetDisplayWidth(u8g2);
  94:..\..\..\..\..\..\Dev\Library embedded l2c display\u8g2\csrc/u8g2_input_value.c ****     x -= pixel_width;
 139              		.loc 1 94 0
 140 0094 1B1A     		subs	r3, r3, r0
 141              	.LVL26:
  95:..\..\..\..\..\..\Dev\Library embedded l2c display\u8g2\csrc/u8g2_input_value.c ****     x /= 2;
 142              		.loc 1 95 0
 143 0096 C3F34E07 		ubfx	r7, r3, #1, #15
 144              	.LVL27:
 145 009a 06E0     		b	.L4
 146              	.LVL28:
 147              	.L14:
  87:..\..\..\..\..\..\Dev\Library embedded l2c display\u8g2\csrc/u8g2_input_value.c ****   pixel_width = u8g2_GetUTF8Width(u8g2, pre);
 148              		.loc 1 87 0
 149 009c 0027     		movs	r7, #0
 150 009e 04E0     		b	.L4
 151              	.LVL29:
 152              	.L15:
  96:..\..\..\..\..\..\Dev\Library embedded l2c display\u8g2\csrc/u8g2_input_value.c ****   }
  97:..\..\..\..\..\..\Dev\Library embedded l2c display\u8g2\csrc/u8g2_input_value.c ****   
  98:..\..\..\..\..\..\Dev\Library embedded l2c display\u8g2\csrc/u8g2_input_value.c ****   /* event loop */
  99:..\..\..\..\..\..\Dev\Library embedded l2c display\u8g2\csrc/u8g2_input_value.c ****   for(;;)
 100:..\..\..\..\..\..\Dev\Library embedded l2c display\u8g2\csrc/u8g2_input_value.c ****   {
 101:..\..\..\..\..\..\Dev\Library embedded l2c display\u8g2\csrc/u8g2_input_value.c ****     u8g2_FirstPage(u8g2);
 102:..\..\..\..\..\..\Dev\Library embedded l2c display\u8g2\csrc/u8g2_input_value.c ****     do
 103:..\..\..\..\..\..\Dev\Library embedded l2c display\u8g2\csrc/u8g2_input_value.c ****     {
 104:..\..\..\..\..\..\Dev\Library embedded l2c display\u8g2\csrc/u8g2_input_value.c ****       /* render */
 105:..\..\..\..\..\..\Dev\Library embedded l2c display\u8g2\csrc/u8g2_input_value.c ****       yy = y;
 106:..\..\..\..\..\..\Dev\Library embedded l2c display\u8g2\csrc/u8g2_input_value.c ****       yy += u8g2_DrawUTF8Lines(u8g2, 0, yy, u8g2_GetDisplayWidth(u8g2), line_height, title);
 107:..\..\..\..\..\..\Dev\Library embedded l2c display\u8g2\csrc/u8g2_input_value.c ****       xx = x;
 108:..\..\..\..\..\..\Dev\Library embedded l2c display\u8g2\csrc/u8g2_input_value.c ****       xx += u8g2_DrawUTF8(u8g2, xx, yy, pre);
 109:..\..\..\..\..\..\Dev\Library embedded l2c display\u8g2\csrc/u8g2_input_value.c ****       xx += u8g2_DrawUTF8(u8g2, xx, yy, u8x8_u8toa(local_value, digits));
 110:..\..\..\..\..\..\Dev\Library embedded l2c display\u8g2\csrc/u8g2_input_value.c ****       u8g2_DrawUTF8(u8g2, xx, yy, post);
 111:..\..\..\..\..\..\Dev\Library embedded l2c display\u8g2\csrc/u8g2_input_value.c ****     } while( u8g2_NextPage(u8g2) );
 112:..\..\..\..\..\..\Dev\Library embedded l2c display\u8g2\csrc/u8g2_input_value.c ****     
 113:..\..\..\..\..\..\Dev\Library embedded l2c display\u8g2\csrc/u8g2_input_value.c **** #ifdef U8G2_REF_MAN_PIC
 114:..\..\..\..\..\..\Dev\Library embedded l2c display\u8g2\csrc/u8g2_input_value.c ****       return 0;
 115:..\..\..\..\..\..\Dev\Library embedded l2c display\u8g2\csrc/u8g2_input_value.c **** #endif
 116:..\..\..\..\..\..\Dev\Library embedded l2c display\u8g2\csrc/u8g2_input_value.c ****     
 117:..\..\..\..\..\..\Dev\Library embedded l2c display\u8g2\csrc/u8g2_input_value.c ****     for(;;)
 118:..\..\..\..\..\..\Dev\Library embedded l2c display\u8g2\csrc/u8g2_input_value.c ****     {
 119:..\..\..\..\..\..\Dev\Library embedded l2c display\u8g2\csrc/u8g2_input_value.c ****       event = u8x8_GetMenuEvent(u8g2_GetU8x8(u8g2));
 120:..\..\..\..\..\..\Dev\Library embedded l2c display\u8g2\csrc/u8g2_input_value.c ****       if ( event == U8X8_MSG_GPIO_MENU_SELECT )
 121:..\..\..\..\..\..\Dev\Library embedded l2c display\u8g2\csrc/u8g2_input_value.c ****       {
 122:..\..\..\..\..\..\Dev\Library embedded l2c display\u8g2\csrc/u8g2_input_value.c **** 	*value = local_value;
 123:..\..\..\..\..\..\Dev\Library embedded l2c display\u8g2\csrc/u8g2_input_value.c **** 	return 1;
 124:..\..\..\..\..\..\Dev\Library embedded l2c display\u8g2\csrc/u8g2_input_value.c ****       }
 125:..\..\..\..\..\..\Dev\Library embedded l2c display\u8g2\csrc/u8g2_input_value.c ****       else if ( event == U8X8_MSG_GPIO_MENU_HOME )
 126:..\..\..\..\..\..\Dev\Library embedded l2c display\u8g2\csrc/u8g2_input_value.c ****       {
 127:..\..\..\..\..\..\Dev\Library embedded l2c display\u8g2\csrc/u8g2_input_value.c **** 	return 0;
 128:..\..\..\..\..\..\Dev\Library embedded l2c display\u8g2\csrc/u8g2_input_value.c ****       }
 129:..\..\..\..\..\..\Dev\Library embedded l2c display\u8g2\csrc/u8g2_input_value.c ****       else if ( event == U8X8_MSG_GPIO_MENU_NEXT || event == U8X8_MSG_GPIO_MENU_UP )
 130:..\..\..\..\..\..\Dev\Library embedded l2c display\u8g2\csrc/u8g2_input_value.c ****       {
 131:..\..\..\..\..\..\Dev\Library embedded l2c display\u8g2\csrc/u8g2_input_value.c **** 	if ( local_value >= hi )
ARM GAS  C:\Users\Abude\AppData\Local\Temp\ccddliKD.s 			page 6


 132:..\..\..\..\..\..\Dev\Library embedded l2c display\u8g2\csrc/u8g2_input_value.c **** 	  local_value = lo;
 153              		.loc 1 132 0
 154 00a0 DDF81890 		ldr	r9, [sp, #24]
 155              	.LVL30:
 156 00a4 01E0     		b	.L4
 157              	.LVL31:
 158              	.L16:
 133:..\..\..\..\..\..\Dev\Library embedded l2c display\u8g2\csrc/u8g2_input_value.c **** 	else
 134:..\..\..\..\..\..\Dev\Library embedded l2c display\u8g2\csrc/u8g2_input_value.c **** 	  local_value++;
 135:..\..\..\..\..\..\Dev\Library embedded l2c display\u8g2\csrc/u8g2_input_value.c **** 	break;
 136:..\..\..\..\..\..\Dev\Library embedded l2c display\u8g2\csrc/u8g2_input_value.c ****       }
 137:..\..\..\..\..\..\Dev\Library embedded l2c display\u8g2\csrc/u8g2_input_value.c ****       else if ( event == U8X8_MSG_GPIO_MENU_PREV || event == U8X8_MSG_GPIO_MENU_DOWN )
 138:..\..\..\..\..\..\Dev\Library embedded l2c display\u8g2\csrc/u8g2_input_value.c ****       {
 139:..\..\..\..\..\..\Dev\Library embedded l2c display\u8g2\csrc/u8g2_input_value.c **** 	if ( local_value <= lo )
 140:..\..\..\..\..\..\Dev\Library embedded l2c display\u8g2\csrc/u8g2_input_value.c **** 	  local_value = hi;
 159              		.loc 1 140 0
 160 00a6 DDF81490 		ldr	r9, [sp, #20]
 161              	.LVL32:
 162              	.L4:
 101:..\..\..\..\..\..\Dev\Library embedded l2c display\u8g2\csrc/u8g2_input_value.c ****     do
 163              		.loc 1 101 0
 164 00aa 2046     		mov	r0, r4
 165 00ac FFF7FEFF 		bl	u8g2_FirstPage
 166              	.LVL33:
 167              	.L5:
 106:..\..\..\..\..\..\Dev\Library embedded l2c display\u8g2\csrc/u8g2_input_value.c ****       xx = x;
 168              		.loc 1 106 0 discriminator 1
 169 00b0 B4F84430 		ldrh	r3, [r4, #68]
 170 00b4 CDF804B0 		str	fp, [sp, #4]
 171 00b8 CDF800A0 		str	r10, [sp]
 172 00bc 4246     		mov	r2, r8
 173 00be 0021     		movs	r1, #0
 174 00c0 2046     		mov	r0, r4
 175 00c2 FFF7FEFF 		bl	u8g2_DrawUTF8Lines
 176              	.LVL34:
 177 00c6 4044     		add	r0, r0, r8
 178 00c8 86B2     		uxth	r6, r0
 179              	.LVL35:
 108:..\..\..\..\..\..\Dev\Library embedded l2c display\u8g2\csrc/u8g2_input_value.c ****       xx += u8g2_DrawUTF8(u8g2, xx, yy, u8x8_u8toa(local_value, digits));
 180              		.loc 1 108 0 discriminator 1
 181 00ca 039B     		ldr	r3, [sp, #12]
 182 00cc 3246     		mov	r2, r6
 183 00ce 3946     		mov	r1, r7
 184 00d0 2046     		mov	r0, r4
 185 00d2 FFF7FEFF 		bl	u8g2_DrawUTF8
 186              	.LVL36:
 187 00d6 3844     		add	r0, r0, r7
 188 00d8 85B2     		uxth	r5, r0
 189              	.LVL37:
 109:..\..\..\..\..\..\Dev\Library embedded l2c display\u8g2\csrc/u8g2_input_value.c ****       u8g2_DrawUTF8(u8g2, xx, yy, post);
 190              		.loc 1 109 0 discriminator 1
 191 00da 0499     		ldr	r1, [sp, #16]
 192 00dc 4846     		mov	r0, r9
 193 00de FFF7FEFF 		bl	u8x8_u8toa
 194              	.LVL38:
 195 00e2 0346     		mov	r3, r0
 196 00e4 3246     		mov	r2, r6
ARM GAS  C:\Users\Abude\AppData\Local\Temp\ccddliKD.s 			page 7


 197 00e6 2946     		mov	r1, r5
 198 00e8 2046     		mov	r0, r4
 199 00ea FFF7FEFF 		bl	u8g2_DrawUTF8
 200              	.LVL39:
 201 00ee 2844     		add	r0, r0, r5
 202              	.LVL40:
 110:..\..\..\..\..\..\Dev\Library embedded l2c display\u8g2\csrc/u8g2_input_value.c ****     } while( u8g2_NextPage(u8g2) );
 203              		.loc 1 110 0 discriminator 1
 204 00f0 159B     		ldr	r3, [sp, #84]
 205 00f2 3246     		mov	r2, r6
 206 00f4 81B2     		uxth	r1, r0
 207 00f6 2046     		mov	r0, r4
 208              	.LVL41:
 209 00f8 FFF7FEFF 		bl	u8g2_DrawUTF8
 210              	.LVL42:
 111:..\..\..\..\..\..\Dev\Library embedded l2c display\u8g2\csrc/u8g2_input_value.c ****     
 211              		.loc 1 111 0 discriminator 1
 212 00fc 2046     		mov	r0, r4
 213 00fe FFF7FEFF 		bl	u8g2_NextPage
 214              	.LVL43:
 215 0102 0546     		mov	r5, r0
 216 0104 0028     		cmp	r0, #0
 217 0106 D3D1     		bne	.L5
 218              	.L12:
 119:..\..\..\..\..\..\Dev\Library embedded l2c display\u8g2\csrc/u8g2_input_value.c ****       if ( event == U8X8_MSG_GPIO_MENU_SELECT )
 219              		.loc 1 119 0
 220 0108 2046     		mov	r0, r4
 221 010a FFF7FEFF 		bl	u8x8_GetMenuEvent
 222              	.LVL44:
 120:..\..\..\..\..\..\Dev\Library embedded l2c display\u8g2\csrc/u8g2_input_value.c ****       {
 223              		.loc 1 120 0
 224 010e 5028     		cmp	r0, #80
 225 0110 04D1     		bne	.L6
 122:..\..\..\..\..\..\Dev\Library embedded l2c display\u8g2\csrc/u8g2_input_value.c **** 	return 1;
 226              		.loc 1 122 0
 227 0112 079B     		ldr	r3, [sp, #28]
 228 0114 83F80090 		strb	r9, [r3]
 123:..\..\..\..\..\..\Dev\Library embedded l2c display\u8g2\csrc/u8g2_input_value.c ****       }
 229              		.loc 1 123 0
 230 0118 0125     		movs	r5, #1
 231 011a 19E0     		b	.L7
 232              	.L6:
 125:..\..\..\..\..\..\Dev\Library embedded l2c display\u8g2\csrc/u8g2_input_value.c ****       {
 233              		.loc 1 125 0
 234 011c 5328     		cmp	r0, #83
 235 011e 17D0     		beq	.L7
 129:..\..\..\..\..\..\Dev\Library embedded l2c display\u8g2\csrc/u8g2_input_value.c ****       {
 236              		.loc 1 129 0
 237 0120 5128     		cmp	r0, #81
 238 0122 01D0     		beq	.L8
 129:..\..\..\..\..\..\Dev\Library embedded l2c display\u8g2\csrc/u8g2_input_value.c ****       {
 239              		.loc 1 129 0 is_stmt 0 discriminator 1
 240 0124 5428     		cmp	r0, #84
 241 0126 07D1     		bne	.L9
 242              	.L8:
 131:..\..\..\..\..\..\Dev\Library embedded l2c display\u8g2\csrc/u8g2_input_value.c **** 	  local_value = lo;
 243              		.loc 1 131 0 is_stmt 1
ARM GAS  C:\Users\Abude\AppData\Local\Temp\ccddliKD.s 			page 8


 244 0128 059B     		ldr	r3, [sp, #20]
 245 012a 9945     		cmp	r9, r3
 246 012c B8D2     		bcs	.L15
 134:..\..\..\..\..\..\Dev\Library embedded l2c display\u8g2\csrc/u8g2_input_value.c **** 	break;
 247              		.loc 1 134 0
 248 012e 09F10109 		add	r9, r9, #1
 249              	.LVL45:
 250 0132 5FFA89F9 		uxtb	r9, r9
 251              	.LVL46:
 252 0136 B8E7     		b	.L4
 253              	.L9:
 137:..\..\..\..\..\..\Dev\Library embedded l2c display\u8g2\csrc/u8g2_input_value.c ****       {
 254              		.loc 1 137 0
 255 0138 5228     		cmp	r0, #82
 256 013a 01D0     		beq	.L11
 137:..\..\..\..\..\..\Dev\Library embedded l2c display\u8g2\csrc/u8g2_input_value.c ****       {
 257              		.loc 1 137 0 is_stmt 0 discriminator 1
 258 013c 5528     		cmp	r0, #85
 259 013e E3D1     		bne	.L12
 260              	.L11:
 139:..\..\..\..\..\..\Dev\Library embedded l2c display\u8g2\csrc/u8g2_input_value.c **** 	  local_value = hi;
 261              		.loc 1 139 0 is_stmt 1
 262 0140 069B     		ldr	r3, [sp, #24]
 263 0142 9945     		cmp	r9, r3
 264 0144 AFD9     		bls	.L16
 141:..\..\..\..\..\..\Dev\Library embedded l2c display\u8g2\csrc/u8g2_input_value.c **** 	else
 142:..\..\..\..\..\..\Dev\Library embedded l2c display\u8g2\csrc/u8g2_input_value.c **** 	  local_value--;
 265              		.loc 1 142 0
 266 0146 09F1FF39 		add	r9, r9, #-1
 267              	.LVL47:
 268 014a 5FFA89F9 		uxtb	r9, r9
 269              	.LVL48:
 270 014e ACE7     		b	.L4
 271              	.L7:
 143:..\..\..\..\..\..\Dev\Library embedded l2c display\u8g2\csrc/u8g2_input_value.c **** 	break;
 144:..\..\..\..\..\..\Dev\Library embedded l2c display\u8g2\csrc/u8g2_input_value.c ****       }        
 145:..\..\..\..\..\..\Dev\Library embedded l2c display\u8g2\csrc/u8g2_input_value.c ****     }
 146:..\..\..\..\..\..\Dev\Library embedded l2c display\u8g2\csrc/u8g2_input_value.c ****   }
 147:..\..\..\..\..\..\Dev\Library embedded l2c display\u8g2\csrc/u8g2_input_value.c ****   
 148:..\..\..\..\..\..\Dev\Library embedded l2c display\u8g2\csrc/u8g2_input_value.c ****   /* never reached */
 149:..\..\..\..\..\..\Dev\Library embedded l2c display\u8g2\csrc/u8g2_input_value.c ****   //return r;  
 150:..\..\..\..\..\..\Dev\Library embedded l2c display\u8g2\csrc/u8g2_input_value.c **** }
 272              		.loc 1 150 0
 273 0150 2846     		mov	r0, r5
 274              	.LVL49:
 275 0152 09B0     		add	sp, sp, #36
 276              		.cfi_def_cfa_offset 36
 277              		@ sp needed
 278 0154 BDE8F08F 		pop	{r4, r5, r6, r7, r8, r9, r10, fp, pc}
 279              	.LVL50:
 280              	.L20:
 281              		.align	2
 282              	.L19:
 283 0158 00000000 		.word	.LC0
 284              		.cfi_endproc
 285              	.LFE0:
 286              		.size	u8g2_UserInterfaceInputValue, .-u8g2_UserInterfaceInputValue
ARM GAS  C:\Users\Abude\AppData\Local\Temp\ccddliKD.s 			page 9


 287              		.section	.rodata.str1.4,"aMS",%progbits,1
 288              		.align	2
 289              	.LC0:
 290 0000 3000     		.ascii	"0\000"
 291              		.text
 292              	.Letext0:
 293              		.file 2 "c:\\program files (x86)\\cypress\\psoc creator\\4.4\\psoc creator\\import\\gnu\\arm\\5.4.
 294              		.file 3 "c:\\program files (x86)\\cypress\\psoc creator\\4.4\\psoc creator\\import\\gnu\\arm\\5.4.
 295              		.file 4 "c:\\dev\\library embedded l2c display\\u8g2\\csrc\\u8x8.h"
 296              		.file 5 "c:\\dev\\library embedded l2c display\\u8g2\\csrc\\u8g2.h"