ARM GAS  C:\Users\Abude\AppData\Local\Temp\ccKYFDPN.s 			page 1


   1              		.syntax unified
   2              		.cpu cortex-m3
   3              		.fpu softvfp
   4              		.eabi_attribute 20, 1
   5              		.eabi_attribute 21, 1
   6              		.eabi_attribute 23, 3
   7              		.eabi_attribute 24, 1
   8              		.eabi_attribute 25, 1
   9              		.eabi_attribute 26, 1
  10              		.eabi_attribute 30, 1
  11              		.eabi_attribute 34, 1
  12              		.eabi_attribute 18, 4
  13              		.thumb
  14              		.syntax unified
  15              		.file	"u8log_u8g2.c"
  16              		.text
  17              	.Ltext0:
  18              		.cfi_sections	.debug_frame
  19              		.section	.text.u8g2_DrawLog,"ax",%progbits
  20              		.align	2
  21              		.global	u8g2_DrawLog
  22              		.thumb
  23              		.thumb_func
  24              		.type	u8g2_DrawLog, %function
  25              	u8g2_DrawLog:
  26              	.LFB0:
  27              		.file 1 "..\\..\\..\\..\\..\\..\\Dev\\Library embedded l2c display\\u8g2\\csrc\\u8log_u8g2.c"
   1:..\..\..\..\..\..\Dev\Library embedded l2c display\u8g2\csrc/u8log_u8g2.c **** /*
   2:..\..\..\..\..\..\Dev\Library embedded l2c display\u8g2\csrc/u8log_u8g2.c **** 
   3:..\..\..\..\..\..\Dev\Library embedded l2c display\u8g2\csrc/u8log_u8g2.c ****   u8log_u8g2.c
   4:..\..\..\..\..\..\Dev\Library embedded l2c display\u8g2\csrc/u8log_u8g2.c ****   
   5:..\..\..\..\..\..\Dev\Library embedded l2c display\u8g2\csrc/u8log_u8g2.c **** 
   6:..\..\..\..\..\..\Dev\Library embedded l2c display\u8g2\csrc/u8log_u8g2.c ****   Universal 8bit Graphics Library (https://github.com/olikraus/u8g2/)
   7:..\..\..\..\..\..\Dev\Library embedded l2c display\u8g2\csrc/u8log_u8g2.c **** 
   8:..\..\..\..\..\..\Dev\Library embedded l2c display\u8g2\csrc/u8log_u8g2.c ****   Copyright (c) 2018, olikraus@gmail.com
   9:..\..\..\..\..\..\Dev\Library embedded l2c display\u8g2\csrc/u8log_u8g2.c ****   All rights reserved.
  10:..\..\..\..\..\..\Dev\Library embedded l2c display\u8g2\csrc/u8log_u8g2.c **** 
  11:..\..\..\..\..\..\Dev\Library embedded l2c display\u8g2\csrc/u8log_u8g2.c ****   Redistribution and use in source and binary forms, with or without modification, 
  12:..\..\..\..\..\..\Dev\Library embedded l2c display\u8g2\csrc/u8log_u8g2.c ****   are permitted provided that the following conditions are met:
  13:..\..\..\..\..\..\Dev\Library embedded l2c display\u8g2\csrc/u8log_u8g2.c **** 
  14:..\..\..\..\..\..\Dev\Library embedded l2c display\u8g2\csrc/u8log_u8g2.c ****   * Redistributions of source code must retain the above copyright notice, this list 
  15:..\..\..\..\..\..\Dev\Library embedded l2c display\u8g2\csrc/u8log_u8g2.c ****     of conditions and the following disclaimer.
  16:..\..\..\..\..\..\Dev\Library embedded l2c display\u8g2\csrc/u8log_u8g2.c ****     
  17:..\..\..\..\..\..\Dev\Library embedded l2c display\u8g2\csrc/u8log_u8g2.c ****   * Redistributions in binary form must reproduce the above copyright notice, this 
  18:..\..\..\..\..\..\Dev\Library embedded l2c display\u8g2\csrc/u8log_u8g2.c ****     list of conditions and the following disclaimer in the documentation and/or other 
  19:..\..\..\..\..\..\Dev\Library embedded l2c display\u8g2\csrc/u8log_u8g2.c ****     materials provided with the distribution.
  20:..\..\..\..\..\..\Dev\Library embedded l2c display\u8g2\csrc/u8log_u8g2.c **** 
  21:..\..\..\..\..\..\Dev\Library embedded l2c display\u8g2\csrc/u8log_u8g2.c ****   THIS SOFTWARE IS PROVIDED BY THE COPYRIGHT HOLDERS AND 
  22:..\..\..\..\..\..\Dev\Library embedded l2c display\u8g2\csrc/u8log_u8g2.c ****   CONTRIBUTORS "AS IS" AND ANY EXPRESS OR IMPLIED WARRANTIES, 
  23:..\..\..\..\..\..\Dev\Library embedded l2c display\u8g2\csrc/u8log_u8g2.c ****   INCLUDING, BUT NOT LIMITED TO, THE IMPLIED WARRANTIES OF 
  24:..\..\..\..\..\..\Dev\Library embedded l2c display\u8g2\csrc/u8log_u8g2.c ****   MERCHANTABILITY AND FITNESS FOR A PARTICULAR PURPOSE ARE 
  25:..\..\..\..\..\..\Dev\Library embedded l2c display\u8g2\csrc/u8log_u8g2.c ****   DISCLAIMED. IN NO EVENT SHALL THE COPYRIGHT HOLDER OR 
  26:..\..\..\..\..\..\Dev\Library embedded l2c display\u8g2\csrc/u8log_u8g2.c ****   CONTRIBUTORS BE LIABLE FOR ANY DIRECT, INDIRECT, INCIDENTAL, 
  27:..\..\..\..\..\..\Dev\Library embedded l2c display\u8g2\csrc/u8log_u8g2.c ****   SPECIAL, EXEMPLARY, OR CONSEQUENTIAL DAMAGES (INCLUDING, BUT 
  28:..\..\..\..\..\..\Dev\Library embedded l2c display\u8g2\csrc/u8log_u8g2.c ****   NOT LIMITED TO, PROCUREMENT OF SUBSTITUTE GOODS OR SERVICES; 
  29:..\..\..\..\..\..\Dev\Library embedded l2c display\u8g2\csrc/u8log_u8g2.c ****   LOSS OF USE, DATA, OR PROFITS; OR BUSINESS INTERRUPTION) HOWEVER 
  30:..\..\..\..\..\..\Dev\Library embedded l2c display\u8g2\csrc/u8log_u8g2.c ****   CAUSED AND ON ANY THEORY OF LIABILITY, WHETHER IN CONTRACT, 
ARM GAS  C:\Users\Abude\AppData\Local\Temp\ccKYFDPN.s 			page 2


  31:..\..\..\..\..\..\Dev\Library embedded l2c display\u8g2\csrc/u8log_u8g2.c ****   STRICT LIABILITY, OR TORT (INCLUDING NEGLIGENCE OR OTHERWISE) 
  32:..\..\..\..\..\..\Dev\Library embedded l2c display\u8g2\csrc/u8log_u8g2.c ****   ARISING IN ANY WAY OUT OF THE USE OF THIS SOFTWARE, EVEN IF 
  33:..\..\..\..\..\..\Dev\Library embedded l2c display\u8g2\csrc/u8log_u8g2.c ****   ADVISED OF THE POSSIBILITY OF SUCH DAMAGE.  
  34:..\..\..\..\..\..\Dev\Library embedded l2c display\u8g2\csrc/u8log_u8g2.c **** 
  35:..\..\..\..\..\..\Dev\Library embedded l2c display\u8g2\csrc/u8log_u8g2.c **** */
  36:..\..\..\..\..\..\Dev\Library embedded l2c display\u8g2\csrc/u8log_u8g2.c **** 
  37:..\..\..\..\..\..\Dev\Library embedded l2c display\u8g2\csrc/u8log_u8g2.c **** #include "u8g2.h"
  38:..\..\..\..\..\..\Dev\Library embedded l2c display\u8g2\csrc/u8log_u8g2.c **** /*
  39:..\..\..\..\..\..\Dev\Library embedded l2c display\u8g2\csrc/u8log_u8g2.c ****   Draw the u8log text at the specified x/y position.
  40:..\..\..\..\..\..\Dev\Library embedded l2c display\u8g2\csrc/u8log_u8g2.c ****   x/y position is the reference position of the first char of the first line.
  41:..\..\..\..\..\..\Dev\Library embedded l2c display\u8g2\csrc/u8log_u8g2.c ****   the line height is 
  42:..\..\..\..\..\..\Dev\Library embedded l2c display\u8g2\csrc/u8log_u8g2.c ****     u8g2_GetAscent(u8g2) - u8g2_GetDescent(u8g2) + line_height_offset;
  43:..\..\..\..\..\..\Dev\Library embedded l2c display\u8g2\csrc/u8log_u8g2.c ****   line_height_offset can be set with u8log_SetLineHeightOffset()
  44:..\..\..\..\..\..\Dev\Library embedded l2c display\u8g2\csrc/u8log_u8g2.c ****   Use
  45:..\..\..\..\..\..\Dev\Library embedded l2c display\u8g2\csrc/u8log_u8g2.c ****     u8g2_SetFontRefHeightText(u8g2_t *u8g2);
  46:..\..\..\..\..\..\Dev\Library embedded l2c display\u8g2\csrc/u8log_u8g2.c ****     u8g2_SetFontRefHeightExtendedText(u8g2_t *u8g2);
  47:..\..\..\..\..\..\Dev\Library embedded l2c display\u8g2\csrc/u8log_u8g2.c ****     u8g2_SetFontRefHeightAll(u8g2_t *u8g2);
  48:..\..\..\..\..\..\Dev\Library embedded l2c display\u8g2\csrc/u8log_u8g2.c ****   to change the return values for u8g2_GetAscent and u8g2_GetDescent
  49:..\..\..\..\..\..\Dev\Library embedded l2c display\u8g2\csrc/u8log_u8g2.c **** 
  50:..\..\..\..\..\..\Dev\Library embedded l2c display\u8g2\csrc/u8log_u8g2.c **** */
  51:..\..\..\..\..\..\Dev\Library embedded l2c display\u8g2\csrc/u8log_u8g2.c **** void u8g2_DrawLog(u8g2_t *u8g2, u8g2_uint_t x, u8g2_uint_t y, u8log_t *u8log)
  52:..\..\..\..\..\..\Dev\Library embedded l2c display\u8g2\csrc/u8log_u8g2.c **** {
  28              		.loc 1 52 0
  29              		.cfi_startproc
  30              		@ args = 0, pretend = 0, frame = 0
  31              		@ frame_needed = 0, uses_anonymous_args = 0
  32              	.LVL0:
  33 0000 2DE9F047 		push	{r4, r5, r6, r7, r8, r9, r10, lr}
  34              		.cfi_def_cfa_offset 32
  35              		.cfi_offset 4, -32
  36              		.cfi_offset 5, -28
  37              		.cfi_offset 6, -24
  38              		.cfi_offset 7, -20
  39              		.cfi_offset 8, -16
  40              		.cfi_offset 9, -12
  41              		.cfi_offset 10, -8
  42              		.cfi_offset 14, -4
  43 0004 8146     		mov	r9, r0
  44 0006 8A46     		mov	r10, r1
  45 0008 1746     		mov	r7, r2
  46 000a 1E46     		mov	r6, r3
  47              	.LVL1:
  53:..\..\..\..\..\..\Dev\Library embedded l2c display\u8g2\csrc/u8log_u8g2.c ****   u8g2_uint_t disp_x, disp_y;
  54:..\..\..\..\..\..\Dev\Library embedded l2c display\u8g2\csrc/u8log_u8g2.c ****   uint8_t buf_x, buf_y;
  55:..\..\..\..\..\..\Dev\Library embedded l2c display\u8g2\csrc/u8log_u8g2.c ****   uint8_t c;
  56:..\..\..\..\..\..\Dev\Library embedded l2c display\u8g2\csrc/u8log_u8g2.c ****   
  57:..\..\..\..\..\..\Dev\Library embedded l2c display\u8g2\csrc/u8log_u8g2.c ****   disp_y = y;  
  58:..\..\..\..\..\..\Dev\Library embedded l2c display\u8g2\csrc/u8log_u8g2.c ****   u8g2_SetFontDirection(u8g2, 0);
  48              		.loc 1 58 0
  49 000c 0021     		movs	r1, #0
  50              	.LVL2:
  51 000e FFF7FEFF 		bl	u8g2_SetFontDirection
  52              	.LVL3:
  59:..\..\..\..\..\..\Dev\Library embedded l2c display\u8g2\csrc/u8log_u8g2.c ****   for( buf_y = 0; buf_y < u8log->height; buf_y++ )
  53              		.loc 1 59 0
  54 0012 4FF00008 		mov	r8, #0
  55 0016 21E0     		b	.L2
ARM GAS  C:\Users\Abude\AppData\Local\Temp\ccKYFDPN.s 			page 3


  56              	.LVL4:
  57              	.L3:
  60:..\..\..\..\..\..\Dev\Library embedded l2c display\u8g2\csrc/u8log_u8g2.c ****   {
  61:..\..\..\..\..\..\Dev\Library embedded l2c display\u8g2\csrc/u8log_u8g2.c ****     disp_x = x;
  62:..\..\..\..\..\..\Dev\Library embedded l2c display\u8g2\csrc/u8log_u8g2.c ****     for( buf_x = 0; buf_x < u8log->width; buf_x++ )
  63:..\..\..\..\..\..\Dev\Library embedded l2c display\u8g2\csrc/u8log_u8g2.c ****     {
  64:..\..\..\..\..\..\Dev\Library embedded l2c display\u8g2\csrc/u8log_u8g2.c ****       c = u8log->screen_buffer[buf_y * u8log->width + buf_x];
  58              		.loc 1 64 0 discriminator 3
  59 0018 F268     		ldr	r2, [r6, #12]
  60 001a 03FB0843 		mla	r3, r3, r8, r4
  61              	.LVL5:
  65:..\..\..\..\..\..\Dev\Library embedded l2c display\u8g2\csrc/u8log_u8g2.c ****       disp_x += u8g2_DrawGlyph(u8g2, disp_x, disp_y, c);
  62              		.loc 1 65 0 discriminator 3
  63 001e D35C     		ldrb	r3, [r2, r3]	@ zero_extendqisi2
  64              	.LVL6:
  65 0020 3A46     		mov	r2, r7
  66              	.LVL7:
  67 0022 2946     		mov	r1, r5
  68 0024 4846     		mov	r0, r9
  69 0026 FFF7FEFF 		bl	u8g2_DrawGlyph
  70              	.LVL8:
  71 002a 2844     		add	r0, r0, r5
  72 002c 85B2     		uxth	r5, r0
  73              	.LVL9:
  62:..\..\..\..\..\..\Dev\Library embedded l2c display\u8g2\csrc/u8log_u8g2.c ****     {
  74              		.loc 1 62 0 discriminator 3
  75 002e 0134     		adds	r4, r4, #1
  76              	.LVL10:
  77 0030 E4B2     		uxtb	r4, r4
  78              	.LVL11:
  79 0032 01E0     		b	.L4
  80              	.LVL12:
  81              	.L5:
  82 0034 5546     		mov	r5, r10
  83 0036 0024     		movs	r4, #0
  84              	.L4:
  85              	.LVL13:
  62:..\..\..\..\..\..\Dev\Library embedded l2c display\u8g2\csrc/u8log_u8g2.c ****     {
  86              		.loc 1 62 0 is_stmt 0 discriminator 1
  87 0038 3379     		ldrb	r3, [r6, #4]	@ zero_extendqisi2
  88 003a 9C42     		cmp	r4, r3
  89 003c ECD3     		bcc	.L3
  66:..\..\..\..\..\..\Dev\Library embedded l2c display\u8g2\csrc/u8log_u8g2.c ****     }
  67:..\..\..\..\..\..\Dev\Library embedded l2c display\u8g2\csrc/u8log_u8g2.c ****     disp_y += u8g2_GetAscent(u8g2) - u8g2_GetDescent(u8g2);
  90              		.loc 1 67 0 is_stmt 1 discriminator 2
  91 003e 99F98E30 		ldrsb	r3, [r9, #142]
  92 0042 99F98F20 		ldrsb	r2, [r9, #143]
  93 0046 9B1A     		subs	r3, r3, r2
  94 0048 1F44     		add	r7, r7, r3
  95              	.LVL14:
  96 004a BFB2     		uxth	r7, r7
  97              	.LVL15:
  68:..\..\..\..\..\..\Dev\Library embedded l2c display\u8g2\csrc/u8log_u8g2.c ****     disp_y += u8log->line_height_offset;
  98              		.loc 1 68 0 discriminator 2
  99 004c 96F91130 		ldrsb	r3, [r6, #17]
 100 0050 1F44     		add	r7, r7, r3
 101              	.LVL16:
ARM GAS  C:\Users\Abude\AppData\Local\Temp\ccKYFDPN.s 			page 4


 102 0052 BFB2     		uxth	r7, r7
 103              	.LVL17:
  59:..\..\..\..\..\..\Dev\Library embedded l2c display\u8g2\csrc/u8log_u8g2.c ****   {
 104              		.loc 1 59 0 discriminator 2
 105 0054 08F10108 		add	r8, r8, #1
 106              	.LVL18:
 107 0058 5FFA88F8 		uxtb	r8, r8
 108              	.LVL19:
 109              	.L2:
  59:..\..\..\..\..\..\Dev\Library embedded l2c display\u8g2\csrc/u8log_u8g2.c ****   {
 110              		.loc 1 59 0 is_stmt 0 discriminator 1
 111 005c 7379     		ldrb	r3, [r6, #5]	@ zero_extendqisi2
 112 005e 9845     		cmp	r8, r3
 113 0060 E8D3     		bcc	.L5
  69:..\..\..\..\..\..\Dev\Library embedded l2c display\u8g2\csrc/u8log_u8g2.c ****   }
  70:..\..\..\..\..\..\Dev\Library embedded l2c display\u8g2\csrc/u8log_u8g2.c **** }
 114              		.loc 1 70 0 is_stmt 1
 115 0062 BDE8F087 		pop	{r4, r5, r6, r7, r8, r9, r10, pc}
 116              		.cfi_endproc
 117              	.LFE0:
 118              		.size	u8g2_DrawLog, .-u8g2_DrawLog
 119 0066 00BF     		.section	.text.u8log_u8g2_cb,"ax",%progbits
 120              		.align	2
 121              		.global	u8log_u8g2_cb
 122              		.thumb
 123              		.thumb_func
 124              		.type	u8log_u8g2_cb, %function
 125              	u8log_u8g2_cb:
 126              	.LFB1:
  71:..\..\..\..\..\..\Dev\Library embedded l2c display\u8g2\csrc/u8log_u8g2.c **** 
  72:..\..\..\..\..\..\Dev\Library embedded l2c display\u8g2\csrc/u8log_u8g2.c **** /*
  73:..\..\..\..\..\..\Dev\Library embedded l2c display\u8g2\csrc/u8log_u8g2.c ****   u8lib callback for u8g2
  74:..\..\..\..\..\..\Dev\Library embedded l2c display\u8g2\csrc/u8log_u8g2.c ****   
  75:..\..\..\..\..\..\Dev\Library embedded l2c display\u8g2\csrc/u8log_u8g2.c ****   Only font direction 0 is supported: u8g2_SetFontDirection(u8g2, 0)
  76:..\..\..\..\..\..\Dev\Library embedded l2c display\u8g2\csrc/u8log_u8g2.c ****   Use
  77:..\..\..\..\..\..\Dev\Library embedded l2c display\u8g2\csrc/u8log_u8g2.c ****     u8g2_SetFontRefHeightText(u8g2_t *u8g2);
  78:..\..\..\..\..\..\Dev\Library embedded l2c display\u8g2\csrc/u8log_u8g2.c ****     u8g2_SetFontRefHeightExtendedText(u8g2_t *u8g2);
  79:..\..\..\..\..\..\Dev\Library embedded l2c display\u8g2\csrc/u8log_u8g2.c ****     u8g2_SetFontRefHeightAll(u8g2_t *u8g2);
  80:..\..\..\..\..\..\Dev\Library embedded l2c display\u8g2\csrc/u8log_u8g2.c ****   to change the top offset and the line height and
  81:..\..\..\..\..\..\Dev\Library embedded l2c display\u8g2\csrc/u8log_u8g2.c ****     u8log_SetLineHeightOffset(u8log_t *u8log, int8_t line_height_offset)
  82:..\..\..\..\..\..\Dev\Library embedded l2c display\u8g2\csrc/u8log_u8g2.c ****   to change the line height.
  83:..\..\..\..\..\..\Dev\Library embedded l2c display\u8g2\csrc/u8log_u8g2.c ****   
  84:..\..\..\..\..\..\Dev\Library embedded l2c display\u8g2\csrc/u8log_u8g2.c **** */
  85:..\..\..\..\..\..\Dev\Library embedded l2c display\u8g2\csrc/u8log_u8g2.c **** void u8log_u8g2_cb(u8log_t * u8log)
  86:..\..\..\..\..\..\Dev\Library embedded l2c display\u8g2\csrc/u8log_u8g2.c **** {
 127              		.loc 1 86 0
 128              		.cfi_startproc
 129              		@ args = 0, pretend = 0, frame = 0
 130              		@ frame_needed = 0, uses_anonymous_args = 0
 131              	.LVL20:
 132 0000 38B5     		push	{r3, r4, r5, lr}
 133              		.cfi_def_cfa_offset 16
 134              		.cfi_offset 3, -16
 135              		.cfi_offset 4, -12
 136              		.cfi_offset 5, -8
 137              		.cfi_offset 14, -4
  87:..\..\..\..\..\..\Dev\Library embedded l2c display\u8g2\csrc/u8log_u8g2.c ****   u8g2_t *u8g2 = (u8g2_t *)(u8log->aux_data);
ARM GAS  C:\Users\Abude\AppData\Local\Temp\ccKYFDPN.s 			page 5


 138              		.loc 1 87 0
 139 0002 0468     		ldr	r4, [r0]
 140              	.LVL21:
  88:..\..\..\..\..\..\Dev\Library embedded l2c display\u8g2\csrc/u8log_u8g2.c ****   if ( u8log->is_redraw_line || u8log->is_redraw_all )
 141              		.loc 1 88 0
 142 0004 4369     		ldr	r3, [r0, #20]
 143 0006 23F07F43 		bic	r3, r3, #-16777216
 144 000a 23F0FF03 		bic	r3, r3, #255
 145 000e 83B1     		cbz	r3, .L7
 146 0010 0546     		mov	r5, r0
  89:..\..\..\..\..\..\Dev\Library embedded l2c display\u8g2\csrc/u8log_u8g2.c ****   {
  90:..\..\..\..\..\..\Dev\Library embedded l2c display\u8g2\csrc/u8log_u8g2.c ****     u8g2_FirstPage(u8g2);
 147              		.loc 1 90 0
 148 0012 2046     		mov	r0, r4
 149              	.LVL22:
 150 0014 FFF7FEFF 		bl	u8g2_FirstPage
 151              	.LVL23:
 152              	.L9:
  91:..\..\..\..\..\..\Dev\Library embedded l2c display\u8g2\csrc/u8log_u8g2.c ****     do
  92:..\..\..\..\..\..\Dev\Library embedded l2c display\u8g2\csrc/u8log_u8g2.c ****     {
  93:..\..\..\..\..\..\Dev\Library embedded l2c display\u8g2\csrc/u8log_u8g2.c ****       u8g2_DrawLog( u8g2, 0, u8g2_GetAscent(u8g2), u8log);
 153              		.loc 1 93 0 discriminator 1
 154 0018 94F98E20 		ldrsb	r2, [r4, #142]
 155 001c 2B46     		mov	r3, r5
 156 001e 92B2     		uxth	r2, r2
 157 0020 0021     		movs	r1, #0
 158 0022 2046     		mov	r0, r4
 159 0024 FFF7FEFF 		bl	u8g2_DrawLog
 160              	.LVL24:
  94:..\..\..\..\..\..\Dev\Library embedded l2c display\u8g2\csrc/u8log_u8g2.c ****     }
  95:..\..\..\..\..\..\Dev\Library embedded l2c display\u8g2\csrc/u8log_u8g2.c ****     while( u8g2_NextPage(u8g2) );
 161              		.loc 1 95 0 discriminator 1
 162 0028 2046     		mov	r0, r4
 163 002a FFF7FEFF 		bl	u8g2_NextPage
 164              	.LVL25:
 165 002e 0028     		cmp	r0, #0
 166 0030 F2D1     		bne	.L9
 167              	.LVL26:
 168              	.L7:
 169 0032 38BD     		pop	{r3, r4, r5, pc}
 170              		.cfi_endproc
 171              	.LFE1:
 172              		.size	u8log_u8g2_cb, .-u8log_u8g2_cb
 173              		.text
 174              	.Letext0:
 175              		.file 2 "c:\\program files (x86)\\cypress\\psoc creator\\4.4\\psoc creator\\import\\gnu\\arm\\5.4.
 176              		.file 3 "c:\\program files (x86)\\cypress\\psoc creator\\4.4\\psoc creator\\import\\gnu\\arm\\5.4.
 177              		.file 4 "c:\\dev\\library embedded l2c display\\u8g2\\csrc\\u8x8.h"
 178              		.file 5 "c:\\dev\\library embedded l2c display\\u8g2\\csrc\\u8g2.h"