ARM GAS  C:\Users\Abude\AppData\Local\Temp\cckVII6I.s 			page 1


   1              		.syntax unified
   2              		.cpu cortex-m3
   3              		.fpu softvfp
   4              		.eabi_attribute 20, 1
   5              		.eabi_attribute 21, 1
   6              		.eabi_attribute 23, 3
   7              		.eabi_attribute 24, 1
   8              		.eabi_attribute 25, 1
   9              		.eabi_attribute 26, 1
  10              		.eabi_attribute 30, 1
  11              		.eabi_attribute 34, 1
  12              		.eabi_attribute 18, 4
  13              		.thumb
  14              		.syntax unified
  15              		.file	"u8log_u8x8.c"
  16              		.text
  17              	.Ltext0:
  18              		.cfi_sections	.debug_frame
  19              		.section	.text.u8x8_DrawLogLine,"ax",%progbits
  20              		.align	2
  21              		.thumb
  22              		.thumb_func
  23              		.type	u8x8_DrawLogLine, %function
  24              	u8x8_DrawLogLine:
  25              	.LFB0:
  26              		.file 1 "..\\..\\..\\..\\..\\..\\Dev\\Library embedded l2c display\\u8g2\\csrc\\u8log_u8x8.c"
   1:..\..\..\..\..\..\Dev\Library embedded l2c display\u8g2\csrc/u8log_u8x8.c **** /*
   2:..\..\..\..\..\..\Dev\Library embedded l2c display\u8g2\csrc/u8log_u8x8.c **** 
   3:..\..\..\..\..\..\Dev\Library embedded l2c display\u8g2\csrc/u8log_u8x8.c ****   u8log_u8x8.c
   4:..\..\..\..\..\..\Dev\Library embedded l2c display\u8g2\csrc/u8log_u8x8.c ****   
   5:..\..\..\..\..\..\Dev\Library embedded l2c display\u8g2\csrc/u8log_u8x8.c **** 
   6:..\..\..\..\..\..\Dev\Library embedded l2c display\u8g2\csrc/u8log_u8x8.c ****   Universal 8bit Graphics Library (https://github.com/olikraus/u8g2/)
   7:..\..\..\..\..\..\Dev\Library embedded l2c display\u8g2\csrc/u8log_u8x8.c **** 
   8:..\..\..\..\..\..\Dev\Library embedded l2c display\u8g2\csrc/u8log_u8x8.c ****   Copyright (c) 2018, olikraus@gmail.com
   9:..\..\..\..\..\..\Dev\Library embedded l2c display\u8g2\csrc/u8log_u8x8.c ****   All rights reserved.
  10:..\..\..\..\..\..\Dev\Library embedded l2c display\u8g2\csrc/u8log_u8x8.c **** 
  11:..\..\..\..\..\..\Dev\Library embedded l2c display\u8g2\csrc/u8log_u8x8.c ****   Redistribution and use in source and binary forms, with or without modification, 
  12:..\..\..\..\..\..\Dev\Library embedded l2c display\u8g2\csrc/u8log_u8x8.c ****   are permitted provided that the following conditions are met:
  13:..\..\..\..\..\..\Dev\Library embedded l2c display\u8g2\csrc/u8log_u8x8.c **** 
  14:..\..\..\..\..\..\Dev\Library embedded l2c display\u8g2\csrc/u8log_u8x8.c ****   * Redistributions of source code must retain the above copyright notice, this list 
  15:..\..\..\..\..\..\Dev\Library embedded l2c display\u8g2\csrc/u8log_u8x8.c ****     of conditions and the following disclaimer.
  16:..\..\..\..\..\..\Dev\Library embedded l2c display\u8g2\csrc/u8log_u8x8.c ****     
  17:..\..\..\..\..\..\Dev\Library embedded l2c display\u8g2\csrc/u8log_u8x8.c ****   * Redistributions in binary form must reproduce the above copyright notice, this 
  18:..\..\..\..\..\..\Dev\Library embedded l2c display\u8g2\csrc/u8log_u8x8.c ****     list of conditions and the following disclaimer in the documentation and/or other 
  19:..\..\..\..\..\..\Dev\Library embedded l2c display\u8g2\csrc/u8log_u8x8.c ****     materials provided with the distribution.
  20:..\..\..\..\..\..\Dev\Library embedded l2c display\u8g2\csrc/u8log_u8x8.c **** 
  21:..\..\..\..\..\..\Dev\Library embedded l2c display\u8g2\csrc/u8log_u8x8.c ****   THIS SOFTWARE IS PROVIDED BY THE COPYRIGHT HOLDERS AND 
  22:..\..\..\..\..\..\Dev\Library embedded l2c display\u8g2\csrc/u8log_u8x8.c ****   CONTRIBUTORS "AS IS" AND ANY EXPRESS OR IMPLIED WARRANTIES, 
  23:..\..\..\..\..\..\Dev\Library embedded l2c display\u8g2\csrc/u8log_u8x8.c ****   INCLUDING, BUT NOT LIMITED TO, THE IMPLIED WARRANTIES OF 
  24:..\..\..\..\..\..\Dev\Library embedded l2c display\u8g2\csrc/u8log_u8x8.c ****   MERCHANTABILITY AND FITNESS FOR A PARTICULAR PURPOSE ARE 
  25:..\..\..\..\..\..\Dev\Library embedded l2c display\u8g2\csrc/u8log_u8x8.c ****   DISCLAIMED. IN NO EVENT SHALL THE COPYRIGHT HOLDER OR 
  26:..\..\..\..\..\..\Dev\Library embedded l2c display\u8g2\csrc/u8log_u8x8.c ****   CONTRIBUTORS BE LIABLE FOR ANY DIRECT, INDIRECT, INCIDENTAL, 
  27:..\..\..\..\..\..\Dev\Library embedded l2c display\u8g2\csrc/u8log_u8x8.c ****   SPECIAL, EXEMPLARY, OR CONSEQUENTIAL DAMAGES (INCLUDING, BUT 
  28:..\..\..\..\..\..\Dev\Library embedded l2c display\u8g2\csrc/u8log_u8x8.c ****   NOT LIMITED TO, PROCUREMENT OF SUBSTITUTE GOODS OR SERVICES; 
  29:..\..\..\..\..\..\Dev\Library embedded l2c display\u8g2\csrc/u8log_u8x8.c ****   LOSS OF USE, DATA, OR PROFITS; OR BUSINESS INTERRUPTION) HOWEVER 
  30:..\..\..\..\..\..\Dev\Library embedded l2c display\u8g2\csrc/u8log_u8x8.c ****   CAUSED AND ON ANY THEORY OF LIABILITY, WHETHER IN CONTRACT, 
  31:..\..\..\..\..\..\Dev\Library embedded l2c display\u8g2\csrc/u8log_u8x8.c ****   STRICT LIABILITY, OR TORT (INCLUDING NEGLIGENCE OR OTHERWISE) 
ARM GAS  C:\Users\Abude\AppData\Local\Temp\cckVII6I.s 			page 2


  32:..\..\..\..\..\..\Dev\Library embedded l2c display\u8g2\csrc/u8log_u8x8.c ****   ARISING IN ANY WAY OUT OF THE USE OF THIS SOFTWARE, EVEN IF 
  33:..\..\..\..\..\..\Dev\Library embedded l2c display\u8g2\csrc/u8log_u8x8.c ****   ADVISED OF THE POSSIBILITY OF SUCH DAMAGE.  
  34:..\..\..\..\..\..\Dev\Library embedded l2c display\u8g2\csrc/u8log_u8x8.c **** 
  35:..\..\..\..\..\..\Dev\Library embedded l2c display\u8g2\csrc/u8log_u8x8.c **** */
  36:..\..\..\..\..\..\Dev\Library embedded l2c display\u8g2\csrc/u8log_u8x8.c **** 
  37:..\..\..\..\..\..\Dev\Library embedded l2c display\u8g2\csrc/u8log_u8x8.c **** #include "u8x8.h"
  38:..\..\..\..\..\..\Dev\Library embedded l2c display\u8g2\csrc/u8log_u8x8.c **** 
  39:..\..\..\..\..\..\Dev\Library embedded l2c display\u8g2\csrc/u8log_u8x8.c **** static void u8x8_DrawLogLine(u8x8_t *u8x8, uint8_t disp_x, uint8_t disp_y, uint8_t buf_y, u8log_t *
  40:..\..\..\..\..\..\Dev\Library embedded l2c display\u8g2\csrc/u8log_u8x8.c **** static void u8x8_DrawLogLine(u8x8_t *u8x8, uint8_t disp_x, uint8_t disp_y, uint8_t buf_y, u8log_t *
  41:..\..\..\..\..\..\Dev\Library embedded l2c display\u8g2\csrc/u8log_u8x8.c **** {
  27              		.loc 1 41 0
  28              		.cfi_startproc
  29              		@ args = 4, pretend = 0, frame = 0
  30              		@ frame_needed = 0, uses_anonymous_args = 0
  31              	.LVL0:
  32 0000 2DE9F843 		push	{r3, r4, r5, r6, r7, r8, r9, lr}
  33              		.cfi_def_cfa_offset 32
  34              		.cfi_offset 3, -32
  35              		.cfi_offset 4, -28
  36              		.cfi_offset 5, -24
  37              		.cfi_offset 6, -20
  38              		.cfi_offset 7, -16
  39              		.cfi_offset 8, -12
  40              		.cfi_offset 9, -8
  41              		.cfi_offset 14, -4
  42 0004 8146     		mov	r9, r0
  43 0006 0D46     		mov	r5, r1
  44 0008 9046     		mov	r8, r2
  45 000a 1F46     		mov	r7, r3
  46 000c 089E     		ldr	r6, [sp, #32]
  47              	.LVL1:
  42:..\..\..\..\..\..\Dev\Library embedded l2c display\u8g2\csrc/u8log_u8x8.c ****   uint8_t buf_x;
  43:..\..\..\..\..\..\Dev\Library embedded l2c display\u8g2\csrc/u8log_u8x8.c ****   uint8_t c;
  44:..\..\..\..\..\..\Dev\Library embedded l2c display\u8g2\csrc/u8log_u8x8.c ****   for( buf_x = 0; buf_x < u8log->width; buf_x++ )
  48              		.loc 1 44 0
  49 000e 0024     		movs	r4, #0
  50 0010 0CE0     		b	.L2
  51              	.LVL2:
  52              	.L3:
  45:..\..\..\..\..\..\Dev\Library embedded l2c display\u8g2\csrc/u8log_u8x8.c ****   {
  46:..\..\..\..\..\..\Dev\Library embedded l2c display\u8g2\csrc/u8log_u8x8.c ****     c = u8log->screen_buffer[buf_y * u8log->width + buf_x];
  53              		.loc 1 46 0 discriminator 3
  54 0012 F268     		ldr	r2, [r6, #12]
  55 0014 03FB0743 		mla	r3, r3, r7, r4
  56              	.LVL3:
  47:..\..\..\..\..\..\Dev\Library embedded l2c display\u8g2\csrc/u8log_u8x8.c ****     u8x8_DrawGlyph(u8x8, disp_x, disp_y, c);
  57              		.loc 1 47 0 discriminator 3
  58 0018 D35C     		ldrb	r3, [r2, r3]	@ zero_extendqisi2
  59              	.LVL4:
  60 001a 4246     		mov	r2, r8
  61              	.LVL5:
  62 001c 2946     		mov	r1, r5
  63 001e 4846     		mov	r0, r9
  64 0020 FFF7FEFF 		bl	u8x8_DrawGlyph
  65              	.LVL6:
  48:..\..\..\..\..\..\Dev\Library embedded l2c display\u8g2\csrc/u8log_u8x8.c ****     disp_x++;
  66              		.loc 1 48 0 discriminator 3
ARM GAS  C:\Users\Abude\AppData\Local\Temp\cckVII6I.s 			page 3


  67 0024 0135     		adds	r5, r5, #1
  68              	.LVL7:
  69 0026 EDB2     		uxtb	r5, r5
  70              	.LVL8:
  44:..\..\..\..\..\..\Dev\Library embedded l2c display\u8g2\csrc/u8log_u8x8.c ****   {
  71              		.loc 1 44 0 discriminator 3
  72 0028 0134     		adds	r4, r4, #1
  73              	.LVL9:
  74 002a E4B2     		uxtb	r4, r4
  75              	.LVL10:
  76              	.L2:
  44:..\..\..\..\..\..\Dev\Library embedded l2c display\u8g2\csrc/u8log_u8x8.c ****   {
  77              		.loc 1 44 0 is_stmt 0 discriminator 1
  78 002c 3379     		ldrb	r3, [r6, #4]	@ zero_extendqisi2
  79 002e 9C42     		cmp	r4, r3
  80 0030 EFD3     		bcc	.L3
  49:..\..\..\..\..\..\Dev\Library embedded l2c display\u8g2\csrc/u8log_u8x8.c ****   }
  50:..\..\..\..\..\..\Dev\Library embedded l2c display\u8g2\csrc/u8log_u8x8.c **** }
  81              		.loc 1 50 0 is_stmt 1
  82 0032 BDE8F883 		pop	{r3, r4, r5, r6, r7, r8, r9, pc}
  83              		.cfi_endproc
  84              	.LFE0:
  85              		.size	u8x8_DrawLogLine, .-u8x8_DrawLogLine
  86 0036 00BF     		.section	.text.u8x8_DrawLog,"ax",%progbits
  87              		.align	2
  88              		.global	u8x8_DrawLog
  89              		.thumb
  90              		.thumb_func
  91              		.type	u8x8_DrawLog, %function
  92              	u8x8_DrawLog:
  93              	.LFB1:
  51:..\..\..\..\..\..\Dev\Library embedded l2c display\u8g2\csrc/u8log_u8x8.c **** 
  52:..\..\..\..\..\..\Dev\Library embedded l2c display\u8g2\csrc/u8log_u8x8.c **** void u8x8_DrawLog(u8x8_t *u8x8, uint8_t x, uint8_t y, u8log_t *u8log)
  53:..\..\..\..\..\..\Dev\Library embedded l2c display\u8g2\csrc/u8log_u8x8.c **** {
  94              		.loc 1 53 0
  95              		.cfi_startproc
  96              		@ args = 0, pretend = 0, frame = 0
  97              		@ frame_needed = 0, uses_anonymous_args = 0
  98              	.LVL11:
  99 0000 2DE9F041 		push	{r4, r5, r6, r7, r8, lr}
 100              		.cfi_def_cfa_offset 24
 101              		.cfi_offset 4, -24
 102              		.cfi_offset 5, -20
 103              		.cfi_offset 6, -16
 104              		.cfi_offset 7, -12
 105              		.cfi_offset 8, -8
 106              		.cfi_offset 14, -4
 107 0004 82B0     		sub	sp, sp, #8
 108              		.cfi_def_cfa_offset 32
 109 0006 8046     		mov	r8, r0
 110 0008 0F46     		mov	r7, r1
 111 000a 1546     		mov	r5, r2
 112 000c 1E46     		mov	r6, r3
 113              	.LVL12:
  54:..\..\..\..\..\..\Dev\Library embedded l2c display\u8g2\csrc/u8log_u8x8.c ****   uint8_t buf_y;
  55:..\..\..\..\..\..\Dev\Library embedded l2c display\u8g2\csrc/u8log_u8x8.c ****   for( buf_y = 0; buf_y < u8log->height; buf_y++ )
 114              		.loc 1 55 0
ARM GAS  C:\Users\Abude\AppData\Local\Temp\cckVII6I.s 			page 4


 115 000e 0024     		movs	r4, #0
 116 0010 0AE0     		b	.L6
 117              	.LVL13:
 118              	.L7:
  56:..\..\..\..\..\..\Dev\Library embedded l2c display\u8g2\csrc/u8log_u8x8.c ****   {
  57:..\..\..\..\..\..\Dev\Library embedded l2c display\u8g2\csrc/u8log_u8x8.c ****     u8x8_DrawLogLine(u8x8, x, y, buf_y, u8log);
 119              		.loc 1 57 0 discriminator 3
 120 0012 0096     		str	r6, [sp]
 121 0014 2346     		mov	r3, r4
 122 0016 2A46     		mov	r2, r5
 123 0018 3946     		mov	r1, r7
 124 001a 4046     		mov	r0, r8
 125 001c FFF7FEFF 		bl	u8x8_DrawLogLine
 126              	.LVL14:
  58:..\..\..\..\..\..\Dev\Library embedded l2c display\u8g2\csrc/u8log_u8x8.c ****     y++;
 127              		.loc 1 58 0 discriminator 3
 128 0020 0135     		adds	r5, r5, #1
 129              	.LVL15:
 130 0022 EDB2     		uxtb	r5, r5
 131              	.LVL16:
  55:..\..\..\..\..\..\Dev\Library embedded l2c display\u8g2\csrc/u8log_u8x8.c ****   {
 132              		.loc 1 55 0 discriminator 3
 133 0024 0134     		adds	r4, r4, #1
 134              	.LVL17:
 135 0026 E4B2     		uxtb	r4, r4
 136              	.LVL18:
 137              	.L6:
  55:..\..\..\..\..\..\Dev\Library embedded l2c display\u8g2\csrc/u8log_u8x8.c ****   {
 138              		.loc 1 55 0 is_stmt 0 discriminator 1
 139 0028 7379     		ldrb	r3, [r6, #5]	@ zero_extendqisi2
 140 002a 9C42     		cmp	r4, r3
 141 002c F1D3     		bcc	.L7
  59:..\..\..\..\..\..\Dev\Library embedded l2c display\u8g2\csrc/u8log_u8x8.c ****   }
  60:..\..\..\..\..\..\Dev\Library embedded l2c display\u8g2\csrc/u8log_u8x8.c **** }
 142              		.loc 1 60 0 is_stmt 1
 143 002e 02B0     		add	sp, sp, #8
 144              		.cfi_def_cfa_offset 24
 145              		@ sp needed
 146 0030 BDE8F081 		pop	{r4, r5, r6, r7, r8, pc}
 147              		.cfi_endproc
 148              	.LFE1:
 149              		.size	u8x8_DrawLog, .-u8x8_DrawLog
 150              		.section	.text.u8log_u8x8_cb,"ax",%progbits
 151              		.align	2
 152              		.global	u8log_u8x8_cb
 153              		.thumb
 154              		.thumb_func
 155              		.type	u8log_u8x8_cb, %function
 156              	u8log_u8x8_cb:
 157              	.LFB2:
  61:..\..\..\..\..\..\Dev\Library embedded l2c display\u8g2\csrc/u8log_u8x8.c **** 
  62:..\..\..\..\..\..\Dev\Library embedded l2c display\u8g2\csrc/u8log_u8x8.c **** 
  63:..\..\..\..\..\..\Dev\Library embedded l2c display\u8g2\csrc/u8log_u8x8.c **** void u8log_u8x8_cb(u8log_t * u8log)
  64:..\..\..\..\..\..\Dev\Library embedded l2c display\u8g2\csrc/u8log_u8x8.c **** {
 158              		.loc 1 64 0
 159              		.cfi_startproc
 160              		@ args = 0, pretend = 0, frame = 0
ARM GAS  C:\Users\Abude\AppData\Local\Temp\cckVII6I.s 			page 5


 161              		@ frame_needed = 0, uses_anonymous_args = 0
 162              	.LVL19:
 163 0000 10B5     		push	{r4, lr}
 164              		.cfi_def_cfa_offset 8
 165              		.cfi_offset 4, -8
 166              		.cfi_offset 14, -4
 167 0002 82B0     		sub	sp, sp, #8
 168              		.cfi_def_cfa_offset 16
  65:..\..\..\..\..\..\Dev\Library embedded l2c display\u8g2\csrc/u8log_u8x8.c ****   u8x8_t *u8x8 = (u8x8_t *)(u8log->aux_data);
 169              		.loc 1 65 0
 170 0004 0468     		ldr	r4, [r0]
 171              	.LVL20:
  66:..\..\..\..\..\..\Dev\Library embedded l2c display\u8g2\csrc/u8log_u8x8.c ****   if ( u8log->is_redraw_all )
 172              		.loc 1 66 0
 173 0006 837D     		ldrb	r3, [r0, #22]	@ zero_extendqisi2
 174 0008 33B1     		cbz	r3, .L10
  67:..\..\..\..\..\..\Dev\Library embedded l2c display\u8g2\csrc/u8log_u8x8.c ****   {
  68:..\..\..\..\..\..\Dev\Library embedded l2c display\u8g2\csrc/u8log_u8x8.c ****     u8x8_DrawLog(u8x8, 0, 0, u8log);
 175              		.loc 1 68 0
 176 000a 0346     		mov	r3, r0
 177 000c 0022     		movs	r2, #0
 178 000e 1146     		mov	r1, r2
 179 0010 2046     		mov	r0, r4
 180              	.LVL21:
 181 0012 FFF7FEFF 		bl	u8x8_DrawLog
 182              	.LVL22:
 183 0016 08E0     		b	.L9
 184              	.LVL23:
 185              	.L10:
  69:..\..\..\..\..\..\Dev\Library embedded l2c display\u8g2\csrc/u8log_u8x8.c ****   }
  70:..\..\..\..\..\..\Dev\Library embedded l2c display\u8g2\csrc/u8log_u8x8.c ****   else if ( u8log->is_redraw_line )
 186              		.loc 1 70 0
 187 0018 437D     		ldrb	r3, [r0, #21]	@ zero_extendqisi2
 188 001a 33B1     		cbz	r3, .L9
  71:..\..\..\..\..\..\Dev\Library embedded l2c display\u8g2\csrc/u8log_u8x8.c ****   {
  72:..\..\..\..\..\..\Dev\Library embedded l2c display\u8g2\csrc/u8log_u8x8.c ****     u8x8_DrawLogLine(u8x8, 0, u8log->redraw_line, u8log->redraw_line, u8log);
 189              		.loc 1 72 0
 190 001c 027D     		ldrb	r2, [r0, #20]	@ zero_extendqisi2
 191 001e 0090     		str	r0, [sp]
 192 0020 1346     		mov	r3, r2
 193 0022 0021     		movs	r1, #0
 194 0024 2046     		mov	r0, r4
 195              	.LVL24:
 196 0026 FFF7FEFF 		bl	u8x8_DrawLogLine
 197              	.LVL25:
 198              	.L9:
  73:..\..\..\..\..\..\Dev\Library embedded l2c display\u8g2\csrc/u8log_u8x8.c ****   }
  74:..\..\..\..\..\..\Dev\Library embedded l2c display\u8g2\csrc/u8log_u8x8.c **** }
 199              		.loc 1 74 0
 200 002a 02B0     		add	sp, sp, #8
 201              		.cfi_def_cfa_offset 8
 202              		@ sp needed
 203 002c 10BD     		pop	{r4, pc}
 204              		.cfi_endproc
 205              	.LFE2:
 206              		.size	u8log_u8x8_cb, .-u8log_u8x8_cb
 207 002e 00BF     		.text
ARM GAS  C:\Users\Abude\AppData\Local\Temp\cckVII6I.s 			page 6


 208              	.Letext0:
 209              		.file 2 "c:\\program files (x86)\\cypress\\psoc creator\\4.4\\psoc creator\\import\\gnu\\arm\\5.4.
 210              		.file 3 "c:\\program files (x86)\\cypress\\psoc creator\\4.4\\psoc creator\\import\\gnu\\arm\\5.4.
 211              		.file 4 "c:\\dev\\library embedded l2c display\\u8g2\\csrc\\u8x8.h"