ARM GAS  C:\Users\Abude\AppData\Local\Temp\ccaK9Evq.s 			page 1


   1              		.syntax unified
   2              		.cpu cortex-m3
   3              		.fpu softvfp
   4              		.eabi_attribute 20, 1
   5              		.eabi_attribute 21, 1
   6              		.eabi_attribute 23, 3
   7              		.eabi_attribute 24, 1
   8              		.eabi_attribute 25, 1
   9              		.eabi_attribute 26, 1
  10              		.eabi_attribute 30, 1
  11              		.eabi_attribute 34, 1
  12              		.eabi_attribute 18, 4
  13              		.thumb
  14              		.syntax unified
  15              		.file	"u8x8_d_ssd1607_200x200.c"
  16              		.text
  17              	.Ltext0:
  18              		.cfi_sections	.debug_frame
  19              		.section	.text.u8x8_convert_tile_for_ssd1607,"ax",%progbits
  20              		.align	2
  21              		.thumb
  22              		.thumb_func
  23              		.type	u8x8_convert_tile_for_ssd1607, %function
  24              	u8x8_convert_tile_for_ssd1607:
  25              	.LFB1:
  26              		.file 1 "..\\..\\..\\..\\..\\..\\Dev\\Library embedded l2c display\\u8g2\\csrc\\u8x8_d_ssd1607_200
   1:..\..\..\..\..\..\Dev\Library embedded l2c display\u8g2\csrc/u8x8_d_ssd1607_200x200.c **** /*
   2:..\..\..\..\..\..\Dev\Library embedded l2c display\u8g2\csrc/u8x8_d_ssd1607_200x200.c **** 
   3:..\..\..\..\..\..\Dev\Library embedded l2c display\u8g2\csrc/u8x8_d_ssd1607_200x200.c ****   u8x8_d_ssd1607_200x200.c
   4:..\..\..\..\..\..\Dev\Library embedded l2c display\u8g2\csrc/u8x8_d_ssd1607_200x200.c **** 
   5:..\..\..\..\..\..\Dev\Library embedded l2c display\u8g2\csrc/u8x8_d_ssd1607_200x200.c ****   Universal 8bit Graphics Library (https://github.com/olikraus/u8g2/)
   6:..\..\..\..\..\..\Dev\Library embedded l2c display\u8g2\csrc/u8x8_d_ssd1607_200x200.c **** 
   7:..\..\..\..\..\..\Dev\Library embedded l2c display\u8g2\csrc/u8x8_d_ssd1607_200x200.c ****   Copyright (c) 2016, olikraus@gmail.com
   8:..\..\..\..\..\..\Dev\Library embedded l2c display\u8g2\csrc/u8x8_d_ssd1607_200x200.c ****   All rights reserved.
   9:..\..\..\..\..\..\Dev\Library embedded l2c display\u8g2\csrc/u8x8_d_ssd1607_200x200.c **** 
  10:..\..\..\..\..\..\Dev\Library embedded l2c display\u8g2\csrc/u8x8_d_ssd1607_200x200.c ****   Redistribution and use in source and binary forms, with or without modification, 
  11:..\..\..\..\..\..\Dev\Library embedded l2c display\u8g2\csrc/u8x8_d_ssd1607_200x200.c ****   are permitted provided that the following conditions are met:
  12:..\..\..\..\..\..\Dev\Library embedded l2c display\u8g2\csrc/u8x8_d_ssd1607_200x200.c **** 
  13:..\..\..\..\..\..\Dev\Library embedded l2c display\u8g2\csrc/u8x8_d_ssd1607_200x200.c ****   * Redistributions of source code must retain the above copyright notice, this list 
  14:..\..\..\..\..\..\Dev\Library embedded l2c display\u8g2\csrc/u8x8_d_ssd1607_200x200.c ****     of conditions and the following disclaimer.
  15:..\..\..\..\..\..\Dev\Library embedded l2c display\u8g2\csrc/u8x8_d_ssd1607_200x200.c ****     
  16:..\..\..\..\..\..\Dev\Library embedded l2c display\u8g2\csrc/u8x8_d_ssd1607_200x200.c ****   * Redistributions in binary form must reproduce the above copyright notice, this 
  17:..\..\..\..\..\..\Dev\Library embedded l2c display\u8g2\csrc/u8x8_d_ssd1607_200x200.c ****     list of conditions and the following disclaimer in the documentation and/or other 
  18:..\..\..\..\..\..\Dev\Library embedded l2c display\u8g2\csrc/u8x8_d_ssd1607_200x200.c ****     materials provided with the distribution.
  19:..\..\..\..\..\..\Dev\Library embedded l2c display\u8g2\csrc/u8x8_d_ssd1607_200x200.c **** 
  20:..\..\..\..\..\..\Dev\Library embedded l2c display\u8g2\csrc/u8x8_d_ssd1607_200x200.c ****   THIS SOFTWARE IS PROVIDED BY THE COPYRIGHT HOLDERS AND 
  21:..\..\..\..\..\..\Dev\Library embedded l2c display\u8g2\csrc/u8x8_d_ssd1607_200x200.c ****   CONTRIBUTORS "AS IS" AND ANY EXPRESS OR IMPLIED WARRANTIES, 
  22:..\..\..\..\..\..\Dev\Library embedded l2c display\u8g2\csrc/u8x8_d_ssd1607_200x200.c ****   INCLUDING, BUT NOT LIMITED TO, THE IMPLIED WARRANTIES OF 
  23:..\..\..\..\..\..\Dev\Library embedded l2c display\u8g2\csrc/u8x8_d_ssd1607_200x200.c ****   MERCHANTABILITY AND FITNESS FOR A PARTICULAR PURPOSE ARE 
  24:..\..\..\..\..\..\Dev\Library embedded l2c display\u8g2\csrc/u8x8_d_ssd1607_200x200.c ****   DISCLAIMED. IN NO EVENT SHALL THE COPYRIGHT HOLDER OR 
  25:..\..\..\..\..\..\Dev\Library embedded l2c display\u8g2\csrc/u8x8_d_ssd1607_200x200.c ****   CONTRIBUTORS BE LIABLE FOR ANY DIRECT, INDIRECT, INCIDENTAL, 
  26:..\..\..\..\..\..\Dev\Library embedded l2c display\u8g2\csrc/u8x8_d_ssd1607_200x200.c ****   SPECIAL, EXEMPLARY, OR CONSEQUENTIAL DAMAGES (INCLUDING, BUT 
  27:..\..\..\..\..\..\Dev\Library embedded l2c display\u8g2\csrc/u8x8_d_ssd1607_200x200.c ****   NOT LIMITED TO, PROCUREMENT OF SUBSTITUTE GOODS OR SERVICES; 
  28:..\..\..\..\..\..\Dev\Library embedded l2c display\u8g2\csrc/u8x8_d_ssd1607_200x200.c ****   LOSS OF USE, DATA, OR PROFITS; OR BUSINESS INTERRUPTION) HOWEVER 
  29:..\..\..\..\..\..\Dev\Library embedded l2c display\u8g2\csrc/u8x8_d_ssd1607_200x200.c ****   CAUSED AND ON ANY THEORY OF LIABILITY, WHETHER IN CONTRACT, 
  30:..\..\..\..\..\..\Dev\Library embedded l2c display\u8g2\csrc/u8x8_d_ssd1607_200x200.c ****   STRICT LIABILITY, OR TORT (INCLUDING NEGLIGENCE OR OTHERWISE) 
  31:..\..\..\..\..\..\Dev\Library embedded l2c display\u8g2\csrc/u8x8_d_ssd1607_200x200.c ****   ARISING IN ANY WAY OUT OF THE USE OF THIS SOFTWARE, EVEN IF 
ARM GAS  C:\Users\Abude\AppData\Local\Temp\ccaK9Evq.s 			page 2


  32:..\..\..\..\..\..\Dev\Library embedded l2c display\u8g2\csrc/u8x8_d_ssd1607_200x200.c ****   ADVISED OF THE POSSIBILITY OF SUCH DAMAGE.  
  33:..\..\..\..\..\..\Dev\Library embedded l2c display\u8g2\csrc/u8x8_d_ssd1607_200x200.c ****   
  34:..\..\..\..\..\..\Dev\Library embedded l2c display\u8g2\csrc/u8x8_d_ssd1607_200x200.c ****   SSD1607: 200x300x1
  35:..\..\..\..\..\..\Dev\Library embedded l2c display\u8g2\csrc/u8x8_d_ssd1607_200x200.c ****   
  36:..\..\..\..\..\..\Dev\Library embedded l2c display\u8g2\csrc/u8x8_d_ssd1607_200x200.c ****   command 
  37:..\..\..\..\..\..\Dev\Library embedded l2c display\u8g2\csrc/u8x8_d_ssd1607_200x200.c ****     0x22: assign actions
  38:..\..\..\..\..\..\Dev\Library embedded l2c display\u8g2\csrc/u8x8_d_ssd1607_200x200.c ****     0x20: execute actions
  39:..\..\..\..\..\..\Dev\Library embedded l2c display\u8g2\csrc/u8x8_d_ssd1607_200x200.c ****   
  40:..\..\..\..\..\..\Dev\Library embedded l2c display\u8g2\csrc/u8x8_d_ssd1607_200x200.c ****   action for command 0x022 are (more or less guessed)
  41:..\..\..\..\..\..\Dev\Library embedded l2c display\u8g2\csrc/u8x8_d_ssd1607_200x200.c ****     bit 7:	Enable Clock
  42:..\..\..\..\..\..\Dev\Library embedded l2c display\u8g2\csrc/u8x8_d_ssd1607_200x200.c ****     bit 6:	Enable Charge Pump
  43:..\..\..\..\..\..\Dev\Library embedded l2c display\u8g2\csrc/u8x8_d_ssd1607_200x200.c ****     bit 5:	Load Temparture Value (???)
  44:..\..\..\..\..\..\Dev\Library embedded l2c display\u8g2\csrc/u8x8_d_ssd1607_200x200.c ****     bit 4:	Load LUT (???)
  45:..\..\..\..\..\..\Dev\Library embedded l2c display\u8g2\csrc/u8x8_d_ssd1607_200x200.c ****     bit 3:	Initial Display (???)
  46:..\..\..\..\..\..\Dev\Library embedded l2c display\u8g2\csrc/u8x8_d_ssd1607_200x200.c ****     bit 2:	Pattern Display --> Requires about 945ms with the LUT from below
  47:..\..\..\..\..\..\Dev\Library embedded l2c display\u8g2\csrc/u8x8_d_ssd1607_200x200.c ****     bit 1:	Disable Charge Pump
  48:..\..\..\..\..\..\Dev\Library embedded l2c display\u8g2\csrc/u8x8_d_ssd1607_200x200.c ****     bit 0:	Disable Clock
  49:..\..\..\..\..\..\Dev\Library embedded l2c display\u8g2\csrc/u8x8_d_ssd1607_200x200.c ****     
  50:..\..\..\..\..\..\Dev\Library embedded l2c display\u8g2\csrc/u8x8_d_ssd1607_200x200.c ****     Disable Charge Pump and Clock require about 267ms
  51:..\..\..\..\..\..\Dev\Library embedded l2c display\u8g2\csrc/u8x8_d_ssd1607_200x200.c ****     Enable Charge Pump and Clock require about 10ms
  52:..\..\..\..\..\..\Dev\Library embedded l2c display\u8g2\csrc/u8x8_d_ssd1607_200x200.c **** 
  53:..\..\..\..\..\..\Dev\Library embedded l2c display\u8g2\csrc/u8x8_d_ssd1607_200x200.c ****   Notes:
  54:..\..\..\..\..\..\Dev\Library embedded l2c display\u8g2\csrc/u8x8_d_ssd1607_200x200.c ****     - Introduced a refresh display message, which copies RAM to display
  55:..\..\..\..\..\..\Dev\Library embedded l2c display\u8g2\csrc/u8x8_d_ssd1607_200x200.c ****     - Charge pump and clock are only enabled for the transfer RAM to display
  56:..\..\..\..\..\..\Dev\Library embedded l2c display\u8g2\csrc/u8x8_d_ssd1607_200x200.c ****     - U8x8 will not really work because of the two buffers in the SSD1606, however U8g2 should be o
  57:..\..\..\..\..\..\Dev\Library embedded l2c display\u8g2\csrc/u8x8_d_ssd1607_200x200.c **** 
  58:..\..\..\..\..\..\Dev\Library embedded l2c display\u8g2\csrc/u8x8_d_ssd1607_200x200.c **** */
  59:..\..\..\..\..\..\Dev\Library embedded l2c display\u8g2\csrc/u8x8_d_ssd1607_200x200.c **** 
  60:..\..\..\..\..\..\Dev\Library embedded l2c display\u8g2\csrc/u8x8_d_ssd1607_200x200.c **** 
  61:..\..\..\..\..\..\Dev\Library embedded l2c display\u8g2\csrc/u8x8_d_ssd1607_200x200.c **** #include "u8x8.h"
  62:..\..\..\..\..\..\Dev\Library embedded l2c display\u8g2\csrc/u8x8_d_ssd1607_200x200.c **** 
  63:..\..\..\..\..\..\Dev\Library embedded l2c display\u8g2\csrc/u8x8_d_ssd1607_200x200.c **** /*=================================================*/
  64:..\..\..\..\..\..\Dev\Library embedded l2c display\u8g2\csrc/u8x8_d_ssd1607_200x200.c **** 
  65:..\..\..\..\..\..\Dev\Library embedded l2c display\u8g2\csrc/u8x8_d_ssd1607_200x200.c **** static const u8x8_display_info_t u8x8_ssd1607_200x200_display_info =
  66:..\..\..\..\..\..\Dev\Library embedded l2c display\u8g2\csrc/u8x8_d_ssd1607_200x200.c **** {
  67:..\..\..\..\..\..\Dev\Library embedded l2c display\u8g2\csrc/u8x8_d_ssd1607_200x200.c ****   /* chip_enable_level = */ 0,
  68:..\..\..\..\..\..\Dev\Library embedded l2c display\u8g2\csrc/u8x8_d_ssd1607_200x200.c ****   /* chip_disable_level = */ 1,
  69:..\..\..\..\..\..\Dev\Library embedded l2c display\u8g2\csrc/u8x8_d_ssd1607_200x200.c ****   
  70:..\..\..\..\..\..\Dev\Library embedded l2c display\u8g2\csrc/u8x8_d_ssd1607_200x200.c ****   /* values from SSD1606 */
  71:..\..\..\..\..\..\Dev\Library embedded l2c display\u8g2\csrc/u8x8_d_ssd1607_200x200.c ****   /* post_chip_enable_wait_ns = */ 120,
  72:..\..\..\..\..\..\Dev\Library embedded l2c display\u8g2\csrc/u8x8_d_ssd1607_200x200.c ****   /* pre_chip_disable_wait_ns = */ 60,
  73:..\..\..\..\..\..\Dev\Library embedded l2c display\u8g2\csrc/u8x8_d_ssd1607_200x200.c ****   /* reset_pulse_width_ms = */ 100, 	
  74:..\..\..\..\..\..\Dev\Library embedded l2c display\u8g2\csrc/u8x8_d_ssd1607_200x200.c ****   /* post_reset_wait_ms = */ 100, 
  75:..\..\..\..\..\..\Dev\Library embedded l2c display\u8g2\csrc/u8x8_d_ssd1607_200x200.c ****   /* sda_setup_time_ns = */ 50,		/* SSD1606: */
  76:..\..\..\..\..\..\Dev\Library embedded l2c display\u8g2\csrc/u8x8_d_ssd1607_200x200.c ****   /* sck_pulse_width_ns = */ 100,	/* SSD1606: 100ns */
  77:..\..\..\..\..\..\Dev\Library embedded l2c display\u8g2\csrc/u8x8_d_ssd1607_200x200.c ****   /* sck_clock_hz = */ 4000000UL,	/* since Arduino 1.6.0, the SPI bus speed in Hz. Should be  10000
  78:..\..\..\..\..\..\Dev\Library embedded l2c display\u8g2\csrc/u8x8_d_ssd1607_200x200.c ****   /* spi_mode = */ 0,		/* active high, rising edge */
  79:..\..\..\..\..\..\Dev\Library embedded l2c display\u8g2\csrc/u8x8_d_ssd1607_200x200.c ****   /* i2c_bus_clock_100kHz = */ 4,
  80:..\..\..\..\..\..\Dev\Library embedded l2c display\u8g2\csrc/u8x8_d_ssd1607_200x200.c ****   /* data_setup_time_ns = */ 40,
  81:..\..\..\..\..\..\Dev\Library embedded l2c display\u8g2\csrc/u8x8_d_ssd1607_200x200.c ****   /* write_pulse_width_ns = */ 150,	
  82:..\..\..\..\..\..\Dev\Library embedded l2c display\u8g2\csrc/u8x8_d_ssd1607_200x200.c ****   /* tile_width = */ 25,		/* 25*8 = 200 */
  83:..\..\..\..\..\..\Dev\Library embedded l2c display\u8g2\csrc/u8x8_d_ssd1607_200x200.c ****   /* tile_hight = */ 25,		
  84:..\..\..\..\..\..\Dev\Library embedded l2c display\u8g2\csrc/u8x8_d_ssd1607_200x200.c ****   /* default_x_offset = */ 0,
  85:..\..\..\..\..\..\Dev\Library embedded l2c display\u8g2\csrc/u8x8_d_ssd1607_200x200.c ****   /* flipmode_x_offset = */ 0,
  86:..\..\..\..\..\..\Dev\Library embedded l2c display\u8g2\csrc/u8x8_d_ssd1607_200x200.c ****   /* pixel_width = */ 200,
  87:..\..\..\..\..\..\Dev\Library embedded l2c display\u8g2\csrc/u8x8_d_ssd1607_200x200.c ****   /* pixel_height = */ 200		
  88:..\..\..\..\..\..\Dev\Library embedded l2c display\u8g2\csrc/u8x8_d_ssd1607_200x200.c **** };
ARM GAS  C:\Users\Abude\AppData\Local\Temp\ccaK9Evq.s 			page 3


  89:..\..\..\..\..\..\Dev\Library embedded l2c display\u8g2\csrc/u8x8_d_ssd1607_200x200.c **** 
  90:..\..\..\..\..\..\Dev\Library embedded l2c display\u8g2\csrc/u8x8_d_ssd1607_200x200.c **** 
  91:..\..\..\..\..\..\Dev\Library embedded l2c display\u8g2\csrc/u8x8_d_ssd1607_200x200.c **** static const uint8_t u8x8_d_ssd1607_200x200_powersave0_seq[] = {
  92:..\..\..\..\..\..\Dev\Library embedded l2c display\u8g2\csrc/u8x8_d_ssd1607_200x200.c ****   U8X8_START_TRANSFER(),             	/* enable chip, delay is part of the transfer start */
  93:..\..\..\..\..\..\Dev\Library embedded l2c display\u8g2\csrc/u8x8_d_ssd1607_200x200.c ****   U8X8_CA(0x22, 0xc0),			/* enable clock and charge pump */
  94:..\..\..\..\..\..\Dev\Library embedded l2c display\u8g2\csrc/u8x8_d_ssd1607_200x200.c ****   U8X8_C(0x20),				/* execute sequence */  
  95:..\..\..\..\..\..\Dev\Library embedded l2c display\u8g2\csrc/u8x8_d_ssd1607_200x200.c ****   U8X8_DLY(200),				/* according to my measures it may take up to 150ms */
  96:..\..\..\..\..\..\Dev\Library embedded l2c display\u8g2\csrc/u8x8_d_ssd1607_200x200.c ****   U8X8_DLY(100),				/* but it might take longer */
  97:..\..\..\..\..\..\Dev\Library embedded l2c display\u8g2\csrc/u8x8_d_ssd1607_200x200.c ****   U8X8_END_TRANSFER(),             	/* disable chip */
  98:..\..\..\..\..\..\Dev\Library embedded l2c display\u8g2\csrc/u8x8_d_ssd1607_200x200.c ****   U8X8_END()             			/* end of sequence */
  99:..\..\..\..\..\..\Dev\Library embedded l2c display\u8g2\csrc/u8x8_d_ssd1607_200x200.c **** };
 100:..\..\..\..\..\..\Dev\Library embedded l2c display\u8g2\csrc/u8x8_d_ssd1607_200x200.c **** 
 101:..\..\..\..\..\..\Dev\Library embedded l2c display\u8g2\csrc/u8x8_d_ssd1607_200x200.c **** static const uint8_t u8x8_d_ssd1607_200x200_powersave1_seq[] = {
 102:..\..\..\..\..\..\Dev\Library embedded l2c display\u8g2\csrc/u8x8_d_ssd1607_200x200.c ****   U8X8_START_TRANSFER(),             	/* enable chip, delay is part of the transfer start */  
 103:..\..\..\..\..\..\Dev\Library embedded l2c display\u8g2\csrc/u8x8_d_ssd1607_200x200.c ****   /* disable clock and charge pump only, deep sleep is not entered, because we will loose RAM conte
 104:..\..\..\..\..\..\Dev\Library embedded l2c display\u8g2\csrc/u8x8_d_ssd1607_200x200.c ****   U8X8_CA(0x22, 0x02),			/* only disable charge pump, HW reset seems to be required if the clock is
 105:..\..\..\..\..\..\Dev\Library embedded l2c display\u8g2\csrc/u8x8_d_ssd1607_200x200.c ****   U8X8_C(0x20),				/* execute sequence */  
 106:..\..\..\..\..\..\Dev\Library embedded l2c display\u8g2\csrc/u8x8_d_ssd1607_200x200.c ****   U8X8_DLY(20),
 107:..\..\..\..\..\..\Dev\Library embedded l2c display\u8g2\csrc/u8x8_d_ssd1607_200x200.c ****   U8X8_END_TRANSFER(),             	/* disable chip */
 108:..\..\..\..\..\..\Dev\Library embedded l2c display\u8g2\csrc/u8x8_d_ssd1607_200x200.c ****   U8X8_END()             			/* end of sequence */
 109:..\..\..\..\..\..\Dev\Library embedded l2c display\u8g2\csrc/u8x8_d_ssd1607_200x200.c **** };
 110:..\..\..\..\..\..\Dev\Library embedded l2c display\u8g2\csrc/u8x8_d_ssd1607_200x200.c **** 
 111:..\..\..\..\..\..\Dev\Library embedded l2c display\u8g2\csrc/u8x8_d_ssd1607_200x200.c **** 
 112:..\..\..\..\..\..\Dev\Library embedded l2c display\u8g2\csrc/u8x8_d_ssd1607_200x200.c **** static const uint8_t u8x8_d_ssd1607_200x200_exec_1000dly_seq[] = {
 113:..\..\..\..\..\..\Dev\Library embedded l2c display\u8g2\csrc/u8x8_d_ssd1607_200x200.c ****   // assumes, that the start transfer has happend
 114:..\..\..\..\..\..\Dev\Library embedded l2c display\u8g2\csrc/u8x8_d_ssd1607_200x200.c ****   U8X8_CA(0x22, 0x04),	/* display update seq. option: pattern display */
 115:..\..\..\..\..\..\Dev\Library embedded l2c display\u8g2\csrc/u8x8_d_ssd1607_200x200.c ****   U8X8_C(0x20),	/* execute sequence */
 116:..\..\..\..\..\..\Dev\Library embedded l2c display\u8g2\csrc/u8x8_d_ssd1607_200x200.c ****   U8X8_DLY(250),
 117:..\..\..\..\..\..\Dev\Library embedded l2c display\u8g2\csrc/u8x8_d_ssd1607_200x200.c ****   U8X8_DLY(250),
 118:..\..\..\..\..\..\Dev\Library embedded l2c display\u8g2\csrc/u8x8_d_ssd1607_200x200.c ****   U8X8_DLY(250),
 119:..\..\..\..\..\..\Dev\Library embedded l2c display\u8g2\csrc/u8x8_d_ssd1607_200x200.c ****   U8X8_DLY(250),
 120:..\..\..\..\..\..\Dev\Library embedded l2c display\u8g2\csrc/u8x8_d_ssd1607_200x200.c ****   U8X8_END_TRANSFER(),             	/* disable chip */
 121:..\..\..\..\..\..\Dev\Library embedded l2c display\u8g2\csrc/u8x8_d_ssd1607_200x200.c ****   U8X8_END()             			/* end of sequence */
 122:..\..\..\..\..\..\Dev\Library embedded l2c display\u8g2\csrc/u8x8_d_ssd1607_200x200.c **** };
 123:..\..\..\..\..\..\Dev\Library embedded l2c display\u8g2\csrc/u8x8_d_ssd1607_200x200.c **** 
 124:..\..\..\..\..\..\Dev\Library embedded l2c display\u8g2\csrc/u8x8_d_ssd1607_200x200.c **** 
 125:..\..\..\..\..\..\Dev\Library embedded l2c display\u8g2\csrc/u8x8_d_ssd1607_200x200.c **** static void u8x8_d_ssd1607_200x200_first_init(u8x8_t *u8x8)
 126:..\..\..\..\..\..\Dev\Library embedded l2c display\u8g2\csrc/u8x8_d_ssd1607_200x200.c **** {
 127:..\..\..\..\..\..\Dev\Library embedded l2c display\u8g2\csrc/u8x8_d_ssd1607_200x200.c ****       u8x8_ClearDisplay(u8x8);
 128:..\..\..\..\..\..\Dev\Library embedded l2c display\u8g2\csrc/u8x8_d_ssd1607_200x200.c ****   
 129:..\..\..\..\..\..\Dev\Library embedded l2c display\u8g2\csrc/u8x8_d_ssd1607_200x200.c ****       u8x8_cad_StartTransfer(u8x8);
 130:..\..\..\..\..\..\Dev\Library embedded l2c display\u8g2\csrc/u8x8_d_ssd1607_200x200.c ****       u8x8_cad_SendCmd(u8x8, 0x032);		// program update sequence
 131:..\..\..\..\..\..\Dev\Library embedded l2c display\u8g2\csrc/u8x8_d_ssd1607_200x200.c ****       u8x8_cad_SendMultipleArg(u8x8, 8, 0x055);		// all black
 132:..\..\..\..\..\..\Dev\Library embedded l2c display\u8g2\csrc/u8x8_d_ssd1607_200x200.c ****       u8x8_cad_SendMultipleArg(u8x8, 12, 0x0aa);		// all white
 133:..\..\..\..\..\..\Dev\Library embedded l2c display\u8g2\csrc/u8x8_d_ssd1607_200x200.c ****       u8x8_cad_SendMultipleArg(u8x8, 10, 0x022);		// 830ms
 134:..\..\..\..\..\..\Dev\Library embedded l2c display\u8g2\csrc/u8x8_d_ssd1607_200x200.c ****       u8x8_cad_SendSequence(u8x8, u8x8_d_ssd1607_200x200_exec_1000dly_seq);
 135:..\..\..\..\..\..\Dev\Library embedded l2c display\u8g2\csrc/u8x8_d_ssd1607_200x200.c ****   
 136:..\..\..\..\..\..\Dev\Library embedded l2c display\u8g2\csrc/u8x8_d_ssd1607_200x200.c **** }
 137:..\..\..\..\..\..\Dev\Library embedded l2c display\u8g2\csrc/u8x8_d_ssd1607_200x200.c **** 
 138:..\..\..\..\..\..\Dev\Library embedded l2c display\u8g2\csrc/u8x8_d_ssd1607_200x200.c **** static uint8_t *u8x8_convert_tile_for_ssd1607(uint8_t *t)
 139:..\..\..\..\..\..\Dev\Library embedded l2c display\u8g2\csrc/u8x8_d_ssd1607_200x200.c **** {
  27              		.loc 1 139 0
  28              		.cfi_startproc
  29              		@ args = 0, pretend = 0, frame = 0
  30              		@ frame_needed = 0, uses_anonymous_args = 0
  31              		@ link register save eliminated.
  32              	.LVL0:
ARM GAS  C:\Users\Abude\AppData\Local\Temp\ccaK9Evq.s 			page 4


 140:..\..\..\..\..\..\Dev\Library embedded l2c display\u8g2\csrc/u8x8_d_ssd1607_200x200.c ****   uint8_t i;
 141:..\..\..\..\..\..\Dev\Library embedded l2c display\u8g2\csrc/u8x8_d_ssd1607_200x200.c ****   static uint8_t buf[8];
 142:..\..\..\..\..\..\Dev\Library embedded l2c display\u8g2\csrc/u8x8_d_ssd1607_200x200.c ****   uint8_t *pbuf = buf;
  33              		.loc 1 142 0
  34 0000 0649     		ldr	r1, .L4
 143:..\..\..\..\..\..\Dev\Library embedded l2c display\u8g2\csrc/u8x8_d_ssd1607_200x200.c **** 
 144:..\..\..\..\..\..\Dev\Library embedded l2c display\u8g2\csrc/u8x8_d_ssd1607_200x200.c ****   for( i = 0; i < 8; i++ )
  35              		.loc 1 144 0
  36 0002 0023     		movs	r3, #0
  37 0004 06E0     		b	.L2
  38              	.LVL1:
  39              	.L3:
 145:..\..\..\..\..\..\Dev\Library embedded l2c display\u8g2\csrc/u8x8_d_ssd1607_200x200.c ****   {
 146:..\..\..\..\..\..\Dev\Library embedded l2c display\u8g2\csrc/u8x8_d_ssd1607_200x200.c ****     *pbuf++ = ~(*t++);
  40              		.loc 1 146 0 discriminator 3
  41 0006 0278     		ldrb	r2, [r0]	@ zero_extendqisi2
  42 0008 D243     		mvns	r2, r2
  43 000a 0A70     		strb	r2, [r1]
 144:..\..\..\..\..\..\Dev\Library embedded l2c display\u8g2\csrc/u8x8_d_ssd1607_200x200.c ****   {
  44              		.loc 1 144 0 discriminator 3
  45 000c 0133     		adds	r3, r3, #1
  46              	.LVL2:
  47 000e DBB2     		uxtb	r3, r3
  48              	.LVL3:
  49              		.loc 1 146 0 discriminator 3
  50 0010 0131     		adds	r1, r1, #1
  51              	.LVL4:
  52 0012 0130     		adds	r0, r0, #1
  53              	.LVL5:
  54              	.L2:
 144:..\..\..\..\..\..\Dev\Library embedded l2c display\u8g2\csrc/u8x8_d_ssd1607_200x200.c ****   {
  55              		.loc 1 144 0 discriminator 1
  56 0014 072B     		cmp	r3, #7
  57 0016 F6D9     		bls	.L3
 147:..\..\..\..\..\..\Dev\Library embedded l2c display\u8g2\csrc/u8x8_d_ssd1607_200x200.c ****   }
 148:..\..\..\..\..\..\Dev\Library embedded l2c display\u8g2\csrc/u8x8_d_ssd1607_200x200.c ****   return buf;
 149:..\..\..\..\..\..\Dev\Library embedded l2c display\u8g2\csrc/u8x8_d_ssd1607_200x200.c **** }
  58              		.loc 1 149 0
  59 0018 0048     		ldr	r0, .L4
  60              	.LVL6:
  61 001a 7047     		bx	lr
  62              	.L5:
  63              		.align	2
  64              	.L4:
  65 001c 00000000 		.word	.LANCHOR0
  66              		.cfi_endproc
  67              	.LFE1:
  68              		.size	u8x8_convert_tile_for_ssd1607, .-u8x8_convert_tile_for_ssd1607
  69              		.section	.text.u8x8_d_ssd1607_200x200_first_init,"ax",%progbits
  70              		.align	2
  71              		.thumb
  72              		.thumb_func
  73              		.type	u8x8_d_ssd1607_200x200_first_init, %function
  74              	u8x8_d_ssd1607_200x200_first_init:
  75              	.LFB0:
 126:..\..\..\..\..\..\Dev\Library embedded l2c display\u8g2\csrc/u8x8_d_ssd1607_200x200.c ****       u8x8_ClearDisplay(u8x8);
  76              		.loc 1 126 0
ARM GAS  C:\Users\Abude\AppData\Local\Temp\ccaK9Evq.s 			page 5


  77              		.cfi_startproc
  78              		@ args = 0, pretend = 0, frame = 0
  79              		@ frame_needed = 0, uses_anonymous_args = 0
  80              	.LVL7:
  81 0000 10B5     		push	{r4, lr}
  82              		.cfi_def_cfa_offset 8
  83              		.cfi_offset 4, -8
  84              		.cfi_offset 14, -4
  85 0002 0446     		mov	r4, r0
 127:..\..\..\..\..\..\Dev\Library embedded l2c display\u8g2\csrc/u8x8_d_ssd1607_200x200.c ****   
  86              		.loc 1 127 0
  87 0004 FFF7FEFF 		bl	u8x8_ClearDisplay
  88              	.LVL8:
 129:..\..\..\..\..\..\Dev\Library embedded l2c display\u8g2\csrc/u8x8_d_ssd1607_200x200.c ****       u8x8_cad_SendCmd(u8x8, 0x032);		// program update sequence
  89              		.loc 1 129 0
  90 0008 2046     		mov	r0, r4
  91 000a FFF7FEFF 		bl	u8x8_cad_StartTransfer
  92              	.LVL9:
 130:..\..\..\..\..\..\Dev\Library embedded l2c display\u8g2\csrc/u8x8_d_ssd1607_200x200.c ****       u8x8_cad_SendMultipleArg(u8x8, 8, 0x055);		// all black
  93              		.loc 1 130 0
  94 000e 3221     		movs	r1, #50
  95 0010 2046     		mov	r0, r4
  96 0012 FFF7FEFF 		bl	u8x8_cad_SendCmd
  97              	.LVL10:
 131:..\..\..\..\..\..\Dev\Library embedded l2c display\u8g2\csrc/u8x8_d_ssd1607_200x200.c ****       u8x8_cad_SendMultipleArg(u8x8, 12, 0x0aa);		// all white
  98              		.loc 1 131 0
  99 0016 5522     		movs	r2, #85
 100 0018 0821     		movs	r1, #8
 101 001a 2046     		mov	r0, r4
 102 001c FFF7FEFF 		bl	u8x8_cad_SendMultipleArg
 103              	.LVL11:
 132:..\..\..\..\..\..\Dev\Library embedded l2c display\u8g2\csrc/u8x8_d_ssd1607_200x200.c ****       u8x8_cad_SendMultipleArg(u8x8, 10, 0x022);		// 830ms
 104              		.loc 1 132 0
 105 0020 AA22     		movs	r2, #170
 106 0022 0C21     		movs	r1, #12
 107 0024 2046     		mov	r0, r4
 108 0026 FFF7FEFF 		bl	u8x8_cad_SendMultipleArg
 109              	.LVL12:
 133:..\..\..\..\..\..\Dev\Library embedded l2c display\u8g2\csrc/u8x8_d_ssd1607_200x200.c ****       u8x8_cad_SendSequence(u8x8, u8x8_d_ssd1607_200x200_exec_1000dly_seq);
 110              		.loc 1 133 0
 111 002a 2222     		movs	r2, #34
 112 002c 0A21     		movs	r1, #10
 113 002e 2046     		mov	r0, r4
 114 0030 FFF7FEFF 		bl	u8x8_cad_SendMultipleArg
 115              	.LVL13:
 134:..\..\..\..\..\..\Dev\Library embedded l2c display\u8g2\csrc/u8x8_d_ssd1607_200x200.c ****   
 116              		.loc 1 134 0
 117 0034 0249     		ldr	r1, .L8
 118 0036 2046     		mov	r0, r4
 119 0038 FFF7FEFF 		bl	u8x8_cad_SendSequence
 120              	.LVL14:
 121 003c 10BD     		pop	{r4, pc}
 122              	.LVL15:
 123              	.L9:
 124 003e 00BF     		.align	2
 125              	.L8:
 126 0040 00000000 		.word	.LANCHOR1
ARM GAS  C:\Users\Abude\AppData\Local\Temp\ccaK9Evq.s 			page 6


 127              		.cfi_endproc
 128              	.LFE0:
 129              		.size	u8x8_d_ssd1607_200x200_first_init, .-u8x8_d_ssd1607_200x200_first_init
 130              		.section	.text.u8x8_d_ssd1607_draw_tile,"ax",%progbits
 131              		.align	2
 132              		.thumb
 133              		.thumb_func
 134              		.type	u8x8_d_ssd1607_draw_tile, %function
 135              	u8x8_d_ssd1607_draw_tile:
 136              	.LFB2:
 150:..\..\..\..\..\..\Dev\Library embedded l2c display\u8g2\csrc/u8x8_d_ssd1607_200x200.c **** 
 151:..\..\..\..\..\..\Dev\Library embedded l2c display\u8g2\csrc/u8x8_d_ssd1607_200x200.c **** static void u8x8_d_ssd1607_draw_tile(u8x8_t *u8x8, uint8_t arg_int, void *arg_ptr) U8X8_NOINLINE;
 152:..\..\..\..\..\..\Dev\Library embedded l2c display\u8g2\csrc/u8x8_d_ssd1607_200x200.c **** static void u8x8_d_ssd1607_draw_tile(u8x8_t *u8x8, uint8_t arg_int, void *arg_ptr)
 153:..\..\..\..\..\..\Dev\Library embedded l2c display\u8g2\csrc/u8x8_d_ssd1607_200x200.c **** {
 137              		.loc 1 153 0
 138              		.cfi_startproc
 139              		@ args = 0, pretend = 0, frame = 0
 140              		@ frame_needed = 0, uses_anonymous_args = 0
 141              	.LVL16:
 142 0000 2DE9F843 		push	{r3, r4, r5, r6, r7, r8, r9, lr}
 143              		.cfi_def_cfa_offset 32
 144              		.cfi_offset 3, -32
 145              		.cfi_offset 4, -28
 146              		.cfi_offset 5, -24
 147              		.cfi_offset 6, -20
 148              		.cfi_offset 7, -16
 149              		.cfi_offset 8, -12
 150              		.cfi_offset 9, -8
 151              		.cfi_offset 14, -4
 152 0004 0646     		mov	r6, r0
 153 0006 0F46     		mov	r7, r1
 154 0008 9046     		mov	r8, r2
 154:..\..\..\..\..\..\Dev\Library embedded l2c display\u8g2\csrc/u8x8_d_ssd1607_200x200.c ****   uint16_t x;
 155:..\..\..\..\..\..\Dev\Library embedded l2c display\u8g2\csrc/u8x8_d_ssd1607_200x200.c ****   uint8_t c, page;
 156:..\..\..\..\..\..\Dev\Library embedded l2c display\u8g2\csrc/u8x8_d_ssd1607_200x200.c ****   uint8_t *ptr;
 157:..\..\..\..\..\..\Dev\Library embedded l2c display\u8g2\csrc/u8x8_d_ssd1607_200x200.c ****   u8x8_cad_StartTransfer(u8x8);
 155              		.loc 1 157 0
 156 000a FFF7FEFF 		bl	u8x8_cad_StartTransfer
 157              	.LVL17:
 158:..\..\..\..\..\..\Dev\Library embedded l2c display\u8g2\csrc/u8x8_d_ssd1607_200x200.c **** 
 159:..\..\..\..\..\..\Dev\Library embedded l2c display\u8g2\csrc/u8x8_d_ssd1607_200x200.c ****   page = u8x8->display_info->tile_height;
 158              		.loc 1 159 0
 159 000e 3368     		ldr	r3, [r6]
 160 0010 5B7C     		ldrb	r3, [r3, #17]	@ zero_extendqisi2
 161              	.LVL18:
 160:..\..\..\..\..\..\Dev\Library embedded l2c display\u8g2\csrc/u8x8_d_ssd1607_200x200.c ****   page --;
 162              		.loc 1 160 0
 163 0012 013B     		subs	r3, r3, #1
 164              	.LVL19:
 165 0014 DBB2     		uxtb	r3, r3
 166              	.LVL20:
 161:..\..\..\..\..\..\Dev\Library embedded l2c display\u8g2\csrc/u8x8_d_ssd1607_200x200.c ****   page -= (((u8x8_tile_t *)arg_ptr)->y_pos);
 167              		.loc 1 161 0
 168 0016 98F80640 		ldrb	r4, [r8, #6]	@ zero_extendqisi2
 169 001a 1C1B     		subs	r4, r3, r4
 170 001c E4B2     		uxtb	r4, r4
 171              	.LVL21:
ARM GAS  C:\Users\Abude\AppData\Local\Temp\ccaK9Evq.s 			page 7


 162:..\..\..\..\..\..\Dev\Library embedded l2c display\u8g2\csrc/u8x8_d_ssd1607_200x200.c ****   
 163:..\..\..\..\..\..\Dev\Library embedded l2c display\u8g2\csrc/u8x8_d_ssd1607_200x200.c ****   x = ((u8x8_tile_t *)arg_ptr)->x_pos;
 172              		.loc 1 163 0
 173 001e 98F80550 		ldrb	r5, [r8, #5]	@ zero_extendqisi2
 174              	.LVL22:
 164:..\..\..\..\..\..\Dev\Library embedded l2c display\u8g2\csrc/u8x8_d_ssd1607_200x200.c ****   x *= 8;
 165:..\..\..\..\..\..\Dev\Library embedded l2c display\u8g2\csrc/u8x8_d_ssd1607_200x200.c ****   x += u8x8->x_offset;
 175              		.loc 1 165 0
 176 0022 96F82230 		ldrb	r3, [r6, #34]	@ zero_extendqisi2
 177 0026 03EBC505 		add	r5, r3, r5, lsl #3
 178              	.LVL23:
 166:..\..\..\..\..\..\Dev\Library embedded l2c display\u8g2\csrc/u8x8_d_ssd1607_200x200.c ****   
 167:..\..\..\..\..\..\Dev\Library embedded l2c display\u8g2\csrc/u8x8_d_ssd1607_200x200.c ****   
 168:..\..\..\..\..\..\Dev\Library embedded l2c display\u8g2\csrc/u8x8_d_ssd1607_200x200.c **** 
 169:..\..\..\..\..\..\Dev\Library embedded l2c display\u8g2\csrc/u8x8_d_ssd1607_200x200.c ****   u8x8_cad_SendCmd(u8x8, 0x045 );	/* window start column */
 179              		.loc 1 169 0
 180 002a 4521     		movs	r1, #69
 181 002c 3046     		mov	r0, r6
 182 002e FFF7FEFF 		bl	u8x8_cad_SendCmd
 183              	.LVL24:
 170:..\..\..\..\..\..\Dev\Library embedded l2c display\u8g2\csrc/u8x8_d_ssd1607_200x200.c ****   u8x8_cad_SendArg(u8x8, x&255);
 184              		.loc 1 170 0
 185 0032 5FFA85F9 		uxtb	r9, r5
 186 0036 4946     		mov	r1, r9
 187 0038 3046     		mov	r0, r6
 188 003a FFF7FEFF 		bl	u8x8_cad_SendArg
 189              	.LVL25:
 171:..\..\..\..\..\..\Dev\Library embedded l2c display\u8g2\csrc/u8x8_d_ssd1607_200x200.c ****   u8x8_cad_SendArg(u8x8, x>>8);
 190              		.loc 1 171 0
 191 003e C5F30725 		ubfx	r5, r5, #8, #8
 192              	.LVL26:
 193 0042 2946     		mov	r1, r5
 194 0044 3046     		mov	r0, r6
 195 0046 FFF7FEFF 		bl	u8x8_cad_SendArg
 196              	.LVL27:
 172:..\..\..\..\..\..\Dev\Library embedded l2c display\u8g2\csrc/u8x8_d_ssd1607_200x200.c ****   u8x8_cad_SendArg(u8x8, 199);		/* end of display */
 197              		.loc 1 172 0
 198 004a C721     		movs	r1, #199
 199 004c 3046     		mov	r0, r6
 200 004e FFF7FEFF 		bl	u8x8_cad_SendArg
 201              	.LVL28:
 173:..\..\..\..\..\..\Dev\Library embedded l2c display\u8g2\csrc/u8x8_d_ssd1607_200x200.c ****   u8x8_cad_SendArg(u8x8, 0);
 202              		.loc 1 173 0
 203 0052 0021     		movs	r1, #0
 204 0054 3046     		mov	r0, r6
 205 0056 FFF7FEFF 		bl	u8x8_cad_SendArg
 206              	.LVL29:
 174:..\..\..\..\..\..\Dev\Library embedded l2c display\u8g2\csrc/u8x8_d_ssd1607_200x200.c **** 
 175:..\..\..\..\..\..\Dev\Library embedded l2c display\u8g2\csrc/u8x8_d_ssd1607_200x200.c ****   u8x8_cad_SendCmd(u8x8, 0x044 );	/* window end page */
 207              		.loc 1 175 0
 208 005a 4421     		movs	r1, #68
 209 005c 3046     		mov	r0, r6
 210 005e FFF7FEFF 		bl	u8x8_cad_SendCmd
 211              	.LVL30:
 176:..\..\..\..\..\..\Dev\Library embedded l2c display\u8g2\csrc/u8x8_d_ssd1607_200x200.c ****   u8x8_cad_SendArg(u8x8, page);
 212              		.loc 1 176 0
 213 0062 2146     		mov	r1, r4
ARM GAS  C:\Users\Abude\AppData\Local\Temp\ccaK9Evq.s 			page 8


 214 0064 3046     		mov	r0, r6
 215 0066 FFF7FEFF 		bl	u8x8_cad_SendArg
 216              	.LVL31:
 177:..\..\..\..\..\..\Dev\Library embedded l2c display\u8g2\csrc/u8x8_d_ssd1607_200x200.c ****   u8x8_cad_SendArg(u8x8, page);
 217              		.loc 1 177 0
 218 006a 2146     		mov	r1, r4
 219 006c 3046     		mov	r0, r6
 220 006e FFF7FEFF 		bl	u8x8_cad_SendArg
 221              	.LVL32:
 178:..\..\..\..\..\..\Dev\Library embedded l2c display\u8g2\csrc/u8x8_d_ssd1607_200x200.c **** 
 179:..\..\..\..\..\..\Dev\Library embedded l2c display\u8g2\csrc/u8x8_d_ssd1607_200x200.c ****   u8x8_cad_SendCmd(u8x8, 0x04f );	/* window column */
 222              		.loc 1 179 0
 223 0072 4F21     		movs	r1, #79
 224 0074 3046     		mov	r0, r6
 225 0076 FFF7FEFF 		bl	u8x8_cad_SendCmd
 226              	.LVL33:
 180:..\..\..\..\..\..\Dev\Library embedded l2c display\u8g2\csrc/u8x8_d_ssd1607_200x200.c ****   u8x8_cad_SendArg(u8x8, x&255);
 227              		.loc 1 180 0
 228 007a 4946     		mov	r1, r9
 229 007c 3046     		mov	r0, r6
 230 007e FFF7FEFF 		bl	u8x8_cad_SendArg
 231              	.LVL34:
 181:..\..\..\..\..\..\Dev\Library embedded l2c display\u8g2\csrc/u8x8_d_ssd1607_200x200.c ****   u8x8_cad_SendArg(u8x8, x>>8);
 232              		.loc 1 181 0
 233 0082 2946     		mov	r1, r5
 234 0084 3046     		mov	r0, r6
 235 0086 FFF7FEFF 		bl	u8x8_cad_SendArg
 236              	.LVL35:
 182:..\..\..\..\..\..\Dev\Library embedded l2c display\u8g2\csrc/u8x8_d_ssd1607_200x200.c **** 
 183:..\..\..\..\..\..\Dev\Library embedded l2c display\u8g2\csrc/u8x8_d_ssd1607_200x200.c ****   u8x8_cad_SendCmd(u8x8, 0x04e );	/* window row */
 237              		.loc 1 183 0
 238 008a 4E21     		movs	r1, #78
 239 008c 3046     		mov	r0, r6
 240 008e FFF7FEFF 		bl	u8x8_cad_SendCmd
 241              	.LVL36:
 184:..\..\..\..\..\..\Dev\Library embedded l2c display\u8g2\csrc/u8x8_d_ssd1607_200x200.c ****   u8x8_cad_SendArg(u8x8, page);
 242              		.loc 1 184 0
 243 0092 2146     		mov	r1, r4
 244 0094 3046     		mov	r0, r6
 245 0096 FFF7FEFF 		bl	u8x8_cad_SendArg
 246              	.LVL37:
 185:..\..\..\..\..\..\Dev\Library embedded l2c display\u8g2\csrc/u8x8_d_ssd1607_200x200.c **** 
 186:..\..\..\..\..\..\Dev\Library embedded l2c display\u8g2\csrc/u8x8_d_ssd1607_200x200.c ****   u8x8_cad_SendCmd(u8x8, 0x024 );
 247              		.loc 1 186 0
 248 009a 2421     		movs	r1, #36
 249 009c 3046     		mov	r0, r6
 250 009e FFF7FEFF 		bl	u8x8_cad_SendCmd
 251              	.LVL38:
 252              	.L12:
 187:..\..\..\..\..\..\Dev\Library embedded l2c display\u8g2\csrc/u8x8_d_ssd1607_200x200.c ****   
 188:..\..\..\..\..\..\Dev\Library embedded l2c display\u8g2\csrc/u8x8_d_ssd1607_200x200.c ****   do
 189:..\..\..\..\..\..\Dev\Library embedded l2c display\u8g2\csrc/u8x8_d_ssd1607_200x200.c ****   {
 190:..\..\..\..\..\..\Dev\Library embedded l2c display\u8g2\csrc/u8x8_d_ssd1607_200x200.c ****     c = ((u8x8_tile_t *)arg_ptr)->cnt;
 253              		.loc 1 190 0
 254 00a2 98F80440 		ldrb	r4, [r8, #4]	@ zero_extendqisi2
 255              	.LVL39:
 191:..\..\..\..\..\..\Dev\Library embedded l2c display\u8g2\csrc/u8x8_d_ssd1607_200x200.c ****     ptr = ((u8x8_tile_t *)arg_ptr)->tile_ptr;
ARM GAS  C:\Users\Abude\AppData\Local\Temp\ccaK9Evq.s 			page 9


 256              		.loc 1 191 0
 257 00a6 D8F80050 		ldr	r5, [r8]
 258              	.LVL40:
 259              	.L11:
 192:..\..\..\..\..\..\Dev\Library embedded l2c display\u8g2\csrc/u8x8_d_ssd1607_200x200.c ****     do
 193:..\..\..\..\..\..\Dev\Library embedded l2c display\u8g2\csrc/u8x8_d_ssd1607_200x200.c ****     {
 194:..\..\..\..\..\..\Dev\Library embedded l2c display\u8g2\csrc/u8x8_d_ssd1607_200x200.c ****       u8x8_cad_SendData(u8x8, 8, u8x8_convert_tile_for_ssd1607(ptr));
 260              		.loc 1 194 0 discriminator 1
 261 00aa 2846     		mov	r0, r5
 262 00ac FFF7FEFF 		bl	u8x8_convert_tile_for_ssd1607
 263              	.LVL41:
 264 00b0 0246     		mov	r2, r0
 265 00b2 0821     		movs	r1, #8
 266 00b4 3046     		mov	r0, r6
 267 00b6 FFF7FEFF 		bl	u8x8_cad_SendData
 268              	.LVL42:
 195:..\..\..\..\..\..\Dev\Library embedded l2c display\u8g2\csrc/u8x8_d_ssd1607_200x200.c ****       ptr += 8;
 269              		.loc 1 195 0 discriminator 1
 270 00ba 0835     		adds	r5, r5, #8
 271              	.LVL43:
 196:..\..\..\..\..\..\Dev\Library embedded l2c display\u8g2\csrc/u8x8_d_ssd1607_200x200.c ****       x += 8;
 197:..\..\..\..\..\..\Dev\Library embedded l2c display\u8g2\csrc/u8x8_d_ssd1607_200x200.c ****       c--;
 272              		.loc 1 197 0 discriminator 1
 273 00bc 631E     		subs	r3, r4, #1
 274              	.LVL44:
 198:..\..\..\..\..\..\Dev\Library embedded l2c display\u8g2\csrc/u8x8_d_ssd1607_200x200.c ****     } while( c > 0 );
 275              		.loc 1 198 0 discriminator 1
 276 00be 13F0FF04 		ands	r4, r3, #255
 277 00c2 F2D1     		bne	.L11
 199:..\..\..\..\..\..\Dev\Library embedded l2c display\u8g2\csrc/u8x8_d_ssd1607_200x200.c ****     
 200:..\..\..\..\..\..\Dev\Library embedded l2c display\u8g2\csrc/u8x8_d_ssd1607_200x200.c ****     arg_int--;
 278              		.loc 1 200 0
 279 00c4 7B1E     		subs	r3, r7, #1
 280              	.LVL45:
 201:..\..\..\..\..\..\Dev\Library embedded l2c display\u8g2\csrc/u8x8_d_ssd1607_200x200.c ****   } while( arg_int > 0 );
 281              		.loc 1 201 0
 282 00c6 13F0FF07 		ands	r7, r3, #255
 283 00ca EAD1     		bne	.L12
 202:..\..\..\..\..\..\Dev\Library embedded l2c display\u8g2\csrc/u8x8_d_ssd1607_200x200.c ****   
 203:..\..\..\..\..\..\Dev\Library embedded l2c display\u8g2\csrc/u8x8_d_ssd1607_200x200.c ****   u8x8_cad_EndTransfer(u8x8);
 284              		.loc 1 203 0
 285 00cc 3046     		mov	r0, r6
 286 00ce FFF7FEFF 		bl	u8x8_cad_EndTransfer
 287              	.LVL46:
 288 00d2 BDE8F883 		pop	{r3, r4, r5, r6, r7, r8, r9, pc}
 289              		.cfi_endproc
 290              	.LFE2:
 291              		.size	u8x8_d_ssd1607_draw_tile, .-u8x8_d_ssd1607_draw_tile
 292 00d6 00BF     		.section	.text.u8x8_d_ssd1607_200x200,"ax",%progbits
 293              		.align	2
 294              		.global	u8x8_d_ssd1607_200x200
 295              		.thumb
 296              		.thumb_func
 297              		.type	u8x8_d_ssd1607_200x200, %function
 298              	u8x8_d_ssd1607_200x200:
 299              	.LFB3:
 204:..\..\..\..\..\..\Dev\Library embedded l2c display\u8g2\csrc/u8x8_d_ssd1607_200x200.c **** }
ARM GAS  C:\Users\Abude\AppData\Local\Temp\ccaK9Evq.s 			page 10


 205:..\..\..\..\..\..\Dev\Library embedded l2c display\u8g2\csrc/u8x8_d_ssd1607_200x200.c **** 
 206:..\..\..\..\..\..\Dev\Library embedded l2c display\u8g2\csrc/u8x8_d_ssd1607_200x200.c **** 
 207:..\..\..\..\..\..\Dev\Library embedded l2c display\u8g2\csrc/u8x8_d_ssd1607_200x200.c **** 
 208:..\..\..\..\..\..\Dev\Library embedded l2c display\u8g2\csrc/u8x8_d_ssd1607_200x200.c **** /*=================================================*/
 209:..\..\..\..\..\..\Dev\Library embedded l2c display\u8g2\csrc/u8x8_d_ssd1607_200x200.c **** 
 210:..\..\..\..\..\..\Dev\Library embedded l2c display\u8g2\csrc/u8x8_d_ssd1607_200x200.c **** 
 211:..\..\..\..\..\..\Dev\Library embedded l2c display\u8g2\csrc/u8x8_d_ssd1607_200x200.c **** #define L(a,b,c,d) (((a)<<6)|((b)<<4)|((c)<<2)|(d))
 212:..\..\..\..\..\..\Dev\Library embedded l2c display\u8g2\csrc/u8x8_d_ssd1607_200x200.c **** 
 213:..\..\..\..\..\..\Dev\Library embedded l2c display\u8g2\csrc/u8x8_d_ssd1607_200x200.c **** 
 214:..\..\..\..\..\..\Dev\Library embedded l2c display\u8g2\csrc/u8x8_d_ssd1607_200x200.c **** /* https://github.com/embeddedadventures/SSD1607/blob/master/SSD1607.cpp */
 215:..\..\..\..\..\..\Dev\Library embedded l2c display\u8g2\csrc/u8x8_d_ssd1607_200x200.c **** static const uint8_t u8x8_d_ssd1607_200x200_init_seq[] = {    
 216:..\..\..\..\..\..\Dev\Library embedded l2c display\u8g2\csrc/u8x8_d_ssd1607_200x200.c ****   U8X8_START_TRANSFER(),             	/* enable chip, delay is part of the transfer start */
 217:..\..\..\..\..\..\Dev\Library embedded l2c display\u8g2\csrc/u8x8_d_ssd1607_200x200.c **** 
 218:..\..\..\..\..\..\Dev\Library embedded l2c display\u8g2\csrc/u8x8_d_ssd1607_200x200.c ****   //U8X8_CA(0x10, 0x00),	/* Deep Sleep mode Control: Disable */
 219:..\..\..\..\..\..\Dev\Library embedded l2c display\u8g2\csrc/u8x8_d_ssd1607_200x200.c ****   U8X8_C(0x01),
 220:..\..\..\..\..\..\Dev\Library embedded l2c display\u8g2\csrc/u8x8_d_ssd1607_200x200.c ****   U8X8_A(199),U8X8_A(0),U8X8_A(0),
 221:..\..\..\..\..\..\Dev\Library embedded l2c display\u8g2\csrc/u8x8_d_ssd1607_200x200.c ****   
 222:..\..\..\..\..\..\Dev\Library embedded l2c display\u8g2\csrc/u8x8_d_ssd1607_200x200.c ****   
 223:..\..\..\..\..\..\Dev\Library embedded l2c display\u8g2\csrc/u8x8_d_ssd1607_200x200.c ****   U8X8_CA(0x03, 0x00), 	/* Gate Driving voltage: 15V (lowest value)*/
 224:..\..\..\..\..\..\Dev\Library embedded l2c display\u8g2\csrc/u8x8_d_ssd1607_200x200.c ****   U8X8_CA(0x04, 0x0a), 	/* Source Driving voltage: 15V (mid value and POR)*/
 225:..\..\..\..\..\..\Dev\Library embedded l2c display\u8g2\csrc/u8x8_d_ssd1607_200x200.c ****   
 226:..\..\..\..\..\..\Dev\Library embedded l2c display\u8g2\csrc/u8x8_d_ssd1607_200x200.c ****   U8X8_CA(0x0f, 0x00),		/* scan start ? */
 227:..\..\..\..\..\..\Dev\Library embedded l2c display\u8g2\csrc/u8x8_d_ssd1607_200x200.c ****   
 228:..\..\..\..\..\..\Dev\Library embedded l2c display\u8g2\csrc/u8x8_d_ssd1607_200x200.c ****   U8X8_CA(0xf0, 0x1f),	/* set booster feedback to internal */
 229:..\..\..\..\..\..\Dev\Library embedded l2c display\u8g2\csrc/u8x8_d_ssd1607_200x200.c **** 
 230:..\..\..\..\..\..\Dev\Library embedded l2c display\u8g2\csrc/u8x8_d_ssd1607_200x200.c ****   U8X8_CA(0x2c, 0xa8),	/* write vcom value*/
 231:..\..\..\..\..\..\Dev\Library embedded l2c display\u8g2\csrc/u8x8_d_ssd1607_200x200.c ****   U8X8_CA(0x3a, 0x1a),	/* dummy lines */
 232:..\..\..\..\..\..\Dev\Library embedded l2c display\u8g2\csrc/u8x8_d_ssd1607_200x200.c ****   U8X8_CA(0x3b, 0x08),	/* gate time */
 233:..\..\..\..\..\..\Dev\Library embedded l2c display\u8g2\csrc/u8x8_d_ssd1607_200x200.c ****   U8X8_CA(0x3c, 0x33),	/* select boarder waveform */
 234:..\..\..\..\..\..\Dev\Library embedded l2c display\u8g2\csrc/u8x8_d_ssd1607_200x200.c ****   
 235:..\..\..\..\..\..\Dev\Library embedded l2c display\u8g2\csrc/u8x8_d_ssd1607_200x200.c ****   U8X8_CA(0x11, 0x03),		/* cursor increment mode */
 236:..\..\..\..\..\..\Dev\Library embedded l2c display\u8g2\csrc/u8x8_d_ssd1607_200x200.c ****   U8X8_CAA(0x44, 0, 24),	/* RAM x start & end, each byte has 8 pixel, 25*4=200 */
 237:..\..\..\..\..\..\Dev\Library embedded l2c display\u8g2\csrc/u8x8_d_ssd1607_200x200.c ****   U8X8_CAAAA(0x45, 0, 0, 299&255, 299>>8),	/* RAM y start & end, 0..299 */
 238:..\..\..\..\..\..\Dev\Library embedded l2c display\u8g2\csrc/u8x8_d_ssd1607_200x200.c ****   
 239:..\..\..\..\..\..\Dev\Library embedded l2c display\u8g2\csrc/u8x8_d_ssd1607_200x200.c ****   U8X8_END_TRANSFER(),             	/* disable chip */
 240:..\..\..\..\..\..\Dev\Library embedded l2c display\u8g2\csrc/u8x8_d_ssd1607_200x200.c ****   U8X8_END()             			/* end of sequence */
 241:..\..\..\..\..\..\Dev\Library embedded l2c display\u8g2\csrc/u8x8_d_ssd1607_200x200.c **** };
 242:..\..\..\..\..\..\Dev\Library embedded l2c display\u8g2\csrc/u8x8_d_ssd1607_200x200.c **** 
 243:..\..\..\..\..\..\Dev\Library embedded l2c display\u8g2\csrc/u8x8_d_ssd1607_200x200.c **** static const uint8_t u8x8_d_ssd1607_to_display_seq[] = {
 244:..\..\..\..\..\..\Dev\Library embedded l2c display\u8g2\csrc/u8x8_d_ssd1607_200x200.c ****   U8X8_START_TRANSFER(),             	/* enable chip, delay is part of the transfer start */
 245:..\..\..\..\..\..\Dev\Library embedded l2c display\u8g2\csrc/u8x8_d_ssd1607_200x200.c **** 
 246:..\..\..\..\..\..\Dev\Library embedded l2c display\u8g2\csrc/u8x8_d_ssd1607_200x200.c ****   U8X8_C(0x32),	/* write LUT register*/
 247:..\..\..\..\..\..\Dev\Library embedded l2c display\u8g2\csrc/u8x8_d_ssd1607_200x200.c **** 
 248:..\..\..\..\..\..\Dev\Library embedded l2c display\u8g2\csrc/u8x8_d_ssd1607_200x200.c ****   
 249:..\..\..\..\..\..\Dev\Library embedded l2c display\u8g2\csrc/u8x8_d_ssd1607_200x200.c ****   /* according to the command table, the lut has 240 bits (=30 bytes * 8 bits) */
 250:..\..\..\..\..\..\Dev\Library embedded l2c display\u8g2\csrc/u8x8_d_ssd1607_200x200.c ****   
 251:..\..\..\..\..\..\Dev\Library embedded l2c display\u8g2\csrc/u8x8_d_ssd1607_200x200.c ****   /* Waveform part of the LUT (20 bytes) */
 252:..\..\..\..\..\..\Dev\Library embedded l2c display\u8g2\csrc/u8x8_d_ssd1607_200x200.c ****   /* bit 7/6: 1 - 1 transition */
 253:..\..\..\..\..\..\Dev\Library embedded l2c display\u8g2\csrc/u8x8_d_ssd1607_200x200.c ****   /* bit 5/4: 1 - 0 transition */
 254:..\..\..\..\..\..\Dev\Library embedded l2c display\u8g2\csrc/u8x8_d_ssd1607_200x200.c ****   /* bit 3/2: 0 - 1 transition */
 255:..\..\..\..\..\..\Dev\Library embedded l2c display\u8g2\csrc/u8x8_d_ssd1607_200x200.c ****   /* bit 1/0: 0 - 0 transition */
 256:..\..\..\..\..\..\Dev\Library embedded l2c display\u8g2\csrc/u8x8_d_ssd1607_200x200.c ****   /* 	00 – VSS */
 257:..\..\..\..\..\..\Dev\Library embedded l2c display\u8g2\csrc/u8x8_d_ssd1607_200x200.c ****   /* 	01 – VSH */
 258:..\..\..\..\..\..\Dev\Library embedded l2c display\u8g2\csrc/u8x8_d_ssd1607_200x200.c ****   /* 	10 – VSL */
 259:..\..\..\..\..\..\Dev\Library embedded l2c display\u8g2\csrc/u8x8_d_ssd1607_200x200.c ****   /* 	11 – NA */
 260:..\..\..\..\..\..\Dev\Library embedded l2c display\u8g2\csrc/u8x8_d_ssd1607_200x200.c ****   
 261:..\..\..\..\..\..\Dev\Library embedded l2c display\u8g2\csrc/u8x8_d_ssd1607_200x200.c ****   /* original values */
ARM GAS  C:\Users\Abude\AppData\Local\Temp\ccaK9Evq.s 			page 11


 262:..\..\..\..\..\..\Dev\Library embedded l2c display\u8g2\csrc/u8x8_d_ssd1607_200x200.c ****   /*
 263:..\..\..\..\..\..\Dev\Library embedded l2c display\u8g2\csrc/u8x8_d_ssd1607_200x200.c ****   U8X8_A(0x02),
 264:..\..\..\..\..\..\Dev\Library embedded l2c display\u8g2\csrc/u8x8_d_ssd1607_200x200.c ****   U8X8_A(0x02),
 265:..\..\..\..\..\..\Dev\Library embedded l2c display\u8g2\csrc/u8x8_d_ssd1607_200x200.c ****   U8X8_A(0x01),
 266:..\..\..\..\..\..\Dev\Library embedded l2c display\u8g2\csrc/u8x8_d_ssd1607_200x200.c ****   U8X8_A(0x11),
 267:..\..\..\..\..\..\Dev\Library embedded l2c display\u8g2\csrc/u8x8_d_ssd1607_200x200.c ****   U8X8_A(0x12),
 268:..\..\..\..\..\..\Dev\Library embedded l2c display\u8g2\csrc/u8x8_d_ssd1607_200x200.c ****   U8X8_A(0x12),
 269:..\..\..\..\..\..\Dev\Library embedded l2c display\u8g2\csrc/u8x8_d_ssd1607_200x200.c ****   U8X8_A(0x22),
 270:..\..\..\..\..\..\Dev\Library embedded l2c display\u8g2\csrc/u8x8_d_ssd1607_200x200.c ****   U8X8_A(0x22),
 271:..\..\..\..\..\..\Dev\Library embedded l2c display\u8g2\csrc/u8x8_d_ssd1607_200x200.c ****   U8X8_A(0x66),
 272:..\..\..\..\..\..\Dev\Library embedded l2c display\u8g2\csrc/u8x8_d_ssd1607_200x200.c ****   U8X8_A(0x69),
 273:..\..\..\..\..\..\Dev\Library embedded l2c display\u8g2\csrc/u8x8_d_ssd1607_200x200.c ****   U8X8_A(0x69),
 274:..\..\..\..\..\..\Dev\Library embedded l2c display\u8g2\csrc/u8x8_d_ssd1607_200x200.c ****   U8X8_A(0x59),
 275:..\..\..\..\..\..\Dev\Library embedded l2c display\u8g2\csrc/u8x8_d_ssd1607_200x200.c ****   U8X8_A(0x58),
 276:..\..\..\..\..\..\Dev\Library embedded l2c display\u8g2\csrc/u8x8_d_ssd1607_200x200.c ****   U8X8_A(0x99),
 277:..\..\..\..\..\..\Dev\Library embedded l2c display\u8g2\csrc/u8x8_d_ssd1607_200x200.c ****   U8X8_A(0x99),
 278:..\..\..\..\..\..\Dev\Library embedded l2c display\u8g2\csrc/u8x8_d_ssd1607_200x200.c ****   U8X8_A(0x88),
 279:..\..\..\..\..\..\Dev\Library embedded l2c display\u8g2\csrc/u8x8_d_ssd1607_200x200.c ****   U8X8_A(0x00),
 280:..\..\..\..\..\..\Dev\Library embedded l2c display\u8g2\csrc/u8x8_d_ssd1607_200x200.c ****   U8X8_A(0x00),
 281:..\..\..\..\..\..\Dev\Library embedded l2c display\u8g2\csrc/u8x8_d_ssd1607_200x200.c ****   U8X8_A(0x00),
 282:..\..\..\..\..\..\Dev\Library embedded l2c display\u8g2\csrc/u8x8_d_ssd1607_200x200.c ****   U8X8_A(0x00),
 283:..\..\..\..\..\..\Dev\Library embedded l2c display\u8g2\csrc/u8x8_d_ssd1607_200x200.c ****   */
 284:..\..\..\..\..\..\Dev\Library embedded l2c display\u8g2\csrc/u8x8_d_ssd1607_200x200.c ****   
 285:..\..\..\..\..\..\Dev\Library embedded l2c display\u8g2\csrc/u8x8_d_ssd1607_200x200.c ****   /* original values, L-macro */
 286:..\..\..\..\..\..\Dev\Library embedded l2c display\u8g2\csrc/u8x8_d_ssd1607_200x200.c ****   U8X8_A(L(0,0,0,2)), // 0x02
 287:..\..\..\..\..\..\Dev\Library embedded l2c display\u8g2\csrc/u8x8_d_ssd1607_200x200.c ****   U8X8_A(L(0,0,0,2)), // 0x02
 288:..\..\..\..\..\..\Dev\Library embedded l2c display\u8g2\csrc/u8x8_d_ssd1607_200x200.c ****   U8X8_A(L(0,0,0,1)), // 0x01
 289:..\..\..\..\..\..\Dev\Library embedded l2c display\u8g2\csrc/u8x8_d_ssd1607_200x200.c ****   U8X8_A(L(0,1,0,1)), // 0x11
 290:..\..\..\..\..\..\Dev\Library embedded l2c display\u8g2\csrc/u8x8_d_ssd1607_200x200.c ****   U8X8_A(L(0,1,0,2)), // 0x12
 291:..\..\..\..\..\..\Dev\Library embedded l2c display\u8g2\csrc/u8x8_d_ssd1607_200x200.c ****   U8X8_A(L(0,1,0,2)), // 0x12
 292:..\..\..\..\..\..\Dev\Library embedded l2c display\u8g2\csrc/u8x8_d_ssd1607_200x200.c ****   U8X8_A(L(0,2,0,2)), // 0x22
 293:..\..\..\..\..\..\Dev\Library embedded l2c display\u8g2\csrc/u8x8_d_ssd1607_200x200.c ****   U8X8_A(L(0,2,0,2)), // 0x22
 294:..\..\..\..\..\..\Dev\Library embedded l2c display\u8g2\csrc/u8x8_d_ssd1607_200x200.c ****   U8X8_A(L(1,2,1,2)), // 0x66
 295:..\..\..\..\..\..\Dev\Library embedded l2c display\u8g2\csrc/u8x8_d_ssd1607_200x200.c ****   U8X8_A(L(1,2,2,1)), // 0x69
 296:..\..\..\..\..\..\Dev\Library embedded l2c display\u8g2\csrc/u8x8_d_ssd1607_200x200.c ****   U8X8_A(L(1,2,2,1)), // 0x69
 297:..\..\..\..\..\..\Dev\Library embedded l2c display\u8g2\csrc/u8x8_d_ssd1607_200x200.c ****   U8X8_A(L(1,1,2,1)), // 0x59
 298:..\..\..\..\..\..\Dev\Library embedded l2c display\u8g2\csrc/u8x8_d_ssd1607_200x200.c ****   U8X8_A(L(1,1,2,0)), // 0x58
 299:..\..\..\..\..\..\Dev\Library embedded l2c display\u8g2\csrc/u8x8_d_ssd1607_200x200.c ****   U8X8_A(L(2,1,2,1)), // 0x99
 300:..\..\..\..\..\..\Dev\Library embedded l2c display\u8g2\csrc/u8x8_d_ssd1607_200x200.c ****   U8X8_A(L(2,1,2,1)), // 0x99
 301:..\..\..\..\..\..\Dev\Library embedded l2c display\u8g2\csrc/u8x8_d_ssd1607_200x200.c ****   U8X8_A(L(2,0,2,0)), // 0x88
 302:..\..\..\..\..\..\Dev\Library embedded l2c display\u8g2\csrc/u8x8_d_ssd1607_200x200.c ****   U8X8_A(L(0,0,0,0)), // 0x00
 303:..\..\..\..\..\..\Dev\Library embedded l2c display\u8g2\csrc/u8x8_d_ssd1607_200x200.c ****   U8X8_A(L(0,0,0,0)), // 0x00
 304:..\..\..\..\..\..\Dev\Library embedded l2c display\u8g2\csrc/u8x8_d_ssd1607_200x200.c ****   U8X8_A(L(0,0,0,0)), // 0x00
 305:..\..\..\..\..\..\Dev\Library embedded l2c display\u8g2\csrc/u8x8_d_ssd1607_200x200.c ****   U8X8_A(L(0,0,0,0)), // 0x00
 306:..\..\..\..\..\..\Dev\Library embedded l2c display\u8g2\csrc/u8x8_d_ssd1607_200x200.c **** 
 307:..\..\..\..\..\..\Dev\Library embedded l2c display\u8g2\csrc/u8x8_d_ssd1607_200x200.c **** 
 308:..\..\..\..\..\..\Dev\Library embedded l2c display\u8g2\csrc/u8x8_d_ssd1607_200x200.c ****   /* orginal values without 0-0 and 1-1 transition */
 309:..\..\..\..\..\..\Dev\Library embedded l2c display\u8g2\csrc/u8x8_d_ssd1607_200x200.c ****   /*
 310:..\..\..\..\..\..\Dev\Library embedded l2c display\u8g2\csrc/u8x8_d_ssd1607_200x200.c ****   U8X8_A(L(3,0,0,3)), // 0x02
 311:..\..\..\..\..\..\Dev\Library embedded l2c display\u8g2\csrc/u8x8_d_ssd1607_200x200.c ****   U8X8_A(L(3,0,0,3)), // 0x02
 312:..\..\..\..\..\..\Dev\Library embedded l2c display\u8g2\csrc/u8x8_d_ssd1607_200x200.c ****   U8X8_A(L(3,0,0,3)), // 0x01
 313:..\..\..\..\..\..\Dev\Library embedded l2c display\u8g2\csrc/u8x8_d_ssd1607_200x200.c ****   U8X8_A(L(3,1,0,3)), // 0x11
 314:..\..\..\..\..\..\Dev\Library embedded l2c display\u8g2\csrc/u8x8_d_ssd1607_200x200.c ****   U8X8_A(L(3,1,0,3)), // 0x12
 315:..\..\..\..\..\..\Dev\Library embedded l2c display\u8g2\csrc/u8x8_d_ssd1607_200x200.c ****   U8X8_A(L(3,1,0,3)), // 0x12
 316:..\..\..\..\..\..\Dev\Library embedded l2c display\u8g2\csrc/u8x8_d_ssd1607_200x200.c ****   U8X8_A(L(3,2,0,3)), // 0x22
 317:..\..\..\..\..\..\Dev\Library embedded l2c display\u8g2\csrc/u8x8_d_ssd1607_200x200.c ****   U8X8_A(L(3,2,0,3)), // 0x22
 318:..\..\..\..\..\..\Dev\Library embedded l2c display\u8g2\csrc/u8x8_d_ssd1607_200x200.c ****   U8X8_A(L(3,2,1,3)), // 0x66
ARM GAS  C:\Users\Abude\AppData\Local\Temp\ccaK9Evq.s 			page 12


 319:..\..\..\..\..\..\Dev\Library embedded l2c display\u8g2\csrc/u8x8_d_ssd1607_200x200.c ****   U8X8_A(L(3,2,2,3)), // 0x69
 320:..\..\..\..\..\..\Dev\Library embedded l2c display\u8g2\csrc/u8x8_d_ssd1607_200x200.c ****   U8X8_A(L(3,2,2,3)), // 0x69
 321:..\..\..\..\..\..\Dev\Library embedded l2c display\u8g2\csrc/u8x8_d_ssd1607_200x200.c ****   U8X8_A(L(3,1,2,3)), // 0x59
 322:..\..\..\..\..\..\Dev\Library embedded l2c display\u8g2\csrc/u8x8_d_ssd1607_200x200.c ****   U8X8_A(L(3,1,2,3)), // 0x58
 323:..\..\..\..\..\..\Dev\Library embedded l2c display\u8g2\csrc/u8x8_d_ssd1607_200x200.c ****   U8X8_A(L(3,1,2,3)), // 0x99
 324:..\..\..\..\..\..\Dev\Library embedded l2c display\u8g2\csrc/u8x8_d_ssd1607_200x200.c ****   U8X8_A(L(3,1,2,3)), // 0x99
 325:..\..\..\..\..\..\Dev\Library embedded l2c display\u8g2\csrc/u8x8_d_ssd1607_200x200.c ****   U8X8_A(L(3,0,2,3)), // 0x88
 326:..\..\..\..\..\..\Dev\Library embedded l2c display\u8g2\csrc/u8x8_d_ssd1607_200x200.c ****   U8X8_A(L(3,0,0,3)), // 0x00
 327:..\..\..\..\..\..\Dev\Library embedded l2c display\u8g2\csrc/u8x8_d_ssd1607_200x200.c ****   U8X8_A(L(3,0,0,3)), // 0x00
 328:..\..\..\..\..\..\Dev\Library embedded l2c display\u8g2\csrc/u8x8_d_ssd1607_200x200.c ****   U8X8_A(L(3,0,0,3)), // 0x00
 329:..\..\..\..\..\..\Dev\Library embedded l2c display\u8g2\csrc/u8x8_d_ssd1607_200x200.c ****   U8X8_A(L(3,0,0,3)), // 0x00
 330:..\..\..\..\..\..\Dev\Library embedded l2c display\u8g2\csrc/u8x8_d_ssd1607_200x200.c ****   */
 331:..\..\..\..\..\..\Dev\Library embedded l2c display\u8g2\csrc/u8x8_d_ssd1607_200x200.c ****   
 332:..\..\..\..\..\..\Dev\Library embedded l2c display\u8g2\csrc/u8x8_d_ssd1607_200x200.c ****   
 333:..\..\..\..\..\..\Dev\Library embedded l2c display\u8g2\csrc/u8x8_d_ssd1607_200x200.c ****   /* Timing part of the LUT, 20 Phases with 4 bit each: 10 bytes */
 334:..\..\..\..\..\..\Dev\Library embedded l2c display\u8g2\csrc/u8x8_d_ssd1607_200x200.c ****   U8X8_A(0xF8),
 335:..\..\..\..\..\..\Dev\Library embedded l2c display\u8g2\csrc/u8x8_d_ssd1607_200x200.c ****   U8X8_A(0xB4),
 336:..\..\..\..\..\..\Dev\Library embedded l2c display\u8g2\csrc/u8x8_d_ssd1607_200x200.c ****   U8X8_A(0x13),
 337:..\..\..\..\..\..\Dev\Library embedded l2c display\u8g2\csrc/u8x8_d_ssd1607_200x200.c ****   U8X8_A(0x51),
 338:..\..\..\..\..\..\Dev\Library embedded l2c display\u8g2\csrc/u8x8_d_ssd1607_200x200.c ****   U8X8_A(0x35),
 339:..\..\..\..\..\..\Dev\Library embedded l2c display\u8g2\csrc/u8x8_d_ssd1607_200x200.c ****   U8X8_A(0x51),
 340:..\..\..\..\..\..\Dev\Library embedded l2c display\u8g2\csrc/u8x8_d_ssd1607_200x200.c ****   U8X8_A(0x51),
 341:..\..\..\..\..\..\Dev\Library embedded l2c display\u8g2\csrc/u8x8_d_ssd1607_200x200.c ****   U8X8_A(0x19),
 342:..\..\..\..\..\..\Dev\Library embedded l2c display\u8g2\csrc/u8x8_d_ssd1607_200x200.c ****   U8X8_A(0x01),
 343:..\..\..\..\..\..\Dev\Library embedded l2c display\u8g2\csrc/u8x8_d_ssd1607_200x200.c ****   U8X8_A(0x00),
 344:..\..\..\..\..\..\Dev\Library embedded l2c display\u8g2\csrc/u8x8_d_ssd1607_200x200.c ****   
 345:..\..\..\..\..\..\Dev\Library embedded l2c display\u8g2\csrc/u8x8_d_ssd1607_200x200.c ****   
 346:..\..\..\..\..\..\Dev\Library embedded l2c display\u8g2\csrc/u8x8_d_ssd1607_200x200.c ****   U8X8_CA(0x22, 0x04),	/* display update seq. option: clk -> CP -> LUT -> initial display -> patter
 347:..\..\..\..\..\..\Dev\Library embedded l2c display\u8g2\csrc/u8x8_d_ssd1607_200x200.c ****   U8X8_C(0x20),	/* execute sequence */
 348:..\..\..\..\..\..\Dev\Library embedded l2c display\u8g2\csrc/u8x8_d_ssd1607_200x200.c ****   U8X8_DLY(250),	/* the sequence above requires about 1200ms for the 200x200 display*/
 349:..\..\..\..\..\..\Dev\Library embedded l2c display\u8g2\csrc/u8x8_d_ssd1607_200x200.c ****   U8X8_DLY(250),
 350:..\..\..\..\..\..\Dev\Library embedded l2c display\u8g2\csrc/u8x8_d_ssd1607_200x200.c ****   U8X8_DLY(250),
 351:..\..\..\..\..\..\Dev\Library embedded l2c display\u8g2\csrc/u8x8_d_ssd1607_200x200.c ****   U8X8_DLY(250),
 352:..\..\..\..\..\..\Dev\Library embedded l2c display\u8g2\csrc/u8x8_d_ssd1607_200x200.c ****   U8X8_DLY(250),
 353:..\..\..\..\..\..\Dev\Library embedded l2c display\u8g2\csrc/u8x8_d_ssd1607_200x200.c ****   U8X8_DLY(250),
 354:..\..\..\..\..\..\Dev\Library embedded l2c display\u8g2\csrc/u8x8_d_ssd1607_200x200.c ****   U8X8_DLY(250),
 355:..\..\..\..\..\..\Dev\Library embedded l2c display\u8g2\csrc/u8x8_d_ssd1607_200x200.c ****   
 356:..\..\..\..\..\..\Dev\Library embedded l2c display\u8g2\csrc/u8x8_d_ssd1607_200x200.c ****   U8X8_END_TRANSFER(),             	/* disable chip */
 357:..\..\..\..\..\..\Dev\Library embedded l2c display\u8g2\csrc/u8x8_d_ssd1607_200x200.c ****   U8X8_END()             			/* end of sequence */
 358:..\..\..\..\..\..\Dev\Library embedded l2c display\u8g2\csrc/u8x8_d_ssd1607_200x200.c **** };
 359:..\..\..\..\..\..\Dev\Library embedded l2c display\u8g2\csrc/u8x8_d_ssd1607_200x200.c **** 
 360:..\..\..\..\..\..\Dev\Library embedded l2c display\u8g2\csrc/u8x8_d_ssd1607_200x200.c **** 
 361:..\..\..\..\..\..\Dev\Library embedded l2c display\u8g2\csrc/u8x8_d_ssd1607_200x200.c **** uint8_t u8x8_d_ssd1607_200x200(u8x8_t *u8x8, uint8_t msg, uint8_t arg_int, void *arg_ptr)
 362:..\..\..\..\..\..\Dev\Library embedded l2c display\u8g2\csrc/u8x8_d_ssd1607_200x200.c **** {
 300              		.loc 1 362 0
 301              		.cfi_startproc
 302              		@ args = 0, pretend = 0, frame = 0
 303              		@ frame_needed = 0, uses_anonymous_args = 0
 304              	.LVL47:
 305 0000 38B5     		push	{r3, r4, r5, lr}
 306              		.cfi_def_cfa_offset 16
 307              		.cfi_offset 3, -16
 308              		.cfi_offset 4, -12
 309              		.cfi_offset 5, -8
 310              		.cfi_offset 14, -4
 311 0002 0446     		mov	r4, r0
 312 0004 1046     		mov	r0, r2
ARM GAS  C:\Users\Abude\AppData\Local\Temp\ccaK9Evq.s 			page 13


 313              	.LVL48:
 363:..\..\..\..\..\..\Dev\Library embedded l2c display\u8g2\csrc/u8x8_d_ssd1607_200x200.c ****   switch(msg)
 314              		.loc 1 363 0
 315 0006 0939     		subs	r1, r1, #9
 316              	.LVL49:
 317 0008 0729     		cmp	r1, #7
 318 000a 05D8     		bhi	.L15
 319 000c DFE801F0 		tbb	[pc, r1]
 320              	.LVL50:
 321              	.L17:
 322 0010 06       		.byte	(.L16-.L17)/2
 323 0011 0C       		.byte	(.L18-.L17)/2
 324 0012 1F       		.byte	(.L19-.L17)/2
 325 0013 04       		.byte	(.L15-.L17)/2
 326 0014 39       		.byte	(.L24-.L17)/2
 327 0015 04       		.byte	(.L15-.L17)/2
 328 0016 2C       		.byte	(.L21-.L17)/2
 329 0017 33       		.byte	(.L22-.L17)/2
 330              		.p2align 1
 331              	.L15:
 364:..\..\..\..\..\..\Dev\Library embedded l2c display\u8g2\csrc/u8x8_d_ssd1607_200x200.c ****   {
 365:..\..\..\..\..\..\Dev\Library embedded l2c display\u8g2\csrc/u8x8_d_ssd1607_200x200.c ****     case U8X8_MSG_DISPLAY_SETUP_MEMORY:
 366:..\..\..\..\..\..\Dev\Library embedded l2c display\u8g2\csrc/u8x8_d_ssd1607_200x200.c ****       u8x8_d_helper_display_setup_memory(u8x8, &u8x8_ssd1607_200x200_display_info);
 367:..\..\..\..\..\..\Dev\Library embedded l2c display\u8g2\csrc/u8x8_d_ssd1607_200x200.c ****       break;
 368:..\..\..\..\..\..\Dev\Library embedded l2c display\u8g2\csrc/u8x8_d_ssd1607_200x200.c ****     case U8X8_MSG_DISPLAY_INIT:
 369:..\..\..\..\..\..\Dev\Library embedded l2c display\u8g2\csrc/u8x8_d_ssd1607_200x200.c ****       u8x8_d_helper_display_init(u8x8);
 370:..\..\..\..\..\..\Dev\Library embedded l2c display\u8g2\csrc/u8x8_d_ssd1607_200x200.c ****       u8x8_cad_SendSequence(u8x8, u8x8_d_ssd1607_200x200_init_seq);    
 371:..\..\..\..\..\..\Dev\Library embedded l2c display\u8g2\csrc/u8x8_d_ssd1607_200x200.c ****       u8x8_cad_SendSequence(u8x8, u8x8_d_ssd1607_200x200_powersave0_seq);
 372:..\..\..\..\..\..\Dev\Library embedded l2c display\u8g2\csrc/u8x8_d_ssd1607_200x200.c ****       u8x8_d_ssd1607_200x200_first_init(u8x8);
 373:..\..\..\..\..\..\Dev\Library embedded l2c display\u8g2\csrc/u8x8_d_ssd1607_200x200.c ****       break;
 374:..\..\..\..\..\..\Dev\Library embedded l2c display\u8g2\csrc/u8x8_d_ssd1607_200x200.c ****     case U8X8_MSG_DISPLAY_SET_POWER_SAVE:
 375:..\..\..\..\..\..\Dev\Library embedded l2c display\u8g2\csrc/u8x8_d_ssd1607_200x200.c ****       if ( arg_int == 0 )
 376:..\..\..\..\..\..\Dev\Library embedded l2c display\u8g2\csrc/u8x8_d_ssd1607_200x200.c **** 	u8x8_cad_SendSequence(u8x8, u8x8_d_ssd1607_200x200_powersave0_seq);
 377:..\..\..\..\..\..\Dev\Library embedded l2c display\u8g2\csrc/u8x8_d_ssd1607_200x200.c ****       else
 378:..\..\..\..\..\..\Dev\Library embedded l2c display\u8g2\csrc/u8x8_d_ssd1607_200x200.c **** 	u8x8_cad_SendSequence(u8x8, u8x8_d_ssd1607_200x200_powersave1_seq);
 379:..\..\..\..\..\..\Dev\Library embedded l2c display\u8g2\csrc/u8x8_d_ssd1607_200x200.c ****       break;
 380:..\..\..\..\..\..\Dev\Library embedded l2c display\u8g2\csrc/u8x8_d_ssd1607_200x200.c ****     case U8X8_MSG_DISPLAY_SET_FLIP_MODE:
 381:..\..\..\..\..\..\Dev\Library embedded l2c display\u8g2\csrc/u8x8_d_ssd1607_200x200.c ****       break;
 382:..\..\..\..\..\..\Dev\Library embedded l2c display\u8g2\csrc/u8x8_d_ssd1607_200x200.c ****     case U8X8_MSG_DISPLAY_DRAW_TILE:
 383:..\..\..\..\..\..\Dev\Library embedded l2c display\u8g2\csrc/u8x8_d_ssd1607_200x200.c ****       u8x8_d_ssd1607_draw_tile(u8x8, arg_int, arg_ptr);
 384:..\..\..\..\..\..\Dev\Library embedded l2c display\u8g2\csrc/u8x8_d_ssd1607_200x200.c ****       break;
 385:..\..\..\..\..\..\Dev\Library embedded l2c display\u8g2\csrc/u8x8_d_ssd1607_200x200.c ****     case U8X8_MSG_DISPLAY_REFRESH:
 386:..\..\..\..\..\..\Dev\Library embedded l2c display\u8g2\csrc/u8x8_d_ssd1607_200x200.c ****       u8x8_cad_SendSequence(u8x8, u8x8_d_ssd1607_to_display_seq);
 387:..\..\..\..\..\..\Dev\Library embedded l2c display\u8g2\csrc/u8x8_d_ssd1607_200x200.c ****       break;
 388:..\..\..\..\..\..\Dev\Library embedded l2c display\u8g2\csrc/u8x8_d_ssd1607_200x200.c ****     default:
 389:..\..\..\..\..\..\Dev\Library embedded l2c display\u8g2\csrc/u8x8_d_ssd1607_200x200.c ****       return 0;
 332              		.loc 1 389 0
 333 0018 0020     		movs	r0, #0
 334 001a 38BD     		pop	{r3, r4, r5, pc}
 335              	.LVL51:
 336              	.L16:
 366:..\..\..\..\..\..\Dev\Library embedded l2c display\u8g2\csrc/u8x8_d_ssd1607_200x200.c ****       break;
 337              		.loc 1 366 0
 338 001c 1A49     		ldr	r1, .L26
 339 001e 2046     		mov	r0, r4
 340 0020 FFF7FEFF 		bl	u8x8_d_helper_display_setup_memory
 341              	.LVL52:
ARM GAS  C:\Users\Abude\AppData\Local\Temp\ccaK9Evq.s 			page 14


 390:..\..\..\..\..\..\Dev\Library embedded l2c display\u8g2\csrc/u8x8_d_ssd1607_200x200.c ****   }
 391:..\..\..\..\..\..\Dev\Library embedded l2c display\u8g2\csrc/u8x8_d_ssd1607_200x200.c ****   return 1;
 342              		.loc 1 391 0
 343 0024 0120     		movs	r0, #1
 367:..\..\..\..\..\..\Dev\Library embedded l2c display\u8g2\csrc/u8x8_d_ssd1607_200x200.c ****     case U8X8_MSG_DISPLAY_INIT:
 344              		.loc 1 367 0
 345 0026 38BD     		pop	{r3, r4, r5, pc}
 346              	.LVL53:
 347              	.L18:
 369:..\..\..\..\..\..\Dev\Library embedded l2c display\u8g2\csrc/u8x8_d_ssd1607_200x200.c ****       u8x8_cad_SendSequence(u8x8, u8x8_d_ssd1607_200x200_init_seq);    
 348              		.loc 1 369 0
 349 0028 2046     		mov	r0, r4
 350 002a FFF7FEFF 		bl	u8x8_d_helper_display_init
 351              	.LVL54:
 370:..\..\..\..\..\..\Dev\Library embedded l2c display\u8g2\csrc/u8x8_d_ssd1607_200x200.c ****       u8x8_cad_SendSequence(u8x8, u8x8_d_ssd1607_200x200_powersave0_seq);
 352              		.loc 1 370 0
 353 002e 174D     		ldr	r5, .L26+4
 354 0030 05F12801 		add	r1, r5, #40
 355 0034 2046     		mov	r0, r4
 356 0036 FFF7FEFF 		bl	u8x8_cad_SendSequence
 357              	.LVL55:
 371:..\..\..\..\..\..\Dev\Library embedded l2c display\u8g2\csrc/u8x8_d_ssd1607_200x200.c ****       u8x8_d_ssd1607_200x200_first_init(u8x8);
 358              		.loc 1 371 0
 359 003a 05F16801 		add	r1, r5, #104
 360 003e 2046     		mov	r0, r4
 361 0040 FFF7FEFF 		bl	u8x8_cad_SendSequence
 362              	.LVL56:
 372:..\..\..\..\..\..\Dev\Library embedded l2c display\u8g2\csrc/u8x8_d_ssd1607_200x200.c ****       break;
 363              		.loc 1 372 0
 364 0044 2046     		mov	r0, r4
 365 0046 FFF7FEFF 		bl	u8x8_d_ssd1607_200x200_first_init
 366              	.LVL57:
 367              		.loc 1 391 0
 368 004a 0120     		movs	r0, #1
 373:..\..\..\..\..\..\Dev\Library embedded l2c display\u8g2\csrc/u8x8_d_ssd1607_200x200.c ****     case U8X8_MSG_DISPLAY_SET_POWER_SAVE:
 369              		.loc 1 373 0
 370 004c 38BD     		pop	{r3, r4, r5, pc}
 371              	.LVL58:
 372              	.L19:
 375:..\..\..\..\..\..\Dev\Library embedded l2c display\u8g2\csrc/u8x8_d_ssd1607_200x200.c **** 	u8x8_cad_SendSequence(u8x8, u8x8_d_ssd1607_200x200_powersave0_seq);
 373              		.loc 1 375 0
 374 004e 28B9     		cbnz	r0, .L23
 376:..\..\..\..\..\..\Dev\Library embedded l2c display\u8g2\csrc/u8x8_d_ssd1607_200x200.c ****       else
 375              		.loc 1 376 0
 376 0050 0F49     		ldr	r1, .L26+8
 377 0052 2046     		mov	r0, r4
 378 0054 FFF7FEFF 		bl	u8x8_cad_SendSequence
 379              	.LVL59:
 380              		.loc 1 391 0
 381 0058 0120     		movs	r0, #1
 382 005a 38BD     		pop	{r3, r4, r5, pc}
 383              	.LVL60:
 384              	.L23:
 378:..\..\..\..\..\..\Dev\Library embedded l2c display\u8g2\csrc/u8x8_d_ssd1607_200x200.c ****       break;
 385              		.loc 1 378 0
 386 005c 0D49     		ldr	r1, .L26+12
 387 005e 2046     		mov	r0, r4
ARM GAS  C:\Users\Abude\AppData\Local\Temp\ccaK9Evq.s 			page 15


 388 0060 FFF7FEFF 		bl	u8x8_cad_SendSequence
 389              	.LVL61:
 390              		.loc 1 391 0
 391 0064 0120     		movs	r0, #1
 392 0066 38BD     		pop	{r3, r4, r5, pc}
 393              	.LVL62:
 394              	.L21:
 383:..\..\..\..\..\..\Dev\Library embedded l2c display\u8g2\csrc/u8x8_d_ssd1607_200x200.c ****       break;
 395              		.loc 1 383 0
 396 0068 1A46     		mov	r2, r3
 397 006a 0146     		mov	r1, r0
 398 006c 2046     		mov	r0, r4
 399 006e FFF7FEFF 		bl	u8x8_d_ssd1607_draw_tile
 400              	.LVL63:
 401              		.loc 1 391 0
 402 0072 0120     		movs	r0, #1
 384:..\..\..\..\..\..\Dev\Library embedded l2c display\u8g2\csrc/u8x8_d_ssd1607_200x200.c ****     case U8X8_MSG_DISPLAY_REFRESH:
 403              		.loc 1 384 0
 404 0074 38BD     		pop	{r3, r4, r5, pc}
 405              	.LVL64:
 406              	.L22:
 386:..\..\..\..\..\..\Dev\Library embedded l2c display\u8g2\csrc/u8x8_d_ssd1607_200x200.c ****       break;
 407              		.loc 1 386 0
 408 0076 0849     		ldr	r1, .L26+16
 409 0078 2046     		mov	r0, r4
 410 007a FFF7FEFF 		bl	u8x8_cad_SendSequence
 411              	.LVL65:
 412              		.loc 1 391 0
 413 007e 0120     		movs	r0, #1
 387:..\..\..\..\..\..\Dev\Library embedded l2c display\u8g2\csrc/u8x8_d_ssd1607_200x200.c ****     default:
 414              		.loc 1 387 0
 415 0080 38BD     		pop	{r3, r4, r5, pc}
 416              	.LVL66:
 417              	.L24:
 418              		.loc 1 391 0
 419 0082 0120     		movs	r0, #1
 392:..\..\..\..\..\..\Dev\Library embedded l2c display\u8g2\csrc/u8x8_d_ssd1607_200x200.c **** }
 420              		.loc 1 392 0
 421 0084 38BD     		pop	{r3, r4, r5, pc}
 422              	.LVL67:
 423              	.L27:
 424 0086 00BF     		.align	2
 425              	.L26:
 426 0088 10000000 		.word	.LANCHOR1+16
 427 008c 00000000 		.word	.LANCHOR1
 428 0090 68000000 		.word	.LANCHOR1+104
 429 0094 78000000 		.word	.LANCHOR1+120
 430 0098 84000000 		.word	.LANCHOR1+132
 431              		.cfi_endproc
 432              	.LFE3:
 433              		.size	u8x8_d_ssd1607_200x200, .-u8x8_d_ssd1607_200x200
 434              		.section	.text.u8x8_d_ssd1607_v2_200x200,"ax",%progbits
 435              		.align	2
 436              		.global	u8x8_d_ssd1607_v2_200x200
 437              		.thumb
 438              		.thumb_func
 439              		.type	u8x8_d_ssd1607_v2_200x200, %function
ARM GAS  C:\Users\Abude\AppData\Local\Temp\ccaK9Evq.s 			page 16


 440              	u8x8_d_ssd1607_v2_200x200:
 441              	.LFB4:
 393:..\..\..\..\..\..\Dev\Library embedded l2c display\u8g2\csrc/u8x8_d_ssd1607_200x200.c **** 
 394:..\..\..\..\..\..\Dev\Library embedded l2c display\u8g2\csrc/u8x8_d_ssd1607_200x200.c **** 
 395:..\..\..\..\..\..\Dev\Library embedded l2c display\u8g2\csrc/u8x8_d_ssd1607_200x200.c **** /*=================================================*/
 396:..\..\..\..\..\..\Dev\Library embedded l2c display\u8g2\csrc/u8x8_d_ssd1607_200x200.c **** /* there is no improvement possible... so i consider the v2 version as obsolete */
 397:..\..\..\..\..\..\Dev\Library embedded l2c display\u8g2\csrc/u8x8_d_ssd1607_200x200.c **** 
 398:..\..\..\..\..\..\Dev\Library embedded l2c display\u8g2\csrc/u8x8_d_ssd1607_200x200.c **** 
 399:..\..\..\..\..\..\Dev\Library embedded l2c display\u8g2\csrc/u8x8_d_ssd1607_200x200.c **** static const uint8_t u8x8_d_ssd1607_v2_to_display_seq[] = {
 400:..\..\..\..\..\..\Dev\Library embedded l2c display\u8g2\csrc/u8x8_d_ssd1607_200x200.c ****   U8X8_START_TRANSFER(),             	/* enable chip, delay is part of the transfer start */
 401:..\..\..\..\..\..\Dev\Library embedded l2c display\u8g2\csrc/u8x8_d_ssd1607_200x200.c **** 
 402:..\..\..\..\..\..\Dev\Library embedded l2c display\u8g2\csrc/u8x8_d_ssd1607_200x200.c ****   /*
 403:..\..\..\..\..\..\Dev\Library embedded l2c display\u8g2\csrc/u8x8_d_ssd1607_200x200.c **** 0xaa, 0x09, 0x09, 0x19, 0x19, 
 404:..\..\..\..\..\..\Dev\Library embedded l2c display\u8g2\csrc/u8x8_d_ssd1607_200x200.c **** 0x11, 0x11, 0x11, 0x11, 0x00, 
 405:..\..\..\..\..\..\Dev\Library embedded l2c display\u8g2\csrc/u8x8_d_ssd1607_200x200.c **** 0x00, 0x00, 0x00, 0x00, 0x00, 
 406:..\..\..\..\..\..\Dev\Library embedded l2c display\u8g2\csrc/u8x8_d_ssd1607_200x200.c **** 0x00, 0x00, 0x00, 0x00, 0x00, 
 407:..\..\..\..\..\..\Dev\Library embedded l2c display\u8g2\csrc/u8x8_d_ssd1607_200x200.c **** 
 408:..\..\..\..\..\..\Dev\Library embedded l2c display\u8g2\csrc/u8x8_d_ssd1607_200x200.c **** 0x75, 0x77, 0x77, 0x77, 0x07, 
 409:..\..\..\..\..\..\Dev\Library embedded l2c display\u8g2\csrc/u8x8_d_ssd1607_200x200.c **** 0x00, 0x00, 0x00, 0x00, 0x00
 410:..\..\..\..\..\..\Dev\Library embedded l2c display\u8g2\csrc/u8x8_d_ssd1607_200x200.c **** measured 1240 ms with IL3830 196x128
 411:..\..\..\..\..\..\Dev\Library embedded l2c display\u8g2\csrc/u8x8_d_ssd1607_200x200.c ****   
 412:..\..\..\..\..\..\Dev\Library embedded l2c display\u8g2\csrc/u8x8_d_ssd1607_200x200.c ****   
 413:..\..\..\..\..\..\Dev\Library embedded l2c display\u8g2\csrc/u8x8_d_ssd1607_200x200.c **** 0x02, 0x02, 0x01, 0x11, 0x12, 
 414:..\..\..\..\..\..\Dev\Library embedded l2c display\u8g2\csrc/u8x8_d_ssd1607_200x200.c **** 0x12, 0x12, 0x22, 0x22, 0x66, 
 415:..\..\..\..\..\..\Dev\Library embedded l2c display\u8g2\csrc/u8x8_d_ssd1607_200x200.c **** 0x69, 0x59, 0x58, 0x99, 0x99, 
 416:..\..\..\..\..\..\Dev\Library embedded l2c display\u8g2\csrc/u8x8_d_ssd1607_200x200.c **** 0x88, 0x00, 0x00, 0x00, 0x00, 
 417:..\..\..\..\..\..\Dev\Library embedded l2c display\u8g2\csrc/u8x8_d_ssd1607_200x200.c **** 
 418:..\..\..\..\..\..\Dev\Library embedded l2c display\u8g2\csrc/u8x8_d_ssd1607_200x200.c **** 0xf8, 0xb4, 0x13, 0x51, 0x35, 
 419:..\..\..\..\..\..\Dev\Library embedded l2c display\u8g2\csrc/u8x8_d_ssd1607_200x200.c **** 0x51, 0x51, 0xe9, 0x04, 0x00
 420:..\..\..\..\..\..\Dev\Library embedded l2c display\u8g2\csrc/u8x8_d_ssd1607_200x200.c ****   
 421:..\..\..\..\..\..\Dev\Library embedded l2c display\u8g2\csrc/u8x8_d_ssd1607_200x200.c **** */
 422:..\..\..\..\..\..\Dev\Library embedded l2c display\u8g2\csrc/u8x8_d_ssd1607_200x200.c **** 
 423:..\..\..\..\..\..\Dev\Library embedded l2c display\u8g2\csrc/u8x8_d_ssd1607_200x200.c ****   U8X8_C(0x32),	/* write LUT register*/
 424:..\..\..\..\..\..\Dev\Library embedded l2c display\u8g2\csrc/u8x8_d_ssd1607_200x200.c **** 
 425:..\..\..\..\..\..\Dev\Library embedded l2c display\u8g2\csrc/u8x8_d_ssd1607_200x200.c ****   /* https://github.com/olikraus/u8g2/issues/347 */
 426:..\..\..\..\..\..\Dev\Library embedded l2c display\u8g2\csrc/u8x8_d_ssd1607_200x200.c ****   U8X8_A(0x02),
 427:..\..\..\..\..\..\Dev\Library embedded l2c display\u8g2\csrc/u8x8_d_ssd1607_200x200.c ****   U8X8_A(0x02),
 428:..\..\..\..\..\..\Dev\Library embedded l2c display\u8g2\csrc/u8x8_d_ssd1607_200x200.c ****   U8X8_A(0x01),
 429:..\..\..\..\..\..\Dev\Library embedded l2c display\u8g2\csrc/u8x8_d_ssd1607_200x200.c ****   U8X8_A(0x11),
 430:..\..\..\..\..\..\Dev\Library embedded l2c display\u8g2\csrc/u8x8_d_ssd1607_200x200.c ****   U8X8_A(0x12),
 431:..\..\..\..\..\..\Dev\Library embedded l2c display\u8g2\csrc/u8x8_d_ssd1607_200x200.c ****   U8X8_A(0x12),
 432:..\..\..\..\..\..\Dev\Library embedded l2c display\u8g2\csrc/u8x8_d_ssd1607_200x200.c ****   U8X8_A(0x22),
 433:..\..\..\..\..\..\Dev\Library embedded l2c display\u8g2\csrc/u8x8_d_ssd1607_200x200.c ****   U8X8_A(0x22),
 434:..\..\..\..\..\..\Dev\Library embedded l2c display\u8g2\csrc/u8x8_d_ssd1607_200x200.c ****   U8X8_A(0x66),
 435:..\..\..\..\..\..\Dev\Library embedded l2c display\u8g2\csrc/u8x8_d_ssd1607_200x200.c ****   U8X8_A(0x69),
 436:..\..\..\..\..\..\Dev\Library embedded l2c display\u8g2\csrc/u8x8_d_ssd1607_200x200.c ****   U8X8_A(0x69),
 437:..\..\..\..\..\..\Dev\Library embedded l2c display\u8g2\csrc/u8x8_d_ssd1607_200x200.c ****   U8X8_A(0x59),
 438:..\..\..\..\..\..\Dev\Library embedded l2c display\u8g2\csrc/u8x8_d_ssd1607_200x200.c ****   U8X8_A(0x58),
 439:..\..\..\..\..\..\Dev\Library embedded l2c display\u8g2\csrc/u8x8_d_ssd1607_200x200.c ****   U8X8_A(0x99),
 440:..\..\..\..\..\..\Dev\Library embedded l2c display\u8g2\csrc/u8x8_d_ssd1607_200x200.c ****   U8X8_A(0x99),
 441:..\..\..\..\..\..\Dev\Library embedded l2c display\u8g2\csrc/u8x8_d_ssd1607_200x200.c ****   
 442:..\..\..\..\..\..\Dev\Library embedded l2c display\u8g2\csrc/u8x8_d_ssd1607_200x200.c ****   U8X8_A(0x88),
 443:..\..\..\..\..\..\Dev\Library embedded l2c display\u8g2\csrc/u8x8_d_ssd1607_200x200.c ****   U8X8_A(0x00),
 444:..\..\..\..\..\..\Dev\Library embedded l2c display\u8g2\csrc/u8x8_d_ssd1607_200x200.c ****   U8X8_A(0x00),
 445:..\..\..\..\..\..\Dev\Library embedded l2c display\u8g2\csrc/u8x8_d_ssd1607_200x200.c ****   U8X8_A(0x00),
 446:..\..\..\..\..\..\Dev\Library embedded l2c display\u8g2\csrc/u8x8_d_ssd1607_200x200.c ****   U8X8_A(0x00),
 447:..\..\..\..\..\..\Dev\Library embedded l2c display\u8g2\csrc/u8x8_d_ssd1607_200x200.c ****   
ARM GAS  C:\Users\Abude\AppData\Local\Temp\ccaK9Evq.s 			page 17


 448:..\..\..\..\..\..\Dev\Library embedded l2c display\u8g2\csrc/u8x8_d_ssd1607_200x200.c ****   /* Timing part of the LUT, 20 Phases with 4 bit each: 10 bytes */
 449:..\..\..\..\..\..\Dev\Library embedded l2c display\u8g2\csrc/u8x8_d_ssd1607_200x200.c ****   U8X8_A(0xF8),
 450:..\..\..\..\..\..\Dev\Library embedded l2c display\u8g2\csrc/u8x8_d_ssd1607_200x200.c ****   U8X8_A(0xB4),
 451:..\..\..\..\..\..\Dev\Library embedded l2c display\u8g2\csrc/u8x8_d_ssd1607_200x200.c ****   U8X8_A(0x13),
 452:..\..\..\..\..\..\Dev\Library embedded l2c display\u8g2\csrc/u8x8_d_ssd1607_200x200.c ****   U8X8_A(0x51),
 453:..\..\..\..\..\..\Dev\Library embedded l2c display\u8g2\csrc/u8x8_d_ssd1607_200x200.c ****   U8X8_A(0x35),
 454:..\..\..\..\..\..\Dev\Library embedded l2c display\u8g2\csrc/u8x8_d_ssd1607_200x200.c ****   
 455:..\..\..\..\..\..\Dev\Library embedded l2c display\u8g2\csrc/u8x8_d_ssd1607_200x200.c ****   U8X8_A(0x51),
 456:..\..\..\..\..\..\Dev\Library embedded l2c display\u8g2\csrc/u8x8_d_ssd1607_200x200.c ****   U8X8_A(0x51),
 457:..\..\..\..\..\..\Dev\Library embedded l2c display\u8g2\csrc/u8x8_d_ssd1607_200x200.c ****   U8X8_A(0xe9),
 458:..\..\..\..\..\..\Dev\Library embedded l2c display\u8g2\csrc/u8x8_d_ssd1607_200x200.c ****   U8X8_A(0x04),
 459:..\..\..\..\..\..\Dev\Library embedded l2c display\u8g2\csrc/u8x8_d_ssd1607_200x200.c ****   U8X8_A(0x00),
 460:..\..\..\..\..\..\Dev\Library embedded l2c display\u8g2\csrc/u8x8_d_ssd1607_200x200.c ****   
 461:..\..\..\..\..\..\Dev\Library embedded l2c display\u8g2\csrc/u8x8_d_ssd1607_200x200.c ****   U8X8_CA(0x22, 0x04),	/* display update seq. option: clk -> CP -> LUT -> initial display -> patter
 462:..\..\..\..\..\..\Dev\Library embedded l2c display\u8g2\csrc/u8x8_d_ssd1607_200x200.c ****   U8X8_C(0x20),	/* execute sequence */
 463:..\..\..\..\..\..\Dev\Library embedded l2c display\u8g2\csrc/u8x8_d_ssd1607_200x200.c ****   
 464:..\..\..\..\..\..\Dev\Library embedded l2c display\u8g2\csrc/u8x8_d_ssd1607_200x200.c ****   U8X8_DLY(250),	/* delay for 1500ms. The current sequence takes 1300ms */
 465:..\..\..\..\..\..\Dev\Library embedded l2c display\u8g2\csrc/u8x8_d_ssd1607_200x200.c ****   U8X8_DLY(250),
 466:..\..\..\..\..\..\Dev\Library embedded l2c display\u8g2\csrc/u8x8_d_ssd1607_200x200.c ****   U8X8_DLY(250),
 467:..\..\..\..\..\..\Dev\Library embedded l2c display\u8g2\csrc/u8x8_d_ssd1607_200x200.c ****   U8X8_DLY(250),
 468:..\..\..\..\..\..\Dev\Library embedded l2c display\u8g2\csrc/u8x8_d_ssd1607_200x200.c ****   
 469:..\..\..\..\..\..\Dev\Library embedded l2c display\u8g2\csrc/u8x8_d_ssd1607_200x200.c ****   U8X8_DLY(250),
 470:..\..\..\..\..\..\Dev\Library embedded l2c display\u8g2\csrc/u8x8_d_ssd1607_200x200.c ****   U8X8_DLY(250),
 471:..\..\..\..\..\..\Dev\Library embedded l2c display\u8g2\csrc/u8x8_d_ssd1607_200x200.c ****   
 472:..\..\..\..\..\..\Dev\Library embedded l2c display\u8g2\csrc/u8x8_d_ssd1607_200x200.c ****   
 473:..\..\..\..\..\..\Dev\Library embedded l2c display\u8g2\csrc/u8x8_d_ssd1607_200x200.c ****   U8X8_END_TRANSFER(),             	/* disable chip */
 474:..\..\..\..\..\..\Dev\Library embedded l2c display\u8g2\csrc/u8x8_d_ssd1607_200x200.c ****   U8X8_END()             			/* end of sequence */
 475:..\..\..\..\..\..\Dev\Library embedded l2c display\u8g2\csrc/u8x8_d_ssd1607_200x200.c **** };
 476:..\..\..\..\..\..\Dev\Library embedded l2c display\u8g2\csrc/u8x8_d_ssd1607_200x200.c **** 
 477:..\..\..\..\..\..\Dev\Library embedded l2c display\u8g2\csrc/u8x8_d_ssd1607_200x200.c **** 
 478:..\..\..\..\..\..\Dev\Library embedded l2c display\u8g2\csrc/u8x8_d_ssd1607_200x200.c **** uint8_t u8x8_d_ssd1607_v2_200x200(u8x8_t *u8x8, uint8_t msg, uint8_t arg_int, void *arg_ptr)
 479:..\..\..\..\..\..\Dev\Library embedded l2c display\u8g2\csrc/u8x8_d_ssd1607_200x200.c **** {
 442              		.loc 1 479 0
 443              		.cfi_startproc
 444              		@ args = 0, pretend = 0, frame = 0
 445              		@ frame_needed = 0, uses_anonymous_args = 0
 446              	.LVL68:
 447 0000 38B5     		push	{r3, r4, r5, lr}
 448              		.cfi_def_cfa_offset 16
 449              		.cfi_offset 3, -16
 450              		.cfi_offset 4, -12
 451              		.cfi_offset 5, -8
 452              		.cfi_offset 14, -4
 453 0002 0446     		mov	r4, r0
 454 0004 1046     		mov	r0, r2
 455              	.LVL69:
 480:..\..\..\..\..\..\Dev\Library embedded l2c display\u8g2\csrc/u8x8_d_ssd1607_200x200.c ****   switch(msg)
 456              		.loc 1 480 0
 457 0006 0939     		subs	r1, r1, #9
 458              	.LVL70:
 459 0008 0729     		cmp	r1, #7
 460 000a 05D8     		bhi	.L29
 461 000c DFE801F0 		tbb	[pc, r1]
 462              	.LVL71:
 463              	.L31:
 464 0010 06       		.byte	(.L30-.L31)/2
 465 0011 0C       		.byte	(.L32-.L31)/2
ARM GAS  C:\Users\Abude\AppData\Local\Temp\ccaK9Evq.s 			page 18


 466 0012 1F       		.byte	(.L33-.L31)/2
 467 0013 04       		.byte	(.L29-.L31)/2
 468 0014 39       		.byte	(.L38-.L31)/2
 469 0015 04       		.byte	(.L29-.L31)/2
 470 0016 2C       		.byte	(.L35-.L31)/2
 471 0017 33       		.byte	(.L36-.L31)/2
 472              		.p2align 1
 473              	.L29:
 481:..\..\..\..\..\..\Dev\Library embedded l2c display\u8g2\csrc/u8x8_d_ssd1607_200x200.c ****   {
 482:..\..\..\..\..\..\Dev\Library embedded l2c display\u8g2\csrc/u8x8_d_ssd1607_200x200.c ****     case U8X8_MSG_DISPLAY_SETUP_MEMORY:
 483:..\..\..\..\..\..\Dev\Library embedded l2c display\u8g2\csrc/u8x8_d_ssd1607_200x200.c ****       u8x8_d_helper_display_setup_memory(u8x8, &u8x8_ssd1607_200x200_display_info);
 484:..\..\..\..\..\..\Dev\Library embedded l2c display\u8g2\csrc/u8x8_d_ssd1607_200x200.c ****       break;
 485:..\..\..\..\..\..\Dev\Library embedded l2c display\u8g2\csrc/u8x8_d_ssd1607_200x200.c ****     case U8X8_MSG_DISPLAY_INIT:
 486:..\..\..\..\..\..\Dev\Library embedded l2c display\u8g2\csrc/u8x8_d_ssd1607_200x200.c ****       u8x8_d_helper_display_init(u8x8);
 487:..\..\..\..\..\..\Dev\Library embedded l2c display\u8g2\csrc/u8x8_d_ssd1607_200x200.c ****       u8x8_cad_SendSequence(u8x8, u8x8_d_ssd1607_200x200_init_seq);    
 488:..\..\..\..\..\..\Dev\Library embedded l2c display\u8g2\csrc/u8x8_d_ssd1607_200x200.c ****       u8x8_cad_SendSequence(u8x8, u8x8_d_ssd1607_200x200_powersave0_seq);
 489:..\..\..\..\..\..\Dev\Library embedded l2c display\u8g2\csrc/u8x8_d_ssd1607_200x200.c ****       u8x8_d_ssd1607_200x200_first_init(u8x8);
 490:..\..\..\..\..\..\Dev\Library embedded l2c display\u8g2\csrc/u8x8_d_ssd1607_200x200.c ****       break;
 491:..\..\..\..\..\..\Dev\Library embedded l2c display\u8g2\csrc/u8x8_d_ssd1607_200x200.c ****     case U8X8_MSG_DISPLAY_SET_POWER_SAVE:
 492:..\..\..\..\..\..\Dev\Library embedded l2c display\u8g2\csrc/u8x8_d_ssd1607_200x200.c ****       if ( arg_int == 0 )
 493:..\..\..\..\..\..\Dev\Library embedded l2c display\u8g2\csrc/u8x8_d_ssd1607_200x200.c **** 	u8x8_cad_SendSequence(u8x8, u8x8_d_ssd1607_200x200_powersave0_seq);
 494:..\..\..\..\..\..\Dev\Library embedded l2c display\u8g2\csrc/u8x8_d_ssd1607_200x200.c ****       else
 495:..\..\..\..\..\..\Dev\Library embedded l2c display\u8g2\csrc/u8x8_d_ssd1607_200x200.c **** 	u8x8_cad_SendSequence(u8x8, u8x8_d_ssd1607_200x200_powersave1_seq);
 496:..\..\..\..\..\..\Dev\Library embedded l2c display\u8g2\csrc/u8x8_d_ssd1607_200x200.c ****       break;
 497:..\..\..\..\..\..\Dev\Library embedded l2c display\u8g2\csrc/u8x8_d_ssd1607_200x200.c ****     case U8X8_MSG_DISPLAY_SET_FLIP_MODE:
 498:..\..\..\..\..\..\Dev\Library embedded l2c display\u8g2\csrc/u8x8_d_ssd1607_200x200.c ****       break;
 499:..\..\..\..\..\..\Dev\Library embedded l2c display\u8g2\csrc/u8x8_d_ssd1607_200x200.c ****     case U8X8_MSG_DISPLAY_DRAW_TILE:
 500:..\..\..\..\..\..\Dev\Library embedded l2c display\u8g2\csrc/u8x8_d_ssd1607_200x200.c ****       u8x8_d_ssd1607_draw_tile(u8x8, arg_int, arg_ptr);
 501:..\..\..\..\..\..\Dev\Library embedded l2c display\u8g2\csrc/u8x8_d_ssd1607_200x200.c ****       break;
 502:..\..\..\..\..\..\Dev\Library embedded l2c display\u8g2\csrc/u8x8_d_ssd1607_200x200.c ****     case U8X8_MSG_DISPLAY_REFRESH:
 503:..\..\..\..\..\..\Dev\Library embedded l2c display\u8g2\csrc/u8x8_d_ssd1607_200x200.c ****       u8x8_cad_SendSequence(u8x8, u8x8_d_ssd1607_v2_to_display_seq);
 504:..\..\..\..\..\..\Dev\Library embedded l2c display\u8g2\csrc/u8x8_d_ssd1607_200x200.c ****       break;
 505:..\..\..\..\..\..\Dev\Library embedded l2c display\u8g2\csrc/u8x8_d_ssd1607_200x200.c ****     default:
 506:..\..\..\..\..\..\Dev\Library embedded l2c display\u8g2\csrc/u8x8_d_ssd1607_200x200.c ****       return 0;
 474              		.loc 1 506 0
 475 0018 0020     		movs	r0, #0
 476 001a 38BD     		pop	{r3, r4, r5, pc}
 477              	.LVL72:
 478              	.L30:
 483:..\..\..\..\..\..\Dev\Library embedded l2c display\u8g2\csrc/u8x8_d_ssd1607_200x200.c ****       break;
 479              		.loc 1 483 0
 480 001c 1A49     		ldr	r1, .L40
 481 001e 2046     		mov	r0, r4
 482 0020 FFF7FEFF 		bl	u8x8_d_helper_display_setup_memory
 483              	.LVL73:
 507:..\..\..\..\..\..\Dev\Library embedded l2c display\u8g2\csrc/u8x8_d_ssd1607_200x200.c ****   }
 508:..\..\..\..\..\..\Dev\Library embedded l2c display\u8g2\csrc/u8x8_d_ssd1607_200x200.c ****   return 1;
 484              		.loc 1 508 0
 485 0024 0120     		movs	r0, #1
 484:..\..\..\..\..\..\Dev\Library embedded l2c display\u8g2\csrc/u8x8_d_ssd1607_200x200.c ****     case U8X8_MSG_DISPLAY_INIT:
 486              		.loc 1 484 0
 487 0026 38BD     		pop	{r3, r4, r5, pc}
 488              	.LVL74:
 489              	.L32:
 486:..\..\..\..\..\..\Dev\Library embedded l2c display\u8g2\csrc/u8x8_d_ssd1607_200x200.c ****       u8x8_cad_SendSequence(u8x8, u8x8_d_ssd1607_200x200_init_seq);    
 490              		.loc 1 486 0
 491 0028 2046     		mov	r0, r4
ARM GAS  C:\Users\Abude\AppData\Local\Temp\ccaK9Evq.s 			page 19


 492 002a FFF7FEFF 		bl	u8x8_d_helper_display_init
 493              	.LVL75:
 487:..\..\..\..\..\..\Dev\Library embedded l2c display\u8g2\csrc/u8x8_d_ssd1607_200x200.c ****       u8x8_cad_SendSequence(u8x8, u8x8_d_ssd1607_200x200_powersave0_seq);
 494              		.loc 1 487 0
 495 002e 174D     		ldr	r5, .L40+4
 496 0030 05F12801 		add	r1, r5, #40
 497 0034 2046     		mov	r0, r4
 498 0036 FFF7FEFF 		bl	u8x8_cad_SendSequence
 499              	.LVL76:
 488:..\..\..\..\..\..\Dev\Library embedded l2c display\u8g2\csrc/u8x8_d_ssd1607_200x200.c ****       u8x8_d_ssd1607_200x200_first_init(u8x8);
 500              		.loc 1 488 0
 501 003a 05F16801 		add	r1, r5, #104
 502 003e 2046     		mov	r0, r4
 503 0040 FFF7FEFF 		bl	u8x8_cad_SendSequence
 504              	.LVL77:
 489:..\..\..\..\..\..\Dev\Library embedded l2c display\u8g2\csrc/u8x8_d_ssd1607_200x200.c ****       break;
 505              		.loc 1 489 0
 506 0044 2046     		mov	r0, r4
 507 0046 FFF7FEFF 		bl	u8x8_d_ssd1607_200x200_first_init
 508              	.LVL78:
 509              		.loc 1 508 0
 510 004a 0120     		movs	r0, #1
 490:..\..\..\..\..\..\Dev\Library embedded l2c display\u8g2\csrc/u8x8_d_ssd1607_200x200.c ****     case U8X8_MSG_DISPLAY_SET_POWER_SAVE:
 511              		.loc 1 490 0
 512 004c 38BD     		pop	{r3, r4, r5, pc}
 513              	.LVL79:
 514              	.L33:
 492:..\..\..\..\..\..\Dev\Library embedded l2c display\u8g2\csrc/u8x8_d_ssd1607_200x200.c **** 	u8x8_cad_SendSequence(u8x8, u8x8_d_ssd1607_200x200_powersave0_seq);
 515              		.loc 1 492 0
 516 004e 28B9     		cbnz	r0, .L37
 493:..\..\..\..\..\..\Dev\Library embedded l2c display\u8g2\csrc/u8x8_d_ssd1607_200x200.c ****       else
 517              		.loc 1 493 0
 518 0050 0F49     		ldr	r1, .L40+8
 519 0052 2046     		mov	r0, r4
 520 0054 FFF7FEFF 		bl	u8x8_cad_SendSequence
 521              	.LVL80:
 522              		.loc 1 508 0
 523 0058 0120     		movs	r0, #1
 524 005a 38BD     		pop	{r3, r4, r5, pc}
 525              	.LVL81:
 526              	.L37:
 495:..\..\..\..\..\..\Dev\Library embedded l2c display\u8g2\csrc/u8x8_d_ssd1607_200x200.c ****       break;
 527              		.loc 1 495 0
 528 005c 0D49     		ldr	r1, .L40+12
 529 005e 2046     		mov	r0, r4
 530 0060 FFF7FEFF 		bl	u8x8_cad_SendSequence
 531              	.LVL82:
 532              		.loc 1 508 0
 533 0064 0120     		movs	r0, #1
 534 0066 38BD     		pop	{r3, r4, r5, pc}
 535              	.LVL83:
 536              	.L35:
 500:..\..\..\..\..\..\Dev\Library embedded l2c display\u8g2\csrc/u8x8_d_ssd1607_200x200.c ****       break;
 537              		.loc 1 500 0
 538 0068 1A46     		mov	r2, r3
 539 006a 0146     		mov	r1, r0
 540 006c 2046     		mov	r0, r4
ARM GAS  C:\Users\Abude\AppData\Local\Temp\ccaK9Evq.s 			page 20


 541 006e FFF7FEFF 		bl	u8x8_d_ssd1607_draw_tile
 542              	.LVL84:
 543              		.loc 1 508 0
 544 0072 0120     		movs	r0, #1
 501:..\..\..\..\..\..\Dev\Library embedded l2c display\u8g2\csrc/u8x8_d_ssd1607_200x200.c ****     case U8X8_MSG_DISPLAY_REFRESH:
 545              		.loc 1 501 0
 546 0074 38BD     		pop	{r3, r4, r5, pc}
 547              	.LVL85:
 548              	.L36:
 503:..\..\..\..\..\..\Dev\Library embedded l2c display\u8g2\csrc/u8x8_d_ssd1607_200x200.c ****       break;
 549              		.loc 1 503 0
 550 0076 0849     		ldr	r1, .L40+16
 551 0078 2046     		mov	r0, r4
 552 007a FFF7FEFF 		bl	u8x8_cad_SendSequence
 553              	.LVL86:
 554              		.loc 1 508 0
 555 007e 0120     		movs	r0, #1
 504:..\..\..\..\..\..\Dev\Library embedded l2c display\u8g2\csrc/u8x8_d_ssd1607_200x200.c ****     default:
 556              		.loc 1 504 0
 557 0080 38BD     		pop	{r3, r4, r5, pc}
 558              	.LVL87:
 559              	.L38:
 560              		.loc 1 508 0
 561 0082 0120     		movs	r0, #1
 509:..\..\..\..\..\..\Dev\Library embedded l2c display\u8g2\csrc/u8x8_d_ssd1607_200x200.c **** }
 562              		.loc 1 509 0
 563 0084 38BD     		pop	{r3, r4, r5, pc}
 564              	.LVL88:
 565              	.L41:
 566 0086 00BF     		.align	2
 567              	.L40:
 568 0088 10000000 		.word	.LANCHOR1+16
 569 008c 00000000 		.word	.LANCHOR1
 570 0090 68000000 		.word	.LANCHOR1+104
 571 0094 78000000 		.word	.LANCHOR1+120
 572 0098 DC000000 		.word	.LANCHOR1+220
 573              		.cfi_endproc
 574              	.LFE4:
 575              		.size	u8x8_d_ssd1607_v2_200x200, .-u8x8_d_ssd1607_v2_200x200
 576              		.section	.text.u8x8_d_ssd1607_gd_200x200,"ax",%progbits
 577              		.align	2
 578              		.global	u8x8_d_ssd1607_gd_200x200
 579              		.thumb
 580              		.thumb_func
 581              		.type	u8x8_d_ssd1607_gd_200x200, %function
 582              	u8x8_d_ssd1607_gd_200x200:
 583              	.LFB5:
 510:..\..\..\..\..\..\Dev\Library embedded l2c display\u8g2\csrc/u8x8_d_ssd1607_200x200.c **** 
 511:..\..\..\..\..\..\Dev\Library embedded l2c display\u8g2\csrc/u8x8_d_ssd1607_200x200.c **** 
 512:..\..\..\..\..\..\Dev\Library embedded l2c display\u8g2\csrc/u8x8_d_ssd1607_200x200.c **** /*=================================================*/
 513:..\..\..\..\..\..\Dev\Library embedded l2c display\u8g2\csrc/u8x8_d_ssd1607_200x200.c **** /* GDEP015OC1 */
 514:..\..\..\..\..\..\Dev\Library embedded l2c display\u8g2\csrc/u8x8_d_ssd1607_200x200.c **** /* https://github.com/olikraus/u8g2/issues/454 */
 515:..\..\..\..\..\..\Dev\Library embedded l2c display\u8g2\csrc/u8x8_d_ssd1607_200x200.c **** 
 516:..\..\..\..\..\..\Dev\Library embedded l2c display\u8g2\csrc/u8x8_d_ssd1607_200x200.c **** 
 517:..\..\..\..\..\..\Dev\Library embedded l2c display\u8g2\csrc/u8x8_d_ssd1607_200x200.c **** static const uint8_t u8x8_d_ssd1607_gd_to_display_seq[] = {
 518:..\..\..\..\..\..\Dev\Library embedded l2c display\u8g2\csrc/u8x8_d_ssd1607_200x200.c ****   U8X8_START_TRANSFER(),             	/* enable chip, delay is part of the transfer start */
 519:..\..\..\..\..\..\Dev\Library embedded l2c display\u8g2\csrc/u8x8_d_ssd1607_200x200.c **** 
ARM GAS  C:\Users\Abude\AppData\Local\Temp\ccaK9Evq.s 			page 21


 520:..\..\..\..\..\..\Dev\Library embedded l2c display\u8g2\csrc/u8x8_d_ssd1607_200x200.c ****   /*
 521:..\..\..\..\..\..\Dev\Library embedded l2c display\u8g2\csrc/u8x8_d_ssd1607_200x200.c **** 0xaa, 0x09, 0x09, 0x19, 0x19, 
 522:..\..\..\..\..\..\Dev\Library embedded l2c display\u8g2\csrc/u8x8_d_ssd1607_200x200.c **** 0x11, 0x11, 0x11, 0x11, 0x00, 
 523:..\..\..\..\..\..\Dev\Library embedded l2c display\u8g2\csrc/u8x8_d_ssd1607_200x200.c **** 0x00, 0x00, 0x00, 0x00, 0x00, 
 524:..\..\..\..\..\..\Dev\Library embedded l2c display\u8g2\csrc/u8x8_d_ssd1607_200x200.c **** 0x00, 0x00, 0x00, 0x00, 0x00, 
 525:..\..\..\..\..\..\Dev\Library embedded l2c display\u8g2\csrc/u8x8_d_ssd1607_200x200.c **** 
 526:..\..\..\..\..\..\Dev\Library embedded l2c display\u8g2\csrc/u8x8_d_ssd1607_200x200.c **** 0x75, 0x77, 0x77, 0x77, 0x07, 
 527:..\..\..\..\..\..\Dev\Library embedded l2c display\u8g2\csrc/u8x8_d_ssd1607_200x200.c **** 0x00, 0x00, 0x00, 0x00, 0x00
 528:..\..\..\..\..\..\Dev\Library embedded l2c display\u8g2\csrc/u8x8_d_ssd1607_200x200.c **** measured 1240 ms with IL3830 196x128
 529:..\..\..\..\..\..\Dev\Library embedded l2c display\u8g2\csrc/u8x8_d_ssd1607_200x200.c ****   
 530:..\..\..\..\..\..\Dev\Library embedded l2c display\u8g2\csrc/u8x8_d_ssd1607_200x200.c ****   
 531:..\..\..\..\..\..\Dev\Library embedded l2c display\u8g2\csrc/u8x8_d_ssd1607_200x200.c **** 0x02, 0x02, 0x01, 0x11, 0x12, 
 532:..\..\..\..\..\..\Dev\Library embedded l2c display\u8g2\csrc/u8x8_d_ssd1607_200x200.c **** 0x12, 0x12, 0x22, 0x22, 0x66, 
 533:..\..\..\..\..\..\Dev\Library embedded l2c display\u8g2\csrc/u8x8_d_ssd1607_200x200.c **** 0x69, 0x59, 0x58, 0x99, 0x99, 
 534:..\..\..\..\..\..\Dev\Library embedded l2c display\u8g2\csrc/u8x8_d_ssd1607_200x200.c **** 0x88, 0x00, 0x00, 0x00, 0x00, 
 535:..\..\..\..\..\..\Dev\Library embedded l2c display\u8g2\csrc/u8x8_d_ssd1607_200x200.c **** 
 536:..\..\..\..\..\..\Dev\Library embedded l2c display\u8g2\csrc/u8x8_d_ssd1607_200x200.c **** 0xf8, 0xb4, 0x13, 0x51, 0x35, 
 537:..\..\..\..\..\..\Dev\Library embedded l2c display\u8g2\csrc/u8x8_d_ssd1607_200x200.c **** 0x51, 0x51, 0xe9, 0x04, 0x00
 538:..\..\..\..\..\..\Dev\Library embedded l2c display\u8g2\csrc/u8x8_d_ssd1607_200x200.c ****   
 539:..\..\..\..\..\..\Dev\Library embedded l2c display\u8g2\csrc/u8x8_d_ssd1607_200x200.c **** */
 540:..\..\..\..\..\..\Dev\Library embedded l2c display\u8g2\csrc/u8x8_d_ssd1607_200x200.c **** 
 541:..\..\..\..\..\..\Dev\Library embedded l2c display\u8g2\csrc/u8x8_d_ssd1607_200x200.c ****   U8X8_C(0x32),	/* write LUT register*/
 542:..\..\..\..\..\..\Dev\Library embedded l2c display\u8g2\csrc/u8x8_d_ssd1607_200x200.c **** 
 543:..\..\..\..\..\..\Dev\Library embedded l2c display\u8g2\csrc/u8x8_d_ssd1607_200x200.c **** /*
 544:..\..\..\..\..\..\Dev\Library embedded l2c display\u8g2\csrc/u8x8_d_ssd1607_200x200.c ****   U8X8_A(0x50), U8X8_A(0xAA), U8X8_A(0x55), U8X8_A(0xAA), U8X8_A(0x11), 
 545:..\..\..\..\..\..\Dev\Library embedded l2c display\u8g2\csrc/u8x8_d_ssd1607_200x200.c ****   U8X8_A(0x00), U8X8_A(0x00), U8X8_A(0x00), U8X8_A(0x00), U8X8_A(0x00), 
 546:..\..\..\..\..\..\Dev\Library embedded l2c display\u8g2\csrc/u8x8_d_ssd1607_200x200.c ****   U8X8_A(0x00), U8X8_A(0x00), U8X8_A(0x00), U8X8_A(0x00), U8X8_A(0x00), 
 547:..\..\..\..\..\..\Dev\Library embedded l2c display\u8g2\csrc/u8x8_d_ssd1607_200x200.c ****   U8X8_A(0x00), U8X8_A(0x00), U8X8_A(0x00), U8X8_A(0x00), U8X8_A(0x00), 
 548:..\..\..\..\..\..\Dev\Library embedded l2c display\u8g2\csrc/u8x8_d_ssd1607_200x200.c ****   
 549:..\..\..\..\..\..\Dev\Library embedded l2c display\u8g2\csrc/u8x8_d_ssd1607_200x200.c ****   U8X8_A(0xFF), U8X8_A(0xFF), U8X8_A(0x1F), U8X8_A(0x00), U8X8_A(0x00), 
 550:..\..\..\..\..\..\Dev\Library embedded l2c display\u8g2\csrc/u8x8_d_ssd1607_200x200.c ****   U8X8_A(0x00), U8X8_A(0x00), U8X8_A(0x00), U8X8_A(0x00), U8X8_A(0x00), 
 551:..\..\..\..\..\..\Dev\Library embedded l2c display\u8g2\csrc/u8x8_d_ssd1607_200x200.c **** */
 552:..\..\..\..\..\..\Dev\Library embedded l2c display\u8g2\csrc/u8x8_d_ssd1607_200x200.c ****   U8X8_A(0x10), U8X8_A(0x18), U8X8_A(0x18), U8X8_A(0x08), U8X8_A(0x18),   // numbers based on Waves
 553:..\..\..\..\..\..\Dev\Library embedded l2c display\u8g2\csrc/u8x8_d_ssd1607_200x200.c ****   U8X8_A(0x18), U8X8_A(0x08), U8X8_A(0x00), U8X8_A(0x00), U8X8_A(0x00), 
 554:..\..\..\..\..\..\Dev\Library embedded l2c display\u8g2\csrc/u8x8_d_ssd1607_200x200.c ****   U8X8_A(0x00), U8X8_A(0x00), U8X8_A(0x00), U8X8_A(0x00), U8X8_A(0x00), 
 555:..\..\..\..\..\..\Dev\Library embedded l2c display\u8g2\csrc/u8x8_d_ssd1607_200x200.c ****   U8X8_A(0x00), U8X8_A(0x00), U8X8_A(0x00), U8X8_A(0x00), U8X8_A(0x00), 
 556:..\..\..\..\..\..\Dev\Library embedded l2c display\u8g2\csrc/u8x8_d_ssd1607_200x200.c ****   
 557:..\..\..\..\..\..\Dev\Library embedded l2c display\u8g2\csrc/u8x8_d_ssd1607_200x200.c ****   U8X8_A(0x13), U8X8_A(0x14), U8X8_A(0x44), U8X8_A(0x12), U8X8_A(0x00), 
 558:..\..\..\..\..\..\Dev\Library embedded l2c display\u8g2\csrc/u8x8_d_ssd1607_200x200.c ****   U8X8_A(0x00), U8X8_A(0x00), U8X8_A(0x00), U8X8_A(0x00), U8X8_A(0x00),
 559:..\..\..\..\..\..\Dev\Library embedded l2c display\u8g2\csrc/u8x8_d_ssd1607_200x200.c **** 
 560:..\..\..\..\..\..\Dev\Library embedded l2c display\u8g2\csrc/u8x8_d_ssd1607_200x200.c ****   U8X8_CA(0x22, 0xc4),	/* display update seq. option: clk -> CP -> LUT -> initial display -> patter
 561:..\..\..\..\..\..\Dev\Library embedded l2c display\u8g2\csrc/u8x8_d_ssd1607_200x200.c ****   U8X8_C(0x20),	/* execute sequence */
 562:..\..\..\..\..\..\Dev\Library embedded l2c display\u8g2\csrc/u8x8_d_ssd1607_200x200.c ****   
 563:..\..\..\..\..\..\Dev\Library embedded l2c display\u8g2\csrc/u8x8_d_ssd1607_200x200.c ****   U8X8_DLY(250),	/* delay for 1500ms. The current sequence takes 1300ms */
 564:..\..\..\..\..\..\Dev\Library embedded l2c display\u8g2\csrc/u8x8_d_ssd1607_200x200.c ****   U8X8_DLY(250),
 565:..\..\..\..\..\..\Dev\Library embedded l2c display\u8g2\csrc/u8x8_d_ssd1607_200x200.c ****   U8X8_DLY(250),
 566:..\..\..\..\..\..\Dev\Library embedded l2c display\u8g2\csrc/u8x8_d_ssd1607_200x200.c **** //  U8X8_DLY(250),
 567:..\..\..\..\..\..\Dev\Library embedded l2c display\u8g2\csrc/u8x8_d_ssd1607_200x200.c ****   
 568:..\..\..\..\..\..\Dev\Library embedded l2c display\u8g2\csrc/u8x8_d_ssd1607_200x200.c **** //  U8X8_DLY(250),
 569:..\..\..\..\..\..\Dev\Library embedded l2c display\u8g2\csrc/u8x8_d_ssd1607_200x200.c **** //  U8X8_DLY(250),
 570:..\..\..\..\..\..\Dev\Library embedded l2c display\u8g2\csrc/u8x8_d_ssd1607_200x200.c ****   
 571:..\..\..\..\..\..\Dev\Library embedded l2c display\u8g2\csrc/u8x8_d_ssd1607_200x200.c ****   
 572:..\..\..\..\..\..\Dev\Library embedded l2c display\u8g2\csrc/u8x8_d_ssd1607_200x200.c ****   U8X8_END_TRANSFER(),             	/* disable chip */
 573:..\..\..\..\..\..\Dev\Library embedded l2c display\u8g2\csrc/u8x8_d_ssd1607_200x200.c ****   U8X8_END()             			/* end of sequence */
 574:..\..\..\..\..\..\Dev\Library embedded l2c display\u8g2\csrc/u8x8_d_ssd1607_200x200.c **** };
 575:..\..\..\..\..\..\Dev\Library embedded l2c display\u8g2\csrc/u8x8_d_ssd1607_200x200.c **** 
 576:..\..\..\..\..\..\Dev\Library embedded l2c display\u8g2\csrc/u8x8_d_ssd1607_200x200.c **** uint8_t u8x8_d_ssd1607_gd_200x200(u8x8_t *u8x8, uint8_t msg, uint8_t arg_int, void *arg_ptr)
ARM GAS  C:\Users\Abude\AppData\Local\Temp\ccaK9Evq.s 			page 22


 577:..\..\..\..\..\..\Dev\Library embedded l2c display\u8g2\csrc/u8x8_d_ssd1607_200x200.c **** {
 584              		.loc 1 577 0
 585              		.cfi_startproc
 586              		@ args = 0, pretend = 0, frame = 0
 587              		@ frame_needed = 0, uses_anonymous_args = 0
 588              	.LVL89:
 589 0000 38B5     		push	{r3, r4, r5, lr}
 590              		.cfi_def_cfa_offset 16
 591              		.cfi_offset 3, -16
 592              		.cfi_offset 4, -12
 593              		.cfi_offset 5, -8
 594              		.cfi_offset 14, -4
 595 0002 0446     		mov	r4, r0
 596 0004 1046     		mov	r0, r2
 597              	.LVL90:
 578:..\..\..\..\..\..\Dev\Library embedded l2c display\u8g2\csrc/u8x8_d_ssd1607_200x200.c ****   switch(msg)
 598              		.loc 1 578 0
 599 0006 0939     		subs	r1, r1, #9
 600              	.LVL91:
 601 0008 0729     		cmp	r1, #7
 602 000a 05D8     		bhi	.L43
 603 000c DFE801F0 		tbb	[pc, r1]
 604              	.LVL92:
 605              	.L45:
 606 0010 06       		.byte	(.L44-.L45)/2
 607 0011 0C       		.byte	(.L46-.L45)/2
 608 0012 1F       		.byte	(.L47-.L45)/2
 609 0013 04       		.byte	(.L43-.L45)/2
 610 0014 39       		.byte	(.L52-.L45)/2
 611 0015 04       		.byte	(.L43-.L45)/2
 612 0016 2C       		.byte	(.L49-.L45)/2
 613 0017 33       		.byte	(.L50-.L45)/2
 614              		.p2align 1
 615              	.L43:
 579:..\..\..\..\..\..\Dev\Library embedded l2c display\u8g2\csrc/u8x8_d_ssd1607_200x200.c ****   {
 580:..\..\..\..\..\..\Dev\Library embedded l2c display\u8g2\csrc/u8x8_d_ssd1607_200x200.c ****     case U8X8_MSG_DISPLAY_SETUP_MEMORY:
 581:..\..\..\..\..\..\Dev\Library embedded l2c display\u8g2\csrc/u8x8_d_ssd1607_200x200.c ****       u8x8_d_helper_display_setup_memory(u8x8, &u8x8_ssd1607_200x200_display_info);
 582:..\..\..\..\..\..\Dev\Library embedded l2c display\u8g2\csrc/u8x8_d_ssd1607_200x200.c ****       break;
 583:..\..\..\..\..\..\Dev\Library embedded l2c display\u8g2\csrc/u8x8_d_ssd1607_200x200.c ****     case U8X8_MSG_DISPLAY_INIT:
 584:..\..\..\..\..\..\Dev\Library embedded l2c display\u8g2\csrc/u8x8_d_ssd1607_200x200.c ****       u8x8_d_helper_display_init(u8x8);
 585:..\..\..\..\..\..\Dev\Library embedded l2c display\u8g2\csrc/u8x8_d_ssd1607_200x200.c ****       u8x8_cad_SendSequence(u8x8, u8x8_d_ssd1607_200x200_init_seq);    
 586:..\..\..\..\..\..\Dev\Library embedded l2c display\u8g2\csrc/u8x8_d_ssd1607_200x200.c ****       u8x8_cad_SendSequence(u8x8, u8x8_d_ssd1607_200x200_powersave0_seq);
 587:..\..\..\..\..\..\Dev\Library embedded l2c display\u8g2\csrc/u8x8_d_ssd1607_200x200.c ****       u8x8_d_ssd1607_200x200_first_init(u8x8);
 588:..\..\..\..\..\..\Dev\Library embedded l2c display\u8g2\csrc/u8x8_d_ssd1607_200x200.c ****       break;
 589:..\..\..\..\..\..\Dev\Library embedded l2c display\u8g2\csrc/u8x8_d_ssd1607_200x200.c ****     case U8X8_MSG_DISPLAY_SET_POWER_SAVE:
 590:..\..\..\..\..\..\Dev\Library embedded l2c display\u8g2\csrc/u8x8_d_ssd1607_200x200.c ****       if ( arg_int == 0 )
 591:..\..\..\..\..\..\Dev\Library embedded l2c display\u8g2\csrc/u8x8_d_ssd1607_200x200.c **** 	u8x8_cad_SendSequence(u8x8, u8x8_d_ssd1607_200x200_powersave0_seq);
 592:..\..\..\..\..\..\Dev\Library embedded l2c display\u8g2\csrc/u8x8_d_ssd1607_200x200.c ****       else
 593:..\..\..\..\..\..\Dev\Library embedded l2c display\u8g2\csrc/u8x8_d_ssd1607_200x200.c **** 	u8x8_cad_SendSequence(u8x8, u8x8_d_ssd1607_200x200_powersave1_seq);
 594:..\..\..\..\..\..\Dev\Library embedded l2c display\u8g2\csrc/u8x8_d_ssd1607_200x200.c ****       break;
 595:..\..\..\..\..\..\Dev\Library embedded l2c display\u8g2\csrc/u8x8_d_ssd1607_200x200.c ****     case U8X8_MSG_DISPLAY_SET_FLIP_MODE:
 596:..\..\..\..\..\..\Dev\Library embedded l2c display\u8g2\csrc/u8x8_d_ssd1607_200x200.c ****       break;
 597:..\..\..\..\..\..\Dev\Library embedded l2c display\u8g2\csrc/u8x8_d_ssd1607_200x200.c ****     case U8X8_MSG_DISPLAY_DRAW_TILE:
 598:..\..\..\..\..\..\Dev\Library embedded l2c display\u8g2\csrc/u8x8_d_ssd1607_200x200.c ****       u8x8_d_ssd1607_draw_tile(u8x8, arg_int, arg_ptr);
 599:..\..\..\..\..\..\Dev\Library embedded l2c display\u8g2\csrc/u8x8_d_ssd1607_200x200.c ****       break;
 600:..\..\..\..\..\..\Dev\Library embedded l2c display\u8g2\csrc/u8x8_d_ssd1607_200x200.c ****     case U8X8_MSG_DISPLAY_REFRESH:
 601:..\..\..\..\..\..\Dev\Library embedded l2c display\u8g2\csrc/u8x8_d_ssd1607_200x200.c ****       u8x8_cad_SendSequence(u8x8, u8x8_d_ssd1607_gd_to_display_seq);
ARM GAS  C:\Users\Abude\AppData\Local\Temp\ccaK9Evq.s 			page 23


 602:..\..\..\..\..\..\Dev\Library embedded l2c display\u8g2\csrc/u8x8_d_ssd1607_200x200.c ****       break;
 603:..\..\..\..\..\..\Dev\Library embedded l2c display\u8g2\csrc/u8x8_d_ssd1607_200x200.c ****     default:
 604:..\..\..\..\..\..\Dev\Library embedded l2c display\u8g2\csrc/u8x8_d_ssd1607_200x200.c ****       return 0;
 616              		.loc 1 604 0
 617 0018 0020     		movs	r0, #0
 618 001a 38BD     		pop	{r3, r4, r5, pc}
 619              	.LVL93:
 620              	.L44:
 581:..\..\..\..\..\..\Dev\Library embedded l2c display\u8g2\csrc/u8x8_d_ssd1607_200x200.c ****       break;
 621              		.loc 1 581 0
 622 001c 1A49     		ldr	r1, .L54
 623 001e 2046     		mov	r0, r4
 624 0020 FFF7FEFF 		bl	u8x8_d_helper_display_setup_memory
 625              	.LVL94:
 605:..\..\..\..\..\..\Dev\Library embedded l2c display\u8g2\csrc/u8x8_d_ssd1607_200x200.c ****   }
 606:..\..\..\..\..\..\Dev\Library embedded l2c display\u8g2\csrc/u8x8_d_ssd1607_200x200.c ****   return 1;
 626              		.loc 1 606 0
 627 0024 0120     		movs	r0, #1
 582:..\..\..\..\..\..\Dev\Library embedded l2c display\u8g2\csrc/u8x8_d_ssd1607_200x200.c ****     case U8X8_MSG_DISPLAY_INIT:
 628              		.loc 1 582 0
 629 0026 38BD     		pop	{r3, r4, r5, pc}
 630              	.LVL95:
 631              	.L46:
 584:..\..\..\..\..\..\Dev\Library embedded l2c display\u8g2\csrc/u8x8_d_ssd1607_200x200.c ****       u8x8_cad_SendSequence(u8x8, u8x8_d_ssd1607_200x200_init_seq);    
 632              		.loc 1 584 0
 633 0028 2046     		mov	r0, r4
 634 002a FFF7FEFF 		bl	u8x8_d_helper_display_init
 635              	.LVL96:
 585:..\..\..\..\..\..\Dev\Library embedded l2c display\u8g2\csrc/u8x8_d_ssd1607_200x200.c ****       u8x8_cad_SendSequence(u8x8, u8x8_d_ssd1607_200x200_powersave0_seq);
 636              		.loc 1 585 0
 637 002e 174D     		ldr	r5, .L54+4
 638 0030 05F12801 		add	r1, r5, #40
 639 0034 2046     		mov	r0, r4
 640 0036 FFF7FEFF 		bl	u8x8_cad_SendSequence
 641              	.LVL97:
 586:..\..\..\..\..\..\Dev\Library embedded l2c display\u8g2\csrc/u8x8_d_ssd1607_200x200.c ****       u8x8_d_ssd1607_200x200_first_init(u8x8);
 642              		.loc 1 586 0
 643 003a 05F16801 		add	r1, r5, #104
 644 003e 2046     		mov	r0, r4
 645 0040 FFF7FEFF 		bl	u8x8_cad_SendSequence
 646              	.LVL98:
 587:..\..\..\..\..\..\Dev\Library embedded l2c display\u8g2\csrc/u8x8_d_ssd1607_200x200.c ****       break;
 647              		.loc 1 587 0
 648 0044 2046     		mov	r0, r4
 649 0046 FFF7FEFF 		bl	u8x8_d_ssd1607_200x200_first_init
 650              	.LVL99:
 651              		.loc 1 606 0
 652 004a 0120     		movs	r0, #1
 588:..\..\..\..\..\..\Dev\Library embedded l2c display\u8g2\csrc/u8x8_d_ssd1607_200x200.c ****     case U8X8_MSG_DISPLAY_SET_POWER_SAVE:
 653              		.loc 1 588 0
 654 004c 38BD     		pop	{r3, r4, r5, pc}
 655              	.LVL100:
 656              	.L47:
 590:..\..\..\..\..\..\Dev\Library embedded l2c display\u8g2\csrc/u8x8_d_ssd1607_200x200.c **** 	u8x8_cad_SendSequence(u8x8, u8x8_d_ssd1607_200x200_powersave0_seq);
 657              		.loc 1 590 0
 658 004e 28B9     		cbnz	r0, .L51
 591:..\..\..\..\..\..\Dev\Library embedded l2c display\u8g2\csrc/u8x8_d_ssd1607_200x200.c ****       else
ARM GAS  C:\Users\Abude\AppData\Local\Temp\ccaK9Evq.s 			page 24


 659              		.loc 1 591 0
 660 0050 0F49     		ldr	r1, .L54+8
 661 0052 2046     		mov	r0, r4
 662 0054 FFF7FEFF 		bl	u8x8_cad_SendSequence
 663              	.LVL101:
 664              		.loc 1 606 0
 665 0058 0120     		movs	r0, #1
 666 005a 38BD     		pop	{r3, r4, r5, pc}
 667              	.LVL102:
 668              	.L51:
 593:..\..\..\..\..\..\Dev\Library embedded l2c display\u8g2\csrc/u8x8_d_ssd1607_200x200.c ****       break;
 669              		.loc 1 593 0
 670 005c 0D49     		ldr	r1, .L54+12
 671 005e 2046     		mov	r0, r4
 672 0060 FFF7FEFF 		bl	u8x8_cad_SendSequence
 673              	.LVL103:
 674              		.loc 1 606 0
 675 0064 0120     		movs	r0, #1
 676 0066 38BD     		pop	{r3, r4, r5, pc}
 677              	.LVL104:
 678              	.L49:
 598:..\..\..\..\..\..\Dev\Library embedded l2c display\u8g2\csrc/u8x8_d_ssd1607_200x200.c ****       break;
 679              		.loc 1 598 0
 680 0068 1A46     		mov	r2, r3
 681 006a 0146     		mov	r1, r0
 682 006c 2046     		mov	r0, r4
 683 006e FFF7FEFF 		bl	u8x8_d_ssd1607_draw_tile
 684              	.LVL105:
 685              		.loc 1 606 0
 686 0072 0120     		movs	r0, #1
 599:..\..\..\..\..\..\Dev\Library embedded l2c display\u8g2\csrc/u8x8_d_ssd1607_200x200.c ****     case U8X8_MSG_DISPLAY_REFRESH:
 687              		.loc 1 599 0
 688 0074 38BD     		pop	{r3, r4, r5, pc}
 689              	.LVL106:
 690              	.L50:
 601:..\..\..\..\..\..\Dev\Library embedded l2c display\u8g2\csrc/u8x8_d_ssd1607_200x200.c ****       break;
 691              		.loc 1 601 0
 692 0076 0849     		ldr	r1, .L54+16
 693 0078 2046     		mov	r0, r4
 694 007a FFF7FEFF 		bl	u8x8_cad_SendSequence
 695              	.LVL107:
 696              		.loc 1 606 0
 697 007e 0120     		movs	r0, #1
 602:..\..\..\..\..\..\Dev\Library embedded l2c display\u8g2\csrc/u8x8_d_ssd1607_200x200.c ****     default:
 698              		.loc 1 602 0
 699 0080 38BD     		pop	{r3, r4, r5, pc}
 700              	.LVL108:
 701              	.L52:
 702              		.loc 1 606 0
 703 0082 0120     		movs	r0, #1
 607:..\..\..\..\..\..\Dev\Library embedded l2c display\u8g2\csrc/u8x8_d_ssd1607_200x200.c **** }
 704              		.loc 1 607 0
 705 0084 38BD     		pop	{r3, r4, r5, pc}
 706              	.LVL109:
 707              	.L55:
 708 0086 00BF     		.align	2
 709              	.L54:
ARM GAS  C:\Users\Abude\AppData\Local\Temp\ccaK9Evq.s 			page 25


 710 0088 10000000 		.word	.LANCHOR1+16
 711 008c 00000000 		.word	.LANCHOR1
 712 0090 68000000 		.word	.LANCHOR1+104
 713 0094 78000000 		.word	.LANCHOR1+120
 714 0098 30010000 		.word	.LANCHOR1+304
 715              		.cfi_endproc
 716              	.LFE5:
 717              		.size	u8x8_d_ssd1607_gd_200x200, .-u8x8_d_ssd1607_gd_200x200
 718              		.section	.text.u8x8_d_ssd1607_ws_200x200,"ax",%progbits
 719              		.align	2
 720              		.global	u8x8_d_ssd1607_ws_200x200
 721              		.thumb
 722              		.thumb_func
 723              		.type	u8x8_d_ssd1607_ws_200x200, %function
 724              	u8x8_d_ssd1607_ws_200x200:
 725              	.LFB6:
 608:..\..\..\..\..\..\Dev\Library embedded l2c display\u8g2\csrc/u8x8_d_ssd1607_200x200.c **** 
 609:..\..\..\..\..\..\Dev\Library embedded l2c display\u8g2\csrc/u8x8_d_ssd1607_200x200.c **** 
 610:..\..\..\..\..\..\Dev\Library embedded l2c display\u8g2\csrc/u8x8_d_ssd1607_200x200.c **** 
 611:..\..\..\..\..\..\Dev\Library embedded l2c display\u8g2\csrc/u8x8_d_ssd1607_200x200.c **** /*=================================================*/
 612:..\..\..\..\..\..\Dev\Library embedded l2c display\u8g2\csrc/u8x8_d_ssd1607_200x200.c **** 
 613:..\..\..\..\..\..\Dev\Library embedded l2c display\u8g2\csrc/u8x8_d_ssd1607_200x200.c **** static const uint8_t u8x8_d_ssd1607_ws_to_display_seq[] = {
 614:..\..\..\..\..\..\Dev\Library embedded l2c display\u8g2\csrc/u8x8_d_ssd1607_200x200.c ****   U8X8_START_TRANSFER(),             	/* enable chip, delay is part of the transfer start */
 615:..\..\..\..\..\..\Dev\Library embedded l2c display\u8g2\csrc/u8x8_d_ssd1607_200x200.c **** 
 616:..\..\..\..\..\..\Dev\Library embedded l2c display\u8g2\csrc/u8x8_d_ssd1607_200x200.c **** 
 617:..\..\..\..\..\..\Dev\Library embedded l2c display\u8g2\csrc/u8x8_d_ssd1607_200x200.c ****   U8X8_C(0x32),	/* write LUT register*/
 618:..\..\..\..\..\..\Dev\Library embedded l2c display\u8g2\csrc/u8x8_d_ssd1607_200x200.c **** 
 619:..\..\..\..\..\..\Dev\Library embedded l2c display\u8g2\csrc/u8x8_d_ssd1607_200x200.c ****   U8X8_A(0x10), U8X8_A(0x18), U8X8_A(0x18), U8X8_A(0x08), U8X8_A(0x18),   // numbers based on Waves
 620:..\..\..\..\..\..\Dev\Library embedded l2c display\u8g2\csrc/u8x8_d_ssd1607_200x200.c ****   U8X8_A(0x18), U8X8_A(0x08), U8X8_A(0x00), U8X8_A(0x00), U8X8_A(0x00), 
 621:..\..\..\..\..\..\Dev\Library embedded l2c display\u8g2\csrc/u8x8_d_ssd1607_200x200.c ****   U8X8_A(0x00), U8X8_A(0x00), U8X8_A(0x00), U8X8_A(0x00), U8X8_A(0x00), 
 622:..\..\..\..\..\..\Dev\Library embedded l2c display\u8g2\csrc/u8x8_d_ssd1607_200x200.c ****   U8X8_A(0x00), U8X8_A(0x00), U8X8_A(0x00), U8X8_A(0x00), U8X8_A(0x00), 
 623:..\..\..\..\..\..\Dev\Library embedded l2c display\u8g2\csrc/u8x8_d_ssd1607_200x200.c ****   
 624:..\..\..\..\..\..\Dev\Library embedded l2c display\u8g2\csrc/u8x8_d_ssd1607_200x200.c ****   U8X8_A(0x13), U8X8_A(0x14), U8X8_A(0x44), U8X8_A(0x12), U8X8_A(0x00), 
 625:..\..\..\..\..\..\Dev\Library embedded l2c display\u8g2\csrc/u8x8_d_ssd1607_200x200.c ****   U8X8_A(0x00), U8X8_A(0x00), U8X8_A(0x00), U8X8_A(0x00), U8X8_A(0x00),
 626:..\..\..\..\..\..\Dev\Library embedded l2c display\u8g2\csrc/u8x8_d_ssd1607_200x200.c **** 
 627:..\..\..\..\..\..\Dev\Library embedded l2c display\u8g2\csrc/u8x8_d_ssd1607_200x200.c ****   U8X8_CA(0x22, 0xc4),	/* display update seq. option: clk -> CP -> LUT -> initial display -> patter
 628:..\..\..\..\..\..\Dev\Library embedded l2c display\u8g2\csrc/u8x8_d_ssd1607_200x200.c ****   U8X8_C(0x20),	/* execute sequence */
 629:..\..\..\..\..\..\Dev\Library embedded l2c display\u8g2\csrc/u8x8_d_ssd1607_200x200.c ****   
 630:..\..\..\..\..\..\Dev\Library embedded l2c display\u8g2\csrc/u8x8_d_ssd1607_200x200.c ****   U8X8_DLY(250),	/* delay for 1250ms.  */
 631:..\..\..\..\..\..\Dev\Library embedded l2c display\u8g2\csrc/u8x8_d_ssd1607_200x200.c ****   U8X8_DLY(250),
 632:..\..\..\..\..\..\Dev\Library embedded l2c display\u8g2\csrc/u8x8_d_ssd1607_200x200.c ****   U8X8_DLY(250),
 633:..\..\..\..\..\..\Dev\Library embedded l2c display\u8g2\csrc/u8x8_d_ssd1607_200x200.c ****   U8X8_DLY(250),
 634:..\..\..\..\..\..\Dev\Library embedded l2c display\u8g2\csrc/u8x8_d_ssd1607_200x200.c ****   U8X8_DLY(250),
 635:..\..\..\..\..\..\Dev\Library embedded l2c display\u8g2\csrc/u8x8_d_ssd1607_200x200.c ****   
 636:..\..\..\..\..\..\Dev\Library embedded l2c display\u8g2\csrc/u8x8_d_ssd1607_200x200.c ****   
 637:..\..\..\..\..\..\Dev\Library embedded l2c display\u8g2\csrc/u8x8_d_ssd1607_200x200.c ****   U8X8_END_TRANSFER(),             	/* disable chip */
 638:..\..\..\..\..\..\Dev\Library embedded l2c display\u8g2\csrc/u8x8_d_ssd1607_200x200.c ****   U8X8_END()             			/* end of sequence */
 639:..\..\..\..\..\..\Dev\Library embedded l2c display\u8g2\csrc/u8x8_d_ssd1607_200x200.c **** };
 640:..\..\..\..\..\..\Dev\Library embedded l2c display\u8g2\csrc/u8x8_d_ssd1607_200x200.c **** 
 641:..\..\..\..\..\..\Dev\Library embedded l2c display\u8g2\csrc/u8x8_d_ssd1607_200x200.c **** 
 642:..\..\..\..\..\..\Dev\Library embedded l2c display\u8g2\csrc/u8x8_d_ssd1607_200x200.c **** static const uint8_t u8x8_d_ssd1607_ws_to_refresh_seq[] = {
 643:..\..\..\..\..\..\Dev\Library embedded l2c display\u8g2\csrc/u8x8_d_ssd1607_200x200.c ****   U8X8_START_TRANSFER(),             	/* enable chip, delay is part of the transfer start */
 644:..\..\..\..\..\..\Dev\Library embedded l2c display\u8g2\csrc/u8x8_d_ssd1607_200x200.c **** 
 645:..\..\..\..\..\..\Dev\Library embedded l2c display\u8g2\csrc/u8x8_d_ssd1607_200x200.c **** 
 646:..\..\..\..\..\..\Dev\Library embedded l2c display\u8g2\csrc/u8x8_d_ssd1607_200x200.c ****   U8X8_CA(0x22, 0x04),	/* display update seq. option: clk -> CP -> LUT -> initial display -> patter
 647:..\..\..\..\..\..\Dev\Library embedded l2c display\u8g2\csrc/u8x8_d_ssd1607_200x200.c ****   U8X8_C(0x20),	/* execute sequence */
 648:..\..\..\..\..\..\Dev\Library embedded l2c display\u8g2\csrc/u8x8_d_ssd1607_200x200.c ****   
ARM GAS  C:\Users\Abude\AppData\Local\Temp\ccaK9Evq.s 			page 26


 649:..\..\..\..\..\..\Dev\Library embedded l2c display\u8g2\csrc/u8x8_d_ssd1607_200x200.c **** //  U8X8_DLY(250),
 650:..\..\..\..\..\..\Dev\Library embedded l2c display\u8g2\csrc/u8x8_d_ssd1607_200x200.c **** //  U8X8_DLY(250),
 651:..\..\..\..\..\..\Dev\Library embedded l2c display\u8g2\csrc/u8x8_d_ssd1607_200x200.c ****   
 652:..\..\..\..\..\..\Dev\Library embedded l2c display\u8g2\csrc/u8x8_d_ssd1607_200x200.c ****   
 653:..\..\..\..\..\..\Dev\Library embedded l2c display\u8g2\csrc/u8x8_d_ssd1607_200x200.c ****   U8X8_END_TRANSFER(),             	/* disable chip */
 654:..\..\..\..\..\..\Dev\Library embedded l2c display\u8g2\csrc/u8x8_d_ssd1607_200x200.c ****   U8X8_END()             			/* end of sequence */
 655:..\..\..\..\..\..\Dev\Library embedded l2c display\u8g2\csrc/u8x8_d_ssd1607_200x200.c **** };
 656:..\..\..\..\..\..\Dev\Library embedded l2c display\u8g2\csrc/u8x8_d_ssd1607_200x200.c **** 
 657:..\..\..\..\..\..\Dev\Library embedded l2c display\u8g2\csrc/u8x8_d_ssd1607_200x200.c **** 
 658:..\..\..\..\..\..\Dev\Library embedded l2c display\u8g2\csrc/u8x8_d_ssd1607_200x200.c **** /* waveshare 200x200 */
 659:..\..\..\..\..\..\Dev\Library embedded l2c display\u8g2\csrc/u8x8_d_ssd1607_200x200.c **** static const uint8_t u8x8_d_ssd1607_ws_200x200_init_seq[] = {    
 660:..\..\..\..\..\..\Dev\Library embedded l2c display\u8g2\csrc/u8x8_d_ssd1607_200x200.c ****   // suggested code from https://github.com/olikraus/u8g2/issues/637
 661:..\..\..\..\..\..\Dev\Library embedded l2c display\u8g2\csrc/u8x8_d_ssd1607_200x200.c ****   
 662:..\..\..\..\..\..\Dev\Library embedded l2c display\u8g2\csrc/u8x8_d_ssd1607_200x200.c ****   U8X8_START_TRANSFER(),             	/* enable chip, delay is part of the transfer start */
 663:..\..\..\..\..\..\Dev\Library embedded l2c display\u8g2\csrc/u8x8_d_ssd1607_200x200.c ****  
 664:..\..\..\..\..\..\Dev\Library embedded l2c display\u8g2\csrc/u8x8_d_ssd1607_200x200.c ****   U8X8_C(0x01), /* DRIVER_OUTPUT_CONTROL: LO(EPD_HEIGHT-1), HI(EPD_HEIGHT-1). GD = 0; SM = 0; TB = 
 665:..\..\..\..\..\..\Dev\Library embedded l2c display\u8g2\csrc/u8x8_d_ssd1607_200x200.c ****   U8X8_A(199),U8X8_A(0),U8X8_A(0),
 666:..\..\..\..\..\..\Dev\Library embedded l2c display\u8g2\csrc/u8x8_d_ssd1607_200x200.c ****   
 667:..\..\..\..\..\..\Dev\Library embedded l2c display\u8g2\csrc/u8x8_d_ssd1607_200x200.c ****   U8X8_C(0x0C), /* BOOSTER_SOFT_START_CONTROL */
 668:..\..\..\..\..\..\Dev\Library embedded l2c display\u8g2\csrc/u8x8_d_ssd1607_200x200.c ****   U8X8_A(0xd7),U8X8_A(0xd6),U8X8_A(0x9d),
 669:..\..\..\..\..\..\Dev\Library embedded l2c display\u8g2\csrc/u8x8_d_ssd1607_200x200.c ****   
 670:..\..\..\..\..\..\Dev\Library embedded l2c display\u8g2\csrc/u8x8_d_ssd1607_200x200.c ****   U8X8_CA(0x2c, 0xa8), /* WRITE_VCOM_REGISTER: VCOM 7C */
 671:..\..\..\..\..\..\Dev\Library embedded l2c display\u8g2\csrc/u8x8_d_ssd1607_200x200.c ****   U8X8_CA(0x3a, 0x1a), /* SET_DUMMY_LINE_PERIOD: 4 dummy lines per gate */
 672:..\..\..\..\..\..\Dev\Library embedded l2c display\u8g2\csrc/u8x8_d_ssd1607_200x200.c ****   U8X8_CA(0x3b, 0x08), /* SET_GATE_TIME: 2us per line */
 673:..\..\..\..\..\..\Dev\Library embedded l2c display\u8g2\csrc/u8x8_d_ssd1607_200x200.c ****   U8X8_CA(0x11, 0x03), /* DATA_ENTRY_MODE_SETTING: X increment; Y increment */
 674:..\..\..\..\..\..\Dev\Library embedded l2c display\u8g2\csrc/u8x8_d_ssd1607_200x200.c ****   U8X8_CAA(0x44, 0, 24), /* SET_RAM_X_ADDRESS_START_END_POSITION: LO(x >> 3), LO((w-1) >> 3) */
 675:..\..\..\..\..\..\Dev\Library embedded l2c display\u8g2\csrc/u8x8_d_ssd1607_200x200.c ****   U8X8_CAAAA(0x45, 0, 0, 199&255, 199>>8), /* SET_RAM_Y_ADDRESS_START_END_POSITION: LO(y), HI(y), L
 676:..\..\..\..\..\..\Dev\Library embedded l2c display\u8g2\csrc/u8x8_d_ssd1607_200x200.c ****   U8X8_CA(0x4e, 0), /* LO(x >> 3) */
 677:..\..\..\..\..\..\Dev\Library embedded l2c display\u8g2\csrc/u8x8_d_ssd1607_200x200.c ****   U8X8_CAA(0x4f, 0, 0), /* LO(y), HI(y >> 8) */
 678:..\..\..\..\..\..\Dev\Library embedded l2c display\u8g2\csrc/u8x8_d_ssd1607_200x200.c ****   
 679:..\..\..\..\..\..\Dev\Library embedded l2c display\u8g2\csrc/u8x8_d_ssd1607_200x200.c ****   U8X8_END_TRANSFER(),             	/* disable chip */
 680:..\..\..\..\..\..\Dev\Library embedded l2c display\u8g2\csrc/u8x8_d_ssd1607_200x200.c ****   U8X8_END()             			/* end of sequence */  
 681:..\..\..\..\..\..\Dev\Library embedded l2c display\u8g2\csrc/u8x8_d_ssd1607_200x200.c ****   
 682:..\..\..\..\..\..\Dev\Library embedded l2c display\u8g2\csrc/u8x8_d_ssd1607_200x200.c **** };
 683:..\..\..\..\..\..\Dev\Library embedded l2c display\u8g2\csrc/u8x8_d_ssd1607_200x200.c **** 
 684:..\..\..\..\..\..\Dev\Library embedded l2c display\u8g2\csrc/u8x8_d_ssd1607_200x200.c **** 
 685:..\..\..\..\..\..\Dev\Library embedded l2c display\u8g2\csrc/u8x8_d_ssd1607_200x200.c **** uint8_t u8x8_d_ssd1607_ws_200x200(u8x8_t *u8x8, uint8_t msg, uint8_t arg_int, void *arg_ptr)
 686:..\..\..\..\..\..\Dev\Library embedded l2c display\u8g2\csrc/u8x8_d_ssd1607_200x200.c **** {
 726              		.loc 1 686 0
 727              		.cfi_startproc
 728              		@ args = 0, pretend = 0, frame = 0
 729              		@ frame_needed = 0, uses_anonymous_args = 0
 730              	.LVL110:
 731 0000 38B5     		push	{r3, r4, r5, lr}
 732              		.cfi_def_cfa_offset 16
 733              		.cfi_offset 3, -16
 734              		.cfi_offset 4, -12
 735              		.cfi_offset 5, -8
 736              		.cfi_offset 14, -4
 737 0002 0446     		mov	r4, r0
 738 0004 1046     		mov	r0, r2
 739              	.LVL111:
 687:..\..\..\..\..\..\Dev\Library embedded l2c display\u8g2\csrc/u8x8_d_ssd1607_200x200.c ****   switch(msg)
 740              		.loc 1 687 0
 741 0006 0939     		subs	r1, r1, #9
 742              	.LVL112:
 743 0008 0729     		cmp	r1, #7
ARM GAS  C:\Users\Abude\AppData\Local\Temp\ccaK9Evq.s 			page 27


 744 000a 05D8     		bhi	.L57
 745 000c DFE801F0 		tbb	[pc, r1]
 746              	.LVL113:
 747              	.L59:
 748 0010 06       		.byte	(.L58-.L59)/2
 749 0011 0C       		.byte	(.L60-.L59)/2
 750 0012 24       		.byte	(.L61-.L59)/2
 751 0013 04       		.byte	(.L57-.L59)/2
 752 0014 3E       		.byte	(.L66-.L59)/2
 753 0015 04       		.byte	(.L57-.L59)/2
 754 0016 31       		.byte	(.L63-.L59)/2
 755 0017 38       		.byte	(.L64-.L59)/2
 756              		.p2align 1
 757              	.L57:
 688:..\..\..\..\..\..\Dev\Library embedded l2c display\u8g2\csrc/u8x8_d_ssd1607_200x200.c ****   {
 689:..\..\..\..\..\..\Dev\Library embedded l2c display\u8g2\csrc/u8x8_d_ssd1607_200x200.c ****     case U8X8_MSG_DISPLAY_SETUP_MEMORY:
 690:..\..\..\..\..\..\Dev\Library embedded l2c display\u8g2\csrc/u8x8_d_ssd1607_200x200.c ****       u8x8_d_helper_display_setup_memory(u8x8, &u8x8_ssd1607_200x200_display_info);
 691:..\..\..\..\..\..\Dev\Library embedded l2c display\u8g2\csrc/u8x8_d_ssd1607_200x200.c ****       break;
 692:..\..\..\..\..\..\Dev\Library embedded l2c display\u8g2\csrc/u8x8_d_ssd1607_200x200.c ****     case U8X8_MSG_DISPLAY_INIT:
 693:..\..\..\..\..\..\Dev\Library embedded l2c display\u8g2\csrc/u8x8_d_ssd1607_200x200.c ****       u8x8_d_helper_display_init(u8x8);
 694:..\..\..\..\..\..\Dev\Library embedded l2c display\u8g2\csrc/u8x8_d_ssd1607_200x200.c ****       u8x8_cad_SendSequence(u8x8, u8x8_d_ssd1607_ws_200x200_init_seq);    
 695:..\..\..\..\..\..\Dev\Library embedded l2c display\u8g2\csrc/u8x8_d_ssd1607_200x200.c ****       u8x8_cad_SendSequence(u8x8, u8x8_d_ssd1607_200x200_powersave0_seq);
 696:..\..\..\..\..\..\Dev\Library embedded l2c display\u8g2\csrc/u8x8_d_ssd1607_200x200.c ****       u8x8_d_ssd1607_200x200_first_init(u8x8);
 697:..\..\..\..\..\..\Dev\Library embedded l2c display\u8g2\csrc/u8x8_d_ssd1607_200x200.c ****       u8x8_cad_SendSequence(u8x8, u8x8_d_ssd1607_ws_to_display_seq);; // to setup LUT
 698:..\..\..\..\..\..\Dev\Library embedded l2c display\u8g2\csrc/u8x8_d_ssd1607_200x200.c ****       break;
 699:..\..\..\..\..\..\Dev\Library embedded l2c display\u8g2\csrc/u8x8_d_ssd1607_200x200.c ****     case U8X8_MSG_DISPLAY_SET_POWER_SAVE:
 700:..\..\..\..\..\..\Dev\Library embedded l2c display\u8g2\csrc/u8x8_d_ssd1607_200x200.c ****       if ( arg_int == 0 )
 701:..\..\..\..\..\..\Dev\Library embedded l2c display\u8g2\csrc/u8x8_d_ssd1607_200x200.c **** 	u8x8_cad_SendSequence(u8x8, u8x8_d_ssd1607_200x200_powersave0_seq);
 702:..\..\..\..\..\..\Dev\Library embedded l2c display\u8g2\csrc/u8x8_d_ssd1607_200x200.c ****       else
 703:..\..\..\..\..\..\Dev\Library embedded l2c display\u8g2\csrc/u8x8_d_ssd1607_200x200.c **** 	u8x8_cad_SendSequence(u8x8, u8x8_d_ssd1607_200x200_powersave1_seq);
 704:..\..\..\..\..\..\Dev\Library embedded l2c display\u8g2\csrc/u8x8_d_ssd1607_200x200.c ****       break;
 705:..\..\..\..\..\..\Dev\Library embedded l2c display\u8g2\csrc/u8x8_d_ssd1607_200x200.c ****     case U8X8_MSG_DISPLAY_SET_FLIP_MODE:
 706:..\..\..\..\..\..\Dev\Library embedded l2c display\u8g2\csrc/u8x8_d_ssd1607_200x200.c ****       break;
 707:..\..\..\..\..\..\Dev\Library embedded l2c display\u8g2\csrc/u8x8_d_ssd1607_200x200.c ****     case U8X8_MSG_DISPLAY_DRAW_TILE:
 708:..\..\..\..\..\..\Dev\Library embedded l2c display\u8g2\csrc/u8x8_d_ssd1607_200x200.c ****       u8x8_d_ssd1607_draw_tile(u8x8, arg_int, arg_ptr);
 709:..\..\..\..\..\..\Dev\Library embedded l2c display\u8g2\csrc/u8x8_d_ssd1607_200x200.c ****       break;
 710:..\..\..\..\..\..\Dev\Library embedded l2c display\u8g2\csrc/u8x8_d_ssd1607_200x200.c ****     case U8X8_MSG_DISPLAY_REFRESH:
 711:..\..\..\..\..\..\Dev\Library embedded l2c display\u8g2\csrc/u8x8_d_ssd1607_200x200.c ****       u8x8_cad_SendSequence(u8x8, u8x8_d_ssd1607_ws_to_refresh_seq);
 712:..\..\..\..\..\..\Dev\Library embedded l2c display\u8g2\csrc/u8x8_d_ssd1607_200x200.c ****       break;
 713:..\..\..\..\..\..\Dev\Library embedded l2c display\u8g2\csrc/u8x8_d_ssd1607_200x200.c ****     default:
 714:..\..\..\..\..\..\Dev\Library embedded l2c display\u8g2\csrc/u8x8_d_ssd1607_200x200.c ****       return 0;
 758              		.loc 1 714 0
 759 0018 0020     		movs	r0, #0
 760 001a 38BD     		pop	{r3, r4, r5, pc}
 761              	.LVL114:
 762              	.L58:
 690:..\..\..\..\..\..\Dev\Library embedded l2c display\u8g2\csrc/u8x8_d_ssd1607_200x200.c ****       break;
 763              		.loc 1 690 0
 764 001c 1C49     		ldr	r1, .L68
 765 001e 2046     		mov	r0, r4
 766 0020 FFF7FEFF 		bl	u8x8_d_helper_display_setup_memory
 767              	.LVL115:
 715:..\..\..\..\..\..\Dev\Library embedded l2c display\u8g2\csrc/u8x8_d_ssd1607_200x200.c ****   }
 716:..\..\..\..\..\..\Dev\Library embedded l2c display\u8g2\csrc/u8x8_d_ssd1607_200x200.c ****   return 1;
 768              		.loc 1 716 0
 769 0024 0120     		movs	r0, #1
 691:..\..\..\..\..\..\Dev\Library embedded l2c display\u8g2\csrc/u8x8_d_ssd1607_200x200.c ****     case U8X8_MSG_DISPLAY_INIT:
ARM GAS  C:\Users\Abude\AppData\Local\Temp\ccaK9Evq.s 			page 28


 770              		.loc 1 691 0
 771 0026 38BD     		pop	{r3, r4, r5, pc}
 772              	.LVL116:
 773              	.L60:
 693:..\..\..\..\..\..\Dev\Library embedded l2c display\u8g2\csrc/u8x8_d_ssd1607_200x200.c ****       u8x8_cad_SendSequence(u8x8, u8x8_d_ssd1607_ws_200x200_init_seq);    
 774              		.loc 1 693 0
 775 0028 2046     		mov	r0, r4
 776 002a FFF7FEFF 		bl	u8x8_d_helper_display_init
 777              	.LVL117:
 694:..\..\..\..\..\..\Dev\Library embedded l2c display\u8g2\csrc/u8x8_d_ssd1607_200x200.c ****       u8x8_cad_SendSequence(u8x8, u8x8_d_ssd1607_200x200_powersave0_seq);
 778              		.loc 1 694 0
 779 002e 194D     		ldr	r5, .L68+4
 780 0030 05F5C071 		add	r1, r5, #384
 781 0034 2046     		mov	r0, r4
 782 0036 FFF7FEFF 		bl	u8x8_cad_SendSequence
 783              	.LVL118:
 695:..\..\..\..\..\..\Dev\Library embedded l2c display\u8g2\csrc/u8x8_d_ssd1607_200x200.c ****       u8x8_d_ssd1607_200x200_first_init(u8x8);
 784              		.loc 1 695 0
 785 003a 05F16801 		add	r1, r5, #104
 786 003e 2046     		mov	r0, r4
 787 0040 FFF7FEFF 		bl	u8x8_cad_SendSequence
 788              	.LVL119:
 696:..\..\..\..\..\..\Dev\Library embedded l2c display\u8g2\csrc/u8x8_d_ssd1607_200x200.c ****       u8x8_cad_SendSequence(u8x8, u8x8_d_ssd1607_ws_to_display_seq);; // to setup LUT
 789              		.loc 1 696 0
 790 0044 2046     		mov	r0, r4
 791 0046 FFF7FEFF 		bl	u8x8_d_ssd1607_200x200_first_init
 792              	.LVL120:
 697:..\..\..\..\..\..\Dev\Library embedded l2c display\u8g2\csrc/u8x8_d_ssd1607_200x200.c ****       break;
 793              		.loc 1 697 0
 794 004a 05F5E071 		add	r1, r5, #448
 795 004e 2046     		mov	r0, r4
 796 0050 FFF7FEFF 		bl	u8x8_cad_SendSequence
 797              	.LVL121:
 798              		.loc 1 716 0
 799 0054 0120     		movs	r0, #1
 698:..\..\..\..\..\..\Dev\Library embedded l2c display\u8g2\csrc/u8x8_d_ssd1607_200x200.c ****     case U8X8_MSG_DISPLAY_SET_POWER_SAVE:
 800              		.loc 1 698 0
 801 0056 38BD     		pop	{r3, r4, r5, pc}
 802              	.LVL122:
 803              	.L61:
 700:..\..\..\..\..\..\Dev\Library embedded l2c display\u8g2\csrc/u8x8_d_ssd1607_200x200.c **** 	u8x8_cad_SendSequence(u8x8, u8x8_d_ssd1607_200x200_powersave0_seq);
 804              		.loc 1 700 0
 805 0058 28B9     		cbnz	r0, .L65
 701:..\..\..\..\..\..\Dev\Library embedded l2c display\u8g2\csrc/u8x8_d_ssd1607_200x200.c ****       else
 806              		.loc 1 701 0
 807 005a 0F49     		ldr	r1, .L68+8
 808 005c 2046     		mov	r0, r4
 809 005e FFF7FEFF 		bl	u8x8_cad_SendSequence
 810              	.LVL123:
 811              		.loc 1 716 0
 812 0062 0120     		movs	r0, #1
 813 0064 38BD     		pop	{r3, r4, r5, pc}
 814              	.LVL124:
 815              	.L65:
 703:..\..\..\..\..\..\Dev\Library embedded l2c display\u8g2\csrc/u8x8_d_ssd1607_200x200.c ****       break;
 816              		.loc 1 703 0
 817 0066 0D49     		ldr	r1, .L68+12
ARM GAS  C:\Users\Abude\AppData\Local\Temp\ccaK9Evq.s 			page 29


 818 0068 2046     		mov	r0, r4
 819 006a FFF7FEFF 		bl	u8x8_cad_SendSequence
 820              	.LVL125:
 821              		.loc 1 716 0
 822 006e 0120     		movs	r0, #1
 823 0070 38BD     		pop	{r3, r4, r5, pc}
 824              	.LVL126:
 825              	.L63:
 708:..\..\..\..\..\..\Dev\Library embedded l2c display\u8g2\csrc/u8x8_d_ssd1607_200x200.c ****       break;
 826              		.loc 1 708 0
 827 0072 1A46     		mov	r2, r3
 828 0074 0146     		mov	r1, r0
 829 0076 2046     		mov	r0, r4
 830 0078 FFF7FEFF 		bl	u8x8_d_ssd1607_draw_tile
 831              	.LVL127:
 832              		.loc 1 716 0
 833 007c 0120     		movs	r0, #1
 709:..\..\..\..\..\..\Dev\Library embedded l2c display\u8g2\csrc/u8x8_d_ssd1607_200x200.c ****     case U8X8_MSG_DISPLAY_REFRESH:
 834              		.loc 1 709 0
 835 007e 38BD     		pop	{r3, r4, r5, pc}
 836              	.LVL128:
 837              	.L64:
 711:..\..\..\..\..\..\Dev\Library embedded l2c display\u8g2\csrc/u8x8_d_ssd1607_200x200.c ****       break;
 838              		.loc 1 711 0
 839 0080 0749     		ldr	r1, .L68+16
 840 0082 2046     		mov	r0, r4
 841 0084 FFF7FEFF 		bl	u8x8_cad_SendSequence
 842              	.LVL129:
 843              		.loc 1 716 0
 844 0088 0120     		movs	r0, #1
 712:..\..\..\..\..\..\Dev\Library embedded l2c display\u8g2\csrc/u8x8_d_ssd1607_200x200.c ****     default:
 845              		.loc 1 712 0
 846 008a 38BD     		pop	{r3, r4, r5, pc}
 847              	.LVL130:
 848              	.L66:
 849              		.loc 1 716 0
 850 008c 0120     		movs	r0, #1
 717:..\..\..\..\..\..\Dev\Library embedded l2c display\u8g2\csrc/u8x8_d_ssd1607_200x200.c **** }
 851              		.loc 1 717 0
 852 008e 38BD     		pop	{r3, r4, r5, pc}
 853              	.LVL131:
 854              	.L69:
 855              		.align	2
 856              	.L68:
 857 0090 10000000 		.word	.LANCHOR1+16
 858 0094 00000000 		.word	.LANCHOR1
 859 0098 68000000 		.word	.LANCHOR1+104
 860 009c 78000000 		.word	.LANCHOR1+120
 861 00a0 14020000 		.word	.LANCHOR1+532
 862              		.cfi_endproc
 863              	.LFE6:
 864              		.size	u8x8_d_ssd1607_ws_200x200, .-u8x8_d_ssd1607_ws_200x200
 865              		.section	.rodata
 866              		.align	2
 867              		.set	.LANCHOR1,. + 0
 868              		.type	u8x8_d_ssd1607_200x200_exec_1000dly_seq, %object
 869              		.size	u8x8_d_ssd1607_200x200_exec_1000dly_seq, 16
ARM GAS  C:\Users\Abude\AppData\Local\Temp\ccaK9Evq.s 			page 30


 870              	u8x8_d_ssd1607_200x200_exec_1000dly_seq:
 871 0000 15       		.byte	21
 872 0001 22       		.byte	34
 873 0002 16       		.byte	22
 874 0003 04       		.byte	4
 875 0004 15       		.byte	21
 876 0005 20       		.byte	32
 877 0006 FE       		.byte	-2
 878 0007 FA       		.byte	-6
 879 0008 FE       		.byte	-2
 880 0009 FA       		.byte	-6
 881 000a FE       		.byte	-2
 882 000b FA       		.byte	-6
 883 000c FE       		.byte	-2
 884 000d FA       		.byte	-6
 885 000e 19       		.byte	25
 886 000f FF       		.byte	-1
 887              		.type	u8x8_ssd1607_200x200_display_info, %object
 888              		.size	u8x8_ssd1607_200x200_display_info, 24
 889              	u8x8_ssd1607_200x200_display_info:
 890 0010 00       		.byte	0
 891 0011 01       		.byte	1
 892 0012 78       		.byte	120
 893 0013 3C       		.byte	60
 894 0014 64       		.byte	100
 895 0015 64       		.byte	100
 896 0016 32       		.byte	50
 897 0017 64       		.byte	100
 898 0018 00093D00 		.word	4000000
 899 001c 00       		.byte	0
 900 001d 04       		.byte	4
 901 001e 28       		.byte	40
 902 001f 96       		.byte	-106
 903 0020 19       		.byte	25
 904 0021 19       		.byte	25
 905 0022 00       		.byte	0
 906 0023 00       		.byte	0
 907 0024 C800     		.short	200
 908 0026 C800     		.short	200
 909              		.type	u8x8_d_ssd1607_200x200_init_seq, %object
 910              		.size	u8x8_d_ssd1607_200x200_init_seq, 63
 911              	u8x8_d_ssd1607_200x200_init_seq:
 912 0028 18       		.byte	24
 913 0029 15       		.byte	21
 914 002a 01       		.byte	1
 915 002b 16       		.byte	22
 916 002c C7       		.byte	-57
 917 002d 16       		.byte	22
 918 002e 00       		.byte	0
 919 002f 16       		.byte	22
 920 0030 00       		.byte	0
 921 0031 15       		.byte	21
 922 0032 03       		.byte	3
 923 0033 16       		.byte	22
 924 0034 00       		.byte	0
 925 0035 15       		.byte	21
 926 0036 04       		.byte	4
ARM GAS  C:\Users\Abude\AppData\Local\Temp\ccaK9Evq.s 			page 31


 927 0037 16       		.byte	22
 928 0038 0A       		.byte	10
 929 0039 15       		.byte	21
 930 003a 0F       		.byte	15
 931 003b 16       		.byte	22
 932 003c 00       		.byte	0
 933 003d 15       		.byte	21
 934 003e F0       		.byte	-16
 935 003f 16       		.byte	22
 936 0040 1F       		.byte	31
 937 0041 15       		.byte	21
 938 0042 2C       		.byte	44
 939 0043 16       		.byte	22
 940 0044 A8       		.byte	-88
 941 0045 15       		.byte	21
 942 0046 3A       		.byte	58
 943 0047 16       		.byte	22
 944 0048 1A       		.byte	26
 945 0049 15       		.byte	21
 946 004a 3B       		.byte	59
 947 004b 16       		.byte	22
 948 004c 08       		.byte	8
 949 004d 15       		.byte	21
 950 004e 3C       		.byte	60
 951 004f 16       		.byte	22
 952 0050 33       		.byte	51
 953 0051 15       		.byte	21
 954 0052 11       		.byte	17
 955 0053 16       		.byte	22
 956 0054 03       		.byte	3
 957 0055 15       		.byte	21
 958 0056 44       		.byte	68
 959 0057 16       		.byte	22
 960 0058 00       		.byte	0
 961 0059 16       		.byte	22
 962 005a 18       		.byte	24
 963 005b 15       		.byte	21
 964 005c 45       		.byte	69
 965 005d 16       		.byte	22
 966 005e 00       		.byte	0
 967 005f 16       		.byte	22
 968 0060 00       		.byte	0
 969 0061 16       		.byte	22
 970 0062 2B       		.byte	43
 971 0063 16       		.byte	22
 972 0064 01       		.byte	1
 973 0065 19       		.byte	25
 974 0066 FF       		.byte	-1
 975 0067 00       		.space	1
 976              		.type	u8x8_d_ssd1607_200x200_powersave0_seq, %object
 977              		.size	u8x8_d_ssd1607_200x200_powersave0_seq, 13
 978              	u8x8_d_ssd1607_200x200_powersave0_seq:
 979 0068 18       		.byte	24
 980 0069 15       		.byte	21
 981 006a 22       		.byte	34
 982 006b 16       		.byte	22
 983 006c C0       		.byte	-64
ARM GAS  C:\Users\Abude\AppData\Local\Temp\ccaK9Evq.s 			page 32


 984 006d 15       		.byte	21
 985 006e 20       		.byte	32
 986 006f FE       		.byte	-2
 987 0070 C8       		.byte	-56
 988 0071 FE       		.byte	-2
 989 0072 64       		.byte	100
 990 0073 19       		.byte	25
 991 0074 FF       		.byte	-1
 992 0075 000000   		.space	3
 993              		.type	u8x8_d_ssd1607_200x200_powersave1_seq, %object
 994              		.size	u8x8_d_ssd1607_200x200_powersave1_seq, 11
 995              	u8x8_d_ssd1607_200x200_powersave1_seq:
 996 0078 18       		.byte	24
 997 0079 15       		.byte	21
 998 007a 22       		.byte	34
 999 007b 16       		.byte	22
 1000 007c 02       		.byte	2
 1001 007d 15       		.byte	21
 1002 007e 20       		.byte	32
 1003 007f FE       		.byte	-2
 1004 0080 14       		.byte	20
 1005 0081 19       		.byte	25
 1006 0082 FF       		.byte	-1
 1007 0083 00       		.space	1
 1008              		.type	u8x8_d_ssd1607_to_display_seq, %object
 1009              		.size	u8x8_d_ssd1607_to_display_seq, 85
 1010              	u8x8_d_ssd1607_to_display_seq:
 1011 0084 18       		.byte	24
 1012 0085 15       		.byte	21
 1013 0086 32       		.byte	50
 1014 0087 16       		.byte	22
 1015 0088 02       		.byte	2
 1016 0089 16       		.byte	22
 1017 008a 02       		.byte	2
 1018 008b 16       		.byte	22
 1019 008c 01       		.byte	1
 1020 008d 16       		.byte	22
 1021 008e 11       		.byte	17
 1022 008f 16       		.byte	22
 1023 0090 12       		.byte	18
 1024 0091 16       		.byte	22
 1025 0092 12       		.byte	18
 1026 0093 16       		.byte	22
 1027 0094 22       		.byte	34
 1028 0095 16       		.byte	22
 1029 0096 22       		.byte	34
 1030 0097 16       		.byte	22
 1031 0098 66       		.byte	102
 1032 0099 16       		.byte	22
 1033 009a 69       		.byte	105
 1034 009b 16       		.byte	22
 1035 009c 69       		.byte	105
 1036 009d 16       		.byte	22
 1037 009e 59       		.byte	89
 1038 009f 16       		.byte	22
 1039 00a0 58       		.byte	88
 1040 00a1 16       		.byte	22
ARM GAS  C:\Users\Abude\AppData\Local\Temp\ccaK9Evq.s 			page 33


 1041 00a2 99       		.byte	-103
 1042 00a3 16       		.byte	22
 1043 00a4 99       		.byte	-103
 1044 00a5 16       		.byte	22
 1045 00a6 88       		.byte	-120
 1046 00a7 16       		.byte	22
 1047 00a8 00       		.byte	0
 1048 00a9 16       		.byte	22
 1049 00aa 00       		.byte	0
 1050 00ab 16       		.byte	22
 1051 00ac 00       		.byte	0
 1052 00ad 16       		.byte	22
 1053 00ae 00       		.byte	0
 1054 00af 16       		.byte	22
 1055 00b0 F8       		.byte	-8
 1056 00b1 16       		.byte	22
 1057 00b2 B4       		.byte	-76
 1058 00b3 16       		.byte	22
 1059 00b4 13       		.byte	19
 1060 00b5 16       		.byte	22
 1061 00b6 51       		.byte	81
 1062 00b7 16       		.byte	22
 1063 00b8 35       		.byte	53
 1064 00b9 16       		.byte	22
 1065 00ba 51       		.byte	81
 1066 00bb 16       		.byte	22
 1067 00bc 51       		.byte	81
 1068 00bd 16       		.byte	22
 1069 00be 19       		.byte	25
 1070 00bf 16       		.byte	22
 1071 00c0 01       		.byte	1
 1072 00c1 16       		.byte	22
 1073 00c2 00       		.byte	0
 1074 00c3 15       		.byte	21
 1075 00c4 22       		.byte	34
 1076 00c5 16       		.byte	22
 1077 00c6 04       		.byte	4
 1078 00c7 15       		.byte	21
 1079 00c8 20       		.byte	32
 1080 00c9 FE       		.byte	-2
 1081 00ca FA       		.byte	-6
 1082 00cb FE       		.byte	-2
 1083 00cc FA       		.byte	-6
 1084 00cd FE       		.byte	-2
 1085 00ce FA       		.byte	-6
 1086 00cf FE       		.byte	-2
 1087 00d0 FA       		.byte	-6
 1088 00d1 FE       		.byte	-2
 1089 00d2 FA       		.byte	-6
 1090 00d3 FE       		.byte	-2
 1091 00d4 FA       		.byte	-6
 1092 00d5 FE       		.byte	-2
 1093 00d6 FA       		.byte	-6
 1094 00d7 19       		.byte	25
 1095 00d8 FF       		.byte	-1
 1096 00d9 000000   		.space	3
 1097              		.type	u8x8_d_ssd1607_v2_to_display_seq, %object
ARM GAS  C:\Users\Abude\AppData\Local\Temp\ccaK9Evq.s 			page 34


 1098              		.size	u8x8_d_ssd1607_v2_to_display_seq, 83
 1099              	u8x8_d_ssd1607_v2_to_display_seq:
 1100 00dc 18       		.byte	24
 1101 00dd 15       		.byte	21
 1102 00de 32       		.byte	50
 1103 00df 16       		.byte	22
 1104 00e0 02       		.byte	2
 1105 00e1 16       		.byte	22
 1106 00e2 02       		.byte	2
 1107 00e3 16       		.byte	22
 1108 00e4 01       		.byte	1
 1109 00e5 16       		.byte	22
 1110 00e6 11       		.byte	17
 1111 00e7 16       		.byte	22
 1112 00e8 12       		.byte	18
 1113 00e9 16       		.byte	22
 1114 00ea 12       		.byte	18
 1115 00eb 16       		.byte	22
 1116 00ec 22       		.byte	34
 1117 00ed 16       		.byte	22
 1118 00ee 22       		.byte	34
 1119 00ef 16       		.byte	22
 1120 00f0 66       		.byte	102
 1121 00f1 16       		.byte	22
 1122 00f2 69       		.byte	105
 1123 00f3 16       		.byte	22
 1124 00f4 69       		.byte	105
 1125 00f5 16       		.byte	22
 1126 00f6 59       		.byte	89
 1127 00f7 16       		.byte	22
 1128 00f8 58       		.byte	88
 1129 00f9 16       		.byte	22
 1130 00fa 99       		.byte	-103
 1131 00fb 16       		.byte	22
 1132 00fc 99       		.byte	-103
 1133 00fd 16       		.byte	22
 1134 00fe 88       		.byte	-120
 1135 00ff 16       		.byte	22
 1136 0100 00       		.byte	0
 1137 0101 16       		.byte	22
 1138 0102 00       		.byte	0
 1139 0103 16       		.byte	22
 1140 0104 00       		.byte	0
 1141 0105 16       		.byte	22
 1142 0106 00       		.byte	0
 1143 0107 16       		.byte	22
 1144 0108 F8       		.byte	-8
 1145 0109 16       		.byte	22
 1146 010a B4       		.byte	-76
 1147 010b 16       		.byte	22
 1148 010c 13       		.byte	19
 1149 010d 16       		.byte	22
 1150 010e 51       		.byte	81
 1151 010f 16       		.byte	22
 1152 0110 35       		.byte	53
 1153 0111 16       		.byte	22
 1154 0112 51       		.byte	81
ARM GAS  C:\Users\Abude\AppData\Local\Temp\ccaK9Evq.s 			page 35


 1155 0113 16       		.byte	22
 1156 0114 51       		.byte	81
 1157 0115 16       		.byte	22
 1158 0116 E9       		.byte	-23
 1159 0117 16       		.byte	22
 1160 0118 04       		.byte	4
 1161 0119 16       		.byte	22
 1162 011a 00       		.byte	0
 1163 011b 15       		.byte	21
 1164 011c 22       		.byte	34
 1165 011d 16       		.byte	22
 1166 011e 04       		.byte	4
 1167 011f 15       		.byte	21
 1168 0120 20       		.byte	32
 1169 0121 FE       		.byte	-2
 1170 0122 FA       		.byte	-6
 1171 0123 FE       		.byte	-2
 1172 0124 FA       		.byte	-6
 1173 0125 FE       		.byte	-2
 1174 0126 FA       		.byte	-6
 1175 0127 FE       		.byte	-2
 1176 0128 FA       		.byte	-6
 1177 0129 FE       		.byte	-2
 1178 012a FA       		.byte	-6
 1179 012b FE       		.byte	-2
 1180 012c FA       		.byte	-6
 1181 012d 19       		.byte	25
 1182 012e FF       		.byte	-1
 1183 012f 00       		.space	1
 1184              		.type	u8x8_d_ssd1607_gd_to_display_seq, %object
 1185              		.size	u8x8_d_ssd1607_gd_to_display_seq, 77
 1186              	u8x8_d_ssd1607_gd_to_display_seq:
 1187 0130 18       		.byte	24
 1188 0131 15       		.byte	21
 1189 0132 32       		.byte	50
 1190 0133 16       		.byte	22
 1191 0134 10       		.byte	16
 1192 0135 16       		.byte	22
 1193 0136 18       		.byte	24
 1194 0137 16       		.byte	22
 1195 0138 18       		.byte	24
 1196 0139 16       		.byte	22
 1197 013a 08       		.byte	8
 1198 013b 16       		.byte	22
 1199 013c 18       		.byte	24
 1200 013d 16       		.byte	22
 1201 013e 18       		.byte	24
 1202 013f 16       		.byte	22
 1203 0140 08       		.byte	8
 1204 0141 16       		.byte	22
 1205 0142 00       		.byte	0
 1206 0143 16       		.byte	22
 1207 0144 00       		.byte	0
 1208 0145 16       		.byte	22
 1209 0146 00       		.byte	0
 1210 0147 16       		.byte	22
 1211 0148 00       		.byte	0
ARM GAS  C:\Users\Abude\AppData\Local\Temp\ccaK9Evq.s 			page 36


 1212 0149 16       		.byte	22
 1213 014a 00       		.byte	0
 1214 014b 16       		.byte	22
 1215 014c 00       		.byte	0
 1216 014d 16       		.byte	22
 1217 014e 00       		.byte	0
 1218 014f 16       		.byte	22
 1219 0150 00       		.byte	0
 1220 0151 16       		.byte	22
 1221 0152 00       		.byte	0
 1222 0153 16       		.byte	22
 1223 0154 00       		.byte	0
 1224 0155 16       		.byte	22
 1225 0156 00       		.byte	0
 1226 0157 16       		.byte	22
 1227 0158 00       		.byte	0
 1228 0159 16       		.byte	22
 1229 015a 00       		.byte	0
 1230 015b 16       		.byte	22
 1231 015c 13       		.byte	19
 1232 015d 16       		.byte	22
 1233 015e 14       		.byte	20
 1234 015f 16       		.byte	22
 1235 0160 44       		.byte	68
 1236 0161 16       		.byte	22
 1237 0162 12       		.byte	18
 1238 0163 16       		.byte	22
 1239 0164 00       		.byte	0
 1240 0165 16       		.byte	22
 1241 0166 00       		.byte	0
 1242 0167 16       		.byte	22
 1243 0168 00       		.byte	0
 1244 0169 16       		.byte	22
 1245 016a 00       		.byte	0
 1246 016b 16       		.byte	22
 1247 016c 00       		.byte	0
 1248 016d 16       		.byte	22
 1249 016e 00       		.byte	0
 1250 016f 15       		.byte	21
 1251 0170 22       		.byte	34
 1252 0171 16       		.byte	22
 1253 0172 C4       		.byte	-60
 1254 0173 15       		.byte	21
 1255 0174 20       		.byte	32
 1256 0175 FE       		.byte	-2
 1257 0176 FA       		.byte	-6
 1258 0177 FE       		.byte	-2
 1259 0178 FA       		.byte	-6
 1260 0179 FE       		.byte	-2
 1261 017a FA       		.byte	-6
 1262 017b 19       		.byte	25
 1263 017c FF       		.byte	-1
 1264 017d 000000   		.space	3
 1265              		.type	u8x8_d_ssd1607_ws_200x200_init_seq, %object
 1266              		.size	u8x8_d_ssd1607_ws_200x200_init_seq, 61
 1267              	u8x8_d_ssd1607_ws_200x200_init_seq:
 1268 0180 18       		.byte	24
ARM GAS  C:\Users\Abude\AppData\Local\Temp\ccaK9Evq.s 			page 37


 1269 0181 15       		.byte	21
 1270 0182 01       		.byte	1
 1271 0183 16       		.byte	22
 1272 0184 C7       		.byte	-57
 1273 0185 16       		.byte	22
 1274 0186 00       		.byte	0
 1275 0187 16       		.byte	22
 1276 0188 00       		.byte	0
 1277 0189 15       		.byte	21
 1278 018a 0C       		.byte	12
 1279 018b 16       		.byte	22
 1280 018c D7       		.byte	-41
 1281 018d 16       		.byte	22
 1282 018e D6       		.byte	-42
 1283 018f 16       		.byte	22
 1284 0190 9D       		.byte	-99
 1285 0191 15       		.byte	21
 1286 0192 2C       		.byte	44
 1287 0193 16       		.byte	22
 1288 0194 A8       		.byte	-88
 1289 0195 15       		.byte	21
 1290 0196 3A       		.byte	58
 1291 0197 16       		.byte	22
 1292 0198 1A       		.byte	26
 1293 0199 15       		.byte	21
 1294 019a 3B       		.byte	59
 1295 019b 16       		.byte	22
 1296 019c 08       		.byte	8
 1297 019d 15       		.byte	21
 1298 019e 11       		.byte	17
 1299 019f 16       		.byte	22
 1300 01a0 03       		.byte	3
 1301 01a1 15       		.byte	21
 1302 01a2 44       		.byte	68
 1303 01a3 16       		.byte	22
 1304 01a4 00       		.byte	0
 1305 01a5 16       		.byte	22
 1306 01a6 18       		.byte	24
 1307 01a7 15       		.byte	21
 1308 01a8 45       		.byte	69
 1309 01a9 16       		.byte	22
 1310 01aa 00       		.byte	0
 1311 01ab 16       		.byte	22
 1312 01ac 00       		.byte	0
 1313 01ad 16       		.byte	22
 1314 01ae C7       		.byte	-57
 1315 01af 16       		.byte	22
 1316 01b0 00       		.byte	0
 1317 01b1 15       		.byte	21
 1318 01b2 4E       		.byte	78
 1319 01b3 16       		.byte	22
 1320 01b4 00       		.byte	0
 1321 01b5 15       		.byte	21
 1322 01b6 4F       		.byte	79
 1323 01b7 16       		.byte	22
 1324 01b8 00       		.byte	0
 1325 01b9 16       		.byte	22
ARM GAS  C:\Users\Abude\AppData\Local\Temp\ccaK9Evq.s 			page 38


 1326 01ba 00       		.byte	0
 1327 01bb 19       		.byte	25
 1328 01bc FF       		.byte	-1
 1329 01bd 000000   		.space	3
 1330              		.type	u8x8_d_ssd1607_ws_to_display_seq, %object
 1331              		.size	u8x8_d_ssd1607_ws_to_display_seq, 81
 1332              	u8x8_d_ssd1607_ws_to_display_seq:
 1333 01c0 18       		.byte	24
 1334 01c1 15       		.byte	21
 1335 01c2 32       		.byte	50
 1336 01c3 16       		.byte	22
 1337 01c4 10       		.byte	16
 1338 01c5 16       		.byte	22
 1339 01c6 18       		.byte	24
 1340 01c7 16       		.byte	22
 1341 01c8 18       		.byte	24
 1342 01c9 16       		.byte	22
 1343 01ca 08       		.byte	8
 1344 01cb 16       		.byte	22
 1345 01cc 18       		.byte	24
 1346 01cd 16       		.byte	22
 1347 01ce 18       		.byte	24
 1348 01cf 16       		.byte	22
 1349 01d0 08       		.byte	8
 1350 01d1 16       		.byte	22
 1351 01d2 00       		.byte	0
 1352 01d3 16       		.byte	22
 1353 01d4 00       		.byte	0
 1354 01d5 16       		.byte	22
 1355 01d6 00       		.byte	0
 1356 01d7 16       		.byte	22
 1357 01d8 00       		.byte	0
 1358 01d9 16       		.byte	22
 1359 01da 00       		.byte	0
 1360 01db 16       		.byte	22
 1361 01dc 00       		.byte	0
 1362 01dd 16       		.byte	22
 1363 01de 00       		.byte	0
 1364 01df 16       		.byte	22
 1365 01e0 00       		.byte	0
 1366 01e1 16       		.byte	22
 1367 01e2 00       		.byte	0
 1368 01e3 16       		.byte	22
 1369 01e4 00       		.byte	0
 1370 01e5 16       		.byte	22
 1371 01e6 00       		.byte	0
 1372 01e7 16       		.byte	22
 1373 01e8 00       		.byte	0
 1374 01e9 16       		.byte	22
 1375 01ea 00       		.byte	0
 1376 01eb 16       		.byte	22
 1377 01ec 13       		.byte	19
 1378 01ed 16       		.byte	22
 1379 01ee 14       		.byte	20
 1380 01ef 16       		.byte	22
 1381 01f0 44       		.byte	68
 1382 01f1 16       		.byte	22
ARM GAS  C:\Users\Abude\AppData\Local\Temp\ccaK9Evq.s 			page 39


 1383 01f2 12       		.byte	18
 1384 01f3 16       		.byte	22
 1385 01f4 00       		.byte	0
 1386 01f5 16       		.byte	22
 1387 01f6 00       		.byte	0
 1388 01f7 16       		.byte	22
 1389 01f8 00       		.byte	0
 1390 01f9 16       		.byte	22
 1391 01fa 00       		.byte	0
 1392 01fb 16       		.byte	22
 1393 01fc 00       		.byte	0
 1394 01fd 16       		.byte	22
 1395 01fe 00       		.byte	0
 1396 01ff 15       		.byte	21
 1397 0200 22       		.byte	34
 1398 0201 16       		.byte	22
 1399 0202 C4       		.byte	-60
 1400 0203 15       		.byte	21
 1401 0204 20       		.byte	32
 1402 0205 FE       		.byte	-2
 1403 0206 FA       		.byte	-6
 1404 0207 FE       		.byte	-2
 1405 0208 FA       		.byte	-6
 1406 0209 FE       		.byte	-2
 1407 020a FA       		.byte	-6
 1408 020b FE       		.byte	-2
 1409 020c FA       		.byte	-6
 1410 020d FE       		.byte	-2
 1411 020e FA       		.byte	-6
 1412 020f 19       		.byte	25
 1413 0210 FF       		.byte	-1
 1414 0211 000000   		.space	3
 1415              		.type	u8x8_d_ssd1607_ws_to_refresh_seq, %object
 1416              		.size	u8x8_d_ssd1607_ws_to_refresh_seq, 9
 1417              	u8x8_d_ssd1607_ws_to_refresh_seq:
 1418 0214 18       		.byte	24
 1419 0215 15       		.byte	21
 1420 0216 22       		.byte	34
 1421 0217 16       		.byte	22
 1422 0218 04       		.byte	4
 1423 0219 15       		.byte	21
 1424 021a 20       		.byte	32
 1425 021b 19       		.byte	25
 1426 021c FF       		.byte	-1
 1427              		.bss
 1428              		.align	2
 1429              		.set	.LANCHOR0,. + 0
 1430              		.type	buf.5695, %object
 1431              		.size	buf.5695, 8
 1432              	buf.5695:
 1433 0000 00000000 		.space	8
 1433      00000000 
 1434              		.text
 1435              	.Letext0:
 1436              		.file 2 "c:\\program files (x86)\\cypress\\psoc creator\\4.4\\psoc creator\\import\\gnu\\arm\\5.4.
 1437              		.file 3 "c:\\program files (x86)\\cypress\\psoc creator\\4.4\\psoc creator\\import\\gnu\\arm\\5.4.
 1438              		.file 4 "c:\\dev\\library embedded l2c display\\u8g2\\csrc\\u8x8.h"
ARM GAS  C:\Users\Abude\AppData\Local\Temp\ccaK9Evq.s 			page 40

