ARM GAS  C:\Users\Abude\AppData\Local\Temp\cc3mc0Vg.s 			page 1


   1              		.syntax unified
   2              		.cpu cortex-m3
   3              		.fpu softvfp
   4              		.eabi_attribute 20, 1
   5              		.eabi_attribute 21, 1
   6              		.eabi_attribute 23, 3
   7              		.eabi_attribute 24, 1
   8              		.eabi_attribute 25, 1
   9              		.eabi_attribute 26, 1
  10              		.eabi_attribute 30, 1
  11              		.eabi_attribute 34, 1
  12              		.eabi_attribute 18, 4
  13              		.thumb
  14              		.syntax unified
  15              		.file	"u8x8_d_lc7981.c"
  16              		.text
  17              	.Ltext0:
  18              		.cfi_sections	.debug_frame
  19              		.section	.text.reverse_byte,"ax",%progbits
  20              		.align	2
  21              		.thumb
  22              		.thumb_func
  23              		.type	reverse_byte, %function
  24              	reverse_byte:
  25              	.LFB0:
  26              		.file 1 "..\\..\\..\\..\\..\\..\\Dev\\Library embedded l2c display\\u8g2\\csrc\\u8x8_d_lc7981.c"
   1:..\..\..\..\..\..\Dev\Library embedded l2c display\u8g2\csrc/u8x8_d_lc7981.c **** /*
   2:..\..\..\..\..\..\Dev\Library embedded l2c display\u8g2\csrc/u8x8_d_lc7981.c **** 
   3:..\..\..\..\..\..\Dev\Library embedded l2c display\u8g2\csrc/u8x8_d_lc7981.c ****   u8x8_d_lc7981.c
   4:..\..\..\..\..\..\Dev\Library embedded l2c display\u8g2\csrc/u8x8_d_lc7981.c ****   
   5:..\..\..\..\..\..\Dev\Library embedded l2c display\u8g2\csrc/u8x8_d_lc7981.c ****   Universal 8bit Graphics Library (https://github.com/olikraus/u8g2/)
   6:..\..\..\..\..\..\Dev\Library embedded l2c display\u8g2\csrc/u8x8_d_lc7981.c **** 
   7:..\..\..\..\..\..\Dev\Library embedded l2c display\u8g2\csrc/u8x8_d_lc7981.c ****   Copyright (c) 2016, olikraus@gmail.com
   8:..\..\..\..\..\..\Dev\Library embedded l2c display\u8g2\csrc/u8x8_d_lc7981.c ****   All rights reserved.
   9:..\..\..\..\..\..\Dev\Library embedded l2c display\u8g2\csrc/u8x8_d_lc7981.c **** 
  10:..\..\..\..\..\..\Dev\Library embedded l2c display\u8g2\csrc/u8x8_d_lc7981.c ****   Redistribution and use in source and binary forms, with or without modification, 
  11:..\..\..\..\..\..\Dev\Library embedded l2c display\u8g2\csrc/u8x8_d_lc7981.c ****   are permitted provided that the following conditions are met:
  12:..\..\..\..\..\..\Dev\Library embedded l2c display\u8g2\csrc/u8x8_d_lc7981.c **** 
  13:..\..\..\..\..\..\Dev\Library embedded l2c display\u8g2\csrc/u8x8_d_lc7981.c ****   * Redistributions of source code must retain the above copyright notice, this list 
  14:..\..\..\..\..\..\Dev\Library embedded l2c display\u8g2\csrc/u8x8_d_lc7981.c ****     of conditions and the following disclaimer.
  15:..\..\..\..\..\..\Dev\Library embedded l2c display\u8g2\csrc/u8x8_d_lc7981.c ****     
  16:..\..\..\..\..\..\Dev\Library embedded l2c display\u8g2\csrc/u8x8_d_lc7981.c ****   * Redistributions in binary form must reproduce the above copyright notice, this 
  17:..\..\..\..\..\..\Dev\Library embedded l2c display\u8g2\csrc/u8x8_d_lc7981.c ****     list of conditions and the following disclaimer in the documentation and/or other 
  18:..\..\..\..\..\..\Dev\Library embedded l2c display\u8g2\csrc/u8x8_d_lc7981.c ****     materials provided with the distribution.
  19:..\..\..\..\..\..\Dev\Library embedded l2c display\u8g2\csrc/u8x8_d_lc7981.c **** 
  20:..\..\..\..\..\..\Dev\Library embedded l2c display\u8g2\csrc/u8x8_d_lc7981.c ****   THIS SOFTWARE IS PROVIDED BY THE COPYRIGHT HOLDERS AND 
  21:..\..\..\..\..\..\Dev\Library embedded l2c display\u8g2\csrc/u8x8_d_lc7981.c ****   CONTRIBUTORS "AS IS" AND ANY EXPRESS OR IMPLIED WARRANTIES, 
  22:..\..\..\..\..\..\Dev\Library embedded l2c display\u8g2\csrc/u8x8_d_lc7981.c ****   INCLUDING, BUT NOT LIMITED TO, THE IMPLIED WARRANTIES OF 
  23:..\..\..\..\..\..\Dev\Library embedded l2c display\u8g2\csrc/u8x8_d_lc7981.c ****   MERCHANTABILITY AND FITNESS FOR A PARTICULAR PURPOSE ARE 
  24:..\..\..\..\..\..\Dev\Library embedded l2c display\u8g2\csrc/u8x8_d_lc7981.c ****   DISCLAIMED. IN NO EVENT SHALL THE COPYRIGHT HOLDER OR 
  25:..\..\..\..\..\..\Dev\Library embedded l2c display\u8g2\csrc/u8x8_d_lc7981.c ****   CONTRIBUTORS BE LIABLE FOR ANY DIRECT, INDIRECT, INCIDENTAL, 
  26:..\..\..\..\..\..\Dev\Library embedded l2c display\u8g2\csrc/u8x8_d_lc7981.c ****   SPECIAL, EXEMPLARY, OR CONSEQUENTIAL DAMAGES (INCLUDING, BUT 
  27:..\..\..\..\..\..\Dev\Library embedded l2c display\u8g2\csrc/u8x8_d_lc7981.c ****   NOT LIMITED TO, PROCUREMENT OF SUBSTITUTE GOODS OR SERVICES; 
  28:..\..\..\..\..\..\Dev\Library embedded l2c display\u8g2\csrc/u8x8_d_lc7981.c ****   LOSS OF USE, DATA, OR PROFITS; OR BUSINESS INTERRUPTION) HOWEVER 
  29:..\..\..\..\..\..\Dev\Library embedded l2c display\u8g2\csrc/u8x8_d_lc7981.c ****   CAUSED AND ON ANY THEORY OF LIABILITY, WHETHER IN CONTRACT, 
  30:..\..\..\..\..\..\Dev\Library embedded l2c display\u8g2\csrc/u8x8_d_lc7981.c ****   STRICT LIABILITY, OR TORT (INCLUDING NEGLIGENCE OR OTHERWISE) 
  31:..\..\..\..\..\..\Dev\Library embedded l2c display\u8g2\csrc/u8x8_d_lc7981.c ****   ARISING IN ANY WAY OUT OF THE USE OF THIS SOFTWARE, EVEN IF 
ARM GAS  C:\Users\Abude\AppData\Local\Temp\cc3mc0Vg.s 			page 2


  32:..\..\..\..\..\..\Dev\Library embedded l2c display\u8g2\csrc/u8x8_d_lc7981.c ****   ADVISED OF THE POSSIBILITY OF SUCH DAMAGE.  
  33:..\..\..\..\..\..\Dev\Library embedded l2c display\u8g2\csrc/u8x8_d_lc7981.c **** 
  34:..\..\..\..\..\..\Dev\Library embedded l2c display\u8g2\csrc/u8x8_d_lc7981.c **** 
  35:..\..\..\..\..\..\Dev\Library embedded l2c display\u8g2\csrc/u8x8_d_lc7981.c ****   
  36:..\..\..\..\..\..\Dev\Library embedded l2c display\u8g2\csrc/u8x8_d_lc7981.c **** */
  37:..\..\..\..\..\..\Dev\Library embedded l2c display\u8g2\csrc/u8x8_d_lc7981.c **** #include "u8x8.h"
  38:..\..\..\..\..\..\Dev\Library embedded l2c display\u8g2\csrc/u8x8_d_lc7981.c **** 
  39:..\..\..\..\..\..\Dev\Library embedded l2c display\u8g2\csrc/u8x8_d_lc7981.c **** 
  40:..\..\..\..\..\..\Dev\Library embedded l2c display\u8g2\csrc/u8x8_d_lc7981.c **** 
  41:..\..\..\..\..\..\Dev\Library embedded l2c display\u8g2\csrc/u8x8_d_lc7981.c **** 
  42:..\..\..\..\..\..\Dev\Library embedded l2c display\u8g2\csrc/u8x8_d_lc7981.c **** /* no powersave mode for the LC7981 */
  43:..\..\..\..\..\..\Dev\Library embedded l2c display\u8g2\csrc/u8x8_d_lc7981.c **** // static const uint8_t u8x8_d_lc7981_powersave0_seq[] = {
  44:..\..\..\..\..\..\Dev\Library embedded l2c display\u8g2\csrc/u8x8_d_lc7981.c **** //   U8X8_START_TRANSFER(),             	/* enable chip, delay is part of the transfer start */
  45:..\..\..\..\..\..\Dev\Library embedded l2c display\u8g2\csrc/u8x8_d_lc7981.c **** //   U8X8_END_TRANSFER(),             	/* disable chip */
  46:..\..\..\..\..\..\Dev\Library embedded l2c display\u8g2\csrc/u8x8_d_lc7981.c **** //   U8X8_END()             			/* end of sequence */
  47:..\..\..\..\..\..\Dev\Library embedded l2c display\u8g2\csrc/u8x8_d_lc7981.c **** // };
  48:..\..\..\..\..\..\Dev\Library embedded l2c display\u8g2\csrc/u8x8_d_lc7981.c **** 
  49:..\..\..\..\..\..\Dev\Library embedded l2c display\u8g2\csrc/u8x8_d_lc7981.c **** // static const uint8_t u8x8_d_lc7981_powersave1_seq[] = {
  50:..\..\..\..\..\..\Dev\Library embedded l2c display\u8g2\csrc/u8x8_d_lc7981.c **** //   U8X8_START_TRANSFER(),             	/* enable chip, delay is part of the transfer start */
  51:..\..\..\..\..\..\Dev\Library embedded l2c display\u8g2\csrc/u8x8_d_lc7981.c **** //   U8X8_END_TRANSFER(),             	/* disable chip */
  52:..\..\..\..\..\..\Dev\Library embedded l2c display\u8g2\csrc/u8x8_d_lc7981.c **** //   U8X8_END()             			/* end of sequence */
  53:..\..\..\..\..\..\Dev\Library embedded l2c display\u8g2\csrc/u8x8_d_lc7981.c **** // };
  54:..\..\..\..\..\..\Dev\Library embedded l2c display\u8g2\csrc/u8x8_d_lc7981.c **** 
  55:..\..\..\..\..\..\Dev\Library embedded l2c display\u8g2\csrc/u8x8_d_lc7981.c **** /* no hardware flip for the LC7981 */
  56:..\..\..\..\..\..\Dev\Library embedded l2c display\u8g2\csrc/u8x8_d_lc7981.c **** // static const uint8_t u8x8_d_lc7981_flip0_seq[] = {
  57:..\..\..\..\..\..\Dev\Library embedded l2c display\u8g2\csrc/u8x8_d_lc7981.c **** //   U8X8_START_TRANSFER(),             	/* enable chip, delay is part of the transfer start */
  58:..\..\..\..\..\..\Dev\Library embedded l2c display\u8g2\csrc/u8x8_d_lc7981.c **** //   U8X8_END_TRANSFER(),             	/* disable chip */
  59:..\..\..\..\..\..\Dev\Library embedded l2c display\u8g2\csrc/u8x8_d_lc7981.c **** //   U8X8_END()             			/* end of sequence */
  60:..\..\..\..\..\..\Dev\Library embedded l2c display\u8g2\csrc/u8x8_d_lc7981.c **** // };
  61:..\..\..\..\..\..\Dev\Library embedded l2c display\u8g2\csrc/u8x8_d_lc7981.c **** 
  62:..\..\..\..\..\..\Dev\Library embedded l2c display\u8g2\csrc/u8x8_d_lc7981.c **** // static const uint8_t u8x8_d_lc7981_flip1_seq[] = {
  63:..\..\..\..\..\..\Dev\Library embedded l2c display\u8g2\csrc/u8x8_d_lc7981.c **** //   U8X8_START_TRANSFER(),             	/* enable chip, delay is part of the transfer start */
  64:..\..\..\..\..\..\Dev\Library embedded l2c display\u8g2\csrc/u8x8_d_lc7981.c **** //   U8X8_END_TRANSFER(),             	/* disable chip */
  65:..\..\..\..\..\..\Dev\Library embedded l2c display\u8g2\csrc/u8x8_d_lc7981.c **** //   U8X8_END()             			/* end of sequence */
  66:..\..\..\..\..\..\Dev\Library embedded l2c display\u8g2\csrc/u8x8_d_lc7981.c **** // };
  67:..\..\..\..\..\..\Dev\Library embedded l2c display\u8g2\csrc/u8x8_d_lc7981.c **** 
  68:..\..\..\..\..\..\Dev\Library embedded l2c display\u8g2\csrc/u8x8_d_lc7981.c **** 
  69:..\..\..\..\..\..\Dev\Library embedded l2c display\u8g2\csrc/u8x8_d_lc7981.c **** /* http://graphics.stanford.edu/~seander/bithacks.html */
  70:..\..\..\..\..\..\Dev\Library embedded l2c display\u8g2\csrc/u8x8_d_lc7981.c **** static uint8_t reverse_byte(uint8_t v)
  71:..\..\..\..\..\..\Dev\Library embedded l2c display\u8g2\csrc/u8x8_d_lc7981.c **** {
  27              		.loc 1 71 0
  28              		.cfi_startproc
  29              		@ args = 0, pretend = 0, frame = 0
  30              		@ frame_needed = 0, uses_anonymous_args = 0
  31              		@ link register save eliminated.
  32              	.LVL0:
  72:..\..\..\..\..\..\Dev\Library embedded l2c display\u8g2\csrc/u8x8_d_lc7981.c ****   // if ( v != 0 && v != 255 )  does not help much
  73:..\..\..\..\..\..\Dev\Library embedded l2c display\u8g2\csrc/u8x8_d_lc7981.c ****   {
  74:..\..\..\..\..\..\Dev\Library embedded l2c display\u8g2\csrc/u8x8_d_lc7981.c ****     // swap odd and even bits
  75:..\..\..\..\..\..\Dev\Library embedded l2c display\u8g2\csrc/u8x8_d_lc7981.c ****     v = ((v >> 1) & 0x055) | ((v & 0x055) << 1);
  33              		.loc 1 75 0
  34 0000 4200     		lsls	r2, r0, #1
  35 0002 4008     		lsrs	r0, r0, #1
  36              	.LVL1:
  37 0004 00F05500 		and	r0, r0, #85
  38 0008 22F05503 		bic	r3, r2, #85
  39 000c 0343     		orrs	r3, r3, r0
ARM GAS  C:\Users\Abude\AppData\Local\Temp\cc3mc0Vg.s 			page 3


  40 000e DBB2     		uxtb	r3, r3
  41              	.LVL2:
  76:..\..\..\..\..\..\Dev\Library embedded l2c display\u8g2\csrc/u8x8_d_lc7981.c ****     // swap consecutive pairs
  77:..\..\..\..\..\..\Dev\Library embedded l2c display\u8g2\csrc/u8x8_d_lc7981.c ****     v = ((v >> 2) & 0x033) | ((v & 0x033) << 2);
  42              		.loc 1 77 0
  43 0010 9800     		lsls	r0, r3, #2
  44 0012 9B08     		lsrs	r3, r3, #2
  45              	.LVL3:
  46 0014 03F03303 		and	r3, r3, #51
  47 0018 20F03300 		bic	r0, r0, #51
  48 001c 0343     		orrs	r3, r3, r0
  49 001e DBB2     		uxtb	r3, r3
  50              	.LVL4:
  78:..\..\..\..\..\..\Dev\Library embedded l2c display\u8g2\csrc/u8x8_d_lc7981.c ****     // swap nibbles ... 
  79:..\..\..\..\..\..\Dev\Library embedded l2c display\u8g2\csrc/u8x8_d_lc7981.c ****     v = ((v >> 4) & 0x00F) | ((v & 0x00F) << 4);
  51              		.loc 1 79 0
  52 0020 1809     		lsrs	r0, r3, #4
  53 0022 40EA0310 		orr	r0, r0, r3, lsl #4
  54              	.LVL5:
  80:..\..\..\..\..\..\Dev\Library embedded l2c display\u8g2\csrc/u8x8_d_lc7981.c ****   }
  81:..\..\..\..\..\..\Dev\Library embedded l2c display\u8g2\csrc/u8x8_d_lc7981.c ****   return v;
  82:..\..\..\..\..\..\Dev\Library embedded l2c display\u8g2\csrc/u8x8_d_lc7981.c **** }
  55              		.loc 1 82 0
  56 0026 C0B2     		uxtb	r0, r0
  57 0028 7047     		bx	lr
  58              		.cfi_endproc
  59              	.LFE0:
  60              		.size	reverse_byte, .-reverse_byte
  61 002a 00BF     		.section	.text.u8x8_d_lc7981_common,"ax",%progbits
  62              		.align	2
  63              		.thumb
  64              		.thumb_func
  65              		.type	u8x8_d_lc7981_common, %function
  66              	u8x8_d_lc7981_common:
  67              	.LFB1:
  83:..\..\..\..\..\..\Dev\Library embedded l2c display\u8g2\csrc/u8x8_d_lc7981.c **** 
  84:..\..\..\..\..\..\Dev\Library embedded l2c display\u8g2\csrc/u8x8_d_lc7981.c **** static uint8_t u8x8_d_lc7981_common(u8x8_t *u8x8, uint8_t msg, U8X8_UNUSED uint8_t arg_int, void *a
  85:..\..\..\..\..\..\Dev\Library embedded l2c display\u8g2\csrc/u8x8_d_lc7981.c **** {
  68              		.loc 1 85 0
  69              		.cfi_startproc
  70              		@ args = 0, pretend = 0, frame = 0
  71              		@ frame_needed = 0, uses_anonymous_args = 0
  72              	.LVL6:
  86:..\..\..\..\..\..\Dev\Library embedded l2c display\u8g2\csrc/u8x8_d_lc7981.c ****   uint8_t c, i, j;
  87:..\..\..\..\..\..\Dev\Library embedded l2c display\u8g2\csrc/u8x8_d_lc7981.c ****   uint16_t y;
  88:..\..\..\..\..\..\Dev\Library embedded l2c display\u8g2\csrc/u8x8_d_lc7981.c ****   uint8_t *ptr;
  89:..\..\..\..\..\..\Dev\Library embedded l2c display\u8g2\csrc/u8x8_d_lc7981.c ****   switch(msg)
  73              		.loc 1 89 0
  74 0000 0F29     		cmp	r1, #15
  75 0002 4CD1     		bne	.L10
  85:..\..\..\..\..\..\Dev\Library embedded l2c display\u8g2\csrc/u8x8_d_lc7981.c ****   uint8_t c, i, j;
  76              		.loc 1 85 0
  77 0004 2DE9F047 		push	{r4, r5, r6, r7, r8, r9, r10, lr}
  78              		.cfi_def_cfa_offset 32
  79              		.cfi_offset 4, -32
  80              		.cfi_offset 5, -28
  81              		.cfi_offset 6, -24
ARM GAS  C:\Users\Abude\AppData\Local\Temp\cc3mc0Vg.s 			page 4


  82              		.cfi_offset 7, -20
  83              		.cfi_offset 8, -16
  84              		.cfi_offset 9, -12
  85              		.cfi_offset 10, -8
  86              		.cfi_offset 14, -4
  87 0008 1C46     		mov	r4, r3
  88 000a 0746     		mov	r7, r0
  90:..\..\..\..\..\..\Dev\Library embedded l2c display\u8g2\csrc/u8x8_d_lc7981.c ****   {
  91:..\..\..\..\..\..\Dev\Library embedded l2c display\u8g2\csrc/u8x8_d_lc7981.c ****     case U8X8_MSG_DISPLAY_DRAW_TILE:
  92:..\..\..\..\..\..\Dev\Library embedded l2c display\u8g2\csrc/u8x8_d_lc7981.c ****       y = (((u8x8_tile_t *)arg_ptr)->y_pos);
  89              		.loc 1 92 0
  90 000c 93F806A0 		ldrb	r10, [r3, #6]	@ zero_extendqisi2
  91              	.LVL7:
  93:..\..\..\..\..\..\Dev\Library embedded l2c display\u8g2\csrc/u8x8_d_lc7981.c ****       y*=8;
  92              		.loc 1 93 0
  93 0010 4FEACA0A 		lsl	r10, r10, #3
  94              	.LVL8:
  94:..\..\..\..\..\..\Dev\Library embedded l2c display\u8g2\csrc/u8x8_d_lc7981.c ****       y*= u8x8->display_info->tile_width;
  95              		.loc 1 94 0
  96 0014 0368     		ldr	r3, [r0]
  97              	.LVL9:
  98 0016 1B7C     		ldrb	r3, [r3, #16]	@ zero_extendqisi2
  99 0018 03FB0AFA 		mul	r10, r3, r10
 100              	.LVL10:
 101 001c 1FFA8AFA 		uxth	r10, r10
 102              	.LVL11:
  95:..\..\..\..\..\..\Dev\Library embedded l2c display\u8g2\csrc/u8x8_d_lc7981.c ****       /* x = ((u8x8_tile_t *)arg_ptr)->x_pos; x is ignored... no u8x8 support */
  96:..\..\..\..\..\..\Dev\Library embedded l2c display\u8g2\csrc/u8x8_d_lc7981.c ****       u8x8_cad_StartTransfer(u8x8);
 103              		.loc 1 96 0
 104 0020 FFF7FEFF 		bl	u8x8_cad_StartTransfer
 105              	.LVL12:
  97:..\..\..\..\..\..\Dev\Library embedded l2c display\u8g2\csrc/u8x8_d_lc7981.c ****       /* 
  98:..\..\..\..\..\..\Dev\Library embedded l2c display\u8g2\csrc/u8x8_d_lc7981.c **** 	Tile structure is reused here for the t6963, however u8x8 is not supported 
  99:..\..\..\..\..\..\Dev\Library embedded l2c display\u8g2\csrc/u8x8_d_lc7981.c **** 	tile_ptr points to data which has cnt*8 bytes (same as SSD1306 tiles)
 100:..\..\..\..\..\..\Dev\Library embedded l2c display\u8g2\csrc/u8x8_d_lc7981.c **** 	Buffer is expected to have 8 lines of code fitting to the t6963 internal memory
 101:..\..\..\..\..\..\Dev\Library embedded l2c display\u8g2\csrc/u8x8_d_lc7981.c **** 	"cnt" includes the number of horizontal bytes. width is equal to cnt*8
 102:..\..\..\..\..\..\Dev\Library embedded l2c display\u8g2\csrc/u8x8_d_lc7981.c **** 	
 103:..\..\..\..\..\..\Dev\Library embedded l2c display\u8g2\csrc/u8x8_d_lc7981.c **** 	x is assumed to be zero
 104:..\..\..\..\..\..\Dev\Library embedded l2c display\u8g2\csrc/u8x8_d_lc7981.c ****     
 105:..\..\..\..\..\..\Dev\Library embedded l2c display\u8g2\csrc/u8x8_d_lc7981.c **** 	TODO: Consider arg_int, however arg_int is not used by u8g2
 106:..\..\..\..\..\..\Dev\Library embedded l2c display\u8g2\csrc/u8x8_d_lc7981.c ****       */
 107:..\..\..\..\..\..\Dev\Library embedded l2c display\u8g2\csrc/u8x8_d_lc7981.c ****       c = ((u8x8_tile_t *)arg_ptr)->cnt;	/* number of tiles */
 106              		.loc 1 107 0
 107 0024 94F80480 		ldrb	r8, [r4, #4]	@ zero_extendqisi2
 108              	.LVL13:
 108:..\..\..\..\..\..\Dev\Library embedded l2c display\u8g2\csrc/u8x8_d_lc7981.c ****       ptr = ((u8x8_tile_t *)arg_ptr)->tile_ptr;	/* data ptr to the tiles */
 109              		.loc 1 108 0
 110 0028 2568     		ldr	r5, [r4]
 111              	.LVL14:
 109:..\..\..\..\..\..\Dev\Library embedded l2c display\u8g2\csrc/u8x8_d_lc7981.c ****       for( i = 0; i < 8; i++ )
 112              		.loc 1 109 0
 113 002a 4FF00009 		mov	r9, #0
 114 002e 2DE0     		b	.L5
 115              	.LVL15:
 116              	.L8:
 110:..\..\..\..\..\..\Dev\Library embedded l2c display\u8g2\csrc/u8x8_d_lc7981.c ****       {
 111:..\..\..\..\..\..\Dev\Library embedded l2c display\u8g2\csrc/u8x8_d_lc7981.c **** 	u8x8_cad_SendCmd(u8x8, 0x0a );	/* display ram (cursor) address low byte */
ARM GAS  C:\Users\Abude\AppData\Local\Temp\cc3mc0Vg.s 			page 5


 117              		.loc 1 111 0
 118 0030 0A21     		movs	r1, #10
 119 0032 3846     		mov	r0, r7
 120 0034 FFF7FEFF 		bl	u8x8_cad_SendCmd
 121              	.LVL16:
 112:..\..\..\..\..\..\Dev\Library embedded l2c display\u8g2\csrc/u8x8_d_lc7981.c **** 	u8x8_cad_SendArg(u8x8, y&255);
 122              		.loc 1 112 0
 123 0038 5FFA8AF1 		uxtb	r1, r10
 124 003c 3846     		mov	r0, r7
 125 003e FFF7FEFF 		bl	u8x8_cad_SendArg
 126              	.LVL17:
 113:..\..\..\..\..\..\Dev\Library embedded l2c display\u8g2\csrc/u8x8_d_lc7981.c **** 	u8x8_cad_SendCmd(u8x8, 0x0b );	/* display ram (cursor) address high byte */
 127              		.loc 1 113 0
 128 0042 0B21     		movs	r1, #11
 129 0044 3846     		mov	r0, r7
 130 0046 FFF7FEFF 		bl	u8x8_cad_SendCmd
 131              	.LVL18:
 114:..\..\..\..\..\..\Dev\Library embedded l2c display\u8g2\csrc/u8x8_d_lc7981.c **** 	u8x8_cad_SendArg(u8x8, y>>8);
 132              		.loc 1 114 0
 133 004a 4FEA1A21 		lsr	r1, r10, #8
 134 004e 3846     		mov	r0, r7
 135 0050 FFF7FEFF 		bl	u8x8_cad_SendArg
 136              	.LVL19:
 115:..\..\..\..\..\..\Dev\Library embedded l2c display\u8g2\csrc/u8x8_d_lc7981.c **** 	
 116:..\..\..\..\..\..\Dev\Library embedded l2c display\u8g2\csrc/u8x8_d_lc7981.c **** 	u8x8_cad_SendCmd(u8x8, 0x0c );	/* write start */
 137              		.loc 1 116 0
 138 0054 0C21     		movs	r1, #12
 139 0056 3846     		mov	r0, r7
 140 0058 FFF7FEFF 		bl	u8x8_cad_SendCmd
 141              	.LVL20:
 117:..\..\..\..\..\..\Dev\Library embedded l2c display\u8g2\csrc/u8x8_d_lc7981.c **** 	/*
 118:..\..\..\..\..\..\Dev\Library embedded l2c display\u8g2\csrc/u8x8_d_lc7981.c **** 	  The LC7981 has the MSB at the right position, which is exactly the opposite to the T6963.
 119:..\..\..\..\..\..\Dev\Library embedded l2c display\u8g2\csrc/u8x8_d_lc7981.c **** 	  Instead of writing a third hvline procedure for this device, we just revert the bytes before 
 120:..\..\..\..\..\..\Dev\Library embedded l2c display\u8g2\csrc/u8x8_d_lc7981.c **** 	  transmit. This is slow because:
 121:..\..\..\..\..\..\Dev\Library embedded l2c display\u8g2\csrc/u8x8_d_lc7981.c **** 	    - the bit reverse itself
 122:..\..\..\..\..\..\Dev\Library embedded l2c display\u8g2\csrc/u8x8_d_lc7981.c **** 	    - the single byte transfer 
 123:..\..\..\..\..\..\Dev\Library embedded l2c display\u8g2\csrc/u8x8_d_lc7981.c **** 	   The one byte is transmitted via SendArg, which is ok, because CAD = 100
 124:..\..\..\..\..\..\Dev\Library embedded l2c display\u8g2\csrc/u8x8_d_lc7981.c **** 	*/
 125:..\..\..\..\..\..\Dev\Library embedded l2c display\u8g2\csrc/u8x8_d_lc7981.c **** 	for( j = 0; j < c; j++ )
 142              		.loc 1 125 0
 143 005c 0024     		movs	r4, #0
 144 005e 0AE0     		b	.L6
 145              	.LVL21:
 146              	.L7:
 126:..\..\..\..\..\..\Dev\Library embedded l2c display\u8g2\csrc/u8x8_d_lc7981.c **** 	  u8x8_cad_SendArg(u8x8, reverse_byte(*ptr++));
 147              		.loc 1 126 0 discriminator 3
 148 0060 6E1C     		adds	r6, r5, #1
 149              	.LVL22:
 150 0062 2878     		ldrb	r0, [r5]	@ zero_extendqisi2
 151 0064 FFF7FEFF 		bl	reverse_byte
 152              	.LVL23:
 153 0068 0146     		mov	r1, r0
 154 006a 3846     		mov	r0, r7
 155 006c FFF7FEFF 		bl	u8x8_cad_SendArg
 156              	.LVL24:
 125:..\..\..\..\..\..\Dev\Library embedded l2c display\u8g2\csrc/u8x8_d_lc7981.c **** 	  u8x8_cad_SendArg(u8x8, reverse_byte(*ptr++));
 157              		.loc 1 125 0 discriminator 3
ARM GAS  C:\Users\Abude\AppData\Local\Temp\cc3mc0Vg.s 			page 6


 158 0070 0134     		adds	r4, r4, #1
 159              	.LVL25:
 160 0072 E4B2     		uxtb	r4, r4
 161              	.LVL26:
 162              		.loc 1 126 0 discriminator 3
 163 0074 3546     		mov	r5, r6
 164              	.LVL27:
 165              	.L6:
 125:..\..\..\..\..\..\Dev\Library embedded l2c display\u8g2\csrc/u8x8_d_lc7981.c **** 	  u8x8_cad_SendArg(u8x8, reverse_byte(*ptr++));
 166              		.loc 1 125 0 discriminator 1
 167 0076 4445     		cmp	r4, r8
 168 0078 F2D3     		bcc	.L7
 127:..\..\..\..\..\..\Dev\Library embedded l2c display\u8g2\csrc/u8x8_d_lc7981.c **** 	
 128:..\..\..\..\..\..\Dev\Library embedded l2c display\u8g2\csrc/u8x8_d_lc7981.c **** 	//u8x8_cad_SendData(u8x8, c, ptr);	/* note: SendData can not handle more than 255 bytes, send one 
 129:..\..\..\..\..\..\Dev\Library embedded l2c display\u8g2\csrc/u8x8_d_lc7981.c **** 	//ptr += u8x8->display_info->tile_width;
 130:..\..\..\..\..\..\Dev\Library embedded l2c display\u8g2\csrc/u8x8_d_lc7981.c **** 	
 131:..\..\..\..\..\..\Dev\Library embedded l2c display\u8g2\csrc/u8x8_d_lc7981.c **** 	y += u8x8->display_info->tile_width;
 169              		.loc 1 131 0 discriminator 2
 170 007a 3B68     		ldr	r3, [r7]
 171 007c 1B7C     		ldrb	r3, [r3, #16]	@ zero_extendqisi2
 172 007e 9A44     		add	r10, r10, r3
 173              	.LVL28:
 174 0080 1FFA8AFA 		uxth	r10, r10
 175              	.LVL29:
 109:..\..\..\..\..\..\Dev\Library embedded l2c display\u8g2\csrc/u8x8_d_lc7981.c ****       {
 176              		.loc 1 109 0 discriminator 2
 177 0084 09F10109 		add	r9, r9, #1
 178              	.LVL30:
 179 0088 5FFA89F9 		uxtb	r9, r9
 180              	.LVL31:
 181              	.L5:
 109:..\..\..\..\..\..\Dev\Library embedded l2c display\u8g2\csrc/u8x8_d_lc7981.c ****       {
 182              		.loc 1 109 0 is_stmt 0 discriminator 1
 183 008c B9F1070F 		cmp	r9, #7
 184 0090 CED9     		bls	.L8
 132:..\..\..\..\..\..\Dev\Library embedded l2c display\u8g2\csrc/u8x8_d_lc7981.c ****       }
 133:..\..\..\..\..\..\Dev\Library embedded l2c display\u8g2\csrc/u8x8_d_lc7981.c **** 
 134:..\..\..\..\..\..\Dev\Library embedded l2c display\u8g2\csrc/u8x8_d_lc7981.c ****       u8x8_cad_EndTransfer(u8x8);
 185              		.loc 1 134 0 is_stmt 1
 186 0092 3846     		mov	r0, r7
 187 0094 FFF7FEFF 		bl	u8x8_cad_EndTransfer
 188              	.LVL32:
 135:..\..\..\..\..\..\Dev\Library embedded l2c display\u8g2\csrc/u8x8_d_lc7981.c ****       break;
 136:..\..\..\..\..\..\Dev\Library embedded l2c display\u8g2\csrc/u8x8_d_lc7981.c ****     /*	handled in the calling procedure 
 137:..\..\..\..\..\..\Dev\Library embedded l2c display\u8g2\csrc/u8x8_d_lc7981.c ****     case U8X8_MSG_DISPLAY_SETUP_MEMORY:
 138:..\..\..\..\..\..\Dev\Library embedded l2c display\u8g2\csrc/u8x8_d_lc7981.c ****       u8x8_d_helper_display_setup_memory(u8x8, &u8x8_lc7981_128x64_display_info);
 139:..\..\..\..\..\..\Dev\Library embedded l2c display\u8g2\csrc/u8x8_d_lc7981.c ****       break;
 140:..\..\..\..\..\..\Dev\Library embedded l2c display\u8g2\csrc/u8x8_d_lc7981.c ****     case U8X8_MSG_DISPLAY_INIT:
 141:..\..\..\..\..\..\Dev\Library embedded l2c display\u8g2\csrc/u8x8_d_lc7981.c ****       u8x8_d_helper_display_init(u8x8);
 142:..\..\..\..\..\..\Dev\Library embedded l2c display\u8g2\csrc/u8x8_d_lc7981.c ****       u8x8_cad_SendSequence(u8x8, u8x8_d_uc1701_dogs102_init_seq);
 143:..\..\..\..\..\..\Dev\Library embedded l2c display\u8g2\csrc/u8x8_d_lc7981.c ****       break;
 144:..\..\..\..\..\..\Dev\Library embedded l2c display\u8g2\csrc/u8x8_d_lc7981.c ****     */
 145:..\..\..\..\..\..\Dev\Library embedded l2c display\u8g2\csrc/u8x8_d_lc7981.c ****     /* power save is not there... 
 146:..\..\..\..\..\..\Dev\Library embedded l2c display\u8g2\csrc/u8x8_d_lc7981.c ****     case U8X8_MSG_DISPLAY_SET_POWER_SAVE:
 147:..\..\..\..\..\..\Dev\Library embedded l2c display\u8g2\csrc/u8x8_d_lc7981.c ****       if ( arg_int == 0 )
 148:..\..\..\..\..\..\Dev\Library embedded l2c display\u8g2\csrc/u8x8_d_lc7981.c **** 	u8x8_cad_SendSequence(u8x8, u8x8_d_lc7981_powersave0_seq);
 149:..\..\..\..\..\..\Dev\Library embedded l2c display\u8g2\csrc/u8x8_d_lc7981.c ****       else
ARM GAS  C:\Users\Abude\AppData\Local\Temp\cc3mc0Vg.s 			page 7


 150:..\..\..\..\..\..\Dev\Library embedded l2c display\u8g2\csrc/u8x8_d_lc7981.c **** 	u8x8_cad_SendSequence(u8x8, u8x8_d_lc7981_powersave1_seq);
 151:..\..\..\..\..\..\Dev\Library embedded l2c display\u8g2\csrc/u8x8_d_lc7981.c ****       break;
 152:..\..\..\..\..\..\Dev\Library embedded l2c display\u8g2\csrc/u8x8_d_lc7981.c ****     */
 153:..\..\..\..\..\..\Dev\Library embedded l2c display\u8g2\csrc/u8x8_d_lc7981.c ****     /* hardware flip not is not available
 154:..\..\..\..\..\..\Dev\Library embedded l2c display\u8g2\csrc/u8x8_d_lc7981.c ****     case U8X8_MSG_DISPLAY_SET_FLIP_MODE:
 155:..\..\..\..\..\..\Dev\Library embedded l2c display\u8g2\csrc/u8x8_d_lc7981.c ****       if ( arg_int == 0 )
 156:..\..\..\..\..\..\Dev\Library embedded l2c display\u8g2\csrc/u8x8_d_lc7981.c ****       {
 157:..\..\..\..\..\..\Dev\Library embedded l2c display\u8g2\csrc/u8x8_d_lc7981.c **** 	u8x8_cad_SendSequence(u8x8, u8x8_d_lc7981_flip0_seq);
 158:..\..\..\..\..\..\Dev\Library embedded l2c display\u8g2\csrc/u8x8_d_lc7981.c **** 	u8x8->x_offset = u8x8->display_info->default_x_offset;
 159:..\..\..\..\..\..\Dev\Library embedded l2c display\u8g2\csrc/u8x8_d_lc7981.c ****       }
 160:..\..\..\..\..\..\Dev\Library embedded l2c display\u8g2\csrc/u8x8_d_lc7981.c ****       else
 161:..\..\..\..\..\..\Dev\Library embedded l2c display\u8g2\csrc/u8x8_d_lc7981.c ****       {
 162:..\..\..\..\..\..\Dev\Library embedded l2c display\u8g2\csrc/u8x8_d_lc7981.c **** 	u8x8_cad_SendSequence(u8x8, u8x8_d_lc7981_flip1_seq);
 163:..\..\..\..\..\..\Dev\Library embedded l2c display\u8g2\csrc/u8x8_d_lc7981.c **** 	u8x8->x_offset = u8x8->display_info->flipmode_x_offset;
 164:..\..\..\..\..\..\Dev\Library embedded l2c display\u8g2\csrc/u8x8_d_lc7981.c ****       }	
 165:..\..\..\..\..\..\Dev\Library embedded l2c display\u8g2\csrc/u8x8_d_lc7981.c ****       break;
 166:..\..\..\..\..\..\Dev\Library embedded l2c display\u8g2\csrc/u8x8_d_lc7981.c ****     */
 167:..\..\..\..\..\..\Dev\Library embedded l2c display\u8g2\csrc/u8x8_d_lc7981.c **** #ifdef U8X8_WITH_SET_CONTRAST
 168:..\..\..\..\..\..\Dev\Library embedded l2c display\u8g2\csrc/u8x8_d_lc7981.c ****     /* no contrast setting :-(
 169:..\..\..\..\..\..\Dev\Library embedded l2c display\u8g2\csrc/u8x8_d_lc7981.c ****     case U8X8_MSG_DISPLAY_SET_CONTRAST:
 170:..\..\..\..\..\..\Dev\Library embedded l2c display\u8g2\csrc/u8x8_d_lc7981.c ****       u8x8_cad_StartTransfer(u8x8);
 171:..\..\..\..\..\..\Dev\Library embedded l2c display\u8g2\csrc/u8x8_d_lc7981.c ****       u8x8_cad_SendCmd(u8x8, 0x081 );
 172:..\..\..\..\..\..\Dev\Library embedded l2c display\u8g2\csrc/u8x8_d_lc7981.c ****       u8x8_cad_SendArg(u8x8, arg_int  );
 173:..\..\..\..\..\..\Dev\Library embedded l2c display\u8g2\csrc/u8x8_d_lc7981.c ****       u8x8_cad_EndTransfer(u8x8);
 174:..\..\..\..\..\..\Dev\Library embedded l2c display\u8g2\csrc/u8x8_d_lc7981.c ****       break;
 175:..\..\..\..\..\..\Dev\Library embedded l2c display\u8g2\csrc/u8x8_d_lc7981.c ****   */
 176:..\..\..\..\..\..\Dev\Library embedded l2c display\u8g2\csrc/u8x8_d_lc7981.c **** #endif
 177:..\..\..\..\..\..\Dev\Library embedded l2c display\u8g2\csrc/u8x8_d_lc7981.c ****     default:
 178:..\..\..\..\..\..\Dev\Library embedded l2c display\u8g2\csrc/u8x8_d_lc7981.c ****       return 0;
 179:..\..\..\..\..\..\Dev\Library embedded l2c display\u8g2\csrc/u8x8_d_lc7981.c ****   }
 180:..\..\..\..\..\..\Dev\Library embedded l2c display\u8g2\csrc/u8x8_d_lc7981.c ****   return 1;
 189              		.loc 1 180 0
 190 0098 0120     		movs	r0, #1
 191 009a BDE8F087 		pop	{r4, r5, r6, r7, r8, r9, r10, pc}
 192              	.LVL33:
 193              	.L10:
 194              		.cfi_def_cfa_offset 0
 195              		.cfi_restore 4
 196              		.cfi_restore 5
 197              		.cfi_restore 6
 198              		.cfi_restore 7
 199              		.cfi_restore 8
 200              		.cfi_restore 9
 201              		.cfi_restore 10
 202              		.cfi_restore 14
 178:..\..\..\..\..\..\Dev\Library embedded l2c display\u8g2\csrc/u8x8_d_lc7981.c ****   }
 203              		.loc 1 178 0
 204 009e 0020     		movs	r0, #0
 205              	.LVL34:
 206 00a0 7047     		bx	lr
 207              		.cfi_endproc
 208              	.LFE1:
 209              		.size	u8x8_d_lc7981_common, .-u8x8_d_lc7981_common
 210 00a2 00BF     		.section	.text.u8x8_d_lc7981_160x80,"ax",%progbits
 211              		.align	2
 212              		.global	u8x8_d_lc7981_160x80
 213              		.thumb
ARM GAS  C:\Users\Abude\AppData\Local\Temp\cc3mc0Vg.s 			page 8


 214              		.thumb_func
 215              		.type	u8x8_d_lc7981_160x80, %function
 216              	u8x8_d_lc7981_160x80:
 217              	.LFB2:
 181:..\..\..\..\..\..\Dev\Library embedded l2c display\u8g2\csrc/u8x8_d_lc7981.c **** }
 182:..\..\..\..\..\..\Dev\Library embedded l2c display\u8g2\csrc/u8x8_d_lc7981.c **** 
 183:..\..\..\..\..\..\Dev\Library embedded l2c display\u8g2\csrc/u8x8_d_lc7981.c **** /*================================================*/
 184:..\..\..\..\..\..\Dev\Library embedded l2c display\u8g2\csrc/u8x8_d_lc7981.c **** /* LC7981 160x80 LCD*/
 185:..\..\..\..\..\..\Dev\Library embedded l2c display\u8g2\csrc/u8x8_d_lc7981.c **** 
 186:..\..\..\..\..\..\Dev\Library embedded l2c display\u8g2\csrc/u8x8_d_lc7981.c **** static const u8x8_display_info_t u8x8_lc7981_160x80_display_info =
 187:..\..\..\..\..\..\Dev\Library embedded l2c display\u8g2\csrc/u8x8_d_lc7981.c **** {
 188:..\..\..\..\..\..\Dev\Library embedded l2c display\u8g2\csrc/u8x8_d_lc7981.c ****   /* chip_enable_level = */ 0,	/* LC7981 has a low active CS*/
 189:..\..\..\..\..\..\Dev\Library embedded l2c display\u8g2\csrc/u8x8_d_lc7981.c ****   /* chip_disable_level = */ 1,
 190:..\..\..\..\..\..\Dev\Library embedded l2c display\u8g2\csrc/u8x8_d_lc7981.c ****   
 191:..\..\..\..\..\..\Dev\Library embedded l2c display\u8g2\csrc/u8x8_d_lc7981.c ****   /* from here... */
 192:..\..\..\..\..\..\Dev\Library embedded l2c display\u8g2\csrc/u8x8_d_lc7981.c ****   /* post_chip_enable_wait_ns = */ 20,	
 193:..\..\..\..\..\..\Dev\Library embedded l2c display\u8g2\csrc/u8x8_d_lc7981.c ****   /* pre_chip_disable_wait_ns = */ 20,	
 194:..\..\..\..\..\..\Dev\Library embedded l2c display\u8g2\csrc/u8x8_d_lc7981.c ****   /* reset_pulse_width_ms = */ 1, 	
 195:..\..\..\..\..\..\Dev\Library embedded l2c display\u8g2\csrc/u8x8_d_lc7981.c ****   /* post_reset_wait_ms = */ 10, 	
 196:..\..\..\..\..\..\Dev\Library embedded l2c display\u8g2\csrc/u8x8_d_lc7981.c ****   /* sda_setup_time_ns = */ 30,		
 197:..\..\..\..\..\..\Dev\Library embedded l2c display\u8g2\csrc/u8x8_d_lc7981.c ****   /* sck_pulse_width_ns = */ 65,	/* half of cycle time  */
 198:..\..\..\..\..\..\Dev\Library embedded l2c display\u8g2\csrc/u8x8_d_lc7981.c ****   /* sck_clock_hz = */ 4000000UL,	/* since Arduino 1.6.0, the SPI bus speed in Hz. Should be  10000
 199:..\..\..\..\..\..\Dev\Library embedded l2c display\u8g2\csrc/u8x8_d_lc7981.c ****   /* spi_mode = */ 0,		/* active high, rising edge */
 200:..\..\..\..\..\..\Dev\Library embedded l2c display\u8g2\csrc/u8x8_d_lc7981.c ****   /* i2c_bus_clock_100kHz = */ 4,
 201:..\..\..\..\..\..\Dev\Library embedded l2c display\u8g2\csrc/u8x8_d_lc7981.c ****   /* ... to here, values are ignored, because this is a parallel interface only */
 202:..\..\..\..\..\..\Dev\Library embedded l2c display\u8g2\csrc/u8x8_d_lc7981.c ****   
 203:..\..\..\..\..\..\Dev\Library embedded l2c display\u8g2\csrc/u8x8_d_lc7981.c ****   /* data_setup_time_ns = */ 220,	
 204:..\..\..\..\..\..\Dev\Library embedded l2c display\u8g2\csrc/u8x8_d_lc7981.c ****   /* write_pulse_width_ns = */ 20,	
 205:..\..\..\..\..\..\Dev\Library embedded l2c display\u8g2\csrc/u8x8_d_lc7981.c ****   /* tile_width = */ 20,		/* width of 20*8=160 pixel */
 206:..\..\..\..\..\..\Dev\Library embedded l2c display\u8g2\csrc/u8x8_d_lc7981.c ****   /* tile_hight = */ 10,
 207:..\..\..\..\..\..\Dev\Library embedded l2c display\u8g2\csrc/u8x8_d_lc7981.c ****   /* default_x_offset = */ 0,	
 208:..\..\..\..\..\..\Dev\Library embedded l2c display\u8g2\csrc/u8x8_d_lc7981.c ****   /* flipmode_x_offset = */ 0,	
 209:..\..\..\..\..\..\Dev\Library embedded l2c display\u8g2\csrc/u8x8_d_lc7981.c ****   /* pixel_width = */ 160,
 210:..\..\..\..\..\..\Dev\Library embedded l2c display\u8g2\csrc/u8x8_d_lc7981.c ****   /* pixel_height = */ 80
 211:..\..\..\..\..\..\Dev\Library embedded l2c display\u8g2\csrc/u8x8_d_lc7981.c **** };
 212:..\..\..\..\..\..\Dev\Library embedded l2c display\u8g2\csrc/u8x8_d_lc7981.c **** 
 213:..\..\..\..\..\..\Dev\Library embedded l2c display\u8g2\csrc/u8x8_d_lc7981.c **** static const uint8_t u8x8_d_lc7981_160x80_init_seq[] = {
 214:..\..\..\..\..\..\Dev\Library embedded l2c display\u8g2\csrc/u8x8_d_lc7981.c ****     
 215:..\..\..\..\..\..\Dev\Library embedded l2c display\u8g2\csrc/u8x8_d_lc7981.c ****   U8X8_START_TRANSFER(),             	/* enable chip, delay is part of the transfer start */
 216:..\..\..\..\..\..\Dev\Library embedded l2c display\u8g2\csrc/u8x8_d_lc7981.c ****   
 217:..\..\..\..\..\..\Dev\Library embedded l2c display\u8g2\csrc/u8x8_d_lc7981.c ****   U8X8_DLY(50),
 218:..\..\..\..\..\..\Dev\Library embedded l2c display\u8g2\csrc/u8x8_d_lc7981.c **** 
 219:..\..\..\..\..\..\Dev\Library embedded l2c display\u8g2\csrc/u8x8_d_lc7981.c ****   U8X8_CA(0x00, 0x32),			/* display on (bit 5), master mode on (bit 4), graphics mode on (bit 1) */
 220:..\..\..\..\..\..\Dev\Library embedded l2c display\u8g2\csrc/u8x8_d_lc7981.c ****   U8X8_CA(0x01, 0x07),			/* character/bits per pixel pitch */
 221:..\..\..\..\..\..\Dev\Library embedded l2c display\u8g2\csrc/u8x8_d_lc7981.c ****   U8X8_CA(0x02, 160/8-1),		/* number of chars/byte width of the screen */
 222:..\..\..\..\..\..\Dev\Library embedded l2c display\u8g2\csrc/u8x8_d_lc7981.c ****   U8X8_CA(0x03, 0x50),			/* time division:  50 (1/80 duty cycle) */
 223:..\..\..\..\..\..\Dev\Library embedded l2c display\u8g2\csrc/u8x8_d_lc7981.c ****   U8X8_CA(0x08, 0x00),			/* display start low */
 224:..\..\..\..\..\..\Dev\Library embedded l2c display\u8g2\csrc/u8x8_d_lc7981.c ****   U8X8_CA(0x09, 0x00),			/* display start high */
 225:..\..\..\..\..\..\Dev\Library embedded l2c display\u8g2\csrc/u8x8_d_lc7981.c **** 
 226:..\..\..\..\..\..\Dev\Library embedded l2c display\u8g2\csrc/u8x8_d_lc7981.c ****   U8X8_DLY(10),
 227:..\..\..\..\..\..\Dev\Library embedded l2c display\u8g2\csrc/u8x8_d_lc7981.c ****   
 228:..\..\..\..\..\..\Dev\Library embedded l2c display\u8g2\csrc/u8x8_d_lc7981.c ****   U8X8_END_TRANSFER(),             	/* disable chip */
 229:..\..\..\..\..\..\Dev\Library embedded l2c display\u8g2\csrc/u8x8_d_lc7981.c ****   U8X8_END()             			/* end of sequence */
 230:..\..\..\..\..\..\Dev\Library embedded l2c display\u8g2\csrc/u8x8_d_lc7981.c **** };
 231:..\..\..\..\..\..\Dev\Library embedded l2c display\u8g2\csrc/u8x8_d_lc7981.c **** 
 232:..\..\..\..\..\..\Dev\Library embedded l2c display\u8g2\csrc/u8x8_d_lc7981.c **** uint8_t u8x8_d_lc7981_160x80(u8x8_t *u8x8, uint8_t msg, uint8_t arg_int, void *arg_ptr)
 233:..\..\..\..\..\..\Dev\Library embedded l2c display\u8g2\csrc/u8x8_d_lc7981.c **** {
ARM GAS  C:\Users\Abude\AppData\Local\Temp\cc3mc0Vg.s 			page 9


 218              		.loc 1 233 0
 219              		.cfi_startproc
 220              		@ args = 0, pretend = 0, frame = 0
 221              		@ frame_needed = 0, uses_anonymous_args = 0
 222              	.LVL35:
 223 0000 38B5     		push	{r3, r4, r5, lr}
 224              		.cfi_def_cfa_offset 16
 225              		.cfi_offset 3, -16
 226              		.cfi_offset 4, -12
 227              		.cfi_offset 5, -8
 228              		.cfi_offset 14, -4
 229 0002 0546     		mov	r5, r0
 230 0004 0C46     		mov	r4, r1
 234:..\..\..\..\..\..\Dev\Library embedded l2c display\u8g2\csrc/u8x8_d_lc7981.c ****   /* call common procedure first and handle messages there */
 235:..\..\..\..\..\..\Dev\Library embedded l2c display\u8g2\csrc/u8x8_d_lc7981.c ****   if ( u8x8_d_lc7981_common(u8x8, msg, arg_int, arg_ptr) == 0 )
 231              		.loc 1 235 0
 232 0006 FFF7FEFF 		bl	u8x8_d_lc7981_common
 233              	.LVL36:
 234 000a A0B9     		cbnz	r0, .L17
 235 000c 0346     		mov	r3, r0
 236:..\..\..\..\..\..\Dev\Library embedded l2c display\u8g2\csrc/u8x8_d_lc7981.c ****   {
 237:..\..\..\..\..\..\Dev\Library embedded l2c display\u8g2\csrc/u8x8_d_lc7981.c ****     /* msg not handled, then try here */
 238:..\..\..\..\..\..\Dev\Library embedded l2c display\u8g2\csrc/u8x8_d_lc7981.c ****     switch(msg)
 236              		.loc 1 238 0
 237 000e 092C     		cmp	r4, #9
 238 0010 02D0     		beq	.L15
 239 0012 0A2C     		cmp	r4, #10
 240 0014 06D0     		beq	.L16
 241 0016 0FE0     		b	.L14
 242              	.L15:
 239:..\..\..\..\..\..\Dev\Library embedded l2c display\u8g2\csrc/u8x8_d_lc7981.c ****     {
 240:..\..\..\..\..\..\Dev\Library embedded l2c display\u8g2\csrc/u8x8_d_lc7981.c ****       case U8X8_MSG_DISPLAY_SETUP_MEMORY:
 241:..\..\..\..\..\..\Dev\Library embedded l2c display\u8g2\csrc/u8x8_d_lc7981.c **** 	u8x8_d_helper_display_setup_memory(u8x8, &u8x8_lc7981_160x80_display_info);
 243              		.loc 1 241 0
 244 0018 0849     		ldr	r1, .L19
 245 001a 2846     		mov	r0, r5
 246 001c FFF7FEFF 		bl	u8x8_d_helper_display_setup_memory
 247              	.LVL37:
 242:..\..\..\..\..\..\Dev\Library embedded l2c display\u8g2\csrc/u8x8_d_lc7981.c **** 	break;
 243:..\..\..\..\..\..\Dev\Library embedded l2c display\u8g2\csrc/u8x8_d_lc7981.c ****       case U8X8_MSG_DISPLAY_INIT:
 244:..\..\..\..\..\..\Dev\Library embedded l2c display\u8g2\csrc/u8x8_d_lc7981.c **** 	u8x8_d_helper_display_init(u8x8);
 245:..\..\..\..\..\..\Dev\Library embedded l2c display\u8g2\csrc/u8x8_d_lc7981.c **** 	u8x8_cad_SendSequence(u8x8, u8x8_d_lc7981_160x80_init_seq);
 246:..\..\..\..\..\..\Dev\Library embedded l2c display\u8g2\csrc/u8x8_d_lc7981.c **** 	break;
 247:..\..\..\..\..\..\Dev\Library embedded l2c display\u8g2\csrc/u8x8_d_lc7981.c ****       default:
 248:..\..\..\..\..\..\Dev\Library embedded l2c display\u8g2\csrc/u8x8_d_lc7981.c **** 	return 0;		/* msg unknown */
 249:..\..\..\..\..\..\Dev\Library embedded l2c display\u8g2\csrc/u8x8_d_lc7981.c ****     }
 250:..\..\..\..\..\..\Dev\Library embedded l2c display\u8g2\csrc/u8x8_d_lc7981.c ****   }
 251:..\..\..\..\..\..\Dev\Library embedded l2c display\u8g2\csrc/u8x8_d_lc7981.c ****   return 1;
 248              		.loc 1 251 0
 249 0020 0123     		movs	r3, #1
 242:..\..\..\..\..\..\Dev\Library embedded l2c display\u8g2\csrc/u8x8_d_lc7981.c **** 	break;
 250              		.loc 1 242 0
 251 0022 09E0     		b	.L14
 252              	.L16:
 244:..\..\..\..\..\..\Dev\Library embedded l2c display\u8g2\csrc/u8x8_d_lc7981.c **** 	u8x8_cad_SendSequence(u8x8, u8x8_d_lc7981_160x80_init_seq);
 253              		.loc 1 244 0
 254 0024 2846     		mov	r0, r5
ARM GAS  C:\Users\Abude\AppData\Local\Temp\cc3mc0Vg.s 			page 10


 255 0026 FFF7FEFF 		bl	u8x8_d_helper_display_init
 256              	.LVL38:
 245:..\..\..\..\..\..\Dev\Library embedded l2c display\u8g2\csrc/u8x8_d_lc7981.c **** 	break;
 257              		.loc 1 245 0
 258 002a 0549     		ldr	r1, .L19+4
 259 002c 2846     		mov	r0, r5
 260 002e FFF7FEFF 		bl	u8x8_cad_SendSequence
 261              	.LVL39:
 262              		.loc 1 251 0
 263 0032 0123     		movs	r3, #1
 246:..\..\..\..\..\..\Dev\Library embedded l2c display\u8g2\csrc/u8x8_d_lc7981.c ****       default:
 264              		.loc 1 246 0
 265 0034 00E0     		b	.L14
 266              	.L17:
 267              		.loc 1 251 0
 268 0036 0123     		movs	r3, #1
 269              	.L14:
 252:..\..\..\..\..\..\Dev\Library embedded l2c display\u8g2\csrc/u8x8_d_lc7981.c **** }
 270              		.loc 1 252 0
 271 0038 1846     		mov	r0, r3
 272 003a 38BD     		pop	{r3, r4, r5, pc}
 273              	.LVL40:
 274              	.L20:
 275              		.align	2
 276              	.L19:
 277 003c 00000000 		.word	.LANCHOR0
 278 0040 18000000 		.word	.LANCHOR0+24
 279              		.cfi_endproc
 280              	.LFE2:
 281              		.size	u8x8_d_lc7981_160x80, .-u8x8_d_lc7981_160x80
 282              		.section	.text.u8x8_d_lc7981_160x160,"ax",%progbits
 283              		.align	2
 284              		.global	u8x8_d_lc7981_160x160
 285              		.thumb
 286              		.thumb_func
 287              		.type	u8x8_d_lc7981_160x160, %function
 288              	u8x8_d_lc7981_160x160:
 289              	.LFB3:
 253:..\..\..\..\..\..\Dev\Library embedded l2c display\u8g2\csrc/u8x8_d_lc7981.c **** 
 254:..\..\..\..\..\..\Dev\Library embedded l2c display\u8g2\csrc/u8x8_d_lc7981.c **** 
 255:..\..\..\..\..\..\Dev\Library embedded l2c display\u8g2\csrc/u8x8_d_lc7981.c **** /*================================================*/
 256:..\..\..\..\..\..\Dev\Library embedded l2c display\u8g2\csrc/u8x8_d_lc7981.c **** /* LC7981 160x160 LCD*/
 257:..\..\..\..\..\..\Dev\Library embedded l2c display\u8g2\csrc/u8x8_d_lc7981.c **** 
 258:..\..\..\..\..\..\Dev\Library embedded l2c display\u8g2\csrc/u8x8_d_lc7981.c **** static const u8x8_display_info_t u8x8_lc7981_160x160_display_info =
 259:..\..\..\..\..\..\Dev\Library embedded l2c display\u8g2\csrc/u8x8_d_lc7981.c **** {
 260:..\..\..\..\..\..\Dev\Library embedded l2c display\u8g2\csrc/u8x8_d_lc7981.c ****   /* chip_enable_level = */ 0,	/* LC7981 has a low active CS*/
 261:..\..\..\..\..\..\Dev\Library embedded l2c display\u8g2\csrc/u8x8_d_lc7981.c ****   /* chip_disable_level = */ 1,
 262:..\..\..\..\..\..\Dev\Library embedded l2c display\u8g2\csrc/u8x8_d_lc7981.c ****   
 263:..\..\..\..\..\..\Dev\Library embedded l2c display\u8g2\csrc/u8x8_d_lc7981.c ****   /* from here... */
 264:..\..\..\..\..\..\Dev\Library embedded l2c display\u8g2\csrc/u8x8_d_lc7981.c ****   /* post_chip_enable_wait_ns = */ 20,	
 265:..\..\..\..\..\..\Dev\Library embedded l2c display\u8g2\csrc/u8x8_d_lc7981.c ****   /* pre_chip_disable_wait_ns = */ 20,	
 266:..\..\..\..\..\..\Dev\Library embedded l2c display\u8g2\csrc/u8x8_d_lc7981.c ****   /* reset_pulse_width_ms = */ 1, 	
 267:..\..\..\..\..\..\Dev\Library embedded l2c display\u8g2\csrc/u8x8_d_lc7981.c ****   /* post_reset_wait_ms = */ 10, 	
 268:..\..\..\..\..\..\Dev\Library embedded l2c display\u8g2\csrc/u8x8_d_lc7981.c ****   /* sda_setup_time_ns = */ 30,		
 269:..\..\..\..\..\..\Dev\Library embedded l2c display\u8g2\csrc/u8x8_d_lc7981.c ****   /* sck_pulse_width_ns = */ 65,	/* half of cycle time  */
 270:..\..\..\..\..\..\Dev\Library embedded l2c display\u8g2\csrc/u8x8_d_lc7981.c ****   /* sck_clock_hz = */ 4000000UL,	/* since Arduino 1.6.0, the SPI bus speed in Hz. Should be  10000
 271:..\..\..\..\..\..\Dev\Library embedded l2c display\u8g2\csrc/u8x8_d_lc7981.c ****   /* spi_mode = */ 0,		/* active high, rising edge */
ARM GAS  C:\Users\Abude\AppData\Local\Temp\cc3mc0Vg.s 			page 11


 272:..\..\..\..\..\..\Dev\Library embedded l2c display\u8g2\csrc/u8x8_d_lc7981.c ****   /* i2c_bus_clock_100kHz = */ 4,
 273:..\..\..\..\..\..\Dev\Library embedded l2c display\u8g2\csrc/u8x8_d_lc7981.c ****   /* ... to here, values are ignored, because this is a parallel interface only */
 274:..\..\..\..\..\..\Dev\Library embedded l2c display\u8g2\csrc/u8x8_d_lc7981.c ****   
 275:..\..\..\..\..\..\Dev\Library embedded l2c display\u8g2\csrc/u8x8_d_lc7981.c ****   /* data_setup_time_ns = */ 220,	
 276:..\..\..\..\..\..\Dev\Library embedded l2c display\u8g2\csrc/u8x8_d_lc7981.c ****   /* write_pulse_width_ns = */ 20,	
 277:..\..\..\..\..\..\Dev\Library embedded l2c display\u8g2\csrc/u8x8_d_lc7981.c ****   /* tile_width = */ 20,		/* width of 20*8=160 pixel */
 278:..\..\..\..\..\..\Dev\Library embedded l2c display\u8g2\csrc/u8x8_d_lc7981.c ****   /* tile_hight = */ 20,
 279:..\..\..\..\..\..\Dev\Library embedded l2c display\u8g2\csrc/u8x8_d_lc7981.c ****   /* default_x_offset = */ 0,	
 280:..\..\..\..\..\..\Dev\Library embedded l2c display\u8g2\csrc/u8x8_d_lc7981.c ****   /* flipmode_x_offset = */ 0,	
 281:..\..\..\..\..\..\Dev\Library embedded l2c display\u8g2\csrc/u8x8_d_lc7981.c ****   /* pixel_width = */ 160,
 282:..\..\..\..\..\..\Dev\Library embedded l2c display\u8g2\csrc/u8x8_d_lc7981.c ****   /* pixel_height = */ 160
 283:..\..\..\..\..\..\Dev\Library embedded l2c display\u8g2\csrc/u8x8_d_lc7981.c **** };
 284:..\..\..\..\..\..\Dev\Library embedded l2c display\u8g2\csrc/u8x8_d_lc7981.c **** 
 285:..\..\..\..\..\..\Dev\Library embedded l2c display\u8g2\csrc/u8x8_d_lc7981.c **** static const uint8_t u8x8_d_lc7981_160x160_init_seq[] = {
 286:..\..\..\..\..\..\Dev\Library embedded l2c display\u8g2\csrc/u8x8_d_lc7981.c ****     
 287:..\..\..\..\..\..\Dev\Library embedded l2c display\u8g2\csrc/u8x8_d_lc7981.c ****   U8X8_START_TRANSFER(),             	/* enable chip, delay is part of the transfer start */
 288:..\..\..\..\..\..\Dev\Library embedded l2c display\u8g2\csrc/u8x8_d_lc7981.c ****   
 289:..\..\..\..\..\..\Dev\Library embedded l2c display\u8g2\csrc/u8x8_d_lc7981.c ****   U8X8_DLY(50),
 290:..\..\..\..\..\..\Dev\Library embedded l2c display\u8g2\csrc/u8x8_d_lc7981.c **** 
 291:..\..\..\..\..\..\Dev\Library embedded l2c display\u8g2\csrc/u8x8_d_lc7981.c ****   U8X8_CA(0x00, 0x32),			/* display on (bit 5), master mode on (bit 4), graphics mode on (bit 1) */
 292:..\..\..\..\..\..\Dev\Library embedded l2c display\u8g2\csrc/u8x8_d_lc7981.c ****   U8X8_CA(0x01, 0x07),			/* character/bits per pixel pitch */
 293:..\..\..\..\..\..\Dev\Library embedded l2c display\u8g2\csrc/u8x8_d_lc7981.c ****   U8X8_CA(0x02, 160/8-1),		/* number of chars/byte width of the screen */
 294:..\..\..\..\..\..\Dev\Library embedded l2c display\u8g2\csrc/u8x8_d_lc7981.c ****   U8X8_CA(0x03, 159),			/* time division */
 295:..\..\..\..\..\..\Dev\Library embedded l2c display\u8g2\csrc/u8x8_d_lc7981.c ****   U8X8_CA(0x08, 0x00),			/* display start low */
 296:..\..\..\..\..\..\Dev\Library embedded l2c display\u8g2\csrc/u8x8_d_lc7981.c ****   U8X8_CA(0x09, 0x00),			/* display start high */
 297:..\..\..\..\..\..\Dev\Library embedded l2c display\u8g2\csrc/u8x8_d_lc7981.c **** 
 298:..\..\..\..\..\..\Dev\Library embedded l2c display\u8g2\csrc/u8x8_d_lc7981.c ****   U8X8_DLY(10),
 299:..\..\..\..\..\..\Dev\Library embedded l2c display\u8g2\csrc/u8x8_d_lc7981.c ****   
 300:..\..\..\..\..\..\Dev\Library embedded l2c display\u8g2\csrc/u8x8_d_lc7981.c ****   U8X8_END_TRANSFER(),             	/* disable chip */
 301:..\..\..\..\..\..\Dev\Library embedded l2c display\u8g2\csrc/u8x8_d_lc7981.c ****   U8X8_END()             			/* end of sequence */
 302:..\..\..\..\..\..\Dev\Library embedded l2c display\u8g2\csrc/u8x8_d_lc7981.c **** };
 303:..\..\..\..\..\..\Dev\Library embedded l2c display\u8g2\csrc/u8x8_d_lc7981.c **** 
 304:..\..\..\..\..\..\Dev\Library embedded l2c display\u8g2\csrc/u8x8_d_lc7981.c **** uint8_t u8x8_d_lc7981_160x160(u8x8_t *u8x8, uint8_t msg, uint8_t arg_int, void *arg_ptr)
 305:..\..\..\..\..\..\Dev\Library embedded l2c display\u8g2\csrc/u8x8_d_lc7981.c **** {
 290              		.loc 1 305 0
 291              		.cfi_startproc
 292              		@ args = 0, pretend = 0, frame = 0
 293              		@ frame_needed = 0, uses_anonymous_args = 0
 294              	.LVL41:
 295 0000 38B5     		push	{r3, r4, r5, lr}
 296              		.cfi_def_cfa_offset 16
 297              		.cfi_offset 3, -16
 298              		.cfi_offset 4, -12
 299              		.cfi_offset 5, -8
 300              		.cfi_offset 14, -4
 301 0002 0546     		mov	r5, r0
 302 0004 0C46     		mov	r4, r1
 306:..\..\..\..\..\..\Dev\Library embedded l2c display\u8g2\csrc/u8x8_d_lc7981.c ****   /* call common procedure first and handle messages there */
 307:..\..\..\..\..\..\Dev\Library embedded l2c display\u8g2\csrc/u8x8_d_lc7981.c ****   if ( u8x8_d_lc7981_common(u8x8, msg, arg_int, arg_ptr) == 0 )
 303              		.loc 1 307 0
 304 0006 FFF7FEFF 		bl	u8x8_d_lc7981_common
 305              	.LVL42:
 306 000a A0B9     		cbnz	r0, .L25
 307 000c 0346     		mov	r3, r0
 308:..\..\..\..\..\..\Dev\Library embedded l2c display\u8g2\csrc/u8x8_d_lc7981.c ****   {
 309:..\..\..\..\..\..\Dev\Library embedded l2c display\u8g2\csrc/u8x8_d_lc7981.c ****     /* msg not handled, then try here */
 310:..\..\..\..\..\..\Dev\Library embedded l2c display\u8g2\csrc/u8x8_d_lc7981.c ****     switch(msg)
ARM GAS  C:\Users\Abude\AppData\Local\Temp\cc3mc0Vg.s 			page 12


 308              		.loc 1 310 0
 309 000e 092C     		cmp	r4, #9
 310 0010 02D0     		beq	.L23
 311 0012 0A2C     		cmp	r4, #10
 312 0014 06D0     		beq	.L24
 313 0016 0FE0     		b	.L22
 314              	.L23:
 311:..\..\..\..\..\..\Dev\Library embedded l2c display\u8g2\csrc/u8x8_d_lc7981.c ****     {
 312:..\..\..\..\..\..\Dev\Library embedded l2c display\u8g2\csrc/u8x8_d_lc7981.c ****       case U8X8_MSG_DISPLAY_SETUP_MEMORY:
 313:..\..\..\..\..\..\Dev\Library embedded l2c display\u8g2\csrc/u8x8_d_lc7981.c **** 	u8x8_d_helper_display_setup_memory(u8x8, &u8x8_lc7981_160x160_display_info);
 315              		.loc 1 313 0
 316 0018 0849     		ldr	r1, .L27
 317 001a 2846     		mov	r0, r5
 318 001c FFF7FEFF 		bl	u8x8_d_helper_display_setup_memory
 319              	.LVL43:
 314:..\..\..\..\..\..\Dev\Library embedded l2c display\u8g2\csrc/u8x8_d_lc7981.c **** 	break;
 315:..\..\..\..\..\..\Dev\Library embedded l2c display\u8g2\csrc/u8x8_d_lc7981.c ****       case U8X8_MSG_DISPLAY_INIT:
 316:..\..\..\..\..\..\Dev\Library embedded l2c display\u8g2\csrc/u8x8_d_lc7981.c **** 	u8x8_d_helper_display_init(u8x8);
 317:..\..\..\..\..\..\Dev\Library embedded l2c display\u8g2\csrc/u8x8_d_lc7981.c **** 	u8x8_cad_SendSequence(u8x8, u8x8_d_lc7981_160x160_init_seq);
 318:..\..\..\..\..\..\Dev\Library embedded l2c display\u8g2\csrc/u8x8_d_lc7981.c **** 	break;
 319:..\..\..\..\..\..\Dev\Library embedded l2c display\u8g2\csrc/u8x8_d_lc7981.c ****       default:
 320:..\..\..\..\..\..\Dev\Library embedded l2c display\u8g2\csrc/u8x8_d_lc7981.c **** 	return 0;		/* msg unknown */
 321:..\..\..\..\..\..\Dev\Library embedded l2c display\u8g2\csrc/u8x8_d_lc7981.c ****     }
 322:..\..\..\..\..\..\Dev\Library embedded l2c display\u8g2\csrc/u8x8_d_lc7981.c ****   }
 323:..\..\..\..\..\..\Dev\Library embedded l2c display\u8g2\csrc/u8x8_d_lc7981.c ****   return 1;
 320              		.loc 1 323 0
 321 0020 0123     		movs	r3, #1
 314:..\..\..\..\..\..\Dev\Library embedded l2c display\u8g2\csrc/u8x8_d_lc7981.c **** 	break;
 322              		.loc 1 314 0
 323 0022 09E0     		b	.L22
 324              	.L24:
 316:..\..\..\..\..\..\Dev\Library embedded l2c display\u8g2\csrc/u8x8_d_lc7981.c **** 	u8x8_cad_SendSequence(u8x8, u8x8_d_lc7981_160x160_init_seq);
 325              		.loc 1 316 0
 326 0024 2846     		mov	r0, r5
 327 0026 FFF7FEFF 		bl	u8x8_d_helper_display_init
 328              	.LVL44:
 317:..\..\..\..\..\..\Dev\Library embedded l2c display\u8g2\csrc/u8x8_d_lc7981.c **** 	break;
 329              		.loc 1 317 0
 330 002a 0549     		ldr	r1, .L27+4
 331 002c 2846     		mov	r0, r5
 332 002e FFF7FEFF 		bl	u8x8_cad_SendSequence
 333              	.LVL45:
 334              		.loc 1 323 0
 335 0032 0123     		movs	r3, #1
 318:..\..\..\..\..\..\Dev\Library embedded l2c display\u8g2\csrc/u8x8_d_lc7981.c ****       default:
 336              		.loc 1 318 0
 337 0034 00E0     		b	.L22
 338              	.L25:
 339              		.loc 1 323 0
 340 0036 0123     		movs	r3, #1
 341              	.L22:
 324:..\..\..\..\..\..\Dev\Library embedded l2c display\u8g2\csrc/u8x8_d_lc7981.c **** }
 342              		.loc 1 324 0
 343 0038 1846     		mov	r0, r3
 344 003a 38BD     		pop	{r3, r4, r5, pc}
 345              	.LVL46:
 346              	.L28:
ARM GAS  C:\Users\Abude\AppData\Local\Temp\cc3mc0Vg.s 			page 13


 347              		.align	2
 348              	.L27:
 349 003c 38000000 		.word	.LANCHOR0+56
 350 0040 50000000 		.word	.LANCHOR0+80
 351              		.cfi_endproc
 352              	.LFE3:
 353              		.size	u8x8_d_lc7981_160x160, .-u8x8_d_lc7981_160x160
 354              		.section	.text.u8x8_d_lc7981_240x128,"ax",%progbits
 355              		.align	2
 356              		.global	u8x8_d_lc7981_240x128
 357              		.thumb
 358              		.thumb_func
 359              		.type	u8x8_d_lc7981_240x128, %function
 360              	u8x8_d_lc7981_240x128:
 361              	.LFB4:
 325:..\..\..\..\..\..\Dev\Library embedded l2c display\u8g2\csrc/u8x8_d_lc7981.c **** 
 326:..\..\..\..\..\..\Dev\Library embedded l2c display\u8g2\csrc/u8x8_d_lc7981.c **** 
 327:..\..\..\..\..\..\Dev\Library embedded l2c display\u8g2\csrc/u8x8_d_lc7981.c **** /*================================================*/
 328:..\..\..\..\..\..\Dev\Library embedded l2c display\u8g2\csrc/u8x8_d_lc7981.c **** /* LC7981 240x128 LCD*/
 329:..\..\..\..\..\..\Dev\Library embedded l2c display\u8g2\csrc/u8x8_d_lc7981.c **** 
 330:..\..\..\..\..\..\Dev\Library embedded l2c display\u8g2\csrc/u8x8_d_lc7981.c **** static const u8x8_display_info_t u8x8_lc7981_240x128_display_info =
 331:..\..\..\..\..\..\Dev\Library embedded l2c display\u8g2\csrc/u8x8_d_lc7981.c **** {
 332:..\..\..\..\..\..\Dev\Library embedded l2c display\u8g2\csrc/u8x8_d_lc7981.c ****   /* chip_enable_level = */ 0,	/* LC7981 has a low active CS*/
 333:..\..\..\..\..\..\Dev\Library embedded l2c display\u8g2\csrc/u8x8_d_lc7981.c ****   /* chip_disable_level = */ 1,
 334:..\..\..\..\..\..\Dev\Library embedded l2c display\u8g2\csrc/u8x8_d_lc7981.c ****   
 335:..\..\..\..\..\..\Dev\Library embedded l2c display\u8g2\csrc/u8x8_d_lc7981.c ****   /* from here... */
 336:..\..\..\..\..\..\Dev\Library embedded l2c display\u8g2\csrc/u8x8_d_lc7981.c ****   /* post_chip_enable_wait_ns = */ 20,	
 337:..\..\..\..\..\..\Dev\Library embedded l2c display\u8g2\csrc/u8x8_d_lc7981.c ****   /* pre_chip_disable_wait_ns = */ 20,	
 338:..\..\..\..\..\..\Dev\Library embedded l2c display\u8g2\csrc/u8x8_d_lc7981.c ****   /* reset_pulse_width_ms = */ 1, 	
 339:..\..\..\..\..\..\Dev\Library embedded l2c display\u8g2\csrc/u8x8_d_lc7981.c ****   /* post_reset_wait_ms = */ 10, 	
 340:..\..\..\..\..\..\Dev\Library embedded l2c display\u8g2\csrc/u8x8_d_lc7981.c ****   /* sda_setup_time_ns = */ 30,		
 341:..\..\..\..\..\..\Dev\Library embedded l2c display\u8g2\csrc/u8x8_d_lc7981.c ****   /* sck_pulse_width_ns = */ 65,	/* half of cycle time  */
 342:..\..\..\..\..\..\Dev\Library embedded l2c display\u8g2\csrc/u8x8_d_lc7981.c ****   /* sck_clock_hz = */ 4000000UL,	/* since Arduino 1.6.0, the SPI bus speed in Hz. Should be  10000
 343:..\..\..\..\..\..\Dev\Library embedded l2c display\u8g2\csrc/u8x8_d_lc7981.c ****   /* spi_mode = */ 0,		/* active high, rising edge */
 344:..\..\..\..\..\..\Dev\Library embedded l2c display\u8g2\csrc/u8x8_d_lc7981.c ****   /* i2c_bus_clock_100kHz = */ 4,
 345:..\..\..\..\..\..\Dev\Library embedded l2c display\u8g2\csrc/u8x8_d_lc7981.c ****   /* ... to here, values are ignored, because this is a parallel interface only */
 346:..\..\..\..\..\..\Dev\Library embedded l2c display\u8g2\csrc/u8x8_d_lc7981.c ****   
 347:..\..\..\..\..\..\Dev\Library embedded l2c display\u8g2\csrc/u8x8_d_lc7981.c ****   /* data_setup_time_ns = */ 220,	
 348:..\..\..\..\..\..\Dev\Library embedded l2c display\u8g2\csrc/u8x8_d_lc7981.c ****   /* write_pulse_width_ns = */ 20,	
 349:..\..\..\..\..\..\Dev\Library embedded l2c display\u8g2\csrc/u8x8_d_lc7981.c ****   /* tile_width = */ 30,		/* width of 30*8=240 pixel */
 350:..\..\..\..\..\..\Dev\Library embedded l2c display\u8g2\csrc/u8x8_d_lc7981.c ****   /* tile_hight = */ 16,
 351:..\..\..\..\..\..\Dev\Library embedded l2c display\u8g2\csrc/u8x8_d_lc7981.c ****   /* default_x_offset = */ 0,	
 352:..\..\..\..\..\..\Dev\Library embedded l2c display\u8g2\csrc/u8x8_d_lc7981.c ****   /* flipmode_x_offset = */ 0,	
 353:..\..\..\..\..\..\Dev\Library embedded l2c display\u8g2\csrc/u8x8_d_lc7981.c ****   /* pixel_width = */ 240,
 354:..\..\..\..\..\..\Dev\Library embedded l2c display\u8g2\csrc/u8x8_d_lc7981.c ****   /* pixel_height = */ 128
 355:..\..\..\..\..\..\Dev\Library embedded l2c display\u8g2\csrc/u8x8_d_lc7981.c **** };
 356:..\..\..\..\..\..\Dev\Library embedded l2c display\u8g2\csrc/u8x8_d_lc7981.c **** 
 357:..\..\..\..\..\..\Dev\Library embedded l2c display\u8g2\csrc/u8x8_d_lc7981.c **** static const uint8_t u8x8_d_lc7981_240x128_init_seq[] = {
 358:..\..\..\..\..\..\Dev\Library embedded l2c display\u8g2\csrc/u8x8_d_lc7981.c ****     
 359:..\..\..\..\..\..\Dev\Library embedded l2c display\u8g2\csrc/u8x8_d_lc7981.c ****   U8X8_START_TRANSFER(),             	/* enable chip, delay is part of the transfer start */
 360:..\..\..\..\..\..\Dev\Library embedded l2c display\u8g2\csrc/u8x8_d_lc7981.c ****   
 361:..\..\..\..\..\..\Dev\Library embedded l2c display\u8g2\csrc/u8x8_d_lc7981.c ****   U8X8_DLY(50),
 362:..\..\..\..\..\..\Dev\Library embedded l2c display\u8g2\csrc/u8x8_d_lc7981.c **** 
 363:..\..\..\..\..\..\Dev\Library embedded l2c display\u8g2\csrc/u8x8_d_lc7981.c ****   U8X8_CA(0x00, 0x32),			/* display on (bit 5), master mode on (bit 4), graphics mode on (bit 1) */
 364:..\..\..\..\..\..\Dev\Library embedded l2c display\u8g2\csrc/u8x8_d_lc7981.c ****   U8X8_CA(0x01, 0x07),			/* character/bits per pixel pitch */
 365:..\..\..\..\..\..\Dev\Library embedded l2c display\u8g2\csrc/u8x8_d_lc7981.c ****   U8X8_CA(0x02, 240/8-1),		/* number of chars/byte width of the screen */
 366:..\..\..\..\..\..\Dev\Library embedded l2c display\u8g2\csrc/u8x8_d_lc7981.c ****   U8X8_CA(0x03, 128),			/* time division, issue https://github.com/olikraus/u8g2/issues/1581 */
ARM GAS  C:\Users\Abude\AppData\Local\Temp\cc3mc0Vg.s 			page 14


 367:..\..\..\..\..\..\Dev\Library embedded l2c display\u8g2\csrc/u8x8_d_lc7981.c ****   U8X8_CA(0x08, 0x00),			/* display start low */
 368:..\..\..\..\..\..\Dev\Library embedded l2c display\u8g2\csrc/u8x8_d_lc7981.c ****   U8X8_CA(0x09, 0x00),			/* display start high */
 369:..\..\..\..\..\..\Dev\Library embedded l2c display\u8g2\csrc/u8x8_d_lc7981.c **** 
 370:..\..\..\..\..\..\Dev\Library embedded l2c display\u8g2\csrc/u8x8_d_lc7981.c ****   U8X8_DLY(10),
 371:..\..\..\..\..\..\Dev\Library embedded l2c display\u8g2\csrc/u8x8_d_lc7981.c ****   
 372:..\..\..\..\..\..\Dev\Library embedded l2c display\u8g2\csrc/u8x8_d_lc7981.c ****   U8X8_END_TRANSFER(),             	/* disable chip */
 373:..\..\..\..\..\..\Dev\Library embedded l2c display\u8g2\csrc/u8x8_d_lc7981.c ****   U8X8_END()             			/* end of sequence */
 374:..\..\..\..\..\..\Dev\Library embedded l2c display\u8g2\csrc/u8x8_d_lc7981.c **** };
 375:..\..\..\..\..\..\Dev\Library embedded l2c display\u8g2\csrc/u8x8_d_lc7981.c **** 
 376:..\..\..\..\..\..\Dev\Library embedded l2c display\u8g2\csrc/u8x8_d_lc7981.c **** uint8_t u8x8_d_lc7981_240x128(u8x8_t *u8x8, uint8_t msg, uint8_t arg_int, void *arg_ptr)
 377:..\..\..\..\..\..\Dev\Library embedded l2c display\u8g2\csrc/u8x8_d_lc7981.c **** {
 362              		.loc 1 377 0
 363              		.cfi_startproc
 364              		@ args = 0, pretend = 0, frame = 0
 365              		@ frame_needed = 0, uses_anonymous_args = 0
 366              	.LVL47:
 367 0000 38B5     		push	{r3, r4, r5, lr}
 368              		.cfi_def_cfa_offset 16
 369              		.cfi_offset 3, -16
 370              		.cfi_offset 4, -12
 371              		.cfi_offset 5, -8
 372              		.cfi_offset 14, -4
 373 0002 0546     		mov	r5, r0
 374 0004 0C46     		mov	r4, r1
 378:..\..\..\..\..\..\Dev\Library embedded l2c display\u8g2\csrc/u8x8_d_lc7981.c ****   /* call common procedure first and handle messages there */
 379:..\..\..\..\..\..\Dev\Library embedded l2c display\u8g2\csrc/u8x8_d_lc7981.c ****   if ( u8x8_d_lc7981_common(u8x8, msg, arg_int, arg_ptr) == 0 )
 375              		.loc 1 379 0
 376 0006 FFF7FEFF 		bl	u8x8_d_lc7981_common
 377              	.LVL48:
 378 000a A0B9     		cbnz	r0, .L33
 379 000c 0346     		mov	r3, r0
 380:..\..\..\..\..\..\Dev\Library embedded l2c display\u8g2\csrc/u8x8_d_lc7981.c ****   {
 381:..\..\..\..\..\..\Dev\Library embedded l2c display\u8g2\csrc/u8x8_d_lc7981.c ****     /* msg not handled, then try here */
 382:..\..\..\..\..\..\Dev\Library embedded l2c display\u8g2\csrc/u8x8_d_lc7981.c ****     switch(msg)
 380              		.loc 1 382 0
 381 000e 092C     		cmp	r4, #9
 382 0010 02D0     		beq	.L31
 383 0012 0A2C     		cmp	r4, #10
 384 0014 06D0     		beq	.L32
 385 0016 0FE0     		b	.L30
 386              	.L31:
 383:..\..\..\..\..\..\Dev\Library embedded l2c display\u8g2\csrc/u8x8_d_lc7981.c ****     {
 384:..\..\..\..\..\..\Dev\Library embedded l2c display\u8g2\csrc/u8x8_d_lc7981.c ****       case U8X8_MSG_DISPLAY_SETUP_MEMORY:
 385:..\..\..\..\..\..\Dev\Library embedded l2c display\u8g2\csrc/u8x8_d_lc7981.c **** 	u8x8_d_helper_display_setup_memory(u8x8, &u8x8_lc7981_240x128_display_info);
 387              		.loc 1 385 0
 388 0018 0849     		ldr	r1, .L35
 389 001a 2846     		mov	r0, r5
 390 001c FFF7FEFF 		bl	u8x8_d_helper_display_setup_memory
 391              	.LVL49:
 386:..\..\..\..\..\..\Dev\Library embedded l2c display\u8g2\csrc/u8x8_d_lc7981.c **** 	break;
 387:..\..\..\..\..\..\Dev\Library embedded l2c display\u8g2\csrc/u8x8_d_lc7981.c ****       case U8X8_MSG_DISPLAY_INIT:
 388:..\..\..\..\..\..\Dev\Library embedded l2c display\u8g2\csrc/u8x8_d_lc7981.c **** 	u8x8_d_helper_display_init(u8x8);
 389:..\..\..\..\..\..\Dev\Library embedded l2c display\u8g2\csrc/u8x8_d_lc7981.c **** 	u8x8_cad_SendSequence(u8x8, u8x8_d_lc7981_240x128_init_seq);
 390:..\..\..\..\..\..\Dev\Library embedded l2c display\u8g2\csrc/u8x8_d_lc7981.c **** 	break;
 391:..\..\..\..\..\..\Dev\Library embedded l2c display\u8g2\csrc/u8x8_d_lc7981.c ****       default:
 392:..\..\..\..\..\..\Dev\Library embedded l2c display\u8g2\csrc/u8x8_d_lc7981.c **** 	return 0;		/* msg unknown */
 393:..\..\..\..\..\..\Dev\Library embedded l2c display\u8g2\csrc/u8x8_d_lc7981.c ****     }
ARM GAS  C:\Users\Abude\AppData\Local\Temp\cc3mc0Vg.s 			page 15


 394:..\..\..\..\..\..\Dev\Library embedded l2c display\u8g2\csrc/u8x8_d_lc7981.c ****   }
 395:..\..\..\..\..\..\Dev\Library embedded l2c display\u8g2\csrc/u8x8_d_lc7981.c ****   return 1;
 392              		.loc 1 395 0
 393 0020 0123     		movs	r3, #1
 386:..\..\..\..\..\..\Dev\Library embedded l2c display\u8g2\csrc/u8x8_d_lc7981.c **** 	break;
 394              		.loc 1 386 0
 395 0022 09E0     		b	.L30
 396              	.L32:
 388:..\..\..\..\..\..\Dev\Library embedded l2c display\u8g2\csrc/u8x8_d_lc7981.c **** 	u8x8_cad_SendSequence(u8x8, u8x8_d_lc7981_240x128_init_seq);
 397              		.loc 1 388 0
 398 0024 2846     		mov	r0, r5
 399 0026 FFF7FEFF 		bl	u8x8_d_helper_display_init
 400              	.LVL50:
 389:..\..\..\..\..\..\Dev\Library embedded l2c display\u8g2\csrc/u8x8_d_lc7981.c **** 	break;
 401              		.loc 1 389 0
 402 002a 0549     		ldr	r1, .L35+4
 403 002c 2846     		mov	r0, r5
 404 002e FFF7FEFF 		bl	u8x8_cad_SendSequence
 405              	.LVL51:
 406              		.loc 1 395 0
 407 0032 0123     		movs	r3, #1
 390:..\..\..\..\..\..\Dev\Library embedded l2c display\u8g2\csrc/u8x8_d_lc7981.c ****       default:
 408              		.loc 1 390 0
 409 0034 00E0     		b	.L30
 410              	.L33:
 411              		.loc 1 395 0
 412 0036 0123     		movs	r3, #1
 413              	.L30:
 396:..\..\..\..\..\..\Dev\Library embedded l2c display\u8g2\csrc/u8x8_d_lc7981.c **** }
 414              		.loc 1 396 0
 415 0038 1846     		mov	r0, r3
 416 003a 38BD     		pop	{r3, r4, r5, pc}
 417              	.LVL52:
 418              	.L36:
 419              		.align	2
 420              	.L35:
 421 003c 70000000 		.word	.LANCHOR0+112
 422 0040 88000000 		.word	.LANCHOR0+136
 423              		.cfi_endproc
 424              	.LFE4:
 425              		.size	u8x8_d_lc7981_240x128, .-u8x8_d_lc7981_240x128
 426              		.section	.text.u8x8_d_lc7981_240x64,"ax",%progbits
 427              		.align	2
 428              		.global	u8x8_d_lc7981_240x64
 429              		.thumb
 430              		.thumb_func
 431              		.type	u8x8_d_lc7981_240x64, %function
 432              	u8x8_d_lc7981_240x64:
 433              	.LFB5:
 397:..\..\..\..\..\..\Dev\Library embedded l2c display\u8g2\csrc/u8x8_d_lc7981.c **** 
 398:..\..\..\..\..\..\Dev\Library embedded l2c display\u8g2\csrc/u8x8_d_lc7981.c **** 
 399:..\..\..\..\..\..\Dev\Library embedded l2c display\u8g2\csrc/u8x8_d_lc7981.c **** /*================================================*/
 400:..\..\..\..\..\..\Dev\Library embedded l2c display\u8g2\csrc/u8x8_d_lc7981.c **** /* LC7981 240x64 LCD*/
 401:..\..\..\..\..\..\Dev\Library embedded l2c display\u8g2\csrc/u8x8_d_lc7981.c **** /* https://github.com/olikraus/u8g2/issues/642 */
 402:..\..\..\..\..\..\Dev\Library embedded l2c display\u8g2\csrc/u8x8_d_lc7981.c **** 
 403:..\..\..\..\..\..\Dev\Library embedded l2c display\u8g2\csrc/u8x8_d_lc7981.c **** static const u8x8_display_info_t u8x8_lc7981_240x64_display_info =
 404:..\..\..\..\..\..\Dev\Library embedded l2c display\u8g2\csrc/u8x8_d_lc7981.c **** {
ARM GAS  C:\Users\Abude\AppData\Local\Temp\cc3mc0Vg.s 			page 16


 405:..\..\..\..\..\..\Dev\Library embedded l2c display\u8g2\csrc/u8x8_d_lc7981.c ****   /* chip_enable_level = */ 0,	/* LC7981 has a low active CS*/
 406:..\..\..\..\..\..\Dev\Library embedded l2c display\u8g2\csrc/u8x8_d_lc7981.c ****   /* chip_disable_level = */ 1,
 407:..\..\..\..\..\..\Dev\Library embedded l2c display\u8g2\csrc/u8x8_d_lc7981.c ****   
 408:..\..\..\..\..\..\Dev\Library embedded l2c display\u8g2\csrc/u8x8_d_lc7981.c ****   /* from here... */
 409:..\..\..\..\..\..\Dev\Library embedded l2c display\u8g2\csrc/u8x8_d_lc7981.c ****   /* post_chip_enable_wait_ns = */ 20,	
 410:..\..\..\..\..\..\Dev\Library embedded l2c display\u8g2\csrc/u8x8_d_lc7981.c ****   /* pre_chip_disable_wait_ns = */ 20,	
 411:..\..\..\..\..\..\Dev\Library embedded l2c display\u8g2\csrc/u8x8_d_lc7981.c ****   /* reset_pulse_width_ms = */ 1, 	
 412:..\..\..\..\..\..\Dev\Library embedded l2c display\u8g2\csrc/u8x8_d_lc7981.c ****   /* post_reset_wait_ms = */ 10, 	
 413:..\..\..\..\..\..\Dev\Library embedded l2c display\u8g2\csrc/u8x8_d_lc7981.c ****   /* sda_setup_time_ns = */ 30,		
 414:..\..\..\..\..\..\Dev\Library embedded l2c display\u8g2\csrc/u8x8_d_lc7981.c ****   /* sck_pulse_width_ns = */ 65,	/* half of cycle time  */
 415:..\..\..\..\..\..\Dev\Library embedded l2c display\u8g2\csrc/u8x8_d_lc7981.c ****   /* sck_clock_hz = */ 4000000UL,	/* since Arduino 1.6.0, the SPI bus speed in Hz. Should be  10000
 416:..\..\..\..\..\..\Dev\Library embedded l2c display\u8g2\csrc/u8x8_d_lc7981.c ****   /* spi_mode = */ 0,		/* active high, rising edge */
 417:..\..\..\..\..\..\Dev\Library embedded l2c display\u8g2\csrc/u8x8_d_lc7981.c ****   /* i2c_bus_clock_100kHz = */ 4,
 418:..\..\..\..\..\..\Dev\Library embedded l2c display\u8g2\csrc/u8x8_d_lc7981.c ****   /* ... to here, values are ignored, because this is a parallel interface only */
 419:..\..\..\..\..\..\Dev\Library embedded l2c display\u8g2\csrc/u8x8_d_lc7981.c ****   
 420:..\..\..\..\..\..\Dev\Library embedded l2c display\u8g2\csrc/u8x8_d_lc7981.c ****   /* data_setup_time_ns = */ 220,	
 421:..\..\..\..\..\..\Dev\Library embedded l2c display\u8g2\csrc/u8x8_d_lc7981.c ****   /* write_pulse_width_ns = */ 20,	
 422:..\..\..\..\..\..\Dev\Library embedded l2c display\u8g2\csrc/u8x8_d_lc7981.c ****   /* tile_width = */ 30,		/* width of 30*8=240 pixel */
 423:..\..\..\..\..\..\Dev\Library embedded l2c display\u8g2\csrc/u8x8_d_lc7981.c ****   /* tile_hight = */ 8,
 424:..\..\..\..\..\..\Dev\Library embedded l2c display\u8g2\csrc/u8x8_d_lc7981.c ****   /* default_x_offset = */ 0,	
 425:..\..\..\..\..\..\Dev\Library embedded l2c display\u8g2\csrc/u8x8_d_lc7981.c ****   /* flipmode_x_offset = */ 0,	
 426:..\..\..\..\..\..\Dev\Library embedded l2c display\u8g2\csrc/u8x8_d_lc7981.c ****   /* pixel_width = */ 240,
 427:..\..\..\..\..\..\Dev\Library embedded l2c display\u8g2\csrc/u8x8_d_lc7981.c ****   /* pixel_height = */ 64
 428:..\..\..\..\..\..\Dev\Library embedded l2c display\u8g2\csrc/u8x8_d_lc7981.c **** };
 429:..\..\..\..\..\..\Dev\Library embedded l2c display\u8g2\csrc/u8x8_d_lc7981.c **** 
 430:..\..\..\..\..\..\Dev\Library embedded l2c display\u8g2\csrc/u8x8_d_lc7981.c **** static const uint8_t u8x8_d_lc7981_240x64_init_seq[] = {
 431:..\..\..\..\..\..\Dev\Library embedded l2c display\u8g2\csrc/u8x8_d_lc7981.c ****     
 432:..\..\..\..\..\..\Dev\Library embedded l2c display\u8g2\csrc/u8x8_d_lc7981.c ****   U8X8_START_TRANSFER(),             	/* enable chip, delay is part of the transfer start */
 433:..\..\..\..\..\..\Dev\Library embedded l2c display\u8g2\csrc/u8x8_d_lc7981.c ****   
 434:..\..\..\..\..\..\Dev\Library embedded l2c display\u8g2\csrc/u8x8_d_lc7981.c ****   U8X8_DLY(50),
 435:..\..\..\..\..\..\Dev\Library embedded l2c display\u8g2\csrc/u8x8_d_lc7981.c **** 
 436:..\..\..\..\..\..\Dev\Library embedded l2c display\u8g2\csrc/u8x8_d_lc7981.c ****   U8X8_CA(0x00, 0x32),			/* display on (bit 5), master mode on (bit 4), graphics mode on (bit 1) */
 437:..\..\..\..\..\..\Dev\Library embedded l2c display\u8g2\csrc/u8x8_d_lc7981.c ****   U8X8_CA(0x01, 0x07),			/* character/bits per pixel pitch */
 438:..\..\..\..\..\..\Dev\Library embedded l2c display\u8g2\csrc/u8x8_d_lc7981.c ****   U8X8_CA(0x02, 240/8-1),		/* number of chars/byte width of the screen */
 439:..\..\..\..\..\..\Dev\Library embedded l2c display\u8g2\csrc/u8x8_d_lc7981.c ****   U8X8_CA(0x03, 0x7f),			/* time division */
 440:..\..\..\..\..\..\Dev\Library embedded l2c display\u8g2\csrc/u8x8_d_lc7981.c ****   U8X8_CA(0x08, 0x00),			/* display start low */
 441:..\..\..\..\..\..\Dev\Library embedded l2c display\u8g2\csrc/u8x8_d_lc7981.c ****   U8X8_CA(0x09, 0x00),			/* display start high */
 442:..\..\..\..\..\..\Dev\Library embedded l2c display\u8g2\csrc/u8x8_d_lc7981.c **** 
 443:..\..\..\..\..\..\Dev\Library embedded l2c display\u8g2\csrc/u8x8_d_lc7981.c ****   U8X8_DLY(10),
 444:..\..\..\..\..\..\Dev\Library embedded l2c display\u8g2\csrc/u8x8_d_lc7981.c ****   
 445:..\..\..\..\..\..\Dev\Library embedded l2c display\u8g2\csrc/u8x8_d_lc7981.c ****   U8X8_END_TRANSFER(),             	/* disable chip */
 446:..\..\..\..\..\..\Dev\Library embedded l2c display\u8g2\csrc/u8x8_d_lc7981.c ****   U8X8_END()             			/* end of sequence */
 447:..\..\..\..\..\..\Dev\Library embedded l2c display\u8g2\csrc/u8x8_d_lc7981.c **** };
 448:..\..\..\..\..\..\Dev\Library embedded l2c display\u8g2\csrc/u8x8_d_lc7981.c **** 
 449:..\..\..\..\..\..\Dev\Library embedded l2c display\u8g2\csrc/u8x8_d_lc7981.c **** uint8_t u8x8_d_lc7981_240x64(u8x8_t *u8x8, uint8_t msg, uint8_t arg_int, void *arg_ptr)
 450:..\..\..\..\..\..\Dev\Library embedded l2c display\u8g2\csrc/u8x8_d_lc7981.c **** {
 434              		.loc 1 450 0
 435              		.cfi_startproc
 436              		@ args = 0, pretend = 0, frame = 0
 437              		@ frame_needed = 0, uses_anonymous_args = 0
 438              	.LVL53:
 439 0000 38B5     		push	{r3, r4, r5, lr}
 440              		.cfi_def_cfa_offset 16
 441              		.cfi_offset 3, -16
 442              		.cfi_offset 4, -12
 443              		.cfi_offset 5, -8
 444              		.cfi_offset 14, -4
ARM GAS  C:\Users\Abude\AppData\Local\Temp\cc3mc0Vg.s 			page 17


 445 0002 0546     		mov	r5, r0
 446 0004 0C46     		mov	r4, r1
 451:..\..\..\..\..\..\Dev\Library embedded l2c display\u8g2\csrc/u8x8_d_lc7981.c ****   /* call common procedure first and handle messages there */
 452:..\..\..\..\..\..\Dev\Library embedded l2c display\u8g2\csrc/u8x8_d_lc7981.c ****   if ( u8x8_d_lc7981_common(u8x8, msg, arg_int, arg_ptr) == 0 )
 447              		.loc 1 452 0
 448 0006 FFF7FEFF 		bl	u8x8_d_lc7981_common
 449              	.LVL54:
 450 000a A0B9     		cbnz	r0, .L41
 451 000c 0346     		mov	r3, r0
 453:..\..\..\..\..\..\Dev\Library embedded l2c display\u8g2\csrc/u8x8_d_lc7981.c ****   {
 454:..\..\..\..\..\..\Dev\Library embedded l2c display\u8g2\csrc/u8x8_d_lc7981.c ****     /* msg not handled, then try here */
 455:..\..\..\..\..\..\Dev\Library embedded l2c display\u8g2\csrc/u8x8_d_lc7981.c ****     switch(msg)
 452              		.loc 1 455 0
 453 000e 092C     		cmp	r4, #9
 454 0010 02D0     		beq	.L39
 455 0012 0A2C     		cmp	r4, #10
 456 0014 06D0     		beq	.L40
 457 0016 0FE0     		b	.L38
 458              	.L39:
 456:..\..\..\..\..\..\Dev\Library embedded l2c display\u8g2\csrc/u8x8_d_lc7981.c ****     {
 457:..\..\..\..\..\..\Dev\Library embedded l2c display\u8g2\csrc/u8x8_d_lc7981.c ****       case U8X8_MSG_DISPLAY_SETUP_MEMORY:
 458:..\..\..\..\..\..\Dev\Library embedded l2c display\u8g2\csrc/u8x8_d_lc7981.c **** 	u8x8_d_helper_display_setup_memory(u8x8, &u8x8_lc7981_240x64_display_info);
 459              		.loc 1 458 0
 460 0018 0849     		ldr	r1, .L43
 461 001a 2846     		mov	r0, r5
 462 001c FFF7FEFF 		bl	u8x8_d_helper_display_setup_memory
 463              	.LVL55:
 459:..\..\..\..\..\..\Dev\Library embedded l2c display\u8g2\csrc/u8x8_d_lc7981.c **** 	break;
 460:..\..\..\..\..\..\Dev\Library embedded l2c display\u8g2\csrc/u8x8_d_lc7981.c ****       case U8X8_MSG_DISPLAY_INIT:
 461:..\..\..\..\..\..\Dev\Library embedded l2c display\u8g2\csrc/u8x8_d_lc7981.c **** 	u8x8_d_helper_display_init(u8x8);
 462:..\..\..\..\..\..\Dev\Library embedded l2c display\u8g2\csrc/u8x8_d_lc7981.c **** 	u8x8_cad_SendSequence(u8x8, u8x8_d_lc7981_240x64_init_seq);
 463:..\..\..\..\..\..\Dev\Library embedded l2c display\u8g2\csrc/u8x8_d_lc7981.c **** 	break;
 464:..\..\..\..\..\..\Dev\Library embedded l2c display\u8g2\csrc/u8x8_d_lc7981.c ****       default:
 465:..\..\..\..\..\..\Dev\Library embedded l2c display\u8g2\csrc/u8x8_d_lc7981.c **** 	return 0;		/* msg unknown */
 466:..\..\..\..\..\..\Dev\Library embedded l2c display\u8g2\csrc/u8x8_d_lc7981.c ****     }
 467:..\..\..\..\..\..\Dev\Library embedded l2c display\u8g2\csrc/u8x8_d_lc7981.c ****   }
 468:..\..\..\..\..\..\Dev\Library embedded l2c display\u8g2\csrc/u8x8_d_lc7981.c ****   return 1;
 464              		.loc 1 468 0
 465 0020 0123     		movs	r3, #1
 459:..\..\..\..\..\..\Dev\Library embedded l2c display\u8g2\csrc/u8x8_d_lc7981.c **** 	break;
 466              		.loc 1 459 0
 467 0022 09E0     		b	.L38
 468              	.L40:
 461:..\..\..\..\..\..\Dev\Library embedded l2c display\u8g2\csrc/u8x8_d_lc7981.c **** 	u8x8_cad_SendSequence(u8x8, u8x8_d_lc7981_240x64_init_seq);
 469              		.loc 1 461 0
 470 0024 2846     		mov	r0, r5
 471 0026 FFF7FEFF 		bl	u8x8_d_helper_display_init
 472              	.LVL56:
 462:..\..\..\..\..\..\Dev\Library embedded l2c display\u8g2\csrc/u8x8_d_lc7981.c **** 	break;
 473              		.loc 1 462 0
 474 002a 0549     		ldr	r1, .L43+4
 475 002c 2846     		mov	r0, r5
 476 002e FFF7FEFF 		bl	u8x8_cad_SendSequence
 477              	.LVL57:
 478              		.loc 1 468 0
 479 0032 0123     		movs	r3, #1
 463:..\..\..\..\..\..\Dev\Library embedded l2c display\u8g2\csrc/u8x8_d_lc7981.c ****       default:
ARM GAS  C:\Users\Abude\AppData\Local\Temp\cc3mc0Vg.s 			page 18


 480              		.loc 1 463 0
 481 0034 00E0     		b	.L38
 482              	.L41:
 483              		.loc 1 468 0
 484 0036 0123     		movs	r3, #1
 485              	.L38:
 469:..\..\..\..\..\..\Dev\Library embedded l2c display\u8g2\csrc/u8x8_d_lc7981.c **** }
 486              		.loc 1 469 0
 487 0038 1846     		mov	r0, r3
 488 003a 38BD     		pop	{r3, r4, r5, pc}
 489              	.LVL58:
 490              	.L44:
 491              		.align	2
 492              	.L43:
 493 003c A8000000 		.word	.LANCHOR0+168
 494 0040 C0000000 		.word	.LANCHOR0+192
 495              		.cfi_endproc
 496              	.LFE5:
 497              		.size	u8x8_d_lc7981_240x64, .-u8x8_d_lc7981_240x64
 498              		.section	.rodata
 499              		.align	2
 500              		.set	.LANCHOR0,. + 0
 501              		.type	u8x8_lc7981_160x80_display_info, %object
 502              		.size	u8x8_lc7981_160x80_display_info, 24
 503              	u8x8_lc7981_160x80_display_info:
 504 0000 00       		.byte	0
 505 0001 01       		.byte	1
 506 0002 14       		.byte	20
 507 0003 14       		.byte	20
 508 0004 01       		.byte	1
 509 0005 0A       		.byte	10
 510 0006 1E       		.byte	30
 511 0007 41       		.byte	65
 512 0008 00093D00 		.word	4000000
 513 000c 00       		.byte	0
 514 000d 04       		.byte	4
 515 000e DC       		.byte	-36
 516 000f 14       		.byte	20
 517 0010 14       		.byte	20
 518 0011 0A       		.byte	10
 519 0012 00       		.byte	0
 520 0013 00       		.byte	0
 521 0014 A000     		.short	160
 522 0016 5000     		.short	80
 523              		.type	u8x8_d_lc7981_160x80_init_seq, %object
 524              		.size	u8x8_d_lc7981_160x80_init_seq, 31
 525              	u8x8_d_lc7981_160x80_init_seq:
 526 0018 18       		.byte	24
 527 0019 FE       		.byte	-2
 528 001a 32       		.byte	50
 529 001b 15       		.byte	21
 530 001c 00       		.byte	0
 531 001d 16       		.byte	22
 532 001e 32       		.byte	50
 533 001f 15       		.byte	21
 534 0020 01       		.byte	1
 535 0021 16       		.byte	22
ARM GAS  C:\Users\Abude\AppData\Local\Temp\cc3mc0Vg.s 			page 19


 536 0022 07       		.byte	7
 537 0023 15       		.byte	21
 538 0024 02       		.byte	2
 539 0025 16       		.byte	22
 540 0026 13       		.byte	19
 541 0027 15       		.byte	21
 542 0028 03       		.byte	3
 543 0029 16       		.byte	22
 544 002a 50       		.byte	80
 545 002b 15       		.byte	21
 546 002c 08       		.byte	8
 547 002d 16       		.byte	22
 548 002e 00       		.byte	0
 549 002f 15       		.byte	21
 550 0030 09       		.byte	9
 551 0031 16       		.byte	22
 552 0032 00       		.byte	0
 553 0033 FE       		.byte	-2
 554 0034 0A       		.byte	10
 555 0035 19       		.byte	25
 556 0036 FF       		.byte	-1
 557 0037 00       		.space	1
 558              		.type	u8x8_lc7981_160x160_display_info, %object
 559              		.size	u8x8_lc7981_160x160_display_info, 24
 560              	u8x8_lc7981_160x160_display_info:
 561 0038 00       		.byte	0
 562 0039 01       		.byte	1
 563 003a 14       		.byte	20
 564 003b 14       		.byte	20
 565 003c 01       		.byte	1
 566 003d 0A       		.byte	10
 567 003e 1E       		.byte	30
 568 003f 41       		.byte	65
 569 0040 00093D00 		.word	4000000
 570 0044 00       		.byte	0
 571 0045 04       		.byte	4
 572 0046 DC       		.byte	-36
 573 0047 14       		.byte	20
 574 0048 14       		.byte	20
 575 0049 14       		.byte	20
 576 004a 00       		.byte	0
 577 004b 00       		.byte	0
 578 004c A000     		.short	160
 579 004e A000     		.short	160
 580              		.type	u8x8_d_lc7981_160x160_init_seq, %object
 581              		.size	u8x8_d_lc7981_160x160_init_seq, 31
 582              	u8x8_d_lc7981_160x160_init_seq:
 583 0050 18       		.byte	24
 584 0051 FE       		.byte	-2
 585 0052 32       		.byte	50
 586 0053 15       		.byte	21
 587 0054 00       		.byte	0
 588 0055 16       		.byte	22
 589 0056 32       		.byte	50
 590 0057 15       		.byte	21
 591 0058 01       		.byte	1
 592 0059 16       		.byte	22
ARM GAS  C:\Users\Abude\AppData\Local\Temp\cc3mc0Vg.s 			page 20


 593 005a 07       		.byte	7
 594 005b 15       		.byte	21
 595 005c 02       		.byte	2
 596 005d 16       		.byte	22
 597 005e 13       		.byte	19
 598 005f 15       		.byte	21
 599 0060 03       		.byte	3
 600 0061 16       		.byte	22
 601 0062 9F       		.byte	-97
 602 0063 15       		.byte	21
 603 0064 08       		.byte	8
 604 0065 16       		.byte	22
 605 0066 00       		.byte	0
 606 0067 15       		.byte	21
 607 0068 09       		.byte	9
 608 0069 16       		.byte	22
 609 006a 00       		.byte	0
 610 006b FE       		.byte	-2
 611 006c 0A       		.byte	10
 612 006d 19       		.byte	25
 613 006e FF       		.byte	-1
 614 006f 00       		.space	1
 615              		.type	u8x8_lc7981_240x128_display_info, %object
 616              		.size	u8x8_lc7981_240x128_display_info, 24
 617              	u8x8_lc7981_240x128_display_info:
 618 0070 00       		.byte	0
 619 0071 01       		.byte	1
 620 0072 14       		.byte	20
 621 0073 14       		.byte	20
 622 0074 01       		.byte	1
 623 0075 0A       		.byte	10
 624 0076 1E       		.byte	30
 625 0077 41       		.byte	65
 626 0078 00093D00 		.word	4000000
 627 007c 00       		.byte	0
 628 007d 04       		.byte	4
 629 007e DC       		.byte	-36
 630 007f 14       		.byte	20
 631 0080 1E       		.byte	30
 632 0081 10       		.byte	16
 633 0082 00       		.byte	0
 634 0083 00       		.byte	0
 635 0084 F000     		.short	240
 636 0086 8000     		.short	128
 637              		.type	u8x8_d_lc7981_240x128_init_seq, %object
 638              		.size	u8x8_d_lc7981_240x128_init_seq, 31
 639              	u8x8_d_lc7981_240x128_init_seq:
 640 0088 18       		.byte	24
 641 0089 FE       		.byte	-2
 642 008a 32       		.byte	50
 643 008b 15       		.byte	21
 644 008c 00       		.byte	0
 645 008d 16       		.byte	22
 646 008e 32       		.byte	50
 647 008f 15       		.byte	21
 648 0090 01       		.byte	1
 649 0091 16       		.byte	22
ARM GAS  C:\Users\Abude\AppData\Local\Temp\cc3mc0Vg.s 			page 21


 650 0092 07       		.byte	7
 651 0093 15       		.byte	21
 652 0094 02       		.byte	2
 653 0095 16       		.byte	22
 654 0096 1D       		.byte	29
 655 0097 15       		.byte	21
 656 0098 03       		.byte	3
 657 0099 16       		.byte	22
 658 009a 80       		.byte	-128
 659 009b 15       		.byte	21
 660 009c 08       		.byte	8
 661 009d 16       		.byte	22
 662 009e 00       		.byte	0
 663 009f 15       		.byte	21
 664 00a0 09       		.byte	9
 665 00a1 16       		.byte	22
 666 00a2 00       		.byte	0
 667 00a3 FE       		.byte	-2
 668 00a4 0A       		.byte	10
 669 00a5 19       		.byte	25
 670 00a6 FF       		.byte	-1
 671 00a7 00       		.space	1
 672              		.type	u8x8_lc7981_240x64_display_info, %object
 673              		.size	u8x8_lc7981_240x64_display_info, 24
 674              	u8x8_lc7981_240x64_display_info:
 675 00a8 00       		.byte	0
 676 00a9 01       		.byte	1
 677 00aa 14       		.byte	20
 678 00ab 14       		.byte	20
 679 00ac 01       		.byte	1
 680 00ad 0A       		.byte	10
 681 00ae 1E       		.byte	30
 682 00af 41       		.byte	65
 683 00b0 00093D00 		.word	4000000
 684 00b4 00       		.byte	0
 685 00b5 04       		.byte	4
 686 00b6 DC       		.byte	-36
 687 00b7 14       		.byte	20
 688 00b8 1E       		.byte	30
 689 00b9 08       		.byte	8
 690 00ba 00       		.byte	0
 691 00bb 00       		.byte	0
 692 00bc F000     		.short	240
 693 00be 4000     		.short	64
 694              		.type	u8x8_d_lc7981_240x64_init_seq, %object
 695              		.size	u8x8_d_lc7981_240x64_init_seq, 31
 696              	u8x8_d_lc7981_240x64_init_seq:
 697 00c0 18       		.byte	24
 698 00c1 FE       		.byte	-2
 699 00c2 32       		.byte	50
 700 00c3 15       		.byte	21
 701 00c4 00       		.byte	0
 702 00c5 16       		.byte	22
 703 00c6 32       		.byte	50
 704 00c7 15       		.byte	21
 705 00c8 01       		.byte	1
 706 00c9 16       		.byte	22
ARM GAS  C:\Users\Abude\AppData\Local\Temp\cc3mc0Vg.s 			page 22


 707 00ca 07       		.byte	7
 708 00cb 15       		.byte	21
 709 00cc 02       		.byte	2
 710 00cd 16       		.byte	22
 711 00ce 1D       		.byte	29
 712 00cf 15       		.byte	21
 713 00d0 03       		.byte	3
 714 00d1 16       		.byte	22
 715 00d2 7F       		.byte	127
 716 00d3 15       		.byte	21
 717 00d4 08       		.byte	8
 718 00d5 16       		.byte	22
 719 00d6 00       		.byte	0
 720 00d7 15       		.byte	21
 721 00d8 09       		.byte	9
 722 00d9 16       		.byte	22
 723 00da 00       		.byte	0
 724 00db FE       		.byte	-2
 725 00dc 0A       		.byte	10
 726 00dd 19       		.byte	25
 727 00de FF       		.byte	-1
 728              		.text
 729              	.Letext0:
 730              		.file 2 "c:\\program files (x86)\\cypress\\psoc creator\\4.4\\psoc creator\\import\\gnu\\arm\\5.4.
 731              		.file 3 "c:\\program files (x86)\\cypress\\psoc creator\\4.4\\psoc creator\\import\\gnu\\arm\\5.4.
 732              		.file 4 "c:\\dev\\library embedded l2c display\\u8g2\\csrc\\u8x8.h"