ARM GAS  C:\Users\Abude\AppData\Local\Temp\cchaKcyE.s 			page 1


   1              		.syntax unified
   2              		.cpu cortex-m3
   3              		.fpu softvfp
   4              		.eabi_attribute 20, 1
   5              		.eabi_attribute 21, 1
   6              		.eabi_attribute 23, 3
   7              		.eabi_attribute 24, 1
   8              		.eabi_attribute 25, 1
   9              		.eabi_attribute 26, 1
  10              		.eabi_attribute 30, 1
  11              		.eabi_attribute 34, 1
  12              		.eabi_attribute 18, 4
  13              		.thumb
  14              		.syntax unified
  15              		.file	"u8x8_d_st7588.c"
  16              		.text
  17              	.Ltext0:
  18              		.cfi_sections	.debug_frame
  19              		.section	.text.u8x8_d_st7588_128x64_generic,"ax",%progbits
  20              		.align	2
  21              		.thumb
  22              		.thumb_func
  23              		.type	u8x8_d_st7588_128x64_generic, %function
  24              	u8x8_d_st7588_128x64_generic:
  25              	.LFB0:
  26              		.file 1 "..\\..\\..\\..\\..\\..\\Dev\\Library embedded l2c display\\u8g2\\csrc\\u8x8_d_st7588.c"
   1:..\..\..\..\..\..\Dev\Library embedded l2c display\u8g2\csrc/u8x8_d_st7588.c **** /*
   2:..\..\..\..\..\..\Dev\Library embedded l2c display\u8g2\csrc/u8x8_d_st7588.c **** 
   3:..\..\..\..\..\..\Dev\Library embedded l2c display\u8g2\csrc/u8x8_d_st7588.c ****   u8x8_d_st7588.c
   4:..\..\..\..\..\..\Dev\Library embedded l2c display\u8g2\csrc/u8x8_d_st7588.c **** 
   5:..\..\..\..\..\..\Dev\Library embedded l2c display\u8g2\csrc/u8x8_d_st7588.c ****   Universal 8bit Graphics Library (https://github.com/olikraus/u8g2/)
   6:..\..\..\..\..\..\Dev\Library embedded l2c display\u8g2\csrc/u8x8_d_st7588.c **** 
   7:..\..\..\..\..\..\Dev\Library embedded l2c display\u8g2\csrc/u8x8_d_st7588.c ****   Copyright (c) 2017, olikraus@gmail.com
   8:..\..\..\..\..\..\Dev\Library embedded l2c display\u8g2\csrc/u8x8_d_st7588.c ****   All rights reserved.
   9:..\..\..\..\..\..\Dev\Library embedded l2c display\u8g2\csrc/u8x8_d_st7588.c **** 
  10:..\..\..\..\..\..\Dev\Library embedded l2c display\u8g2\csrc/u8x8_d_st7588.c ****   Redistribution and use in source and binary forms, with or without modification, 
  11:..\..\..\..\..\..\Dev\Library embedded l2c display\u8g2\csrc/u8x8_d_st7588.c ****   are permitted provided that the following conditions are met:
  12:..\..\..\..\..\..\Dev\Library embedded l2c display\u8g2\csrc/u8x8_d_st7588.c **** 
  13:..\..\..\..\..\..\Dev\Library embedded l2c display\u8g2\csrc/u8x8_d_st7588.c ****   * Redistributions of source code must retain the above copyright notice, this list 
  14:..\..\..\..\..\..\Dev\Library embedded l2c display\u8g2\csrc/u8x8_d_st7588.c ****     of conditions and the following disclaimer.
  15:..\..\..\..\..\..\Dev\Library embedded l2c display\u8g2\csrc/u8x8_d_st7588.c ****     
  16:..\..\..\..\..\..\Dev\Library embedded l2c display\u8g2\csrc/u8x8_d_st7588.c ****   * Redistributions in binary form must reproduce the above copyright notice, this 
  17:..\..\..\..\..\..\Dev\Library embedded l2c display\u8g2\csrc/u8x8_d_st7588.c ****     list of conditions and the following disclaimer in the documentation and/or other 
  18:..\..\..\..\..\..\Dev\Library embedded l2c display\u8g2\csrc/u8x8_d_st7588.c ****     materials provided with the distribution.
  19:..\..\..\..\..\..\Dev\Library embedded l2c display\u8g2\csrc/u8x8_d_st7588.c **** 
  20:..\..\..\..\..\..\Dev\Library embedded l2c display\u8g2\csrc/u8x8_d_st7588.c ****   THIS SOFTWARE IS PROVIDED BY THE COPYRIGHT HOLDERS AND 
  21:..\..\..\..\..\..\Dev\Library embedded l2c display\u8g2\csrc/u8x8_d_st7588.c ****   CONTRIBUTORS "AS IS" AND ANY EXPRESS OR IMPLIED WARRANTIES, 
  22:..\..\..\..\..\..\Dev\Library embedded l2c display\u8g2\csrc/u8x8_d_st7588.c ****   INCLUDING, BUT NOT LIMITED TO, THE IMPLIED WARRANTIES OF 
  23:..\..\..\..\..\..\Dev\Library embedded l2c display\u8g2\csrc/u8x8_d_st7588.c ****   MERCHANTABILITY AND FITNESS FOR A PARTICULAR PURPOSE ARE 
  24:..\..\..\..\..\..\Dev\Library embedded l2c display\u8g2\csrc/u8x8_d_st7588.c ****   DISCLAIMED. IN NO EVENT SHALL THE COPYRIGHT HOLDER OR 
  25:..\..\..\..\..\..\Dev\Library embedded l2c display\u8g2\csrc/u8x8_d_st7588.c ****   CONTRIBUTORS BE LIABLE FOR ANY DIRECT, INDIRECT, INCIDENTAL, 
  26:..\..\..\..\..\..\Dev\Library embedded l2c display\u8g2\csrc/u8x8_d_st7588.c ****   SPECIAL, EXEMPLARY, OR CONSEQUENTIAL DAMAGES (INCLUDING, BUT 
  27:..\..\..\..\..\..\Dev\Library embedded l2c display\u8g2\csrc/u8x8_d_st7588.c ****   NOT LIMITED TO, PROCUREMENT OF SUBSTITUTE GOODS OR SERVICES; 
  28:..\..\..\..\..\..\Dev\Library embedded l2c display\u8g2\csrc/u8x8_d_st7588.c ****   LOSS OF USE, DATA, OR PROFITS; OR BUSINESS INTERRUPTION) HOWEVER 
  29:..\..\..\..\..\..\Dev\Library embedded l2c display\u8g2\csrc/u8x8_d_st7588.c ****   CAUSED AND ON ANY THEORY OF LIABILITY, WHETHER IN CONTRACT, 
  30:..\..\..\..\..\..\Dev\Library embedded l2c display\u8g2\csrc/u8x8_d_st7588.c ****   STRICT LIABILITY, OR TORT (INCLUDING NEGLIGENCE OR OTHERWISE) 
  31:..\..\..\..\..\..\Dev\Library embedded l2c display\u8g2\csrc/u8x8_d_st7588.c ****   ARISING IN ANY WAY OUT OF THE USE OF THIS SOFTWARE, EVEN IF 
ARM GAS  C:\Users\Abude\AppData\Local\Temp\cchaKcyE.s 			page 2


  32:..\..\..\..\..\..\Dev\Library embedded l2c display\u8g2\csrc/u8x8_d_st7588.c ****   ADVISED OF THE POSSIBILITY OF SUCH DAMAGE.  
  33:..\..\..\..\..\..\Dev\Library embedded l2c display\u8g2\csrc/u8x8_d_st7588.c ****   
  34:..\..\..\..\..\..\Dev\Library embedded l2c display\u8g2\csrc/u8x8_d_st7588.c ****   ST7588
  35:..\..\..\..\..\..\Dev\Library embedded l2c display\u8g2\csrc/u8x8_d_st7588.c ****     - has 4 different I2C addresses 
  36:..\..\..\..\..\..\Dev\Library embedded l2c display\u8g2\csrc/u8x8_d_st7588.c ****     - I2C protocol is identical to SSD13xx
  37:..\..\..\..\..\..\Dev\Library embedded l2c display\u8g2\csrc/u8x8_d_st7588.c ****   
  38:..\..\..\..\..\..\Dev\Library embedded l2c display\u8g2\csrc/u8x8_d_st7588.c **** */
  39:..\..\..\..\..\..\Dev\Library embedded l2c display\u8g2\csrc/u8x8_d_st7588.c **** 
  40:..\..\..\..\..\..\Dev\Library embedded l2c display\u8g2\csrc/u8x8_d_st7588.c **** 
  41:..\..\..\..\..\..\Dev\Library embedded l2c display\u8g2\csrc/u8x8_d_st7588.c **** #include "u8x8.h"
  42:..\..\..\..\..\..\Dev\Library embedded l2c display\u8g2\csrc/u8x8_d_st7588.c **** 
  43:..\..\..\..\..\..\Dev\Library embedded l2c display\u8g2\csrc/u8x8_d_st7588.c **** /* function set, bit 2: power down, bit 3: MY, bit 4: MX, bit 5: must be 1 */
  44:..\..\..\..\..\..\Dev\Library embedded l2c display\u8g2\csrc/u8x8_d_st7588.c **** #define FS (0x020)
  45:..\..\..\..\..\..\Dev\Library embedded l2c display\u8g2\csrc/u8x8_d_st7588.c **** 
  46:..\..\..\..\..\..\Dev\Library embedded l2c display\u8g2\csrc/u8x8_d_st7588.c **** /* not a real power down for the ST7588... just a display off */
  47:..\..\..\..\..\..\Dev\Library embedded l2c display\u8g2\csrc/u8x8_d_st7588.c **** static const uint8_t u8x8_d_st7588_128x64_powersave0_seq[] = {
  48:..\..\..\..\..\..\Dev\Library embedded l2c display\u8g2\csrc/u8x8_d_st7588.c ****   U8X8_START_TRANSFER(),             	/* enable chip, delay is part of the transfer start */
  49:..\..\..\..\..\..\Dev\Library embedded l2c display\u8g2\csrc/u8x8_d_st7588.c ****   U8X8_C( FS | 0x00 ),			/* select 00 commands */
  50:..\..\..\..\..\..\Dev\Library embedded l2c display\u8g2\csrc/u8x8_d_st7588.c ****   //U8X8_C( 0x08 ),				/* display off */
  51:..\..\..\..\..\..\Dev\Library embedded l2c display\u8g2\csrc/u8x8_d_st7588.c ****   U8X8_C( 0x0c ),				/* display on */
  52:..\..\..\..\..\..\Dev\Library embedded l2c display\u8g2\csrc/u8x8_d_st7588.c ****   U8X8_END_TRANSFER(),             	/* disable chip */
  53:..\..\..\..\..\..\Dev\Library embedded l2c display\u8g2\csrc/u8x8_d_st7588.c ****   U8X8_END()             			/* end of sequence */
  54:..\..\..\..\..\..\Dev\Library embedded l2c display\u8g2\csrc/u8x8_d_st7588.c **** };
  55:..\..\..\..\..\..\Dev\Library embedded l2c display\u8g2\csrc/u8x8_d_st7588.c **** 
  56:..\..\..\..\..\..\Dev\Library embedded l2c display\u8g2\csrc/u8x8_d_st7588.c **** static const uint8_t u8x8_d_st7588_128x64_powersave1_seq[] = {
  57:..\..\..\..\..\..\Dev\Library embedded l2c display\u8g2\csrc/u8x8_d_st7588.c ****   U8X8_START_TRANSFER(),             	/* enable chip, delay is part of the transfer start */
  58:..\..\..\..\..\..\Dev\Library embedded l2c display\u8g2\csrc/u8x8_d_st7588.c ****   U8X8_C( FS | 0x00 ),			/* select 00 commands */
  59:..\..\..\..\..\..\Dev\Library embedded l2c display\u8g2\csrc/u8x8_d_st7588.c ****   U8X8_C( 0x08 ),				/* display off */
  60:..\..\..\..\..\..\Dev\Library embedded l2c display\u8g2\csrc/u8x8_d_st7588.c ****   //U8X8_C( 0x0c ),				/* display on */
  61:..\..\..\..\..\..\Dev\Library embedded l2c display\u8g2\csrc/u8x8_d_st7588.c ****   U8X8_END_TRANSFER(),             	/* disable chip */
  62:..\..\..\..\..\..\Dev\Library embedded l2c display\u8g2\csrc/u8x8_d_st7588.c ****   U8X8_END()             			/* end of sequence */
  63:..\..\..\..\..\..\Dev\Library embedded l2c display\u8g2\csrc/u8x8_d_st7588.c **** };
  64:..\..\..\..\..\..\Dev\Library embedded l2c display\u8g2\csrc/u8x8_d_st7588.c **** 
  65:..\..\..\..\..\..\Dev\Library embedded l2c display\u8g2\csrc/u8x8_d_st7588.c **** 
  66:..\..\..\..\..\..\Dev\Library embedded l2c display\u8g2\csrc/u8x8_d_st7588.c **** 
  67:..\..\..\..\..\..\Dev\Library embedded l2c display\u8g2\csrc/u8x8_d_st7588.c **** 
  68:..\..\..\..\..\..\Dev\Library embedded l2c display\u8g2\csrc/u8x8_d_st7588.c **** static uint8_t u8x8_d_st7588_128x64_generic(u8x8_t *u8x8, uint8_t msg, uint8_t arg_int, void *arg_p
  69:..\..\..\..\..\..\Dev\Library embedded l2c display\u8g2\csrc/u8x8_d_st7588.c **** {
  27              		.loc 1 69 0
  28              		.cfi_startproc
  29              		@ args = 0, pretend = 0, frame = 0
  30              		@ frame_needed = 0, uses_anonymous_args = 0
  31              	.LVL0:
  32 0000 F8B5     		push	{r3, r4, r5, r6, r7, lr}
  33              		.cfi_def_cfa_offset 24
  34              		.cfi_offset 3, -24
  35              		.cfi_offset 4, -20
  36              		.cfi_offset 5, -16
  37              		.cfi_offset 6, -12
  38              		.cfi_offset 7, -8
  39              		.cfi_offset 14, -4
  40 0002 0546     		mov	r5, r0
  41 0004 1446     		mov	r4, r2
  70:..\..\..\..\..\..\Dev\Library embedded l2c display\u8g2\csrc/u8x8_d_st7588.c ****   uint8_t x, c;
  71:..\..\..\..\..\..\Dev\Library embedded l2c display\u8g2\csrc/u8x8_d_st7588.c ****   uint8_t *ptr;
  72:..\..\..\..\..\..\Dev\Library embedded l2c display\u8g2\csrc/u8x8_d_st7588.c ****   switch(msg)
  42              		.loc 1 72 0
ARM GAS  C:\Users\Abude\AppData\Local\Temp\cchaKcyE.s 			page 3


  43 0006 0E29     		cmp	r1, #14
  44 0008 1BD0     		beq	.L3
  45 000a 1E46     		mov	r6, r3
  46 000c 0F29     		cmp	r1, #15
  47 000e 3ED0     		beq	.L4
  48 0010 0B29     		cmp	r1, #11
  49 0012 73D1     		bne	.L15
  73:..\..\..\..\..\..\Dev\Library embedded l2c display\u8g2\csrc/u8x8_d_st7588.c ****   {
  74:..\..\..\..\..\..\Dev\Library embedded l2c display\u8g2\csrc/u8x8_d_st7588.c ****     /* handled by the calling function
  75:..\..\..\..\..\..\Dev\Library embedded l2c display\u8g2\csrc/u8x8_d_st7588.c ****     case U8X8_MSG_DISPLAY_SETUP_MEMORY:
  76:..\..\..\..\..\..\Dev\Library embedded l2c display\u8g2\csrc/u8x8_d_st7588.c ****       u8x8_d_helper_display_setup_memory(u8x8, &u8x8_st7588_128x64_display_info);
  77:..\..\..\..\..\..\Dev\Library embedded l2c display\u8g2\csrc/u8x8_d_st7588.c ****       break;
  78:..\..\..\..\..\..\Dev\Library embedded l2c display\u8g2\csrc/u8x8_d_st7588.c ****     */
  79:..\..\..\..\..\..\Dev\Library embedded l2c display\u8g2\csrc/u8x8_d_st7588.c ****     /* handled by the calling function
  80:..\..\..\..\..\..\Dev\Library embedded l2c display\u8g2\csrc/u8x8_d_st7588.c ****     case U8X8_MSG_DISPLAY_INIT:
  81:..\..\..\..\..\..\Dev\Library embedded l2c display\u8g2\csrc/u8x8_d_st7588.c ****       u8x8_d_helper_display_init(u8x8);
  82:..\..\..\..\..\..\Dev\Library embedded l2c display\u8g2\csrc/u8x8_d_st7588.c ****       u8x8_cad_SendSequence(u8x8, u8x8_d_st7588_128x64_init_seq);    
  83:..\..\..\..\..\..\Dev\Library embedded l2c display\u8g2\csrc/u8x8_d_st7588.c ****       break;
  84:..\..\..\..\..\..\Dev\Library embedded l2c display\u8g2\csrc/u8x8_d_st7588.c ****     */
  85:..\..\..\..\..\..\Dev\Library embedded l2c display\u8g2\csrc/u8x8_d_st7588.c ****     case U8X8_MSG_DISPLAY_SET_POWER_SAVE:
  86:..\..\..\..\..\..\Dev\Library embedded l2c display\u8g2\csrc/u8x8_d_st7588.c ****       if ( arg_int == 0 )
  50              		.loc 1 86 0
  51 0014 1AB9     		cbnz	r2, .L6
  87:..\..\..\..\..\..\Dev\Library embedded l2c display\u8g2\csrc/u8x8_d_st7588.c **** 	u8x8_cad_SendSequence(u8x8, u8x8_d_st7588_128x64_powersave0_seq);
  52              		.loc 1 87 0
  53 0016 3A49     		ldr	r1, .L17
  54              	.LVL1:
  55 0018 FFF7FEFF 		bl	u8x8_cad_SendSequence
  56              	.LVL2:
  57 001c 02E0     		b	.L7
  58              	.LVL3:
  59              	.L6:
  88:..\..\..\..\..\..\Dev\Library embedded l2c display\u8g2\csrc/u8x8_d_st7588.c ****       else
  89:..\..\..\..\..\..\Dev\Library embedded l2c display\u8g2\csrc/u8x8_d_st7588.c **** 	u8x8_cad_SendSequence(u8x8, u8x8_d_st7588_128x64_powersave1_seq);
  60              		.loc 1 89 0
  61 001e 3949     		ldr	r1, .L17+4
  62              	.LVL4:
  63 0020 FFF7FEFF 		bl	u8x8_cad_SendSequence
  64              	.LVL5:
  65              	.L7:
  90:..\..\..\..\..\..\Dev\Library embedded l2c display\u8g2\csrc/u8x8_d_st7588.c **** 
  91:..\..\..\..\..\..\Dev\Library embedded l2c display\u8g2\csrc/u8x8_d_st7588.c ****       /* restore orientation */
  92:..\..\..\..\..\..\Dev\Library embedded l2c display\u8g2\csrc/u8x8_d_st7588.c ****       if ( u8x8->x_offset == 0 )
  66              		.loc 1 92 0
  67 0024 95F82230 		ldrb	r3, [r5, #34]	@ zero_extendqisi2
  68 0028 2BB9     		cbnz	r3, .L8
  93:..\..\..\..\..\..\Dev\Library embedded l2c display\u8g2\csrc/u8x8_d_st7588.c **** 	u8x8_cad_SendCmd(u8x8, FS );	/* select 00 commands */
  69              		.loc 1 93 0
  70 002a 2021     		movs	r1, #32
  71 002c 2846     		mov	r0, r5
  72 002e FFF7FEFF 		bl	u8x8_cad_SendCmd
  73              	.LVL6:
  94:..\..\..\..\..\..\Dev\Library embedded l2c display\u8g2\csrc/u8x8_d_st7588.c ****       else
  95:..\..\..\..\..\..\Dev\Library embedded l2c display\u8g2\csrc/u8x8_d_st7588.c **** 	u8x8_cad_SendCmd(u8x8, FS ^ 0x018 );	/* select 00 commands */
  96:..\..\..\..\..\..\Dev\Library embedded l2c display\u8g2\csrc/u8x8_d_st7588.c ****       
  97:..\..\..\..\..\..\Dev\Library embedded l2c display\u8g2\csrc/u8x8_d_st7588.c ****       break;
  98:..\..\..\..\..\..\Dev\Library embedded l2c display\u8g2\csrc/u8x8_d_st7588.c **** #ifdef U8X8_WITH_SET_CONTRAST
ARM GAS  C:\Users\Abude\AppData\Local\Temp\cchaKcyE.s 			page 4


  99:..\..\..\..\..\..\Dev\Library embedded l2c display\u8g2\csrc/u8x8_d_st7588.c ****     case U8X8_MSG_DISPLAY_SET_CONTRAST:
 100:..\..\..\..\..\..\Dev\Library embedded l2c display\u8g2\csrc/u8x8_d_st7588.c **** 
 101:..\..\..\..\..\..\Dev\Library embedded l2c display\u8g2\csrc/u8x8_d_st7588.c ****       u8x8_cad_StartTransfer(u8x8);
 102:..\..\..\..\..\..\Dev\Library embedded l2c display\u8g2\csrc/u8x8_d_st7588.c ****       
 103:..\..\..\..\..\..\Dev\Library embedded l2c display\u8g2\csrc/u8x8_d_st7588.c ****       u8x8_cad_SendCmd(u8x8, FS );
 104:..\..\..\..\..\..\Dev\Library embedded l2c display\u8g2\csrc/u8x8_d_st7588.c ****       u8x8_cad_SendArg(u8x8, 4 | (arg_int>>7) );
 105:..\..\..\..\..\..\Dev\Library embedded l2c display\u8g2\csrc/u8x8_d_st7588.c ****       u8x8_cad_SendCmd(u8x8, FS | 1);
 106:..\..\..\..\..\..\Dev\Library embedded l2c display\u8g2\csrc/u8x8_d_st7588.c ****       u8x8_cad_SendArg(u8x8, 0x080 | arg_int );
 107:..\..\..\..\..\..\Dev\Library embedded l2c display\u8g2\csrc/u8x8_d_st7588.c ****       
 108:..\..\..\..\..\..\Dev\Library embedded l2c display\u8g2\csrc/u8x8_d_st7588.c ****       /* restore orientation */
 109:..\..\..\..\..\..\Dev\Library embedded l2c display\u8g2\csrc/u8x8_d_st7588.c ****       if ( u8x8->x_offset == 0 )
 110:..\..\..\..\..\..\Dev\Library embedded l2c display\u8g2\csrc/u8x8_d_st7588.c **** 	u8x8_cad_SendCmd(u8x8, FS );	/* select 00 commands */
 111:..\..\..\..\..\..\Dev\Library embedded l2c display\u8g2\csrc/u8x8_d_st7588.c ****       else
 112:..\..\..\..\..\..\Dev\Library embedded l2c display\u8g2\csrc/u8x8_d_st7588.c **** 	u8x8_cad_SendCmd(u8x8, FS ^ 0x018 );	/* select 00 commands */
 113:..\..\..\..\..\..\Dev\Library embedded l2c display\u8g2\csrc/u8x8_d_st7588.c ****       u8x8_cad_EndTransfer(u8x8);
 114:..\..\..\..\..\..\Dev\Library embedded l2c display\u8g2\csrc/u8x8_d_st7588.c ****       break;
 115:..\..\..\..\..\..\Dev\Library embedded l2c display\u8g2\csrc/u8x8_d_st7588.c **** #endif
 116:..\..\..\..\..\..\Dev\Library embedded l2c display\u8g2\csrc/u8x8_d_st7588.c ****     case U8X8_MSG_DISPLAY_DRAW_TILE:
 117:..\..\..\..\..\..\Dev\Library embedded l2c display\u8g2\csrc/u8x8_d_st7588.c ****       
 118:..\..\..\..\..\..\Dev\Library embedded l2c display\u8g2\csrc/u8x8_d_st7588.c ****       u8x8_cad_StartTransfer(u8x8);
 119:..\..\..\..\..\..\Dev\Library embedded l2c display\u8g2\csrc/u8x8_d_st7588.c ****       x = ((u8x8_tile_t *)arg_ptr)->x_pos;    
 120:..\..\..\..\..\..\Dev\Library embedded l2c display\u8g2\csrc/u8x8_d_st7588.c ****       x *= 8;
 121:..\..\..\..\..\..\Dev\Library embedded l2c display\u8g2\csrc/u8x8_d_st7588.c ****       
 122:..\..\..\..\..\..\Dev\Library embedded l2c display\u8g2\csrc/u8x8_d_st7588.c ****       x += u8x8->x_offset;
 123:..\..\..\..\..\..\Dev\Library embedded l2c display\u8g2\csrc/u8x8_d_st7588.c ****     
 124:..\..\..\..\..\..\Dev\Library embedded l2c display\u8g2\csrc/u8x8_d_st7588.c ****       if ( u8x8->x_offset == 0 )
 125:..\..\..\..\..\..\Dev\Library embedded l2c display\u8g2\csrc/u8x8_d_st7588.c **** 	u8x8_cad_SendCmd(u8x8, FS );	/* select 00 commands */
 126:..\..\..\..\..\..\Dev\Library embedded l2c display\u8g2\csrc/u8x8_d_st7588.c ****       else
 127:..\..\..\..\..\..\Dev\Library embedded l2c display\u8g2\csrc/u8x8_d_st7588.c **** 	u8x8_cad_SendCmd(u8x8, FS ^ 0x018 );	/* select 00 commands */
 128:..\..\..\..\..\..\Dev\Library embedded l2c display\u8g2\csrc/u8x8_d_st7588.c **** 	
 129:..\..\..\..\..\..\Dev\Library embedded l2c display\u8g2\csrc/u8x8_d_st7588.c ****       u8x8_cad_SendCmd(u8x8, 0x040 | (((u8x8_tile_t *)arg_ptr)->y_pos));
 130:..\..\..\..\..\..\Dev\Library embedded l2c display\u8g2\csrc/u8x8_d_st7588.c ****       u8x8_cad_SendCmd(u8x8, 0x0e0 | ((x&15)));
 131:..\..\..\..\..\..\Dev\Library embedded l2c display\u8g2\csrc/u8x8_d_st7588.c ****       u8x8_cad_SendCmd(u8x8, 0x0f0 | (x>>4) );
 132:..\..\..\..\..\..\Dev\Library embedded l2c display\u8g2\csrc/u8x8_d_st7588.c ****     
 133:..\..\..\..\..\..\Dev\Library embedded l2c display\u8g2\csrc/u8x8_d_st7588.c ****       
 134:..\..\..\..\..\..\Dev\Library embedded l2c display\u8g2\csrc/u8x8_d_st7588.c ****       do
 135:..\..\..\..\..\..\Dev\Library embedded l2c display\u8g2\csrc/u8x8_d_st7588.c ****       {
 136:..\..\..\..\..\..\Dev\Library embedded l2c display\u8g2\csrc/u8x8_d_st7588.c **** 	c = ((u8x8_tile_t *)arg_ptr)->cnt;
 137:..\..\..\..\..\..\Dev\Library embedded l2c display\u8g2\csrc/u8x8_d_st7588.c **** 	ptr = ((u8x8_tile_t *)arg_ptr)->tile_ptr;
 138:..\..\..\..\..\..\Dev\Library embedded l2c display\u8g2\csrc/u8x8_d_st7588.c **** 	u8x8_cad_SendData(u8x8, c*8, ptr); 	/* note: SendData can not handle more than 255 bytes */
 139:..\..\..\..\..\..\Dev\Library embedded l2c display\u8g2\csrc/u8x8_d_st7588.c **** 	arg_int--;
 140:..\..\..\..\..\..\Dev\Library embedded l2c display\u8g2\csrc/u8x8_d_st7588.c ****       } while( arg_int > 0 );
 141:..\..\..\..\..\..\Dev\Library embedded l2c display\u8g2\csrc/u8x8_d_st7588.c ****       
 142:..\..\..\..\..\..\Dev\Library embedded l2c display\u8g2\csrc/u8x8_d_st7588.c ****       u8x8_cad_EndTransfer(u8x8);
 143:..\..\..\..\..\..\Dev\Library embedded l2c display\u8g2\csrc/u8x8_d_st7588.c ****       break;
 144:..\..\..\..\..\..\Dev\Library embedded l2c display\u8g2\csrc/u8x8_d_st7588.c ****     default:
 145:..\..\..\..\..\..\Dev\Library embedded l2c display\u8g2\csrc/u8x8_d_st7588.c ****       return 0;
 146:..\..\..\..\..\..\Dev\Library embedded l2c display\u8g2\csrc/u8x8_d_st7588.c ****   }
 147:..\..\..\..\..\..\Dev\Library embedded l2c display\u8g2\csrc/u8x8_d_st7588.c ****   return 1;
  74              		.loc 1 147 0
  75 0032 0120     		movs	r0, #1
  76 0034 F8BD     		pop	{r3, r4, r5, r6, r7, pc}
  77              	.LVL7:
  78              	.L8:
  95:..\..\..\..\..\..\Dev\Library embedded l2c display\u8g2\csrc/u8x8_d_st7588.c ****       
  79              		.loc 1 95 0
  80 0036 3821     		movs	r1, #56
ARM GAS  C:\Users\Abude\AppData\Local\Temp\cchaKcyE.s 			page 5


  81 0038 2846     		mov	r0, r5
  82 003a FFF7FEFF 		bl	u8x8_cad_SendCmd
  83              	.LVL8:
  84              		.loc 1 147 0
  85 003e 0120     		movs	r0, #1
  86 0040 F8BD     		pop	{r3, r4, r5, r6, r7, pc}
  87              	.LVL9:
  88              	.L3:
 101:..\..\..\..\..\..\Dev\Library embedded l2c display\u8g2\csrc/u8x8_d_st7588.c ****       
  89              		.loc 1 101 0
  90 0042 FFF7FEFF 		bl	u8x8_cad_StartTransfer
  91              	.LVL10:
 103:..\..\..\..\..\..\Dev\Library embedded l2c display\u8g2\csrc/u8x8_d_st7588.c ****       u8x8_cad_SendArg(u8x8, 4 | (arg_int>>7) );
  92              		.loc 1 103 0
  93 0046 2021     		movs	r1, #32
  94 0048 2846     		mov	r0, r5
  95 004a FFF7FEFF 		bl	u8x8_cad_SendCmd
  96              	.LVL11:
 104:..\..\..\..\..\..\Dev\Library embedded l2c display\u8g2\csrc/u8x8_d_st7588.c ****       u8x8_cad_SendCmd(u8x8, FS | 1);
  97              		.loc 1 104 0
  98 004e E109     		lsrs	r1, r4, #7
  99 0050 41F00401 		orr	r1, r1, #4
 100 0054 2846     		mov	r0, r5
 101 0056 FFF7FEFF 		bl	u8x8_cad_SendArg
 102              	.LVL12:
 105:..\..\..\..\..\..\Dev\Library embedded l2c display\u8g2\csrc/u8x8_d_st7588.c ****       u8x8_cad_SendArg(u8x8, 0x080 | arg_int );
 103              		.loc 1 105 0
 104 005a 2121     		movs	r1, #33
 105 005c 2846     		mov	r0, r5
 106 005e FFF7FEFF 		bl	u8x8_cad_SendCmd
 107              	.LVL13:
 106:..\..\..\..\..\..\Dev\Library embedded l2c display\u8g2\csrc/u8x8_d_st7588.c ****       
 108              		.loc 1 106 0
 109 0062 44F08001 		orr	r1, r4, #128
 110 0066 2846     		mov	r0, r5
 111 0068 FFF7FEFF 		bl	u8x8_cad_SendArg
 112              	.LVL14:
 109:..\..\..\..\..\..\Dev\Library embedded l2c display\u8g2\csrc/u8x8_d_st7588.c **** 	u8x8_cad_SendCmd(u8x8, FS );	/* select 00 commands */
 113              		.loc 1 109 0
 114 006c 95F82230 		ldrb	r3, [r5, #34]	@ zero_extendqisi2
 115 0070 23B9     		cbnz	r3, .L9
 110:..\..\..\..\..\..\Dev\Library embedded l2c display\u8g2\csrc/u8x8_d_st7588.c ****       else
 116              		.loc 1 110 0
 117 0072 2021     		movs	r1, #32
 118 0074 2846     		mov	r0, r5
 119 0076 FFF7FEFF 		bl	u8x8_cad_SendCmd
 120              	.LVL15:
 121 007a 03E0     		b	.L10
 122              	.L9:
 112:..\..\..\..\..\..\Dev\Library embedded l2c display\u8g2\csrc/u8x8_d_st7588.c ****       u8x8_cad_EndTransfer(u8x8);
 123              		.loc 1 112 0
 124 007c 3821     		movs	r1, #56
 125 007e 2846     		mov	r0, r5
 126 0080 FFF7FEFF 		bl	u8x8_cad_SendCmd
 127              	.LVL16:
 128              	.L10:
 113:..\..\..\..\..\..\Dev\Library embedded l2c display\u8g2\csrc/u8x8_d_st7588.c ****       break;
ARM GAS  C:\Users\Abude\AppData\Local\Temp\cchaKcyE.s 			page 6


 129              		.loc 1 113 0
 130 0084 2846     		mov	r0, r5
 131 0086 FFF7FEFF 		bl	u8x8_cad_EndTransfer
 132              	.LVL17:
 133              		.loc 1 147 0
 134 008a 0120     		movs	r0, #1
 114:..\..\..\..\..\..\Dev\Library embedded l2c display\u8g2\csrc/u8x8_d_st7588.c **** #endif
 135              		.loc 1 114 0
 136 008c F8BD     		pop	{r3, r4, r5, r6, r7, pc}
 137              	.LVL18:
 138              	.L4:
 118:..\..\..\..\..\..\Dev\Library embedded l2c display\u8g2\csrc/u8x8_d_st7588.c ****       x = ((u8x8_tile_t *)arg_ptr)->x_pos;    
 139              		.loc 1 118 0
 140 008e FFF7FEFF 		bl	u8x8_cad_StartTransfer
 141              	.LVL19:
 119:..\..\..\..\..\..\Dev\Library embedded l2c display\u8g2\csrc/u8x8_d_st7588.c ****       x *= 8;
 142              		.loc 1 119 0
 143 0092 7779     		ldrb	r7, [r6, #5]	@ zero_extendqisi2
 144              	.LVL20:
 120:..\..\..\..\..\..\Dev\Library embedded l2c display\u8g2\csrc/u8x8_d_st7588.c ****       
 145              		.loc 1 120 0
 146 0094 FF00     		lsls	r7, r7, #3
 147              	.LVL21:
 148 0096 FFB2     		uxtb	r7, r7
 149              	.LVL22:
 122:..\..\..\..\..\..\Dev\Library embedded l2c display\u8g2\csrc/u8x8_d_st7588.c ****     
 150              		.loc 1 122 0
 151 0098 95F82230 		ldrb	r3, [r5, #34]	@ zero_extendqisi2
 152 009c 1F44     		add	r7, r7, r3
 153              	.LVL23:
 154 009e FFB2     		uxtb	r7, r7
 155              	.LVL24:
 124:..\..\..\..\..\..\Dev\Library embedded l2c display\u8g2\csrc/u8x8_d_st7588.c **** 	u8x8_cad_SendCmd(u8x8, FS );	/* select 00 commands */
 156              		.loc 1 124 0
 157 00a0 23B9     		cbnz	r3, .L11
 125:..\..\..\..\..\..\Dev\Library embedded l2c display\u8g2\csrc/u8x8_d_st7588.c ****       else
 158              		.loc 1 125 0
 159 00a2 2021     		movs	r1, #32
 160 00a4 2846     		mov	r0, r5
 161 00a6 FFF7FEFF 		bl	u8x8_cad_SendCmd
 162              	.LVL25:
 163 00aa 03E0     		b	.L12
 164              	.L11:
 127:..\..\..\..\..\..\Dev\Library embedded l2c display\u8g2\csrc/u8x8_d_st7588.c **** 	
 165              		.loc 1 127 0
 166 00ac 3821     		movs	r1, #56
 167 00ae 2846     		mov	r0, r5
 168 00b0 FFF7FEFF 		bl	u8x8_cad_SendCmd
 169              	.LVL26:
 170              	.L12:
 129:..\..\..\..\..\..\Dev\Library embedded l2c display\u8g2\csrc/u8x8_d_st7588.c ****       u8x8_cad_SendCmd(u8x8, 0x0e0 | ((x&15)));
 171              		.loc 1 129 0
 172 00b4 B179     		ldrb	r1, [r6, #6]	@ zero_extendqisi2
 173 00b6 41F04001 		orr	r1, r1, #64
 174 00ba 2846     		mov	r0, r5
 175 00bc FFF7FEFF 		bl	u8x8_cad_SendCmd
 176              	.LVL27:
ARM GAS  C:\Users\Abude\AppData\Local\Temp\cchaKcyE.s 			page 7


 130:..\..\..\..\..\..\Dev\Library embedded l2c display\u8g2\csrc/u8x8_d_st7588.c ****       u8x8_cad_SendCmd(u8x8, 0x0f0 | (x>>4) );
 177              		.loc 1 130 0
 178 00c0 07F00F01 		and	r1, r7, #15
 179 00c4 41F0E001 		orr	r1, r1, #224
 180 00c8 2846     		mov	r0, r5
 181 00ca FFF7FEFF 		bl	u8x8_cad_SendCmd
 182              	.LVL28:
 131:..\..\..\..\..\..\Dev\Library embedded l2c display\u8g2\csrc/u8x8_d_st7588.c ****     
 183              		.loc 1 131 0
 184 00ce 3909     		lsrs	r1, r7, #4
 185 00d0 41F0F001 		orr	r1, r1, #240
 186 00d4 2846     		mov	r0, r5
 187 00d6 FFF7FEFF 		bl	u8x8_cad_SendCmd
 188              	.LVL29:
 189              	.L13:
 136:..\..\..\..\..\..\Dev\Library embedded l2c display\u8g2\csrc/u8x8_d_st7588.c **** 	ptr = ((u8x8_tile_t *)arg_ptr)->tile_ptr;
 190              		.loc 1 136 0 discriminator 1
 191 00da 3179     		ldrb	r1, [r6, #4]	@ zero_extendqisi2
 192              	.LVL30:
 138:..\..\..\..\..\..\Dev\Library embedded l2c display\u8g2\csrc/u8x8_d_st7588.c **** 	arg_int--;
 193              		.loc 1 138 0 discriminator 1
 194 00dc C900     		lsls	r1, r1, #3
 195              	.LVL31:
 196 00de 3268     		ldr	r2, [r6]
 197 00e0 01F0F801 		and	r1, r1, #248
 198 00e4 2846     		mov	r0, r5
 199 00e6 FFF7FEFF 		bl	u8x8_cad_SendData
 200              	.LVL32:
 139:..\..\..\..\..\..\Dev\Library embedded l2c display\u8g2\csrc/u8x8_d_st7588.c ****       } while( arg_int > 0 );
 201              		.loc 1 139 0 discriminator 1
 202 00ea 621E     		subs	r2, r4, #1
 203              	.LVL33:
 140:..\..\..\..\..\..\Dev\Library embedded l2c display\u8g2\csrc/u8x8_d_st7588.c ****       
 204              		.loc 1 140 0 discriminator 1
 205 00ec 12F0FF04 		ands	r4, r2, #255
 206 00f0 F3D1     		bne	.L13
 142:..\..\..\..\..\..\Dev\Library embedded l2c display\u8g2\csrc/u8x8_d_st7588.c ****       break;
 207              		.loc 1 142 0
 208 00f2 2846     		mov	r0, r5
 209 00f4 FFF7FEFF 		bl	u8x8_cad_EndTransfer
 210              	.LVL34:
 211              		.loc 1 147 0
 212 00f8 0120     		movs	r0, #1
 143:..\..\..\..\..\..\Dev\Library embedded l2c display\u8g2\csrc/u8x8_d_st7588.c ****     default:
 213              		.loc 1 143 0
 214 00fa F8BD     		pop	{r3, r4, r5, r6, r7, pc}
 215              	.LVL35:
 216              	.L15:
 145:..\..\..\..\..\..\Dev\Library embedded l2c display\u8g2\csrc/u8x8_d_st7588.c ****   }
 217              		.loc 1 145 0
 218 00fc 0020     		movs	r0, #0
 219              	.LVL36:
 148:..\..\..\..\..\..\Dev\Library embedded l2c display\u8g2\csrc/u8x8_d_st7588.c **** }
 220              		.loc 1 148 0
 221 00fe F8BD     		pop	{r3, r4, r5, r6, r7, pc}
 222              	.LVL37:
 223              	.L18:
ARM GAS  C:\Users\Abude\AppData\Local\Temp\cchaKcyE.s 			page 8


 224              		.align	2
 225              	.L17:
 226 0100 00000000 		.word	.LANCHOR0
 227 0104 08000000 		.word	.LANCHOR0+8
 228              		.cfi_endproc
 229              	.LFE0:
 230              		.size	u8x8_d_st7588_128x64_generic, .-u8x8_d_st7588_128x64_generic
 231              		.section	.text.u8x8_d_st7588_jlx12864,"ax",%progbits
 232              		.align	2
 233              		.global	u8x8_d_st7588_jlx12864
 234              		.thumb
 235              		.thumb_func
 236              		.type	u8x8_d_st7588_jlx12864, %function
 237              	u8x8_d_st7588_jlx12864:
 238              	.LFB1:
 149:..\..\..\..\..\..\Dev\Library embedded l2c display\u8g2\csrc/u8x8_d_st7588.c **** 
 150:..\..\..\..\..\..\Dev\Library embedded l2c display\u8g2\csrc/u8x8_d_st7588.c **** /*=============================================*/
 151:..\..\..\..\..\..\Dev\Library embedded l2c display\u8g2\csrc/u8x8_d_st7588.c **** 
 152:..\..\..\..\..\..\Dev\Library embedded l2c display\u8g2\csrc/u8x8_d_st7588.c **** static const u8x8_display_info_t u8x8_st7588_128x64_display_info =
 153:..\..\..\..\..\..\Dev\Library embedded l2c display\u8g2\csrc/u8x8_d_st7588.c **** {
 154:..\..\..\..\..\..\Dev\Library embedded l2c display\u8g2\csrc/u8x8_d_st7588.c ****   /* chip_enable_level = */ 0,
 155:..\..\..\..\..\..\Dev\Library embedded l2c display\u8g2\csrc/u8x8_d_st7588.c ****   /* chip_disable_level = */ 1,
 156:..\..\..\..\..\..\Dev\Library embedded l2c display\u8g2\csrc/u8x8_d_st7588.c ****   
 157:..\..\..\..\..\..\Dev\Library embedded l2c display\u8g2\csrc/u8x8_d_st7588.c ****   /* post_chip_enable_wait_ns = */ 150,
 158:..\..\..\..\..\..\Dev\Library embedded l2c display\u8g2\csrc/u8x8_d_st7588.c ****   /* pre_chip_disable_wait_ns = */ 30,
 159:..\..\..\..\..\..\Dev\Library embedded l2c display\u8g2\csrc/u8x8_d_st7588.c ****   /* reset_pulse_width_ms = */ 5, 	
 160:..\..\..\..\..\..\Dev\Library embedded l2c display\u8g2\csrc/u8x8_d_st7588.c ****   /* post_reset_wait_ms = */ 5, 		/**/
 161:..\..\..\..\..\..\Dev\Library embedded l2c display\u8g2\csrc/u8x8_d_st7588.c ****   /* sda_setup_time_ns = */ 60,		/* */
 162:..\..\..\..\..\..\Dev\Library embedded l2c display\u8g2\csrc/u8x8_d_st7588.c ****   /* sck_pulse_width_ns = */ 60,	/*  */
 163:..\..\..\..\..\..\Dev\Library embedded l2c display\u8g2\csrc/u8x8_d_st7588.c ****   /* sck_clock_hz = */ 4000000UL,	/* since Arduino 1.6.0, the SPI bus speed in Hz. Should be  10000
 164:..\..\..\..\..\..\Dev\Library embedded l2c display\u8g2\csrc/u8x8_d_st7588.c ****   /* spi_mode = */ 0,		/* active high, rising edge */
 165:..\..\..\..\..\..\Dev\Library embedded l2c display\u8g2\csrc/u8x8_d_st7588.c ****   /* i2c_bus_clock_100kHz = */ 4,	/* 400KHz */
 166:..\..\..\..\..\..\Dev\Library embedded l2c display\u8g2\csrc/u8x8_d_st7588.c ****   /* data_setup_time_ns = */ 80,
 167:..\..\..\..\..\..\Dev\Library embedded l2c display\u8g2\csrc/u8x8_d_st7588.c ****   /* write_pulse_width_ns = */ 50,	
 168:..\..\..\..\..\..\Dev\Library embedded l2c display\u8g2\csrc/u8x8_d_st7588.c ****   /* tile_width = */ 16,
 169:..\..\..\..\..\..\Dev\Library embedded l2c display\u8g2\csrc/u8x8_d_st7588.c ****   /* tile_hight = */ 8,
 170:..\..\..\..\..\..\Dev\Library embedded l2c display\u8g2\csrc/u8x8_d_st7588.c ****   /* default_x_offset = */ 0,	/* must be 0, because this is checked also for normal mode */
 171:..\..\..\..\..\..\Dev\Library embedded l2c display\u8g2\csrc/u8x8_d_st7588.c ****   /* flipmode_x_offset = */ 4,		
 172:..\..\..\..\..\..\Dev\Library embedded l2c display\u8g2\csrc/u8x8_d_st7588.c ****   /* pixel_width = */ 128,
 173:..\..\..\..\..\..\Dev\Library embedded l2c display\u8g2\csrc/u8x8_d_st7588.c ****   /* pixel_height = */ 64
 174:..\..\..\..\..\..\Dev\Library embedded l2c display\u8g2\csrc/u8x8_d_st7588.c **** };
 175:..\..\..\..\..\..\Dev\Library embedded l2c display\u8g2\csrc/u8x8_d_st7588.c **** 
 176:..\..\..\..\..\..\Dev\Library embedded l2c display\u8g2\csrc/u8x8_d_st7588.c **** 
 177:..\..\..\..\..\..\Dev\Library embedded l2c display\u8g2\csrc/u8x8_d_st7588.c **** 
 178:..\..\..\..\..\..\Dev\Library embedded l2c display\u8g2\csrc/u8x8_d_st7588.c **** static const uint8_t u8x8_d_st7588_128x64_init_seq[] = {
 179:..\..\..\..\..\..\Dev\Library embedded l2c display\u8g2\csrc/u8x8_d_st7588.c ****     
 180:..\..\..\..\..\..\Dev\Library embedded l2c display\u8g2\csrc/u8x8_d_st7588.c ****   U8X8_START_TRANSFER(),             	/* enable chip, delay is part of the transfer start */
 181:..\..\..\..\..\..\Dev\Library embedded l2c display\u8g2\csrc/u8x8_d_st7588.c **** 
 182:..\..\..\..\..\..\Dev\Library embedded l2c display\u8g2\csrc/u8x8_d_st7588.c ****   U8X8_C( FS | 0x03 ),			/* select 11 commands */
 183:..\..\..\..\..\..\Dev\Library embedded l2c display\u8g2\csrc/u8x8_d_st7588.c ****   U8X8_C( 0x03 ),				/* software reset */
 184:..\..\..\..\..\..\Dev\Library embedded l2c display\u8g2\csrc/u8x8_d_st7588.c **** 
 185:..\..\..\..\..\..\Dev\Library embedded l2c display\u8g2\csrc/u8x8_d_st7588.c ****   U8X8_C( FS | 0x00 ),			/* select 00 commands */
 186:..\..\..\..\..\..\Dev\Library embedded l2c display\u8g2\csrc/u8x8_d_st7588.c ****   U8X8_C( 0x08 ),				/* display off */
 187:..\..\..\..\..\..\Dev\Library embedded l2c display\u8g2\csrc/u8x8_d_st7588.c ****   //U8X8_C( 0x0c ),				/* display on */
 188:..\..\..\..\..\..\Dev\Library embedded l2c display\u8g2\csrc/u8x8_d_st7588.c ****   
 189:..\..\..\..\..\..\Dev\Library embedded l2c display\u8g2\csrc/u8x8_d_st7588.c ****   U8X8_C( FS | 0x01 ),			/* select 01 commands */
 190:..\..\..\..\..\..\Dev\Library embedded l2c display\u8g2\csrc/u8x8_d_st7588.c ****   U8X8_C( 0x08 ),				/* display confguration */
ARM GAS  C:\Users\Abude\AppData\Local\Temp\cchaKcyE.s 			page 9


 191:..\..\..\..\..\..\Dev\Library embedded l2c display\u8g2\csrc/u8x8_d_st7588.c ****   U8X8_C( 0x12 ),				/* bias 1/9 */
 192:..\..\..\..\..\..\Dev\Library embedded l2c display\u8g2\csrc/u8x8_d_st7588.c ****   U8X8_C( 0x8f ),				/* Vop, lower 7 bits */
 193:..\..\..\..\..\..\Dev\Library embedded l2c display\u8g2\csrc/u8x8_d_st7588.c ****   
 194:..\..\..\..\..\..\Dev\Library embedded l2c display\u8g2\csrc/u8x8_d_st7588.c ****   U8X8_C( FS | 0x00 ),			/* select 00 commands */
 195:..\..\..\..\..\..\Dev\Library embedded l2c display\u8g2\csrc/u8x8_d_st7588.c ****   U8X8_C( 0x05),				/* Bit 0 contains high/low range for Vop */
 196:..\..\..\..\..\..\Dev\Library embedded l2c display\u8g2\csrc/u8x8_d_st7588.c ****   
 197:..\..\..\..\..\..\Dev\Library embedded l2c display\u8g2\csrc/u8x8_d_st7588.c ****   
 198:..\..\..\..\..\..\Dev\Library embedded l2c display\u8g2\csrc/u8x8_d_st7588.c ****   U8X8_C( FS | 0x03 ),			/* select 11 commands */
 199:..\..\..\..\..\..\Dev\Library embedded l2c display\u8g2\csrc/u8x8_d_st7588.c ****   U8X8_C( 0x0b),				/* Frame Rate: 73 Hz */
 200:..\..\..\..\..\..\Dev\Library embedded l2c display\u8g2\csrc/u8x8_d_st7588.c ****   
 201:..\..\..\..\..\..\Dev\Library embedded l2c display\u8g2\csrc/u8x8_d_st7588.c ****   
 202:..\..\..\..\..\..\Dev\Library embedded l2c display\u8g2\csrc/u8x8_d_st7588.c ****     
 203:..\..\..\..\..\..\Dev\Library embedded l2c display\u8g2\csrc/u8x8_d_st7588.c ****   U8X8_END_TRANSFER(),             	/* disable chip */
 204:..\..\..\..\..\..\Dev\Library embedded l2c display\u8g2\csrc/u8x8_d_st7588.c ****   U8X8_END()             			/* end of sequence */
 205:..\..\..\..\..\..\Dev\Library embedded l2c display\u8g2\csrc/u8x8_d_st7588.c **** };
 206:..\..\..\..\..\..\Dev\Library embedded l2c display\u8g2\csrc/u8x8_d_st7588.c **** 
 207:..\..\..\..\..\..\Dev\Library embedded l2c display\u8g2\csrc/u8x8_d_st7588.c **** 
 208:..\..\..\..\..\..\Dev\Library embedded l2c display\u8g2\csrc/u8x8_d_st7588.c **** static const uint8_t u8x8_d_st7588_jlx12864_flip0_seq[] = {
 209:..\..\..\..\..\..\Dev\Library embedded l2c display\u8g2\csrc/u8x8_d_st7588.c ****   U8X8_START_TRANSFER(),             	/* enable chip, delay is part of the transfer start */
 210:..\..\..\..\..\..\Dev\Library embedded l2c display\u8g2\csrc/u8x8_d_st7588.c ****   U8X8_C( FS ),					/* normal mode */
 211:..\..\..\..\..\..\Dev\Library embedded l2c display\u8g2\csrc/u8x8_d_st7588.c ****   U8X8_END_TRANSFER(),             	/* disable chip */
 212:..\..\..\..\..\..\Dev\Library embedded l2c display\u8g2\csrc/u8x8_d_st7588.c ****   U8X8_END()             			/* end of sequence */
 213:..\..\..\..\..\..\Dev\Library embedded l2c display\u8g2\csrc/u8x8_d_st7588.c **** };
 214:..\..\..\..\..\..\Dev\Library embedded l2c display\u8g2\csrc/u8x8_d_st7588.c **** 
 215:..\..\..\..\..\..\Dev\Library embedded l2c display\u8g2\csrc/u8x8_d_st7588.c **** static const uint8_t u8x8_d_st7588_jlx12864_flip1_seq[] = {
 216:..\..\..\..\..\..\Dev\Library embedded l2c display\u8g2\csrc/u8x8_d_st7588.c ****   U8X8_START_TRANSFER(),             	/* enable chip, delay is part of the transfer start */
 217:..\..\..\..\..\..\Dev\Library embedded l2c display\u8g2\csrc/u8x8_d_st7588.c ****   U8X8_C( FS ^ 0x018 ),					/* normal mode */
 218:..\..\..\..\..\..\Dev\Library embedded l2c display\u8g2\csrc/u8x8_d_st7588.c ****   U8X8_END_TRANSFER(),             	/* disable chip */
 219:..\..\..\..\..\..\Dev\Library embedded l2c display\u8g2\csrc/u8x8_d_st7588.c ****   U8X8_END()             			/* end of sequence */
 220:..\..\..\..\..\..\Dev\Library embedded l2c display\u8g2\csrc/u8x8_d_st7588.c **** };
 221:..\..\..\..\..\..\Dev\Library embedded l2c display\u8g2\csrc/u8x8_d_st7588.c **** 
 222:..\..\..\..\..\..\Dev\Library embedded l2c display\u8g2\csrc/u8x8_d_st7588.c **** 
 223:..\..\..\..\..\..\Dev\Library embedded l2c display\u8g2\csrc/u8x8_d_st7588.c **** uint8_t u8x8_d_st7588_jlx12864(u8x8_t *u8x8, uint8_t msg, uint8_t arg_int, void *arg_ptr)
 224:..\..\..\..\..\..\Dev\Library embedded l2c display\u8g2\csrc/u8x8_d_st7588.c **** {
 239              		.loc 1 224 0
 240              		.cfi_startproc
 241              		@ args = 0, pretend = 0, frame = 0
 242              		@ frame_needed = 0, uses_anonymous_args = 0
 243              	.LVL38:
 244 0000 70B5     		push	{r4, r5, r6, lr}
 245              		.cfi_def_cfa_offset 16
 246              		.cfi_offset 4, -16
 247              		.cfi_offset 5, -12
 248              		.cfi_offset 6, -8
 249              		.cfi_offset 14, -4
 250 0002 0546     		mov	r5, r0
 251 0004 0C46     		mov	r4, r1
 252 0006 1646     		mov	r6, r2
 225:..\..\..\..\..\..\Dev\Library embedded l2c display\u8g2\csrc/u8x8_d_st7588.c ****   if ( u8x8_d_st7588_128x64_generic(u8x8, msg, arg_int, arg_ptr) != 0 )
 253              		.loc 1 225 0
 254 0008 FFF7FEFF 		bl	u8x8_d_st7588_128x64_generic
 255              	.LVL39:
 256 000c 68BB     		cbnz	r0, .L24
 257 000e 0346     		mov	r3, r0
 226:..\..\..\..\..\..\Dev\Library embedded l2c display\u8g2\csrc/u8x8_d_st7588.c ****     return 1;
 227:..\..\..\..\..\..\Dev\Library embedded l2c display\u8g2\csrc/u8x8_d_st7588.c ****   if ( msg == U8X8_MSG_DISPLAY_SETUP_MEMORY )
 258              		.loc 1 227 0
ARM GAS  C:\Users\Abude\AppData\Local\Temp\cchaKcyE.s 			page 10


 259 0010 092C     		cmp	r4, #9
 260 0012 08D1     		bne	.L21
 228:..\..\..\..\..\..\Dev\Library embedded l2c display\u8g2\csrc/u8x8_d_st7588.c ****   {
 229:..\..\..\..\..\..\Dev\Library embedded l2c display\u8g2\csrc/u8x8_d_st7588.c ****     u8x8_SetI2CAddress(u8x8, 0x07e);		/* the JLX12864 has 0x07e as a default address for I2C */
 261              		.loc 1 229 0
 262 0014 7E23     		movs	r3, #126
 263 0016 85F82430 		strb	r3, [r5, #36]
 230:..\..\..\..\..\..\Dev\Library embedded l2c display\u8g2\csrc/u8x8_d_st7588.c ****     u8x8_d_helper_display_setup_memory(u8x8, &u8x8_st7588_128x64_display_info);
 264              		.loc 1 230 0
 265 001a 1549     		ldr	r1, .L26
 266 001c 2846     		mov	r0, r5
 267 001e FFF7FEFF 		bl	u8x8_d_helper_display_setup_memory
 268              	.LVL40:
 231:..\..\..\..\..\..\Dev\Library embedded l2c display\u8g2\csrc/u8x8_d_st7588.c ****     return 1;
 269              		.loc 1 231 0
 270 0022 0123     		movs	r3, #1
 271 0024 22E0     		b	.L20
 272              	.L21:
 232:..\..\..\..\..\..\Dev\Library embedded l2c display\u8g2\csrc/u8x8_d_st7588.c ****   }
 233:..\..\..\..\..\..\Dev\Library embedded l2c display\u8g2\csrc/u8x8_d_st7588.c ****   else if ( msg == U8X8_MSG_DISPLAY_INIT )
 273              		.loc 1 233 0
 274 0026 0A2C     		cmp	r4, #10
 275 0028 08D1     		bne	.L22
 234:..\..\..\..\..\..\Dev\Library embedded l2c display\u8g2\csrc/u8x8_d_st7588.c ****   {
 235:..\..\..\..\..\..\Dev\Library embedded l2c display\u8g2\csrc/u8x8_d_st7588.c ****     u8x8_d_helper_display_init(u8x8);
 276              		.loc 1 235 0
 277 002a 2846     		mov	r0, r5
 278 002c FFF7FEFF 		bl	u8x8_d_helper_display_init
 279              	.LVL41:
 236:..\..\..\..\..\..\Dev\Library embedded l2c display\u8g2\csrc/u8x8_d_st7588.c ****     u8x8_cad_SendSequence(u8x8, u8x8_d_st7588_128x64_init_seq);    
 280              		.loc 1 236 0
 281 0030 1049     		ldr	r1, .L26+4
 282 0032 2846     		mov	r0, r5
 283 0034 FFF7FEFF 		bl	u8x8_cad_SendSequence
 284              	.LVL42:
 237:..\..\..\..\..\..\Dev\Library embedded l2c display\u8g2\csrc/u8x8_d_st7588.c ****     return 1;
 285              		.loc 1 237 0
 286 0038 0123     		movs	r3, #1
 287 003a 17E0     		b	.L20
 288              	.L22:
 238:..\..\..\..\..\..\Dev\Library embedded l2c display\u8g2\csrc/u8x8_d_st7588.c ****   }
 239:..\..\..\..\..\..\Dev\Library embedded l2c display\u8g2\csrc/u8x8_d_st7588.c ****   else if  ( msg == U8X8_MSG_DISPLAY_SET_FLIP_MODE )
 289              		.loc 1 239 0
 290 003c 0D2C     		cmp	r4, #13
 291 003e 15D1     		bne	.L20
 240:..\..\..\..\..\..\Dev\Library embedded l2c display\u8g2\csrc/u8x8_d_st7588.c ****   {
 241:..\..\..\..\..\..\Dev\Library embedded l2c display\u8g2\csrc/u8x8_d_st7588.c ****     if ( arg_int == 0 )
 292              		.loc 1 241 0
 293 0040 4EB9     		cbnz	r6, .L23
 242:..\..\..\..\..\..\Dev\Library embedded l2c display\u8g2\csrc/u8x8_d_st7588.c ****     {
 243:..\..\..\..\..\..\Dev\Library embedded l2c display\u8g2\csrc/u8x8_d_st7588.c ****       u8x8_cad_SendSequence(u8x8, u8x8_d_st7588_jlx12864_flip0_seq);
 294              		.loc 1 243 0
 295 0042 0D49     		ldr	r1, .L26+8
 296 0044 2846     		mov	r0, r5
 297 0046 FFF7FEFF 		bl	u8x8_cad_SendSequence
 298              	.LVL43:
 244:..\..\..\..\..\..\Dev\Library embedded l2c display\u8g2\csrc/u8x8_d_st7588.c ****       u8x8->x_offset = u8x8->display_info->default_x_offset;
ARM GAS  C:\Users\Abude\AppData\Local\Temp\cchaKcyE.s 			page 11


 299              		.loc 1 244 0
 300 004a 2B68     		ldr	r3, [r5]
 301 004c 9B7C     		ldrb	r3, [r3, #18]	@ zero_extendqisi2
 302 004e 85F82230 		strb	r3, [r5, #34]
 245:..\..\..\..\..\..\Dev\Library embedded l2c display\u8g2\csrc/u8x8_d_st7588.c ****     }
 246:..\..\..\..\..\..\Dev\Library embedded l2c display\u8g2\csrc/u8x8_d_st7588.c ****     else
 247:..\..\..\..\..\..\Dev\Library embedded l2c display\u8g2\csrc/u8x8_d_st7588.c ****     {
 248:..\..\..\..\..\..\Dev\Library embedded l2c display\u8g2\csrc/u8x8_d_st7588.c ****       u8x8_cad_SendSequence(u8x8, u8x8_d_st7588_jlx12864_flip1_seq);
 249:..\..\..\..\..\..\Dev\Library embedded l2c display\u8g2\csrc/u8x8_d_st7588.c ****       u8x8->x_offset = u8x8->display_info->flipmode_x_offset;
 250:..\..\..\..\..\..\Dev\Library embedded l2c display\u8g2\csrc/u8x8_d_st7588.c ****     }
 251:..\..\..\..\..\..\Dev\Library embedded l2c display\u8g2\csrc/u8x8_d_st7588.c ****     return 1;
 303              		.loc 1 251 0
 304 0052 0123     		movs	r3, #1
 305 0054 0AE0     		b	.L20
 306              	.L23:
 248:..\..\..\..\..\..\Dev\Library embedded l2c display\u8g2\csrc/u8x8_d_st7588.c ****       u8x8->x_offset = u8x8->display_info->flipmode_x_offset;
 307              		.loc 1 248 0
 308 0056 0949     		ldr	r1, .L26+12
 309 0058 2846     		mov	r0, r5
 310 005a FFF7FEFF 		bl	u8x8_cad_SendSequence
 311              	.LVL44:
 249:..\..\..\..\..\..\Dev\Library embedded l2c display\u8g2\csrc/u8x8_d_st7588.c ****     }
 312              		.loc 1 249 0
 313 005e 2B68     		ldr	r3, [r5]
 314 0060 DB7C     		ldrb	r3, [r3, #19]	@ zero_extendqisi2
 315 0062 85F82230 		strb	r3, [r5, #34]
 316              		.loc 1 251 0
 317 0066 0123     		movs	r3, #1
 318 0068 00E0     		b	.L20
 319              	.L24:
 226:..\..\..\..\..\..\Dev\Library embedded l2c display\u8g2\csrc/u8x8_d_st7588.c ****   if ( msg == U8X8_MSG_DISPLAY_SETUP_MEMORY )
 320              		.loc 1 226 0
 321 006a 0123     		movs	r3, #1
 322              	.L20:
 252:..\..\..\..\..\..\Dev\Library embedded l2c display\u8g2\csrc/u8x8_d_st7588.c ****   }
 253:..\..\..\..\..\..\Dev\Library embedded l2c display\u8g2\csrc/u8x8_d_st7588.c ****   return 0;
 254:..\..\..\..\..\..\Dev\Library embedded l2c display\u8g2\csrc/u8x8_d_st7588.c **** }
 323              		.loc 1 254 0
 324 006c 1846     		mov	r0, r3
 325 006e 70BD     		pop	{r4, r5, r6, pc}
 326              	.LVL45:
 327              	.L27:
 328              		.align	2
 329              	.L26:
 330 0070 10000000 		.word	.LANCHOR0+16
 331 0074 28000000 		.word	.LANCHOR0+40
 332 0078 44000000 		.word	.LANCHOR0+68
 333 007c 4C000000 		.word	.LANCHOR0+76
 334              		.cfi_endproc
 335              	.LFE1:
 336              		.size	u8x8_d_st7588_jlx12864, .-u8x8_d_st7588_jlx12864
 337              		.section	.rodata
 338              		.align	2
 339              		.set	.LANCHOR0,. + 0
 340              		.type	u8x8_d_st7588_128x64_powersave0_seq, %object
 341              		.size	u8x8_d_st7588_128x64_powersave0_seq, 7
 342              	u8x8_d_st7588_128x64_powersave0_seq:
ARM GAS  C:\Users\Abude\AppData\Local\Temp\cchaKcyE.s 			page 12


 343 0000 18       		.byte	24
 344 0001 15       		.byte	21
 345 0002 20       		.byte	32
 346 0003 15       		.byte	21
 347 0004 0C       		.byte	12
 348 0005 19       		.byte	25
 349 0006 FF       		.byte	-1
 350 0007 00       		.space	1
 351              		.type	u8x8_d_st7588_128x64_powersave1_seq, %object
 352              		.size	u8x8_d_st7588_128x64_powersave1_seq, 7
 353              	u8x8_d_st7588_128x64_powersave1_seq:
 354 0008 18       		.byte	24
 355 0009 15       		.byte	21
 356 000a 20       		.byte	32
 357 000b 15       		.byte	21
 358 000c 08       		.byte	8
 359 000d 19       		.byte	25
 360 000e FF       		.byte	-1
 361 000f 00       		.space	1
 362              		.type	u8x8_st7588_128x64_display_info, %object
 363              		.size	u8x8_st7588_128x64_display_info, 24
 364              	u8x8_st7588_128x64_display_info:
 365 0010 00       		.byte	0
 366 0011 01       		.byte	1
 367 0012 96       		.byte	-106
 368 0013 1E       		.byte	30
 369 0014 05       		.byte	5
 370 0015 05       		.byte	5
 371 0016 3C       		.byte	60
 372 0017 3C       		.byte	60
 373 0018 00093D00 		.word	4000000
 374 001c 00       		.byte	0
 375 001d 04       		.byte	4
 376 001e 50       		.byte	80
 377 001f 32       		.byte	50
 378 0020 10       		.byte	16
 379 0021 08       		.byte	8
 380 0022 00       		.byte	0
 381 0023 04       		.byte	4
 382 0024 8000     		.short	128
 383 0026 4000     		.short	64
 384              		.type	u8x8_d_st7588_128x64_init_seq, %object
 385              		.size	u8x8_d_st7588_128x64_init_seq, 27
 386              	u8x8_d_st7588_128x64_init_seq:
 387 0028 18       		.byte	24
 388 0029 15       		.byte	21
 389 002a 23       		.byte	35
 390 002b 15       		.byte	21
 391 002c 03       		.byte	3
 392 002d 15       		.byte	21
 393 002e 20       		.byte	32
 394 002f 15       		.byte	21
 395 0030 08       		.byte	8
 396 0031 15       		.byte	21
 397 0032 21       		.byte	33
 398 0033 15       		.byte	21
 399 0034 08       		.byte	8
ARM GAS  C:\Users\Abude\AppData\Local\Temp\cchaKcyE.s 			page 13


 400 0035 15       		.byte	21
 401 0036 12       		.byte	18
 402 0037 15       		.byte	21
 403 0038 8F       		.byte	-113
 404 0039 15       		.byte	21
 405 003a 20       		.byte	32
 406 003b 15       		.byte	21
 407 003c 05       		.byte	5
 408 003d 15       		.byte	21
 409 003e 23       		.byte	35
 410 003f 15       		.byte	21
 411 0040 0B       		.byte	11
 412 0041 19       		.byte	25
 413 0042 FF       		.byte	-1
 414 0043 00       		.space	1
 415              		.type	u8x8_d_st7588_jlx12864_flip0_seq, %object
 416              		.size	u8x8_d_st7588_jlx12864_flip0_seq, 5
 417              	u8x8_d_st7588_jlx12864_flip0_seq:
 418 0044 18       		.byte	24
 419 0045 15       		.byte	21
 420 0046 20       		.byte	32
 421 0047 19       		.byte	25
 422 0048 FF       		.byte	-1
 423 0049 000000   		.space	3
 424              		.type	u8x8_d_st7588_jlx12864_flip1_seq, %object
 425              		.size	u8x8_d_st7588_jlx12864_flip1_seq, 5
 426              	u8x8_d_st7588_jlx12864_flip1_seq:
 427 004c 18       		.byte	24
 428 004d 15       		.byte	21
 429 004e 38       		.byte	56
 430 004f 19       		.byte	25
 431 0050 FF       		.byte	-1
 432              		.text
 433              	.Letext0:
 434              		.file 2 "c:\\program files (x86)\\cypress\\psoc creator\\4.4\\psoc creator\\import\\gnu\\arm\\5.4.
 435              		.file 3 "c:\\program files (x86)\\cypress\\psoc creator\\4.4\\psoc creator\\import\\gnu\\arm\\5.4.
 436              		.file 4 "c:\\dev\\library embedded l2c display\\u8g2\\csrc\\u8x8.h"