ARM GAS  C:\Users\Abude\AppData\Local\Temp\cc3qSAfr.s 			page 1


   1              		.syntax unified
   2              		.cpu cortex-m3
   3              		.fpu softvfp
   4              		.eabi_attribute 20, 1
   5              		.eabi_attribute 21, 1
   6              		.eabi_attribute 23, 3
   7              		.eabi_attribute 24, 1
   8              		.eabi_attribute 25, 1
   9              		.eabi_attribute 26, 1
  10              		.eabi_attribute 30, 1
  11              		.eabi_attribute 34, 1
  12              		.eabi_attribute 18, 4
  13              		.thumb
  14              		.syntax unified
  15              		.file	"u8x8_d_st75160.c"
  16              		.text
  17              	.Ltext0:
  18              		.cfi_sections	.debug_frame
  19              		.section	.text.u8x8_d_st75160_jm16096,"ax",%progbits
  20              		.align	2
  21              		.global	u8x8_d_st75160_jm16096
  22              		.thumb
  23              		.thumb_func
  24              		.type	u8x8_d_st75160_jm16096, %function
  25              	u8x8_d_st75160_jm16096:
  26              	.LFB0:
  27              		.file 1 "..\\..\\..\\..\\..\\..\\Dev\\Library embedded l2c display\\u8g2\\csrc\\u8x8_d_st75160.c"
   1:..\..\..\..\..\..\Dev\Library embedded l2c display\u8g2\csrc/u8x8_d_st75160.c **** /*
   2:..\..\..\..\..\..\Dev\Library embedded l2c display\u8g2\csrc/u8x8_d_st75160.c **** 
   3:..\..\..\..\..\..\Dev\Library embedded l2c display\u8g2\csrc/u8x8_d_st75160.c ****   u8x8_d_st75160.c
   4:..\..\..\..\..\..\Dev\Library embedded l2c display\u8g2\csrc/u8x8_d_st75160.c **** 
   5:..\..\..\..\..\..\Dev\Library embedded l2c display\u8g2\csrc/u8x8_d_st75160.c ****   Universal 8bit Graphics Library (https://github.com/olikraus/u8g2/)
   6:..\..\..\..\..\..\Dev\Library embedded l2c display\u8g2\csrc/u8x8_d_st75160.c **** 
   7:..\..\..\..\..\..\Dev\Library embedded l2c display\u8g2\csrc/u8x8_d_st75160.c ****   Copyright (c) 2021, olikraus@gmail.com
   8:..\..\..\..\..\..\Dev\Library embedded l2c display\u8g2\csrc/u8x8_d_st75160.c ****   All rights reserved.
   9:..\..\..\..\..\..\Dev\Library embedded l2c display\u8g2\csrc/u8x8_d_st75160.c **** 
  10:..\..\..\..\..\..\Dev\Library embedded l2c display\u8g2\csrc/u8x8_d_st75160.c ****   Redistribution and use in source and binary forms, with or without modification, 
  11:..\..\..\..\..\..\Dev\Library embedded l2c display\u8g2\csrc/u8x8_d_st75160.c ****   are permitted provided that the following conditions are met:
  12:..\..\..\..\..\..\Dev\Library embedded l2c display\u8g2\csrc/u8x8_d_st75160.c **** 
  13:..\..\..\..\..\..\Dev\Library embedded l2c display\u8g2\csrc/u8x8_d_st75160.c ****   * Redistributions of source code must retain the above copyright notice, this list 
  14:..\..\..\..\..\..\Dev\Library embedded l2c display\u8g2\csrc/u8x8_d_st75160.c ****     of conditions and the following disclaimer.
  15:..\..\..\..\..\..\Dev\Library embedded l2c display\u8g2\csrc/u8x8_d_st75160.c ****     
  16:..\..\..\..\..\..\Dev\Library embedded l2c display\u8g2\csrc/u8x8_d_st75160.c ****   * Redistributions in binary form must reproduce the above copyright notice, this 
  17:..\..\..\..\..\..\Dev\Library embedded l2c display\u8g2\csrc/u8x8_d_st75160.c ****     list of conditions and the following disclaimer in the documentation and/or other 
  18:..\..\..\..\..\..\Dev\Library embedded l2c display\u8g2\csrc/u8x8_d_st75160.c ****     materials provided with the distribution.
  19:..\..\..\..\..\..\Dev\Library embedded l2c display\u8g2\csrc/u8x8_d_st75160.c **** 
  20:..\..\..\..\..\..\Dev\Library embedded l2c display\u8g2\csrc/u8x8_d_st75160.c ****   THIS SOFTWARE IS PROVIDED BY THE COPYRIGHT HOLDERS AND 
  21:..\..\..\..\..\..\Dev\Library embedded l2c display\u8g2\csrc/u8x8_d_st75160.c ****   CONTRIBUTORS "AS IS" AND ANY EXPRESS OR IMPLIED WARRANTIES, 
  22:..\..\..\..\..\..\Dev\Library embedded l2c display\u8g2\csrc/u8x8_d_st75160.c ****   INCLUDING, BUT NOT LIMITED TO, THE IMPLIED WARRANTIES OF 
  23:..\..\..\..\..\..\Dev\Library embedded l2c display\u8g2\csrc/u8x8_d_st75160.c ****   MERCHANTABILITY AND FITNESS FOR A PARTICULAR PURPOSE ARE 
  24:..\..\..\..\..\..\Dev\Library embedded l2c display\u8g2\csrc/u8x8_d_st75160.c ****   DISCLAIMED. IN NO EVENT SHALL THE COPYRIGHT HOLDER OR 
  25:..\..\..\..\..\..\Dev\Library embedded l2c display\u8g2\csrc/u8x8_d_st75160.c ****   CONTRIBUTORS BE LIABLE FOR ANY DIRECT, INDIRECT, INCIDENTAL, 
  26:..\..\..\..\..\..\Dev\Library embedded l2c display\u8g2\csrc/u8x8_d_st75160.c ****   SPECIAL, EXEMPLARY, OR CONSEQUENTIAL DAMAGES (INCLUDING, BUT 
  27:..\..\..\..\..\..\Dev\Library embedded l2c display\u8g2\csrc/u8x8_d_st75160.c ****   NOT LIMITED TO, PROCUREMENT OF SUBSTITUTE GOODS OR SERVICES; 
  28:..\..\..\..\..\..\Dev\Library embedded l2c display\u8g2\csrc/u8x8_d_st75160.c ****   LOSS OF USE, DATA, OR PROFITS; OR BUSINESS INTERRUPTION) HOWEVER 
  29:..\..\..\..\..\..\Dev\Library embedded l2c display\u8g2\csrc/u8x8_d_st75160.c ****   CAUSED AND ON ANY THEORY OF LIABILITY, WHETHER IN CONTRACT, 
  30:..\..\..\..\..\..\Dev\Library embedded l2c display\u8g2\csrc/u8x8_d_st75160.c ****   STRICT LIABILITY, OR TORT (INCLUDING NEGLIGENCE OR OTHERWISE) 
ARM GAS  C:\Users\Abude\AppData\Local\Temp\cc3qSAfr.s 			page 2


  31:..\..\..\..\..\..\Dev\Library embedded l2c display\u8g2\csrc/u8x8_d_st75160.c ****   ARISING IN ANY WAY OUT OF THE USE OF THIS SOFTWARE, EVEN IF 
  32:..\..\..\..\..\..\Dev\Library embedded l2c display\u8g2\csrc/u8x8_d_st75160.c ****   ADVISED OF THE POSSIBILITY OF SUCH DAMAGE.  
  33:..\..\..\..\..\..\Dev\Library embedded l2c display\u8g2\csrc/u8x8_d_st75160.c **** 
  34:..\..\..\..\..\..\Dev\Library embedded l2c display\u8g2\csrc/u8x8_d_st75160.c ****   https://github.com/olikraus/u8g2/issues/1642
  35:..\..\..\..\..\..\Dev\Library embedded l2c display\u8g2\csrc/u8x8_d_st75160.c **** 
  36:..\..\..\..\..\..\Dev\Library embedded l2c display\u8g2\csrc/u8x8_d_st75160.c **** 
  37:..\..\..\..\..\..\Dev\Library embedded l2c display\u8g2\csrc/u8x8_d_st75160.c ****   0x030	ext 00
  38:..\..\..\..\..\..\Dev\Library embedded l2c display\u8g2\csrc/u8x8_d_st75160.c ****   0x031	ext 01
  39:..\..\..\..\..\..\Dev\Library embedded l2c display\u8g2\csrc/u8x8_d_st75160.c ****   0x038	ext 10
  40:..\..\..\..\..\..\Dev\Library embedded l2c display\u8g2\csrc/u8x8_d_st75160.c ****   0x039	ext 11
  41:..\..\..\..\..\..\Dev\Library embedded l2c display\u8g2\csrc/u8x8_d_st75160.c ****   
  42:..\..\..\..\..\..\Dev\Library embedded l2c display\u8g2\csrc/u8x8_d_st75160.c ****   cad 011
  43:..\..\..\..\..\..\Dev\Library embedded l2c display\u8g2\csrc/u8x8_d_st75160.c ****   
  44:..\..\..\..\..\..\Dev\Library embedded l2c display\u8g2\csrc/u8x8_d_st75160.c ****   
  45:..\..\..\..\..\..\Dev\Library embedded l2c display\u8g2\csrc/u8x8_d_st75160.c ****   code examples:
  46:..\..\..\..\..\..\Dev\Library embedded l2c display\u8g2\csrc/u8x8_d_st75160.c ****   http://www.it610.com/article/2601023.htm
  47:..\..\..\..\..\..\Dev\Library embedded l2c display\u8g2\csrc/u8x8_d_st75160.c ****   
  48:..\..\..\..\..\..\Dev\Library embedded l2c display\u8g2\csrc/u8x8_d_st75160.c ****   normal mode:
  49:..\..\..\..\..\..\Dev\Library embedded l2c display\u8g2\csrc/u8x8_d_st75160.c **** 	0x00c	bit format
  50:..\..\..\..\..\..\Dev\Library embedded l2c display\u8g2\csrc/u8x8_d_st75160.c ****   U8X8_CA( 0xbc, 0x00 ),	data scan dir 
  51:..\..\..\..\..\..\Dev\Library embedded l2c display\u8g2\csrc/u8x8_d_st75160.c ****   U8X8_A( 0xa6 ),				
  52:..\..\..\..\..\..\Dev\Library embedded l2c display\u8g2\csrc/u8x8_d_st75160.c ****   y: 0 offset
  53:..\..\..\..\..\..\Dev\Library embedded l2c display\u8g2\csrc/u8x8_d_st75160.c ****   
  54:..\..\..\..\..\..\Dev\Library embedded l2c display\u8g2\csrc/u8x8_d_st75160.c ****   flip mode:
  55:..\..\..\..\..\..\Dev\Library embedded l2c display\u8g2\csrc/u8x8_d_st75160.c **** 	0x008	bit format
  56:..\..\..\..\..\..\Dev\Library embedded l2c display\u8g2\csrc/u8x8_d_st75160.c ****   U8X8_CA( 0xbc, 0x03 ),	data scan dir 
  57:..\..\..\..\..\..\Dev\Library embedded l2c display\u8g2\csrc/u8x8_d_st75160.c ****   U8X8_A( 0xa6 ),				
  58:..\..\..\..\..\..\Dev\Library embedded l2c display\u8g2\csrc/u8x8_d_st75160.c ****   y: 5 offset
  59:..\..\..\..\..\..\Dev\Library embedded l2c display\u8g2\csrc/u8x8_d_st75160.c **** 	
  60:..\..\..\..\..\..\Dev\Library embedded l2c display\u8g2\csrc/u8x8_d_st75160.c ****   
  61:..\..\..\..\..\..\Dev\Library embedded l2c display\u8g2\csrc/u8x8_d_st75160.c **** */
  62:..\..\..\..\..\..\Dev\Library embedded l2c display\u8g2\csrc/u8x8_d_st75160.c **** 
  63:..\..\..\..\..\..\Dev\Library embedded l2c display\u8g2\csrc/u8x8_d_st75160.c **** 
  64:..\..\..\..\..\..\Dev\Library embedded l2c display\u8g2\csrc/u8x8_d_st75160.c **** #include "u8x8.h"
  65:..\..\..\..\..\..\Dev\Library embedded l2c display\u8g2\csrc/u8x8_d_st75160.c **** 
  66:..\..\..\..\..\..\Dev\Library embedded l2c display\u8g2\csrc/u8x8_d_st75160.c **** 
  67:..\..\..\..\..\..\Dev\Library embedded l2c display\u8g2\csrc/u8x8_d_st75160.c **** /* not a real power down for the st75256... just a display off */
  68:..\..\..\..\..\..\Dev\Library embedded l2c display\u8g2\csrc/u8x8_d_st75160.c **** static const uint8_t u8x8_d_st75256_256x128_powersave0_seq[] = {
  69:..\..\..\..\..\..\Dev\Library embedded l2c display\u8g2\csrc/u8x8_d_st75160.c ****   U8X8_START_TRANSFER(),             	/* enable chip, delay is part of the transfer start */
  70:..\..\..\..\..\..\Dev\Library embedded l2c display\u8g2\csrc/u8x8_d_st75160.c ****   U8X8_C( 0x030 ),				/* select 00 commands */  
  71:..\..\..\..\..\..\Dev\Library embedded l2c display\u8g2\csrc/u8x8_d_st75160.c ****   U8X8_C( 0x94 ),				/* sleep out */
  72:..\..\..\..\..\..\Dev\Library embedded l2c display\u8g2\csrc/u8x8_d_st75160.c ****   U8X8_DLY(10),
  73:..\..\..\..\..\..\Dev\Library embedded l2c display\u8g2\csrc/u8x8_d_st75160.c ****   U8X8_C( 0xaf ),				/* display on */
  74:..\..\..\..\..\..\Dev\Library embedded l2c display\u8g2\csrc/u8x8_d_st75160.c ****   U8X8_END_TRANSFER(),             	/* disable chip */
  75:..\..\..\..\..\..\Dev\Library embedded l2c display\u8g2\csrc/u8x8_d_st75160.c ****   U8X8_END()             			/* end of sequence */
  76:..\..\..\..\..\..\Dev\Library embedded l2c display\u8g2\csrc/u8x8_d_st75160.c **** };
  77:..\..\..\..\..\..\Dev\Library embedded l2c display\u8g2\csrc/u8x8_d_st75160.c **** 
  78:..\..\..\..\..\..\Dev\Library embedded l2c display\u8g2\csrc/u8x8_d_st75160.c **** static const uint8_t u8x8_d_st75256_256x128_powersave1_seq[] = {
  79:..\..\..\..\..\..\Dev\Library embedded l2c display\u8g2\csrc/u8x8_d_st75160.c ****   U8X8_START_TRANSFER(),             	/* enable chip, delay is part of the transfer start */
  80:..\..\..\..\..\..\Dev\Library embedded l2c display\u8g2\csrc/u8x8_d_st75160.c ****   U8X8_C( 0x030 ),				/* select 00 commands */
  81:..\..\..\..\..\..\Dev\Library embedded l2c display\u8g2\csrc/u8x8_d_st75160.c ****   U8X8_C( 0xae ),				/* display off */
  82:..\..\..\..\..\..\Dev\Library embedded l2c display\u8g2\csrc/u8x8_d_st75160.c ****   U8X8_C( 0x95 ),				/* sleep in */
  83:..\..\..\..\..\..\Dev\Library embedded l2c display\u8g2\csrc/u8x8_d_st75160.c ****   U8X8_END_TRANSFER(),             	/* disable chip */
  84:..\..\..\..\..\..\Dev\Library embedded l2c display\u8g2\csrc/u8x8_d_st75160.c ****   U8X8_END()             			/* end of sequence */
  85:..\..\..\..\..\..\Dev\Library embedded l2c display\u8g2\csrc/u8x8_d_st75160.c **** };
  86:..\..\..\..\..\..\Dev\Library embedded l2c display\u8g2\csrc/u8x8_d_st75160.c **** 
  87:..\..\..\..\..\..\Dev\Library embedded l2c display\u8g2\csrc/u8x8_d_st75160.c **** static const uint8_t u8x8_d_st75256_jlx256128_flip0_seq[] = {
ARM GAS  C:\Users\Abude\AppData\Local\Temp\cc3qSAfr.s 			page 3


  88:..\..\..\..\..\..\Dev\Library embedded l2c display\u8g2\csrc/u8x8_d_st75160.c ****   U8X8_START_TRANSFER(),             	/* enable chip, delay is part of the transfer start */
  89:..\..\..\..\..\..\Dev\Library embedded l2c display\u8g2\csrc/u8x8_d_st75160.c ****   U8X8_C( 0x030 ),				/* select 00 commands */
  90:..\..\..\..\..\..\Dev\Library embedded l2c display\u8g2\csrc/u8x8_d_st75160.c ****   U8X8_CA( 0xbc, 0x00 ),			/* data scan dir */
  91:..\..\..\..\..\..\Dev\Library embedded l2c display\u8g2\csrc/u8x8_d_st75160.c ****   U8X8_A( 0xa6 ),				/* ??? */
  92:..\..\..\..\..\..\Dev\Library embedded l2c display\u8g2\csrc/u8x8_d_st75160.c **** 
  93:..\..\..\..\..\..\Dev\Library embedded l2c display\u8g2\csrc/u8x8_d_st75160.c ****   //U8X8_C( 0x030 ),				/* select 00 commands */
  94:..\..\..\..\..\..\Dev\Library embedded l2c display\u8g2\csrc/u8x8_d_st75160.c ****   U8X8_C( 0x00c ),				/* data format LSB top */
  95:..\..\..\..\..\..\Dev\Library embedded l2c display\u8g2\csrc/u8x8_d_st75160.c ****   U8X8_END_TRANSFER(),             	/* disable chip */
  96:..\..\..\..\..\..\Dev\Library embedded l2c display\u8g2\csrc/u8x8_d_st75160.c ****   U8X8_END()             			/* end of sequence */
  97:..\..\..\..\..\..\Dev\Library embedded l2c display\u8g2\csrc/u8x8_d_st75160.c **** };
  98:..\..\..\..\..\..\Dev\Library embedded l2c display\u8g2\csrc/u8x8_d_st75160.c **** 
  99:..\..\..\..\..\..\Dev\Library embedded l2c display\u8g2\csrc/u8x8_d_st75160.c **** static const uint8_t u8x8_d_st75256_jlx256128_flip1_seq[] = {
 100:..\..\..\..\..\..\Dev\Library embedded l2c display\u8g2\csrc/u8x8_d_st75160.c ****   U8X8_START_TRANSFER(),             	/* enable chip, delay is part of the transfer start */
 101:..\..\..\..\..\..\Dev\Library embedded l2c display\u8g2\csrc/u8x8_d_st75160.c ****   U8X8_C( 0x030 ),				/* select 00 commands */
 102:..\..\..\..\..\..\Dev\Library embedded l2c display\u8g2\csrc/u8x8_d_st75160.c ****   U8X8_CA( 0xbc, 0x03 ),			/* data scan dir */
 103:..\..\..\..\..\..\Dev\Library embedded l2c display\u8g2\csrc/u8x8_d_st75160.c ****   U8X8_A( 0xa6 ),				/* ??? */
 104:..\..\..\..\..\..\Dev\Library embedded l2c display\u8g2\csrc/u8x8_d_st75160.c **** 
 105:..\..\..\..\..\..\Dev\Library embedded l2c display\u8g2\csrc/u8x8_d_st75160.c ****   //U8X8_C( 0x030 ),				/* select 00 commands */
 106:..\..\..\..\..\..\Dev\Library embedded l2c display\u8g2\csrc/u8x8_d_st75160.c ****   U8X8_C( 0x008 ),				/* data format MSB top */
 107:..\..\..\..\..\..\Dev\Library embedded l2c display\u8g2\csrc/u8x8_d_st75160.c ****   U8X8_END_TRANSFER(),             	/* disable chip */
 108:..\..\..\..\..\..\Dev\Library embedded l2c display\u8g2\csrc/u8x8_d_st75160.c ****   U8X8_END()             			/* end of sequence */
 109:..\..\..\..\..\..\Dev\Library embedded l2c display\u8g2\csrc/u8x8_d_st75160.c **** };
 110:..\..\..\..\..\..\Dev\Library embedded l2c display\u8g2\csrc/u8x8_d_st75160.c **** 
 111:..\..\..\..\..\..\Dev\Library embedded l2c display\u8g2\csrc/u8x8_d_st75160.c **** static const uint8_t u8x8_d_st75256_jlx172104_flip0_seq[] = {
 112:..\..\..\..\..\..\Dev\Library embedded l2c display\u8g2\csrc/u8x8_d_st75160.c ****   U8X8_START_TRANSFER(),             	/* enable chip, delay is part of the transfer start */
 113:..\..\..\..\..\..\Dev\Library embedded l2c display\u8g2\csrc/u8x8_d_st75160.c ****   U8X8_C( 0x030 ),				/* select 00 commands */
 114:..\..\..\..\..\..\Dev\Library embedded l2c display\u8g2\csrc/u8x8_d_st75160.c ****   U8X8_CA( 0xbc, 0x02 ),			/* data scan dir */
 115:..\..\..\..\..\..\Dev\Library embedded l2c display\u8g2\csrc/u8x8_d_st75160.c ****   U8X8_A( 0xa6 ),				/* ??? */
 116:..\..\..\..\..\..\Dev\Library embedded l2c display\u8g2\csrc/u8x8_d_st75160.c **** 
 117:..\..\..\..\..\..\Dev\Library embedded l2c display\u8g2\csrc/u8x8_d_st75160.c ****   //U8X8_C( 0x030 ),				/* select 00 commands */
 118:..\..\..\..\..\..\Dev\Library embedded l2c display\u8g2\csrc/u8x8_d_st75160.c ****   U8X8_C( 0x00c ),				/* data format LSB top */
 119:..\..\..\..\..\..\Dev\Library embedded l2c display\u8g2\csrc/u8x8_d_st75160.c ****   U8X8_END_TRANSFER(),             	/* disable chip */
 120:..\..\..\..\..\..\Dev\Library embedded l2c display\u8g2\csrc/u8x8_d_st75160.c ****   U8X8_END()             			/* end of sequence */
 121:..\..\..\..\..\..\Dev\Library embedded l2c display\u8g2\csrc/u8x8_d_st75160.c **** };
 122:..\..\..\..\..\..\Dev\Library embedded l2c display\u8g2\csrc/u8x8_d_st75160.c **** 
 123:..\..\..\..\..\..\Dev\Library embedded l2c display\u8g2\csrc/u8x8_d_st75160.c **** static const uint8_t u8x8_d_st75256_jlx172104_flip1_seq[] = {
 124:..\..\..\..\..\..\Dev\Library embedded l2c display\u8g2\csrc/u8x8_d_st75160.c ****   U8X8_START_TRANSFER(),             	/* enable chip, delay is part of the transfer start */
 125:..\..\..\..\..\..\Dev\Library embedded l2c display\u8g2\csrc/u8x8_d_st75160.c ****   U8X8_C( 0x030 ),				/* select 00 commands */
 126:..\..\..\..\..\..\Dev\Library embedded l2c display\u8g2\csrc/u8x8_d_st75160.c ****   U8X8_CA( 0xbc, 0x01 ),			/* data scan dir */
 127:..\..\..\..\..\..\Dev\Library embedded l2c display\u8g2\csrc/u8x8_d_st75160.c ****   U8X8_A( 0xa6 ),				/* ??? */
 128:..\..\..\..\..\..\Dev\Library embedded l2c display\u8g2\csrc/u8x8_d_st75160.c **** 
 129:..\..\..\..\..\..\Dev\Library embedded l2c display\u8g2\csrc/u8x8_d_st75160.c ****   //U8X8_C( 0x030 ),				/* select 00 commands */
 130:..\..\..\..\..\..\Dev\Library embedded l2c display\u8g2\csrc/u8x8_d_st75160.c ****   U8X8_C( 0x008 ),				/* data format MSB top */
 131:..\..\..\..\..\..\Dev\Library embedded l2c display\u8g2\csrc/u8x8_d_st75160.c ****   U8X8_END_TRANSFER(),             	/* disable chip */
 132:..\..\..\..\..\..\Dev\Library embedded l2c display\u8g2\csrc/u8x8_d_st75160.c ****   U8X8_END()             			/* end of sequence */
 133:..\..\..\..\..\..\Dev\Library embedded l2c display\u8g2\csrc/u8x8_d_st75160.c **** };
 134:..\..\..\..\..\..\Dev\Library embedded l2c display\u8g2\csrc/u8x8_d_st75160.c **** 
 135:..\..\..\..\..\..\Dev\Library embedded l2c display\u8g2\csrc/u8x8_d_st75160.c **** static const uint8_t u8x8_d_st75256_jlx256160_flip0_seq[] = {
 136:..\..\..\..\..\..\Dev\Library embedded l2c display\u8g2\csrc/u8x8_d_st75160.c ****   U8X8_START_TRANSFER(),             	/* enable chip, delay is part of the transfer start */
 137:..\..\..\..\..\..\Dev\Library embedded l2c display\u8g2\csrc/u8x8_d_st75160.c ****   U8X8_C( 0x030 ),				/* select 00 commands */
 138:..\..\..\..\..\..\Dev\Library embedded l2c display\u8g2\csrc/u8x8_d_st75160.c ****   U8X8_CA( 0xbc, 0x00 ),			/* data scan dir */
 139:..\..\..\..\..\..\Dev\Library embedded l2c display\u8g2\csrc/u8x8_d_st75160.c ****   U8X8_A( 0xa6 ),				/* ??? */
 140:..\..\..\..\..\..\Dev\Library embedded l2c display\u8g2\csrc/u8x8_d_st75160.c **** 
 141:..\..\..\..\..\..\Dev\Library embedded l2c display\u8g2\csrc/u8x8_d_st75160.c ****   //U8X8_C( 0x030 ),				/* select 00 commands */
 142:..\..\..\..\..\..\Dev\Library embedded l2c display\u8g2\csrc/u8x8_d_st75160.c ****   U8X8_C( 0x00c ),				/* data format LSB top */
 143:..\..\..\..\..\..\Dev\Library embedded l2c display\u8g2\csrc/u8x8_d_st75160.c ****   U8X8_END_TRANSFER(),             	/* disable chip */
 144:..\..\..\..\..\..\Dev\Library embedded l2c display\u8g2\csrc/u8x8_d_st75160.c ****   U8X8_END()             			/* end of sequence */
ARM GAS  C:\Users\Abude\AppData\Local\Temp\cc3qSAfr.s 			page 4


 145:..\..\..\..\..\..\Dev\Library embedded l2c display\u8g2\csrc/u8x8_d_st75160.c **** };
 146:..\..\..\..\..\..\Dev\Library embedded l2c display\u8g2\csrc/u8x8_d_st75160.c **** 
 147:..\..\..\..\..\..\Dev\Library embedded l2c display\u8g2\csrc/u8x8_d_st75160.c **** static const uint8_t u8x8_d_st75256_jlx256160_flip1_seq[] = {
 148:..\..\..\..\..\..\Dev\Library embedded l2c display\u8g2\csrc/u8x8_d_st75160.c ****   U8X8_START_TRANSFER(),             	/* enable chip, delay is part of the transfer start */
 149:..\..\..\..\..\..\Dev\Library embedded l2c display\u8g2\csrc/u8x8_d_st75160.c ****   U8X8_C( 0x030 ),				/* select 00 commands */
 150:..\..\..\..\..\..\Dev\Library embedded l2c display\u8g2\csrc/u8x8_d_st75160.c ****   U8X8_CA( 0xbc, 0x03 ),			/* data scan dir */
 151:..\..\..\..\..\..\Dev\Library embedded l2c display\u8g2\csrc/u8x8_d_st75160.c ****   U8X8_A( 0xa6 ),				/* ??? */
 152:..\..\..\..\..\..\Dev\Library embedded l2c display\u8g2\csrc/u8x8_d_st75160.c **** 
 153:..\..\..\..\..\..\Dev\Library embedded l2c display\u8g2\csrc/u8x8_d_st75160.c ****   //U8X8_C( 0x030 ),				/* select 00 commands */
 154:..\..\..\..\..\..\Dev\Library embedded l2c display\u8g2\csrc/u8x8_d_st75160.c ****   U8X8_C( 0x008 ),				/* data format MSB top */
 155:..\..\..\..\..\..\Dev\Library embedded l2c display\u8g2\csrc/u8x8_d_st75160.c ****   U8X8_END_TRANSFER(),             	/* disable chip */
 156:..\..\..\..\..\..\Dev\Library embedded l2c display\u8g2\csrc/u8x8_d_st75160.c ****   U8X8_END()             			/* end of sequence */
 157:..\..\..\..\..\..\Dev\Library embedded l2c display\u8g2\csrc/u8x8_d_st75160.c **** };
 158:..\..\..\..\..\..\Dev\Library embedded l2c display\u8g2\csrc/u8x8_d_st75160.c **** 
 159:..\..\..\..\..\..\Dev\Library embedded l2c display\u8g2\csrc/u8x8_d_st75160.c **** 
 160:..\..\..\..\..\..\Dev\Library embedded l2c display\u8g2\csrc/u8x8_d_st75160.c **** 
 161:..\..\..\..\..\..\Dev\Library embedded l2c display\u8g2\csrc/u8x8_d_st75160.c **** /*=============================================*/
 162:..\..\..\..\..\..\Dev\Library embedded l2c display\u8g2\csrc/u8x8_d_st75160.c **** /* JM16096  https://github.com/olikraus/u8g2/issues/1642 */
 163:..\..\..\..\..\..\Dev\Library embedded l2c display\u8g2\csrc/u8x8_d_st75160.c **** 
 164:..\..\..\..\..\..\Dev\Library embedded l2c display\u8g2\csrc/u8x8_d_st75160.c **** static const u8x8_display_info_t u8x8_st75160_jm16096_display_info =
 165:..\..\..\..\..\..\Dev\Library embedded l2c display\u8g2\csrc/u8x8_d_st75160.c **** {
 166:..\..\..\..\..\..\Dev\Library embedded l2c display\u8g2\csrc/u8x8_d_st75160.c ****   /* chip_enable_level = */ 0,
 167:..\..\..\..\..\..\Dev\Library embedded l2c display\u8g2\csrc/u8x8_d_st75160.c ****   /* chip_disable_level = */ 1,
 168:..\..\..\..\..\..\Dev\Library embedded l2c display\u8g2\csrc/u8x8_d_st75160.c ****   
 169:..\..\..\..\..\..\Dev\Library embedded l2c display\u8g2\csrc/u8x8_d_st75160.c ****   /* post_chip_enable_wait_ns = */ 20,
 170:..\..\..\..\..\..\Dev\Library embedded l2c display\u8g2\csrc/u8x8_d_st75160.c ****   /* pre_chip_disable_wait_ns = */ 20,
 171:..\..\..\..\..\..\Dev\Library embedded l2c display\u8g2\csrc/u8x8_d_st75160.c ****   /* reset_pulse_width_ms = */ 5, 	
 172:..\..\..\..\..\..\Dev\Library embedded l2c display\u8g2\csrc/u8x8_d_st75160.c ****   /* post_reset_wait_ms = */ 5, 		/**/
 173:..\..\..\..\..\..\Dev\Library embedded l2c display\u8g2\csrc/u8x8_d_st75160.c ****   /* sda_setup_time_ns = */ 20,		/* */
 174:..\..\..\..\..\..\Dev\Library embedded l2c display\u8g2\csrc/u8x8_d_st75160.c ****   /* sck_pulse_width_ns = */ 40,	/*  */
 175:..\..\..\..\..\..\Dev\Library embedded l2c display\u8g2\csrc/u8x8_d_st75160.c ****   /* sck_clock_hz = */ 4000000UL,	/* since Arduino 1.6.0, the SPI bus speed in Hz. Should be  10000
 176:..\..\..\..\..\..\Dev\Library embedded l2c display\u8g2\csrc/u8x8_d_st75160.c ****   /* spi_mode = */ 0,		/* active high, rising edge */
 177:..\..\..\..\..\..\Dev\Library embedded l2c display\u8g2\csrc/u8x8_d_st75160.c ****   /* i2c_bus_clock_100kHz = */ 4,	/* 400KHz */
 178:..\..\..\..\..\..\Dev\Library embedded l2c display\u8g2\csrc/u8x8_d_st75160.c ****   /* data_setup_time_ns = */ 15,
 179:..\..\..\..\..\..\Dev\Library embedded l2c display\u8g2\csrc/u8x8_d_st75160.c ****   /* write_pulse_width_ns = */ 70,	
 180:..\..\..\..\..\..\Dev\Library embedded l2c display\u8g2\csrc/u8x8_d_st75160.c ****   /* tile_width = */ 20,
 181:..\..\..\..\..\..\Dev\Library embedded l2c display\u8g2\csrc/u8x8_d_st75160.c ****   /* tile_hight = */ 12,
 182:..\..\..\..\..\..\Dev\Library embedded l2c display\u8g2\csrc/u8x8_d_st75160.c ****   /* default_x_offset = */ 0,	/*  x offset in flipmode 0 */
 183:..\..\..\..\..\..\Dev\Library embedded l2c display\u8g2\csrc/u8x8_d_st75160.c ****   /* flipmode_x_offset = */ 0,		/* */
 184:..\..\..\..\..\..\Dev\Library embedded l2c display\u8g2\csrc/u8x8_d_st75160.c ****   /* pixel_width = */ 160,
 185:..\..\..\..\..\..\Dev\Library embedded l2c display\u8g2\csrc/u8x8_d_st75160.c ****   /* pixel_height = */ 96
 186:..\..\..\..\..\..\Dev\Library embedded l2c display\u8g2\csrc/u8x8_d_st75160.c **** };
 187:..\..\..\..\..\..\Dev\Library embedded l2c display\u8g2\csrc/u8x8_d_st75160.c **** 
 188:..\..\..\..\..\..\Dev\Library embedded l2c display\u8g2\csrc/u8x8_d_st75160.c **** 
 189:..\..\..\..\..\..\Dev\Library embedded l2c display\u8g2\csrc/u8x8_d_st75160.c **** static const uint8_t u8x8_d_st75160_jm16096_init_seq[] = {
 190:..\..\..\..\..\..\Dev\Library embedded l2c display\u8g2\csrc/u8x8_d_st75160.c ****   U8X8_START_TRANSFER(),             	/* enable chip, delay is part of the transfer start */
 191:..\..\..\..\..\..\Dev\Library embedded l2c display\u8g2\csrc/u8x8_d_st75160.c ****   
 192:..\..\..\..\..\..\Dev\Library embedded l2c display\u8g2\csrc/u8x8_d_st75160.c ****   U8X8_DLY(20),
 193:..\..\..\..\..\..\Dev\Library embedded l2c display\u8g2\csrc/u8x8_d_st75160.c **** 
 194:..\..\..\..\..\..\Dev\Library embedded l2c display\u8g2\csrc/u8x8_d_st75160.c ****   U8X8_C( 0x030 ),				/* select 00 commands */
 195:..\..\..\..\..\..\Dev\Library embedded l2c display\u8g2\csrc/u8x8_d_st75160.c ****   U8X8_C( 0x094 ),				/* sleep out */
 196:..\..\..\..\..\..\Dev\Library embedded l2c display\u8g2\csrc/u8x8_d_st75160.c **** 
 197:..\..\..\..\..\..\Dev\Library embedded l2c display\u8g2\csrc/u8x8_d_st75160.c ****   //U8X8_C( 0x030 ),				/* select 00 commands */
 198:..\..\..\..\..\..\Dev\Library embedded l2c display\u8g2\csrc/u8x8_d_st75160.c ****   U8X8_C( 0x0ae ),				/* display off */
 199:..\..\..\..\..\..\Dev\Library embedded l2c display\u8g2\csrc/u8x8_d_st75160.c **** 
 200:..\..\..\..\..\..\Dev\Library embedded l2c display\u8g2\csrc/u8x8_d_st75160.c ****   U8X8_C( 0x031 ),				/* select 01 commands */
 201:..\..\..\..\..\..\Dev\Library embedded l2c display\u8g2\csrc/u8x8_d_st75160.c ****   U8X8_CA( 0x0d7, 0x09f ),		/* disable auto read */  
ARM GAS  C:\Users\Abude\AppData\Local\Temp\cc3qSAfr.s 			page 5


 202:..\..\..\..\..\..\Dev\Library embedded l2c display\u8g2\csrc/u8x8_d_st75160.c **** 
 203:..\..\..\..\..\..\Dev\Library embedded l2c display\u8g2\csrc/u8x8_d_st75160.c ****   //U8X8_C( 0x031 ),				/* select 01 commands */
 204:..\..\..\..\..\..\Dev\Library embedded l2c display\u8g2\csrc/u8x8_d_st75160.c ****   U8X8_C( 0x032 ),				/* analog circuit set */
 205:..\..\..\..\..\..\Dev\Library embedded l2c display\u8g2\csrc/u8x8_d_st75160.c ****   U8X8_A( 0x000 ),				/* code example: OSC Frequency adjustment */
 206:..\..\..\..\..\..\Dev\Library embedded l2c display\u8g2\csrc/u8x8_d_st75160.c ****   U8X8_A( 0x001 ),				/* Frequency on booster capacitors 1 = 6KHz? */
 207:..\..\..\..\..\..\Dev\Library embedded l2c display\u8g2\csrc/u8x8_d_st75160.c ****   U8X8_A( 0x004 ),				/* Bias: 1: 1/13, 2: 1/12, 3: 1/11, 4:1/10, 5:1/9 */
 208:..\..\..\..\..\..\Dev\Library embedded l2c display\u8g2\csrc/u8x8_d_st75160.c ****     
 209:..\..\..\..\..\..\Dev\Library embedded l2c display\u8g2\csrc/u8x8_d_st75160.c ****   //U8X8_C( 0x031 ),				/* select 01 commands */
 210:..\..\..\..\..\..\Dev\Library embedded l2c display\u8g2\csrc/u8x8_d_st75160.c ****   U8X8_C( 0x020 ),				/* gray levels */
 211:..\..\..\..\..\..\Dev\Library embedded l2c display\u8g2\csrc/u8x8_d_st75160.c ****   U8X8_A( 0x01 ),
 212:..\..\..\..\..\..\Dev\Library embedded l2c display\u8g2\csrc/u8x8_d_st75160.c ****   U8X8_A( 0x03 ),
 213:..\..\..\..\..\..\Dev\Library embedded l2c display\u8g2\csrc/u8x8_d_st75160.c ****   U8X8_A( 0x05 ),
 214:..\..\..\..\..\..\Dev\Library embedded l2c display\u8g2\csrc/u8x8_d_st75160.c ****   U8X8_A( 0x07 ),
 215:..\..\..\..\..\..\Dev\Library embedded l2c display\u8g2\csrc/u8x8_d_st75160.c ****   U8X8_A( 0x09),
 216:..\..\..\..\..\..\Dev\Library embedded l2c display\u8g2\csrc/u8x8_d_st75160.c ****   U8X8_A( 0x0b ),
 217:..\..\..\..\..\..\Dev\Library embedded l2c display\u8g2\csrc/u8x8_d_st75160.c ****   U8X8_A( 0x0d ),
 218:..\..\..\..\..\..\Dev\Library embedded l2c display\u8g2\csrc/u8x8_d_st75160.c ****   U8X8_A( 0x10 ),
 219:..\..\..\..\..\..\Dev\Library embedded l2c display\u8g2\csrc/u8x8_d_st75160.c ****   U8X8_A( 0x11 ),
 220:..\..\..\..\..\..\Dev\Library embedded l2c display\u8g2\csrc/u8x8_d_st75160.c ****   U8X8_A( 0x13 ),
 221:..\..\..\..\..\..\Dev\Library embedded l2c display\u8g2\csrc/u8x8_d_st75160.c ****   U8X8_A( 0x15 ),
 222:..\..\..\..\..\..\Dev\Library embedded l2c display\u8g2\csrc/u8x8_d_st75160.c ****   U8X8_A( 0x17 ),
 223:..\..\..\..\..\..\Dev\Library embedded l2c display\u8g2\csrc/u8x8_d_st75160.c ****   U8X8_A( 0x19 ),
 224:..\..\..\..\..\..\Dev\Library embedded l2c display\u8g2\csrc/u8x8_d_st75160.c ****   U8X8_A( 0x1b ),
 225:..\..\..\..\..\..\Dev\Library embedded l2c display\u8g2\csrc/u8x8_d_st75160.c ****   U8X8_A( 0x1d ),
 226:..\..\..\..\..\..\Dev\Library embedded l2c display\u8g2\csrc/u8x8_d_st75160.c ****   U8X8_A( 0x1f ),
 227:..\..\..\..\..\..\Dev\Library embedded l2c display\u8g2\csrc/u8x8_d_st75160.c ****  
 228:..\..\..\..\..\..\Dev\Library embedded l2c display\u8g2\csrc/u8x8_d_st75160.c ****   
 229:..\..\..\..\..\..\Dev\Library embedded l2c display\u8g2\csrc/u8x8_d_st75160.c ****   U8X8_C( 0x030 ),				/* select 00 commands */
 230:..\..\..\..\..\..\Dev\Library embedded l2c display\u8g2\csrc/u8x8_d_st75160.c ****   U8X8_CAA(0x75, 0, 0x4f),		/* row range */
 231:..\..\..\..\..\..\Dev\Library embedded l2c display\u8g2\csrc/u8x8_d_st75160.c ****   U8X8_CAA(0x15, 0, 239),		/* col range */
 232:..\..\..\..\..\..\Dev\Library embedded l2c display\u8g2\csrc/u8x8_d_st75160.c ****   
 233:..\..\..\..\..\..\Dev\Library embedded l2c display\u8g2\csrc/u8x8_d_st75160.c ****   //U8X8_C( 0x030 ),				/* select 00 commands */
 234:..\..\..\..\..\..\Dev\Library embedded l2c display\u8g2\csrc/u8x8_d_st75160.c ****   U8X8_CA( 0xbc, 0x02 ),			/* data scan dir */
 235:..\..\..\..\..\..\Dev\Library embedded l2c display\u8g2\csrc/u8x8_d_st75160.c ****   U8X8_A( 0xa6 ),				/* ??? */
 236:..\..\..\..\..\..\Dev\Library embedded l2c display\u8g2\csrc/u8x8_d_st75160.c **** 
 237:..\..\..\..\..\..\Dev\Library embedded l2c display\u8g2\csrc/u8x8_d_st75160.c ****   //U8X8_C( 0x030 ),				/* select 00 commands */
 238:..\..\..\..\..\..\Dev\Library embedded l2c display\u8g2\csrc/u8x8_d_st75160.c ****   U8X8_C( 0x00c ),				/* data format LSB top */
 239:..\..\..\..\..\..\Dev\Library embedded l2c display\u8g2\csrc/u8x8_d_st75160.c **** 
 240:..\..\..\..\..\..\Dev\Library embedded l2c display\u8g2\csrc/u8x8_d_st75160.c ****   //U8X8_C( 0x030 ),				/* select 00 commands */ 
 241:..\..\..\..\..\..\Dev\Library embedded l2c display\u8g2\csrc/u8x8_d_st75160.c ****   U8X8_C( 0xca ),				/* display control, 3 args follow  */
 242:..\..\..\..\..\..\Dev\Library embedded l2c display\u8g2\csrc/u8x8_d_st75160.c ****   U8X8_A( 0x00 ),				/* 0x00: no clock division, 0x04: devide clock */
 243:..\..\..\..\..\..\Dev\Library embedded l2c display\u8g2\csrc/u8x8_d_st75160.c ****   U8X8_A( 95 ),				/* 1/96 duty */
 244:..\..\..\..\..\..\Dev\Library embedded l2c display\u8g2\csrc/u8x8_d_st75160.c ****   U8X8_A( 0x20 ),				/* nline off */ 
 245:..\..\..\..\..\..\Dev\Library embedded l2c display\u8g2\csrc/u8x8_d_st75160.c **** 
 246:..\..\..\..\..\..\Dev\Library embedded l2c display\u8g2\csrc/u8x8_d_st75160.c ****   //U8X8_C( 0x030 ),				/* select 00 commands */ 
 247:..\..\..\..\..\..\Dev\Library embedded l2c display\u8g2\csrc/u8x8_d_st75160.c ****   U8X8_CA( 0x0f0, 0x010 ),		/* monochrome mode  = 0x010*/
 248:..\..\..\..\..\..\Dev\Library embedded l2c display\u8g2\csrc/u8x8_d_st75160.c **** 
 249:..\..\..\..\..\..\Dev\Library embedded l2c display\u8g2\csrc/u8x8_d_st75160.c ****   //U8X8_C( 0x030 ),				/* select 00 commands */
 250:..\..\..\..\..\..\Dev\Library embedded l2c display\u8g2\csrc/u8x8_d_st75160.c ****   U8X8_CAA( 0x81, 0x18, 0x04 ),	/* Volume control */
 251:..\..\..\..\..\..\Dev\Library embedded l2c display\u8g2\csrc/u8x8_d_st75160.c **** 
 252:..\..\..\..\..\..\Dev\Library embedded l2c display\u8g2\csrc/u8x8_d_st75160.c ****   //U8X8_C( 0x030 ),				/* select 00 commands */
 253:..\..\..\..\..\..\Dev\Library embedded l2c display\u8g2\csrc/u8x8_d_st75160.c ****   U8X8_CA( 0x020, 0x00b ),		/* Power control: Regulator, follower & booster on */
 254:..\..\..\..\..\..\Dev\Library embedded l2c display\u8g2\csrc/u8x8_d_st75160.c ****   U8X8_DLY(100),
 255:..\..\..\..\..\..\Dev\Library embedded l2c display\u8g2\csrc/u8x8_d_st75160.c **** 
 256:..\..\..\..\..\..\Dev\Library embedded l2c display\u8g2\csrc/u8x8_d_st75160.c ****   U8X8_END_TRANSFER(),             	/* disable chip */
 257:..\..\..\..\..\..\Dev\Library embedded l2c display\u8g2\csrc/u8x8_d_st75160.c ****   U8X8_END()             			/* end of sequence */
 258:..\..\..\..\..\..\Dev\Library embedded l2c display\u8g2\csrc/u8x8_d_st75160.c **** };
ARM GAS  C:\Users\Abude\AppData\Local\Temp\cc3qSAfr.s 			page 6


 259:..\..\..\..\..\..\Dev\Library embedded l2c display\u8g2\csrc/u8x8_d_st75160.c **** 
 260:..\..\..\..\..\..\Dev\Library embedded l2c display\u8g2\csrc/u8x8_d_st75160.c **** 
 261:..\..\..\..\..\..\Dev\Library embedded l2c display\u8g2\csrc/u8x8_d_st75160.c **** uint8_t u8x8_d_st75160_jm16096(u8x8_t *u8x8, uint8_t msg, uint8_t arg_int, void *arg_ptr)
 262:..\..\..\..\..\..\Dev\Library embedded l2c display\u8g2\csrc/u8x8_d_st75160.c **** {
  28              		.loc 1 262 0
  29              		.cfi_startproc
  30              		@ args = 0, pretend = 0, frame = 0
  31              		@ frame_needed = 0, uses_anonymous_args = 0
  32              	.LVL0:
  33 0000 2DE9F041 		push	{r4, r5, r6, r7, r8, lr}
  34              		.cfi_def_cfa_offset 24
  35              		.cfi_offset 4, -24
  36              		.cfi_offset 5, -20
  37              		.cfi_offset 6, -16
  38              		.cfi_offset 7, -12
  39              		.cfi_offset 8, -8
  40              		.cfi_offset 14, -4
  41 0004 0646     		mov	r6, r0
  42 0006 1546     		mov	r5, r2
  43 0008 1F46     		mov	r7, r3
 263:..\..\..\..\..\..\Dev\Library embedded l2c display\u8g2\csrc/u8x8_d_st75160.c ****   uint8_t x, c;
 264:..\..\..\..\..\..\Dev\Library embedded l2c display\u8g2\csrc/u8x8_d_st75160.c ****   uint8_t *ptr;
 265:..\..\..\..\..\..\Dev\Library embedded l2c display\u8g2\csrc/u8x8_d_st75160.c **** 
 266:..\..\..\..\..\..\Dev\Library embedded l2c display\u8g2\csrc/u8x8_d_st75160.c ****   switch(msg)
  44              		.loc 1 266 0
  45 000a 0939     		subs	r1, r1, #9
  46              	.LVL1:
  47 000c 0629     		cmp	r1, #6
  48 000e 00F2A080 		bhi	.L16
  49 0012 DFE801F0 		tbb	[pc, r1]
  50              	.LVL2:
  51              	.L4:
  52 0016 53       		.byte	(.L3-.L4)/2
  53 0017 59       		.byte	(.L5-.L4)/2
  54 0018 62       		.byte	(.L6-.L4)/2
  55 0019 9E       		.byte	(.L16-.L4)/2
  56 001a 6F       		.byte	(.L7-.L4)/2
  57 001b 84       		.byte	(.L8-.L4)/2
  58 001c 04       		.byte	(.L9-.L4)/2
  59 001d 00       		.p2align 1
  60              	.L9:
 267:..\..\..\..\..\..\Dev\Library embedded l2c display\u8g2\csrc/u8x8_d_st75160.c ****   {
 268:..\..\..\..\..\..\Dev\Library embedded l2c display\u8g2\csrc/u8x8_d_st75160.c ****             case U8X8_MSG_DISPLAY_DRAW_TILE:
 269:..\..\..\..\..\..\Dev\Library embedded l2c display\u8g2\csrc/u8x8_d_st75160.c ****               
 270:..\..\..\..\..\..\Dev\Library embedded l2c display\u8g2\csrc/u8x8_d_st75160.c ****               u8x8_cad_StartTransfer(u8x8);
  61              		.loc 1 270 0
  62 001e FFF7FEFF 		bl	u8x8_cad_StartTransfer
  63              	.LVL3:
 271:..\..\..\..\..\..\Dev\Library embedded l2c display\u8g2\csrc/u8x8_d_st75160.c ****               x = ((u8x8_tile_t *)arg_ptr)->x_pos;    
  64              		.loc 1 271 0
  65 0022 7C79     		ldrb	r4, [r7, #5]	@ zero_extendqisi2
  66              	.LVL4:
 272:..\..\..\..\..\..\Dev\Library embedded l2c display\u8g2\csrc/u8x8_d_st75160.c ****               x *= 8;
  67              		.loc 1 272 0
  68 0024 E400     		lsls	r4, r4, #3
  69              	.LVL5:
  70 0026 5FFA84F8 		uxtb	r8, r4
ARM GAS  C:\Users\Abude\AppData\Local\Temp\cc3qSAfr.s 			page 7


  71              	.LVL6:
 273:..\..\..\..\..\..\Dev\Library embedded l2c display\u8g2\csrc/u8x8_d_st75160.c ****               
 274:..\..\..\..\..\..\Dev\Library embedded l2c display\u8g2\csrc/u8x8_d_st75160.c ****               u8x8_cad_SendCmd(u8x8, 0x030 );	/* select command set */
  72              		.loc 1 274 0
  73 002a 3021     		movs	r1, #48
  74 002c 3046     		mov	r0, r6
  75 002e FFF7FEFF 		bl	u8x8_cad_SendCmd
  76              	.LVL7:
 275:..\..\..\..\..\..\Dev\Library embedded l2c display\u8g2\csrc/u8x8_d_st75160.c ****               u8x8_cad_SendCmd(u8x8, 0x075 );	/* row */
  77              		.loc 1 275 0
  78 0032 7521     		movs	r1, #117
  79 0034 3046     		mov	r0, r6
  80 0036 FFF7FEFF 		bl	u8x8_cad_SendCmd
  81              	.LVL8:
 276:..\..\..\..\..\..\Dev\Library embedded l2c display\u8g2\csrc/u8x8_d_st75160.c **** 	      if ( u8x8->x_offset == 0 )		/* 0 means flip mode 1 */
  82              		.loc 1 276 0
  83 003a 96F82230 		ldrb	r3, [r6, #34]	@ zero_extendqisi2
  84 003e 33B9     		cbnz	r3, .L10
 277:..\..\..\..\..\..\Dev\Library embedded l2c display\u8g2\csrc/u8x8_d_st75160.c **** 		u8x8_cad_SendArg(u8x8, 1+(((u8x8_tile_t *)arg_ptr)->y_pos));
  85              		.loc 1 277 0
  86 0040 B979     		ldrb	r1, [r7, #6]	@ zero_extendqisi2
  87 0042 0131     		adds	r1, r1, #1
  88 0044 C9B2     		uxtb	r1, r1
  89 0046 3046     		mov	r0, r6
  90 0048 FFF7FEFF 		bl	u8x8_cad_SendArg
  91              	.LVL9:
  92 004c 03E0     		b	.L11
  93              	.L10:
 278:..\..\..\..\..\..\Dev\Library embedded l2c display\u8g2\csrc/u8x8_d_st75160.c **** 	      else
 279:..\..\..\..\..\..\Dev\Library embedded l2c display\u8g2\csrc/u8x8_d_st75160.c **** 		u8x8_cad_SendArg(u8x8, (((u8x8_tile_t *)arg_ptr)->y_pos));
  94              		.loc 1 279 0
  95 004e B979     		ldrb	r1, [r7, #6]	@ zero_extendqisi2
  96 0050 3046     		mov	r0, r6
  97 0052 FFF7FEFF 		bl	u8x8_cad_SendArg
  98              	.LVL10:
  99              	.L11:
 280:..\..\..\..\..\..\Dev\Library embedded l2c display\u8g2\csrc/u8x8_d_st75160.c ****               u8x8_cad_SendArg(u8x8, 0x04f);
 100              		.loc 1 280 0
 101 0056 4F21     		movs	r1, #79
 102 0058 3046     		mov	r0, r6
 103 005a FFF7FEFF 		bl	u8x8_cad_SendArg
 104              	.LVL11:
 281:..\..\..\..\..\..\Dev\Library embedded l2c display\u8g2\csrc/u8x8_d_st75160.c ****               //u8x8_cad_SendArg(u8x8, (((u8x8_tile_t *)arg_ptr)->y_pos));
 282:..\..\..\..\..\..\Dev\Library embedded l2c display\u8g2\csrc/u8x8_d_st75160.c ****               u8x8_cad_SendCmd(u8x8, 0x015 );	/* col */
 105              		.loc 1 282 0
 106 005e 1521     		movs	r1, #21
 107 0060 3046     		mov	r0, r6
 108 0062 FFF7FEFF 		bl	u8x8_cad_SendCmd
 109              	.LVL12:
 283:..\..\..\..\..\..\Dev\Library embedded l2c display\u8g2\csrc/u8x8_d_st75160.c ****               u8x8_cad_SendArg(u8x8, x+u8x8->x_offset);
 110              		.loc 1 283 0
 111 0066 96F82210 		ldrb	r1, [r6, #34]	@ zero_extendqisi2
 112 006a 4144     		add	r1, r1, r8
 113 006c C9B2     		uxtb	r1, r1
 114 006e 3046     		mov	r0, r6
 115 0070 FFF7FEFF 		bl	u8x8_cad_SendArg
 116              	.LVL13:
ARM GAS  C:\Users\Abude\AppData\Local\Temp\cc3qSAfr.s 			page 8


 284:..\..\..\..\..\..\Dev\Library embedded l2c display\u8g2\csrc/u8x8_d_st75160.c ****               u8x8_cad_SendArg(u8x8, 255);
 117              		.loc 1 284 0
 118 0074 FF21     		movs	r1, #255
 119 0076 3046     		mov	r0, r6
 120 0078 FFF7FEFF 		bl	u8x8_cad_SendArg
 121              	.LVL14:
 285:..\..\..\..\..\..\Dev\Library embedded l2c display\u8g2\csrc/u8x8_d_st75160.c ****               u8x8_cad_SendCmd(u8x8, 0x05c );	
 122              		.loc 1 285 0
 123 007c 5C21     		movs	r1, #92
 124 007e 3046     		mov	r0, r6
 125 0080 FFF7FEFF 		bl	u8x8_cad_SendCmd
 126              	.LVL15:
 127              	.L13:
 286:..\..\..\..\..\..\Dev\Library embedded l2c display\u8g2\csrc/u8x8_d_st75160.c ****             
 287:..\..\..\..\..\..\Dev\Library embedded l2c display\u8g2\csrc/u8x8_d_st75160.c ****               
 288:..\..\..\..\..\..\Dev\Library embedded l2c display\u8g2\csrc/u8x8_d_st75160.c ****               do
 289:..\..\..\..\..\..\Dev\Library embedded l2c display\u8g2\csrc/u8x8_d_st75160.c ****               {
 290:..\..\..\..\..\..\Dev\Library embedded l2c display\u8g2\csrc/u8x8_d_st75160.c ****                 c = ((u8x8_tile_t *)arg_ptr)->cnt;
 128              		.loc 1 290 0
 129 0084 3B79     		ldrb	r3, [r7, #4]	@ zero_extendqisi2
 130              	.LVL16:
 291:..\..\..\..\..\..\Dev\Library embedded l2c display\u8g2\csrc/u8x8_d_st75160.c ****                 ptr = ((u8x8_tile_t *)arg_ptr)->tile_ptr;
 131              		.loc 1 291 0
 132 0086 3A68     		ldr	r2, [r7]
 133              	.LVL17:
 292:..\..\..\..\..\..\Dev\Library embedded l2c display\u8g2\csrc/u8x8_d_st75160.c ****                 c *= 8;
 134              		.loc 1 292 0
 135 0088 DB00     		lsls	r3, r3, #3
 136              	.LVL18:
 137 008a DCB2     		uxtb	r4, r3
 138              	.LVL19:
 293:..\..\..\..\..\..\Dev\Library embedded l2c display\u8g2\csrc/u8x8_d_st75160.c **** 
 294:..\..\..\..\..\..\Dev\Library embedded l2c display\u8g2\csrc/u8x8_d_st75160.c ****                 if ( c + x > 160u )
 139              		.loc 1 294 0
 140 008c 04EB0803 		add	r3, r4, r8
 141 0090 A02B     		cmp	r3, #160
 142 0092 02D9     		bls	.L12
 143              	.LVL20:
 295:..\..\..\..\..\..\Dev\Library embedded l2c display\u8g2\csrc/u8x8_d_st75160.c ****                 {
 296:..\..\..\..\..\..\Dev\Library embedded l2c display\u8g2\csrc/u8x8_d_st75160.c ****                         c = 160u;
 297:..\..\..\..\..\..\Dev\Library embedded l2c display\u8g2\csrc/u8x8_d_st75160.c ****                         c -= x;
 144              		.loc 1 297 0
 145 0094 C8F1A003 		rsb	r3, r8, #160
 146 0098 DCB2     		uxtb	r4, r3
 147              	.LVL21:
 148              	.L12:
 298:..\..\..\..\..\..\Dev\Library embedded l2c display\u8g2\csrc/u8x8_d_st75160.c ****                 }
 299:..\..\..\..\..\..\Dev\Library embedded l2c display\u8g2\csrc/u8x8_d_st75160.c ****                       
 300:..\..\..\..\..\..\Dev\Library embedded l2c display\u8g2\csrc/u8x8_d_st75160.c ****                 u8x8_cad_SendData(u8x8, c, ptr); 	
 149              		.loc 1 300 0
 150 009a 2146     		mov	r1, r4
 151 009c 3046     		mov	r0, r6
 152 009e FFF7FEFF 		bl	u8x8_cad_SendData
 153              	.LVL22:
 301:..\..\..\..\..\..\Dev\Library embedded l2c display\u8g2\csrc/u8x8_d_st75160.c ****                 x += c;
 154              		.loc 1 301 0
 155 00a2 4444     		add	r4, r4, r8
ARM GAS  C:\Users\Abude\AppData\Local\Temp\cc3qSAfr.s 			page 9


 156              	.LVL23:
 157 00a4 5FFA84F8 		uxtb	r8, r4
 158              	.LVL24:
 302:..\..\..\..\..\..\Dev\Library embedded l2c display\u8g2\csrc/u8x8_d_st75160.c ****                 arg_int--;
 159              		.loc 1 302 0
 160 00a8 013D     		subs	r5, r5, #1
 161              	.LVL25:
 303:..\..\..\..\..\..\Dev\Library embedded l2c display\u8g2\csrc/u8x8_d_st75160.c ****               } while( arg_int > 0 );
 162              		.loc 1 303 0
 163 00aa 15F0FF05 		ands	r5, r5, #255
 164              	.LVL26:
 165 00ae E9D1     		bne	.L13
 304:..\..\..\..\..\..\Dev\Library embedded l2c display\u8g2\csrc/u8x8_d_st75160.c ****               
 305:..\..\..\..\..\..\Dev\Library embedded l2c display\u8g2\csrc/u8x8_d_st75160.c ****               u8x8_cad_EndTransfer(u8x8);
 166              		.loc 1 305 0
 167 00b0 3046     		mov	r0, r6
 168 00b2 FFF7FEFF 		bl	u8x8_cad_EndTransfer
 169              	.LVL27:
 306:..\..\..\..\..\..\Dev\Library embedded l2c display\u8g2\csrc/u8x8_d_st75160.c ****               return 1;
 170              		.loc 1 306 0
 171 00b6 0120     		movs	r0, #1
 172 00b8 BDE8F081 		pop	{r4, r5, r6, r7, r8, pc}
 173              	.LVL28:
 174              	.L3:
 307:..\..\..\..\..\..\Dev\Library embedded l2c display\u8g2\csrc/u8x8_d_st75160.c ****         case U8X8_MSG_DISPLAY_SETUP_MEMORY:
 308:..\..\..\..\..\..\Dev\Library embedded l2c display\u8g2\csrc/u8x8_d_st75160.c ****             //u8x8_SetI2CAddress(u8x8, 0x078);		/* lowest I2C adr of the ST75256 */
 309:..\..\..\..\..\..\Dev\Library embedded l2c display\u8g2\csrc/u8x8_d_st75160.c **** 	    u8x8_d_helper_display_setup_memory(u8x8, &u8x8_st75160_jm16096_display_info);
 175              		.loc 1 309 0
 176 00bc 2649     		ldr	r1, .L18
 177 00be FFF7FEFF 		bl	u8x8_d_helper_display_setup_memory
 178              	.LVL29:
 310:..\..\..\..\..\..\Dev\Library embedded l2c display\u8g2\csrc/u8x8_d_st75160.c ****             return 1;
 179              		.loc 1 310 0
 180 00c2 0120     		movs	r0, #1
 181 00c4 BDE8F081 		pop	{r4, r5, r6, r7, r8, pc}
 182              	.LVL30:
 183              	.L5:
 311:..\..\..\..\..\..\Dev\Library embedded l2c display\u8g2\csrc/u8x8_d_st75160.c ****         case U8X8_MSG_DISPLAY_INIT:
 312:..\..\..\..\..\..\Dev\Library embedded l2c display\u8g2\csrc/u8x8_d_st75160.c **** 	    u8x8_d_helper_display_init(u8x8);
 184              		.loc 1 312 0
 185 00c8 FFF7FEFF 		bl	u8x8_d_helper_display_init
 186              	.LVL31:
 313:..\..\..\..\..\..\Dev\Library embedded l2c display\u8g2\csrc/u8x8_d_st75160.c **** 	    u8x8_cad_SendSequence(u8x8, u8x8_d_st75160_jm16096_init_seq);    
 187              		.loc 1 313 0
 188 00cc 2349     		ldr	r1, .L18+4
 189 00ce 3046     		mov	r0, r6
 190 00d0 FFF7FEFF 		bl	u8x8_cad_SendSequence
 191              	.LVL32:
 314:..\..\..\..\..\..\Dev\Library embedded l2c display\u8g2\csrc/u8x8_d_st75160.c ****             return 1;
 192              		.loc 1 314 0
 193 00d4 0120     		movs	r0, #1
 194 00d6 BDE8F081 		pop	{r4, r5, r6, r7, r8, pc}
 195              	.LVL33:
 196              	.L6:
 315:..\..\..\..\..\..\Dev\Library embedded l2c display\u8g2\csrc/u8x8_d_st75160.c ****         case U8X8_MSG_DISPLAY_SET_POWER_SAVE:
 316:..\..\..\..\..\..\Dev\Library embedded l2c display\u8g2\csrc/u8x8_d_st75160.c ****               if ( arg_int == 0 )
 197              		.loc 1 316 0
ARM GAS  C:\Users\Abude\AppData\Local\Temp\cc3qSAfr.s 			page 10


 198 00da 2AB9     		cbnz	r2, .L14
 317:..\..\..\..\..\..\Dev\Library embedded l2c display\u8g2\csrc/u8x8_d_st75160.c ****                 u8x8_cad_SendSequence(u8x8, u8x8_d_st75256_256x128_powersave0_seq);
 199              		.loc 1 317 0
 200 00dc 2049     		ldr	r1, .L18+8
 201 00de FFF7FEFF 		bl	u8x8_cad_SendSequence
 202              	.LVL34:
 318:..\..\..\..\..\..\Dev\Library embedded l2c display\u8g2\csrc/u8x8_d_st75160.c ****               else
 319:..\..\..\..\..\..\Dev\Library embedded l2c display\u8g2\csrc/u8x8_d_st75160.c ****                 u8x8_cad_SendSequence(u8x8, u8x8_d_st75256_256x128_powersave1_seq);
 320:..\..\..\..\..\..\Dev\Library embedded l2c display\u8g2\csrc/u8x8_d_st75160.c **** 
 321:..\..\..\..\..\..\Dev\Library embedded l2c display\u8g2\csrc/u8x8_d_st75160.c ****               return 1;
 203              		.loc 1 321 0
 204 00e2 0120     		movs	r0, #1
 205 00e4 BDE8F081 		pop	{r4, r5, r6, r7, r8, pc}
 206              	.LVL35:
 207              	.L14:
 319:..\..\..\..\..\..\Dev\Library embedded l2c display\u8g2\csrc/u8x8_d_st75160.c **** 
 208              		.loc 1 319 0
 209 00e8 1E49     		ldr	r1, .L18+12
 210 00ea FFF7FEFF 		bl	u8x8_cad_SendSequence
 211              	.LVL36:
 212              		.loc 1 321 0
 213 00ee 0120     		movs	r0, #1
 214 00f0 BDE8F081 		pop	{r4, r5, r6, r7, r8, pc}
 215              	.LVL37:
 216              	.L7:
 322:..\..\..\..\..\..\Dev\Library embedded l2c display\u8g2\csrc/u8x8_d_st75160.c **** 	case U8X8_MSG_DISPLAY_SET_FLIP_MODE:
 323:..\..\..\..\..\..\Dev\Library embedded l2c display\u8g2\csrc/u8x8_d_st75160.c **** 	    if ( arg_int == 0 )
 217              		.loc 1 323 0
 218 00f4 4AB9     		cbnz	r2, .L15
 324:..\..\..\..\..\..\Dev\Library embedded l2c display\u8g2\csrc/u8x8_d_st75160.c **** 	    {
 325:..\..\..\..\..\..\Dev\Library embedded l2c display\u8g2\csrc/u8x8_d_st75160.c **** 	      u8x8_cad_SendSequence(u8x8, u8x8_d_st75256_jlx172104_flip0_seq);
 219              		.loc 1 325 0
 220 00f6 1C49     		ldr	r1, .L18+16
 221 00f8 FFF7FEFF 		bl	u8x8_cad_SendSequence
 222              	.LVL38:
 326:..\..\..\..\..\..\Dev\Library embedded l2c display\u8g2\csrc/u8x8_d_st75160.c **** 	      u8x8->x_offset = u8x8->display_info->default_x_offset;
 223              		.loc 1 326 0
 224 00fc 3368     		ldr	r3, [r6]
 225 00fe 9B7C     		ldrb	r3, [r3, #18]	@ zero_extendqisi2
 226 0100 86F82230 		strb	r3, [r6, #34]
 327:..\..\..\..\..\..\Dev\Library embedded l2c display\u8g2\csrc/u8x8_d_st75160.c **** 	    }
 328:..\..\..\..\..\..\Dev\Library embedded l2c display\u8g2\csrc/u8x8_d_st75160.c **** 	    else
 329:..\..\..\..\..\..\Dev\Library embedded l2c display\u8g2\csrc/u8x8_d_st75160.c **** 	    {
 330:..\..\..\..\..\..\Dev\Library embedded l2c display\u8g2\csrc/u8x8_d_st75160.c **** 	      u8x8_cad_SendSequence(u8x8, u8x8_d_st75256_jlx172104_flip1_seq);
 331:..\..\..\..\..\..\Dev\Library embedded l2c display\u8g2\csrc/u8x8_d_st75160.c **** 	      u8x8->x_offset = u8x8->display_info->flipmode_x_offset;
 332:..\..\..\..\..\..\Dev\Library embedded l2c display\u8g2\csrc/u8x8_d_st75160.c **** 	    }
 333:..\..\..\..\..\..\Dev\Library embedded l2c display\u8g2\csrc/u8x8_d_st75160.c **** 	    return 1;
 227              		.loc 1 333 0
 228 0104 0120     		movs	r0, #1
 229 0106 BDE8F081 		pop	{r4, r5, r6, r7, r8, pc}
 230              	.LVL39:
 231              	.L15:
 330:..\..\..\..\..\..\Dev\Library embedded l2c display\u8g2\csrc/u8x8_d_st75160.c **** 	      u8x8->x_offset = u8x8->display_info->flipmode_x_offset;
 232              		.loc 1 330 0
 233 010a 1849     		ldr	r1, .L18+20
 234 010c FFF7FEFF 		bl	u8x8_cad_SendSequence
 235              	.LVL40:
ARM GAS  C:\Users\Abude\AppData\Local\Temp\cc3qSAfr.s 			page 11


 331:..\..\..\..\..\..\Dev\Library embedded l2c display\u8g2\csrc/u8x8_d_st75160.c **** 	    }
 236              		.loc 1 331 0
 237 0110 3368     		ldr	r3, [r6]
 238 0112 DB7C     		ldrb	r3, [r3, #19]	@ zero_extendqisi2
 239 0114 86F82230 		strb	r3, [r6, #34]
 240              		.loc 1 333 0
 241 0118 0120     		movs	r0, #1
 242 011a BDE8F081 		pop	{r4, r5, r6, r7, r8, pc}
 243              	.LVL41:
 244              	.L8:
 334:..\..\..\..\..\..\Dev\Library embedded l2c display\u8g2\csrc/u8x8_d_st75160.c **** 		
 335:..\..\..\..\..\..\Dev\Library embedded l2c display\u8g2\csrc/u8x8_d_st75160.c **** #ifdef U8X8_WITH_SET_CONTRAST
 336:..\..\..\..\..\..\Dev\Library embedded l2c display\u8g2\csrc/u8x8_d_st75160.c ****         case U8X8_MSG_DISPLAY_SET_CONTRAST:
 337:..\..\..\..\..\..\Dev\Library embedded l2c display\u8g2\csrc/u8x8_d_st75160.c **** 
 338:..\..\..\..\..\..\Dev\Library embedded l2c display\u8g2\csrc/u8x8_d_st75160.c ****               u8x8_cad_StartTransfer(u8x8);
 245              		.loc 1 338 0
 246 011e FFF7FEFF 		bl	u8x8_cad_StartTransfer
 247              	.LVL42:
 339:..\..\..\..\..\..\Dev\Library embedded l2c display\u8g2\csrc/u8x8_d_st75160.c ****               
 340:..\..\..\..\..\..\Dev\Library embedded l2c display\u8g2\csrc/u8x8_d_st75160.c ****               u8x8_cad_SendCmd(u8x8, 0x030 );
 248              		.loc 1 340 0
 249 0122 3021     		movs	r1, #48
 250 0124 3046     		mov	r0, r6
 251 0126 FFF7FEFF 		bl	u8x8_cad_SendCmd
 252              	.LVL43:
 341:..\..\..\..\..\..\Dev\Library embedded l2c display\u8g2\csrc/u8x8_d_st75160.c ****               u8x8_cad_SendCmd(u8x8, 0x081 );  /* there are 9 bit for the volume control */
 253              		.loc 1 341 0
 254 012a 8121     		movs	r1, #129
 255 012c 3046     		mov	r0, r6
 256 012e FFF7FEFF 		bl	u8x8_cad_SendCmd
 257              	.LVL44:
 342:..\..\..\..\..\..\Dev\Library embedded l2c display\u8g2\csrc/u8x8_d_st75160.c ****               u8x8_cad_SendArg(u8x8, (arg_int & 0x1f)<<1 );	/* lower 6 bit */
 258              		.loc 1 342 0
 259 0132 6900     		lsls	r1, r5, #1
 260 0134 01F03E01 		and	r1, r1, #62
 261 0138 3046     		mov	r0, r6
 262 013a FFF7FEFF 		bl	u8x8_cad_SendArg
 263              	.LVL45:
 343:..\..\..\..\..\..\Dev\Library embedded l2c display\u8g2\csrc/u8x8_d_st75160.c ****               u8x8_cad_SendArg(u8x8, (arg_int>>5));		/* upper 3 bit */
 264              		.loc 1 343 0
 265 013e 6909     		lsrs	r1, r5, #5
 266 0140 3046     		mov	r0, r6
 267 0142 FFF7FEFF 		bl	u8x8_cad_SendArg
 268              	.LVL46:
 344:..\..\..\..\..\..\Dev\Library embedded l2c display\u8g2\csrc/u8x8_d_st75160.c ****               
 345:..\..\..\..\..\..\Dev\Library embedded l2c display\u8g2\csrc/u8x8_d_st75160.c ****               u8x8_cad_EndTransfer(u8x8);
 269              		.loc 1 345 0
 270 0146 3046     		mov	r0, r6
 271 0148 FFF7FEFF 		bl	u8x8_cad_EndTransfer
 272              	.LVL47:
 346:..\..\..\..\..\..\Dev\Library embedded l2c display\u8g2\csrc/u8x8_d_st75160.c ****               return 1;
 273              		.loc 1 346 0
 274 014c 0120     		movs	r0, #1
 275 014e BDE8F081 		pop	{r4, r5, r6, r7, r8, pc}
 276              	.LVL48:
 277              	.L16:
 347:..\..\..\..\..\..\Dev\Library embedded l2c display\u8g2\csrc/u8x8_d_st75160.c **** #endif
ARM GAS  C:\Users\Abude\AppData\Local\Temp\cc3qSAfr.s 			page 12


 348:..\..\..\..\..\..\Dev\Library embedded l2c display\u8g2\csrc/u8x8_d_st75160.c ****   }
 349:..\..\..\..\..\..\Dev\Library embedded l2c display\u8g2\csrc/u8x8_d_st75160.c ****   return 0;
 278              		.loc 1 349 0
 279 0152 0020     		movs	r0, #0
 280              	.LVL49:
 350:..\..\..\..\..\..\Dev\Library embedded l2c display\u8g2\csrc/u8x8_d_st75160.c ****   
 351:..\..\..\..\..\..\Dev\Library embedded l2c display\u8g2\csrc/u8x8_d_st75160.c ****   
 352:..\..\..\..\..\..\Dev\Library embedded l2c display\u8g2\csrc/u8x8_d_st75160.c ****   
 353:..\..\..\..\..\..\Dev\Library embedded l2c display\u8g2\csrc/u8x8_d_st75160.c **** }
 281              		.loc 1 353 0
 282 0154 BDE8F081 		pop	{r4, r5, r6, r7, r8, pc}
 283              	.LVL50:
 284              	.L19:
 285              		.align	2
 286              	.L18:
 287 0158 00000000 		.word	.LANCHOR0
 288 015c 18000000 		.word	.LANCHOR0+24
 289 0160 84000000 		.word	.LANCHOR0+132
 290 0164 90000000 		.word	.LANCHOR0+144
 291 0168 9C000000 		.word	.LANCHOR0+156
 292 016c AC000000 		.word	.LANCHOR0+172
 293              		.cfi_endproc
 294              	.LFE0:
 295              		.size	u8x8_d_st75160_jm16096, .-u8x8_d_st75160_jm16096
 296              		.section	.rodata
 297              		.align	2
 298              		.set	.LANCHOR0,. + 0
 299              		.type	u8x8_st75160_jm16096_display_info, %object
 300              		.size	u8x8_st75160_jm16096_display_info, 24
 301              	u8x8_st75160_jm16096_display_info:
 302 0000 00       		.byte	0
 303 0001 01       		.byte	1
 304 0002 14       		.byte	20
 305 0003 14       		.byte	20
 306 0004 05       		.byte	5
 307 0005 05       		.byte	5
 308 0006 14       		.byte	20
 309 0007 28       		.byte	40
 310 0008 00093D00 		.word	4000000
 311 000c 00       		.byte	0
 312 000d 04       		.byte	4
 313 000e 0F       		.byte	15
 314 000f 46       		.byte	70
 315 0010 14       		.byte	20
 316 0011 0C       		.byte	12
 317 0012 00       		.byte	0
 318 0013 00       		.byte	0
 319 0014 A000     		.short	160
 320 0016 6000     		.short	96
 321              		.type	u8x8_d_st75160_jm16096_init_seq, %object
 322              		.size	u8x8_d_st75160_jm16096_init_seq, 105
 323              	u8x8_d_st75160_jm16096_init_seq:
 324 0018 18       		.byte	24
 325 0019 FE       		.byte	-2
 326 001a 14       		.byte	20
 327 001b 15       		.byte	21
 328 001c 30       		.byte	48
ARM GAS  C:\Users\Abude\AppData\Local\Temp\cc3qSAfr.s 			page 13


 329 001d 15       		.byte	21
 330 001e 94       		.byte	-108
 331 001f 15       		.byte	21
 332 0020 AE       		.byte	-82
 333 0021 15       		.byte	21
 334 0022 31       		.byte	49
 335 0023 15       		.byte	21
 336 0024 D7       		.byte	-41
 337 0025 16       		.byte	22
 338 0026 9F       		.byte	-97
 339 0027 15       		.byte	21
 340 0028 32       		.byte	50
 341 0029 16       		.byte	22
 342 002a 00       		.byte	0
 343 002b 16       		.byte	22
 344 002c 01       		.byte	1
 345 002d 16       		.byte	22
 346 002e 04       		.byte	4
 347 002f 15       		.byte	21
 348 0030 20       		.byte	32
 349 0031 16       		.byte	22
 350 0032 01       		.byte	1
 351 0033 16       		.byte	22
 352 0034 03       		.byte	3
 353 0035 16       		.byte	22
 354 0036 05       		.byte	5
 355 0037 16       		.byte	22
 356 0038 07       		.byte	7
 357 0039 16       		.byte	22
 358 003a 09       		.byte	9
 359 003b 16       		.byte	22
 360 003c 0B       		.byte	11
 361 003d 16       		.byte	22
 362 003e 0D       		.byte	13
 363 003f 16       		.byte	22
 364 0040 10       		.byte	16
 365 0041 16       		.byte	22
 366 0042 11       		.byte	17
 367 0043 16       		.byte	22
 368 0044 13       		.byte	19
 369 0045 16       		.byte	22
 370 0046 15       		.byte	21
 371 0047 16       		.byte	22
 372 0048 17       		.byte	23
 373 0049 16       		.byte	22
 374 004a 19       		.byte	25
 375 004b 16       		.byte	22
 376 004c 1B       		.byte	27
 377 004d 16       		.byte	22
 378 004e 1D       		.byte	29
 379 004f 16       		.byte	22
 380 0050 1F       		.byte	31
 381 0051 15       		.byte	21
 382 0052 30       		.byte	48
 383 0053 15       		.byte	21
 384 0054 75       		.byte	117
 385 0055 16       		.byte	22
ARM GAS  C:\Users\Abude\AppData\Local\Temp\cc3qSAfr.s 			page 14


 386 0056 00       		.byte	0
 387 0057 16       		.byte	22
 388 0058 4F       		.byte	79
 389 0059 15       		.byte	21
 390 005a 15       		.byte	21
 391 005b 16       		.byte	22
 392 005c 00       		.byte	0
 393 005d 16       		.byte	22
 394 005e EF       		.byte	-17
 395 005f 15       		.byte	21
 396 0060 BC       		.byte	-68
 397 0061 16       		.byte	22
 398 0062 02       		.byte	2
 399 0063 16       		.byte	22
 400 0064 A6       		.byte	-90
 401 0065 15       		.byte	21
 402 0066 0C       		.byte	12
 403 0067 15       		.byte	21
 404 0068 CA       		.byte	-54
 405 0069 16       		.byte	22
 406 006a 00       		.byte	0
 407 006b 16       		.byte	22
 408 006c 5F       		.byte	95
 409 006d 16       		.byte	22
 410 006e 20       		.byte	32
 411 006f 15       		.byte	21
 412 0070 F0       		.byte	-16
 413 0071 16       		.byte	22
 414 0072 10       		.byte	16
 415 0073 15       		.byte	21
 416 0074 81       		.byte	-127
 417 0075 16       		.byte	22
 418 0076 18       		.byte	24
 419 0077 16       		.byte	22
 420 0078 04       		.byte	4
 421 0079 15       		.byte	21
 422 007a 20       		.byte	32
 423 007b 16       		.byte	22
 424 007c 0B       		.byte	11
 425 007d FE       		.byte	-2
 426 007e 64       		.byte	100
 427 007f 19       		.byte	25
 428 0080 FF       		.byte	-1
 429 0081 000000   		.space	3
 430              		.type	u8x8_d_st75256_256x128_powersave0_seq, %object
 431              		.size	u8x8_d_st75256_256x128_powersave0_seq, 11
 432              	u8x8_d_st75256_256x128_powersave0_seq:
 433 0084 18       		.byte	24
 434 0085 15       		.byte	21
 435 0086 30       		.byte	48
 436 0087 15       		.byte	21
 437 0088 94       		.byte	-108
 438 0089 FE       		.byte	-2
 439 008a 0A       		.byte	10
 440 008b 15       		.byte	21
 441 008c AF       		.byte	-81
 442 008d 19       		.byte	25
ARM GAS  C:\Users\Abude\AppData\Local\Temp\cc3qSAfr.s 			page 15


 443 008e FF       		.byte	-1
 444 008f 00       		.space	1
 445              		.type	u8x8_d_st75256_256x128_powersave1_seq, %object
 446              		.size	u8x8_d_st75256_256x128_powersave1_seq, 9
 447              	u8x8_d_st75256_256x128_powersave1_seq:
 448 0090 18       		.byte	24
 449 0091 15       		.byte	21
 450 0092 30       		.byte	48
 451 0093 15       		.byte	21
 452 0094 AE       		.byte	-82
 453 0095 15       		.byte	21
 454 0096 95       		.byte	-107
 455 0097 19       		.byte	25
 456 0098 FF       		.byte	-1
 457 0099 000000   		.space	3
 458              		.type	u8x8_d_st75256_jlx172104_flip0_seq, %object
 459              		.size	u8x8_d_st75256_jlx172104_flip0_seq, 13
 460              	u8x8_d_st75256_jlx172104_flip0_seq:
 461 009c 18       		.byte	24
 462 009d 15       		.byte	21
 463 009e 30       		.byte	48
 464 009f 15       		.byte	21
 465 00a0 BC       		.byte	-68
 466 00a1 16       		.byte	22
 467 00a2 02       		.byte	2
 468 00a3 16       		.byte	22
 469 00a4 A6       		.byte	-90
 470 00a5 15       		.byte	21
 471 00a6 0C       		.byte	12
 472 00a7 19       		.byte	25
 473 00a8 FF       		.byte	-1
 474 00a9 000000   		.space	3
 475              		.type	u8x8_d_st75256_jlx172104_flip1_seq, %object
 476              		.size	u8x8_d_st75256_jlx172104_flip1_seq, 13
 477              	u8x8_d_st75256_jlx172104_flip1_seq:
 478 00ac 18       		.byte	24
 479 00ad 15       		.byte	21
 480 00ae 30       		.byte	48
 481 00af 15       		.byte	21
 482 00b0 BC       		.byte	-68
 483 00b1 16       		.byte	22
 484 00b2 01       		.byte	1
 485 00b3 16       		.byte	22
 486 00b4 A6       		.byte	-90
 487 00b5 15       		.byte	21
 488 00b6 08       		.byte	8
 489 00b7 19       		.byte	25
 490 00b8 FF       		.byte	-1
 491              		.text
 492              	.Letext0:
 493              		.file 2 "c:\\program files (x86)\\cypress\\psoc creator\\4.4\\psoc creator\\import\\gnu\\arm\\5.4.
 494              		.file 3 "c:\\program files (x86)\\cypress\\psoc creator\\4.4\\psoc creator\\import\\gnu\\arm\\5.4.
 495              		.file 4 "c:\\dev\\library embedded l2c display\\u8g2\\csrc\\u8x8.h"