ARM GAS  C:\Users\Abude\AppData\Local\Temp\cc3E6hY2.s 			page 1


   1              		.syntax unified
   2              		.cpu cortex-m3
   3              		.fpu softvfp
   4              		.eabi_attribute 20, 1
   5              		.eabi_attribute 21, 1
   6              		.eabi_attribute 23, 3
   7              		.eabi_attribute 24, 1
   8              		.eabi_attribute 25, 1
   9              		.eabi_attribute 26, 1
  10              		.eabi_attribute 30, 1
  11              		.eabi_attribute 34, 1
  12              		.eabi_attribute 18, 4
  13              		.thumb
  14              		.syntax unified
  15              		.file	"u8x8_cad.c"
  16              		.text
  17              	.Ltext0:
  18              		.cfi_sections	.debug_frame
  19              		.section	.text.u8x8_i2c_data_transfer,"ax",%progbits
  20              		.align	2
  21              		.thumb
  22              		.thumb_func
  23              		.type	u8x8_i2c_data_transfer, %function
  24              	u8x8_i2c_data_transfer:
  25              	.LFB16:
  26              		.file 1 "..\\..\\..\\..\\..\\..\\Dev\\Library embedded l2c display\\u8g2\\csrc\\u8x8_cad.c"
   1:..\..\..\..\..\..\Dev\Library embedded l2c display\u8g2\csrc/u8x8_cad.c **** /*
   2:..\..\..\..\..\..\Dev\Library embedded l2c display\u8g2\csrc/u8x8_cad.c ****   
   3:..\..\..\..\..\..\Dev\Library embedded l2c display\u8g2\csrc/u8x8_cad.c ****   u8x8_cad.c
   4:..\..\..\..\..\..\Dev\Library embedded l2c display\u8g2\csrc/u8x8_cad.c ****   
   5:..\..\..\..\..\..\Dev\Library embedded l2c display\u8g2\csrc/u8x8_cad.c ****   "command arg data" interface to the graphics controller
   6:..\..\..\..\..\..\Dev\Library embedded l2c display\u8g2\csrc/u8x8_cad.c **** 
   7:..\..\..\..\..\..\Dev\Library embedded l2c display\u8g2\csrc/u8x8_cad.c ****   Universal 8bit Graphics Library (https://github.com/olikraus/u8g2/)
   8:..\..\..\..\..\..\Dev\Library embedded l2c display\u8g2\csrc/u8x8_cad.c **** 
   9:..\..\..\..\..\..\Dev\Library embedded l2c display\u8g2\csrc/u8x8_cad.c ****   Copyright (c) 2016, olikraus@gmail.com
  10:..\..\..\..\..\..\Dev\Library embedded l2c display\u8g2\csrc/u8x8_cad.c ****   All rights reserved.
  11:..\..\..\..\..\..\Dev\Library embedded l2c display\u8g2\csrc/u8x8_cad.c **** 
  12:..\..\..\..\..\..\Dev\Library embedded l2c display\u8g2\csrc/u8x8_cad.c ****   Redistribution and use in source and binary forms, with or without modification, 
  13:..\..\..\..\..\..\Dev\Library embedded l2c display\u8g2\csrc/u8x8_cad.c ****   are permitted provided that the following conditions are met:
  14:..\..\..\..\..\..\Dev\Library embedded l2c display\u8g2\csrc/u8x8_cad.c **** 
  15:..\..\..\..\..\..\Dev\Library embedded l2c display\u8g2\csrc/u8x8_cad.c ****   * Redistributions of source code must retain the above copyright notice, this list 
  16:..\..\..\..\..\..\Dev\Library embedded l2c display\u8g2\csrc/u8x8_cad.c ****     of conditions and the following disclaimer.
  17:..\..\..\..\..\..\Dev\Library embedded l2c display\u8g2\csrc/u8x8_cad.c ****     
  18:..\..\..\..\..\..\Dev\Library embedded l2c display\u8g2\csrc/u8x8_cad.c ****   * Redistributions in binary form must reproduce the above copyright notice, this 
  19:..\..\..\..\..\..\Dev\Library embedded l2c display\u8g2\csrc/u8x8_cad.c ****     list of conditions and the following disclaimer in the documentation and/or other 
  20:..\..\..\..\..\..\Dev\Library embedded l2c display\u8g2\csrc/u8x8_cad.c ****     materials provided with the distribution.
  21:..\..\..\..\..\..\Dev\Library embedded l2c display\u8g2\csrc/u8x8_cad.c **** 
  22:..\..\..\..\..\..\Dev\Library embedded l2c display\u8g2\csrc/u8x8_cad.c ****   THIS SOFTWARE IS PROVIDED BY THE COPYRIGHT HOLDERS AND 
  23:..\..\..\..\..\..\Dev\Library embedded l2c display\u8g2\csrc/u8x8_cad.c ****   CONTRIBUTORS "AS IS" AND ANY EXPRESS OR IMPLIED WARRANTIES, 
  24:..\..\..\..\..\..\Dev\Library embedded l2c display\u8g2\csrc/u8x8_cad.c ****   INCLUDING, BUT NOT LIMITED TO, THE IMPLIED WARRANTIES OF 
  25:..\..\..\..\..\..\Dev\Library embedded l2c display\u8g2\csrc/u8x8_cad.c ****   MERCHANTABILITY AND FITNESS FOR A PARTICULAR PURPOSE ARE 
  26:..\..\..\..\..\..\Dev\Library embedded l2c display\u8g2\csrc/u8x8_cad.c ****   DISCLAIMED. IN NO EVENT SHALL THE COPYRIGHT HOLDER OR 
  27:..\..\..\..\..\..\Dev\Library embedded l2c display\u8g2\csrc/u8x8_cad.c ****   CONTRIBUTORS BE LIABLE FOR ANY DIRECT, INDIRECT, INCIDENTAL, 
  28:..\..\..\..\..\..\Dev\Library embedded l2c display\u8g2\csrc/u8x8_cad.c ****   SPECIAL, EXEMPLARY, OR CONSEQUENTIAL DAMAGES (INCLUDING, BUT 
  29:..\..\..\..\..\..\Dev\Library embedded l2c display\u8g2\csrc/u8x8_cad.c ****   NOT LIMITED TO, PROCUREMENT OF SUBSTITUTE GOODS OR SERVICES; 
  30:..\..\..\..\..\..\Dev\Library embedded l2c display\u8g2\csrc/u8x8_cad.c ****   LOSS OF USE, DATA, OR PROFITS; OR BUSINESS INTERRUPTION) HOWEVER 
  31:..\..\..\..\..\..\Dev\Library embedded l2c display\u8g2\csrc/u8x8_cad.c ****   CAUSED AND ON ANY THEORY OF LIABILITY, WHETHER IN CONTRACT, 
ARM GAS  C:\Users\Abude\AppData\Local\Temp\cc3E6hY2.s 			page 2


  32:..\..\..\..\..\..\Dev\Library embedded l2c display\u8g2\csrc/u8x8_cad.c ****   STRICT LIABILITY, OR TORT (INCLUDING NEGLIGENCE OR OTHERWISE) 
  33:..\..\..\..\..\..\Dev\Library embedded l2c display\u8g2\csrc/u8x8_cad.c ****   ARISING IN ANY WAY OUT OF THE USE OF THIS SOFTWARE, EVEN IF 
  34:..\..\..\..\..\..\Dev\Library embedded l2c display\u8g2\csrc/u8x8_cad.c ****   ADVISED OF THE POSSIBILITY OF SUCH DAMAGE.  
  35:..\..\..\..\..\..\Dev\Library embedded l2c display\u8g2\csrc/u8x8_cad.c **** 
  36:..\..\..\..\..\..\Dev\Library embedded l2c display\u8g2\csrc/u8x8_cad.c **** 
  37:..\..\..\..\..\..\Dev\Library embedded l2c display\u8g2\csrc/u8x8_cad.c ****   The following sequence must be used for any data, which is set to the display:
  38:..\..\..\..\..\..\Dev\Library embedded l2c display\u8g2\csrc/u8x8_cad.c ****   
  39:..\..\..\..\..\..\Dev\Library embedded l2c display\u8g2\csrc/u8x8_cad.c ****   
  40:..\..\..\..\..\..\Dev\Library embedded l2c display\u8g2\csrc/u8x8_cad.c ****   uint8_t u8x8_cad_StartTransfer(u8x8_t *u8x8)
  41:..\..\..\..\..\..\Dev\Library embedded l2c display\u8g2\csrc/u8x8_cad.c **** 
  42:..\..\..\..\..\..\Dev\Library embedded l2c display\u8g2\csrc/u8x8_cad.c ****   any of the following calls
  43:..\..\..\..\..\..\Dev\Library embedded l2c display\u8g2\csrc/u8x8_cad.c ****     uint8_t u8x8_cad_SendCmd(u8x8_t *u8x8, uint8_t cmd)
  44:..\..\..\..\..\..\Dev\Library embedded l2c display\u8g2\csrc/u8x8_cad.c ****     uint8_t u8x8_cad_SendArg(u8x8_t *u8x8, uint8_t arg)
  45:..\..\..\..\..\..\Dev\Library embedded l2c display\u8g2\csrc/u8x8_cad.c ****     uint8_t u8x8_cad_SendData(u8x8_t *u8x8, uint8_t cnt, uint8_t *data)
  46:..\..\..\..\..\..\Dev\Library embedded l2c display\u8g2\csrc/u8x8_cad.c ****   
  47:..\..\..\..\..\..\Dev\Library embedded l2c display\u8g2\csrc/u8x8_cad.c ****   uint8_t u8x8_cad_EndTransfer(u8x8_t *u8x8)
  48:..\..\..\..\..\..\Dev\Library embedded l2c display\u8g2\csrc/u8x8_cad.c **** 
  49:..\..\..\..\..\..\Dev\Library embedded l2c display\u8g2\csrc/u8x8_cad.c **** 
  50:..\..\..\..\..\..\Dev\Library embedded l2c display\u8g2\csrc/u8x8_cad.c **** 
  51:..\..\..\..\..\..\Dev\Library embedded l2c display\u8g2\csrc/u8x8_cad.c **** */
  52:..\..\..\..\..\..\Dev\Library embedded l2c display\u8g2\csrc/u8x8_cad.c **** /*
  53:..\..\..\..\..\..\Dev\Library embedded l2c display\u8g2\csrc/u8x8_cad.c **** uint8_t u8x8_cad_template(u8x8_t *u8x8, uint8_t msg, uint16_t arg_int, void *arg_ptr)
  54:..\..\..\..\..\..\Dev\Library embedded l2c display\u8g2\csrc/u8x8_cad.c **** {
  55:..\..\..\..\..\..\Dev\Library embedded l2c display\u8g2\csrc/u8x8_cad.c ****   uint8_t i;
  56:..\..\..\..\..\..\Dev\Library embedded l2c display\u8g2\csrc/u8x8_cad.c ****   
  57:..\..\..\..\..\..\Dev\Library embedded l2c display\u8g2\csrc/u8x8_cad.c ****   switch(msg)
  58:..\..\..\..\..\..\Dev\Library embedded l2c display\u8g2\csrc/u8x8_cad.c ****   {
  59:..\..\..\..\..\..\Dev\Library embedded l2c display\u8g2\csrc/u8x8_cad.c ****     case U8X8_MSG_CAD_SEND_CMD:
  60:..\..\..\..\..\..\Dev\Library embedded l2c display\u8g2\csrc/u8x8_cad.c ****       u8x8_mcd_byte_SetDC(mcd->next, 1);
  61:..\..\..\..\..\..\Dev\Library embedded l2c display\u8g2\csrc/u8x8_cad.c ****       u8x8_mcd_byte_Send(mcd->next, arg_int);
  62:..\..\..\..\..\..\Dev\Library embedded l2c display\u8g2\csrc/u8x8_cad.c ****       break;
  63:..\..\..\..\..\..\Dev\Library embedded l2c display\u8g2\csrc/u8x8_cad.c ****     case U8X8_MSG_CAD_SEND_ARG:
  64:..\..\..\..\..\..\Dev\Library embedded l2c display\u8g2\csrc/u8x8_cad.c ****       u8x8_mcd_byte_SetDC(mcd->next, 1);
  65:..\..\..\..\..\..\Dev\Library embedded l2c display\u8g2\csrc/u8x8_cad.c ****       u8x8_mcd_byte_Send(mcd->next, arg_int);
  66:..\..\..\..\..\..\Dev\Library embedded l2c display\u8g2\csrc/u8x8_cad.c ****       break;
  67:..\..\..\..\..\..\Dev\Library embedded l2c display\u8g2\csrc/u8x8_cad.c ****     case U8X8_MSG_CAD_SEND_DATA:
  68:..\..\..\..\..\..\Dev\Library embedded l2c display\u8g2\csrc/u8x8_cad.c ****       u8x8_mcd_byte_SetDC(mcd->next, 0);
  69:..\..\..\..\..\..\Dev\Library embedded l2c display\u8g2\csrc/u8x8_cad.c ****       for( i = 0; i < 8; i++ )
  70:..\..\..\..\..\..\Dev\Library embedded l2c display\u8g2\csrc/u8x8_cad.c **** 	u8x8_mcd_byte_Send(mcd->next, ((uint8_t *)arg_ptr)[i]);
  71:..\..\..\..\..\..\Dev\Library embedded l2c display\u8g2\csrc/u8x8_cad.c ****       break;
  72:..\..\..\..\..\..\Dev\Library embedded l2c display\u8g2\csrc/u8x8_cad.c ****     case U8X8_MSG_CAD_RESET:
  73:..\..\..\..\..\..\Dev\Library embedded l2c display\u8g2\csrc/u8x8_cad.c ****       return mcd->next->cb(mcd->next, msg, arg_int, arg_ptr);
  74:..\..\..\..\..\..\Dev\Library embedded l2c display\u8g2\csrc/u8x8_cad.c ****     case U8X8_MSG_CAD_START_TRANSFER:
  75:..\..\..\..\..\..\Dev\Library embedded l2c display\u8g2\csrc/u8x8_cad.c ****       return mcd->next->cb(mcd->next, msg, arg_int, arg_ptr);
  76:..\..\..\..\..\..\Dev\Library embedded l2c display\u8g2\csrc/u8x8_cad.c ****     case U8X8_MSG_CAD_END_TRANSFER:
  77:..\..\..\..\..\..\Dev\Library embedded l2c display\u8g2\csrc/u8x8_cad.c ****       return mcd->next->cb(mcd->next, msg, arg_int, arg_ptr);
  78:..\..\..\..\..\..\Dev\Library embedded l2c display\u8g2\csrc/u8x8_cad.c ****     default:
  79:..\..\..\..\..\..\Dev\Library embedded l2c display\u8g2\csrc/u8x8_cad.c ****       break;
  80:..\..\..\..\..\..\Dev\Library embedded l2c display\u8g2\csrc/u8x8_cad.c ****   }
  81:..\..\..\..\..\..\Dev\Library embedded l2c display\u8g2\csrc/u8x8_cad.c ****   return 1;
  82:..\..\..\..\..\..\Dev\Library embedded l2c display\u8g2\csrc/u8x8_cad.c **** }
  83:..\..\..\..\..\..\Dev\Library embedded l2c display\u8g2\csrc/u8x8_cad.c **** 
  84:..\..\..\..\..\..\Dev\Library embedded l2c display\u8g2\csrc/u8x8_cad.c **** */
  85:..\..\..\..\..\..\Dev\Library embedded l2c display\u8g2\csrc/u8x8_cad.c **** 
  86:..\..\..\..\..\..\Dev\Library embedded l2c display\u8g2\csrc/u8x8_cad.c **** #include "u8x8.h"
  87:..\..\..\..\..\..\Dev\Library embedded l2c display\u8g2\csrc/u8x8_cad.c **** 
  88:..\..\..\..\..\..\Dev\Library embedded l2c display\u8g2\csrc/u8x8_cad.c **** uint8_t u8x8_cad_SendCmd(u8x8_t *u8x8, uint8_t cmd)
ARM GAS  C:\Users\Abude\AppData\Local\Temp\cc3E6hY2.s 			page 3


  89:..\..\..\..\..\..\Dev\Library embedded l2c display\u8g2\csrc/u8x8_cad.c **** {
  90:..\..\..\..\..\..\Dev\Library embedded l2c display\u8g2\csrc/u8x8_cad.c ****   return u8x8->cad_cb(u8x8, U8X8_MSG_CAD_SEND_CMD, cmd, NULL);
  91:..\..\..\..\..\..\Dev\Library embedded l2c display\u8g2\csrc/u8x8_cad.c **** }
  92:..\..\..\..\..\..\Dev\Library embedded l2c display\u8g2\csrc/u8x8_cad.c **** 
  93:..\..\..\..\..\..\Dev\Library embedded l2c display\u8g2\csrc/u8x8_cad.c **** uint8_t u8x8_cad_SendArg(u8x8_t *u8x8, uint8_t arg)
  94:..\..\..\..\..\..\Dev\Library embedded l2c display\u8g2\csrc/u8x8_cad.c **** {
  95:..\..\..\..\..\..\Dev\Library embedded l2c display\u8g2\csrc/u8x8_cad.c ****   return u8x8->cad_cb(u8x8, U8X8_MSG_CAD_SEND_ARG, arg, NULL);
  96:..\..\..\..\..\..\Dev\Library embedded l2c display\u8g2\csrc/u8x8_cad.c **** }
  97:..\..\..\..\..\..\Dev\Library embedded l2c display\u8g2\csrc/u8x8_cad.c **** 
  98:..\..\..\..\..\..\Dev\Library embedded l2c display\u8g2\csrc/u8x8_cad.c **** uint8_t u8x8_cad_SendMultipleArg(u8x8_t *u8x8, uint8_t cnt, uint8_t arg)
  99:..\..\..\..\..\..\Dev\Library embedded l2c display\u8g2\csrc/u8x8_cad.c **** {
 100:..\..\..\..\..\..\Dev\Library embedded l2c display\u8g2\csrc/u8x8_cad.c ****   while( cnt > 0 )
 101:..\..\..\..\..\..\Dev\Library embedded l2c display\u8g2\csrc/u8x8_cad.c ****   {
 102:..\..\..\..\..\..\Dev\Library embedded l2c display\u8g2\csrc/u8x8_cad.c ****     u8x8->cad_cb(u8x8, U8X8_MSG_CAD_SEND_ARG, arg, NULL);
 103:..\..\..\..\..\..\Dev\Library embedded l2c display\u8g2\csrc/u8x8_cad.c ****     cnt--;
 104:..\..\..\..\..\..\Dev\Library embedded l2c display\u8g2\csrc/u8x8_cad.c ****   }
 105:..\..\..\..\..\..\Dev\Library embedded l2c display\u8g2\csrc/u8x8_cad.c ****   return 1;
 106:..\..\..\..\..\..\Dev\Library embedded l2c display\u8g2\csrc/u8x8_cad.c **** }
 107:..\..\..\..\..\..\Dev\Library embedded l2c display\u8g2\csrc/u8x8_cad.c **** 
 108:..\..\..\..\..\..\Dev\Library embedded l2c display\u8g2\csrc/u8x8_cad.c **** uint8_t u8x8_cad_SendData(u8x8_t *u8x8, uint8_t cnt, uint8_t *data)
 109:..\..\..\..\..\..\Dev\Library embedded l2c display\u8g2\csrc/u8x8_cad.c **** {
 110:..\..\..\..\..\..\Dev\Library embedded l2c display\u8g2\csrc/u8x8_cad.c ****   return u8x8->cad_cb(u8x8, U8X8_MSG_CAD_SEND_DATA, cnt, data);
 111:..\..\..\..\..\..\Dev\Library embedded l2c display\u8g2\csrc/u8x8_cad.c **** }
 112:..\..\..\..\..\..\Dev\Library embedded l2c display\u8g2\csrc/u8x8_cad.c **** 
 113:..\..\..\..\..\..\Dev\Library embedded l2c display\u8g2\csrc/u8x8_cad.c **** uint8_t u8x8_cad_StartTransfer(u8x8_t *u8x8)
 114:..\..\..\..\..\..\Dev\Library embedded l2c display\u8g2\csrc/u8x8_cad.c **** {
 115:..\..\..\..\..\..\Dev\Library embedded l2c display\u8g2\csrc/u8x8_cad.c ****   return u8x8->cad_cb(u8x8, U8X8_MSG_CAD_START_TRANSFER, 0, NULL);
 116:..\..\..\..\..\..\Dev\Library embedded l2c display\u8g2\csrc/u8x8_cad.c **** }
 117:..\..\..\..\..\..\Dev\Library embedded l2c display\u8g2\csrc/u8x8_cad.c **** 
 118:..\..\..\..\..\..\Dev\Library embedded l2c display\u8g2\csrc/u8x8_cad.c **** uint8_t u8x8_cad_EndTransfer(u8x8_t *u8x8)
 119:..\..\..\..\..\..\Dev\Library embedded l2c display\u8g2\csrc/u8x8_cad.c **** {
 120:..\..\..\..\..\..\Dev\Library embedded l2c display\u8g2\csrc/u8x8_cad.c ****   return u8x8->cad_cb(u8x8, U8X8_MSG_CAD_END_TRANSFER, 0, NULL);
 121:..\..\..\..\..\..\Dev\Library embedded l2c display\u8g2\csrc/u8x8_cad.c **** }
 122:..\..\..\..\..\..\Dev\Library embedded l2c display\u8g2\csrc/u8x8_cad.c **** 
 123:..\..\..\..\..\..\Dev\Library embedded l2c display\u8g2\csrc/u8x8_cad.c **** void u8x8_cad_vsendf(u8x8_t * u8x8, const char *fmt, va_list va)
 124:..\..\..\..\..\..\Dev\Library embedded l2c display\u8g2\csrc/u8x8_cad.c **** {
 125:..\..\..\..\..\..\Dev\Library embedded l2c display\u8g2\csrc/u8x8_cad.c ****   uint8_t d;
 126:..\..\..\..\..\..\Dev\Library embedded l2c display\u8g2\csrc/u8x8_cad.c ****   u8x8_cad_StartTransfer(u8x8);
 127:..\..\..\..\..\..\Dev\Library embedded l2c display\u8g2\csrc/u8x8_cad.c ****   while( *fmt != '\0' )
 128:..\..\..\..\..\..\Dev\Library embedded l2c display\u8g2\csrc/u8x8_cad.c ****   {
 129:..\..\..\..\..\..\Dev\Library embedded l2c display\u8g2\csrc/u8x8_cad.c ****     d = (uint8_t)va_arg(va, int);
 130:..\..\..\..\..\..\Dev\Library embedded l2c display\u8g2\csrc/u8x8_cad.c ****     switch(*fmt)
 131:..\..\..\..\..\..\Dev\Library embedded l2c display\u8g2\csrc/u8x8_cad.c ****     {
 132:..\..\..\..\..\..\Dev\Library embedded l2c display\u8g2\csrc/u8x8_cad.c ****       case 'a':  u8x8_cad_SendArg(u8x8, d); break;
 133:..\..\..\..\..\..\Dev\Library embedded l2c display\u8g2\csrc/u8x8_cad.c ****       case 'c':  u8x8_cad_SendCmd(u8x8, d); break;
 134:..\..\..\..\..\..\Dev\Library embedded l2c display\u8g2\csrc/u8x8_cad.c ****       case 'd':  u8x8_cad_SendData(u8x8, 1, &d); break;
 135:..\..\..\..\..\..\Dev\Library embedded l2c display\u8g2\csrc/u8x8_cad.c ****     }
 136:..\..\..\..\..\..\Dev\Library embedded l2c display\u8g2\csrc/u8x8_cad.c ****     fmt++;
 137:..\..\..\..\..\..\Dev\Library embedded l2c display\u8g2\csrc/u8x8_cad.c ****   }
 138:..\..\..\..\..\..\Dev\Library embedded l2c display\u8g2\csrc/u8x8_cad.c ****   u8x8_cad_EndTransfer(u8x8);
 139:..\..\..\..\..\..\Dev\Library embedded l2c display\u8g2\csrc/u8x8_cad.c **** }
 140:..\..\..\..\..\..\Dev\Library embedded l2c display\u8g2\csrc/u8x8_cad.c **** 
 141:..\..\..\..\..\..\Dev\Library embedded l2c display\u8g2\csrc/u8x8_cad.c **** void u8x8_SendF(u8x8_t * u8x8, const char *fmt, ...)
 142:..\..\..\..\..\..\Dev\Library embedded l2c display\u8g2\csrc/u8x8_cad.c **** {
 143:..\..\..\..\..\..\Dev\Library embedded l2c display\u8g2\csrc/u8x8_cad.c ****   va_list va;
 144:..\..\..\..\..\..\Dev\Library embedded l2c display\u8g2\csrc/u8x8_cad.c ****   va_start(va, fmt);
 145:..\..\..\..\..\..\Dev\Library embedded l2c display\u8g2\csrc/u8x8_cad.c ****   u8x8_cad_vsendf(u8x8, fmt, va);
ARM GAS  C:\Users\Abude\AppData\Local\Temp\cc3E6hY2.s 			page 4


 146:..\..\..\..\..\..\Dev\Library embedded l2c display\u8g2\csrc/u8x8_cad.c ****   va_end(va);
 147:..\..\..\..\..\..\Dev\Library embedded l2c display\u8g2\csrc/u8x8_cad.c **** }
 148:..\..\..\..\..\..\Dev\Library embedded l2c display\u8g2\csrc/u8x8_cad.c **** 
 149:..\..\..\..\..\..\Dev\Library embedded l2c display\u8g2\csrc/u8x8_cad.c **** /*
 150:..\..\..\..\..\..\Dev\Library embedded l2c display\u8g2\csrc/u8x8_cad.c ****   21 c		send command c
 151:..\..\..\..\..\..\Dev\Library embedded l2c display\u8g2\csrc/u8x8_cad.c ****   22 a		send arg a
 152:..\..\..\..\..\..\Dev\Library embedded l2c display\u8g2\csrc/u8x8_cad.c ****   23 d		send data d
 153:..\..\..\..\..\..\Dev\Library embedded l2c display\u8g2\csrc/u8x8_cad.c ****   24			CS on
 154:..\..\..\..\..\..\Dev\Library embedded l2c display\u8g2\csrc/u8x8_cad.c ****   25			CS off
 155:..\..\..\..\..\..\Dev\Library embedded l2c display\u8g2\csrc/u8x8_cad.c ****   254 milli	delay by milliseconds
 156:..\..\..\..\..\..\Dev\Library embedded l2c display\u8g2\csrc/u8x8_cad.c ****   255		end of sequence
 157:..\..\..\..\..\..\Dev\Library embedded l2c display\u8g2\csrc/u8x8_cad.c **** */
 158:..\..\..\..\..\..\Dev\Library embedded l2c display\u8g2\csrc/u8x8_cad.c **** 
 159:..\..\..\..\..\..\Dev\Library embedded l2c display\u8g2\csrc/u8x8_cad.c **** void u8x8_cad_SendSequence(u8x8_t *u8x8, uint8_t const *data)
 160:..\..\..\..\..\..\Dev\Library embedded l2c display\u8g2\csrc/u8x8_cad.c **** {
 161:..\..\..\..\..\..\Dev\Library embedded l2c display\u8g2\csrc/u8x8_cad.c ****   uint8_t cmd;
 162:..\..\..\..\..\..\Dev\Library embedded l2c display\u8g2\csrc/u8x8_cad.c ****   uint8_t v;
 163:..\..\..\..\..\..\Dev\Library embedded l2c display\u8g2\csrc/u8x8_cad.c **** 
 164:..\..\..\..\..\..\Dev\Library embedded l2c display\u8g2\csrc/u8x8_cad.c ****   for(;;)
 165:..\..\..\..\..\..\Dev\Library embedded l2c display\u8g2\csrc/u8x8_cad.c ****   {
 166:..\..\..\..\..\..\Dev\Library embedded l2c display\u8g2\csrc/u8x8_cad.c ****     cmd = *data;
 167:..\..\..\..\..\..\Dev\Library embedded l2c display\u8g2\csrc/u8x8_cad.c ****     data++;
 168:..\..\..\..\..\..\Dev\Library embedded l2c display\u8g2\csrc/u8x8_cad.c ****     switch( cmd )
 169:..\..\..\..\..\..\Dev\Library embedded l2c display\u8g2\csrc/u8x8_cad.c ****     {
 170:..\..\..\..\..\..\Dev\Library embedded l2c display\u8g2\csrc/u8x8_cad.c ****       case U8X8_MSG_CAD_SEND_CMD:
 171:..\..\..\..\..\..\Dev\Library embedded l2c display\u8g2\csrc/u8x8_cad.c ****       case U8X8_MSG_CAD_SEND_ARG:
 172:..\..\..\..\..\..\Dev\Library embedded l2c display\u8g2\csrc/u8x8_cad.c **** 	  v = *data;
 173:..\..\..\..\..\..\Dev\Library embedded l2c display\u8g2\csrc/u8x8_cad.c **** 	  u8x8->cad_cb(u8x8, cmd, v, NULL);
 174:..\..\..\..\..\..\Dev\Library embedded l2c display\u8g2\csrc/u8x8_cad.c **** 	  data++;
 175:..\..\..\..\..\..\Dev\Library embedded l2c display\u8g2\csrc/u8x8_cad.c **** 	  break;
 176:..\..\..\..\..\..\Dev\Library embedded l2c display\u8g2\csrc/u8x8_cad.c ****       case U8X8_MSG_CAD_SEND_DATA:
 177:..\..\..\..\..\..\Dev\Library embedded l2c display\u8g2\csrc/u8x8_cad.c **** 	  v = *data;
 178:..\..\..\..\..\..\Dev\Library embedded l2c display\u8g2\csrc/u8x8_cad.c **** 	  u8x8_cad_SendData(u8x8, 1, &v);
 179:..\..\..\..\..\..\Dev\Library embedded l2c display\u8g2\csrc/u8x8_cad.c **** 	  data++;
 180:..\..\..\..\..\..\Dev\Library embedded l2c display\u8g2\csrc/u8x8_cad.c **** 	  break;
 181:..\..\..\..\..\..\Dev\Library embedded l2c display\u8g2\csrc/u8x8_cad.c ****       case U8X8_MSG_CAD_START_TRANSFER:
 182:..\..\..\..\..\..\Dev\Library embedded l2c display\u8g2\csrc/u8x8_cad.c ****       case U8X8_MSG_CAD_END_TRANSFER:
 183:..\..\..\..\..\..\Dev\Library embedded l2c display\u8g2\csrc/u8x8_cad.c **** 	  u8x8->cad_cb(u8x8, cmd, 0, NULL);
 184:..\..\..\..\..\..\Dev\Library embedded l2c display\u8g2\csrc/u8x8_cad.c **** 	  break;
 185:..\..\..\..\..\..\Dev\Library embedded l2c display\u8g2\csrc/u8x8_cad.c ****       case 0x0fe:
 186:..\..\..\..\..\..\Dev\Library embedded l2c display\u8g2\csrc/u8x8_cad.c **** 	  v = *data;
 187:..\..\..\..\..\..\Dev\Library embedded l2c display\u8g2\csrc/u8x8_cad.c **** 	  u8x8_gpio_Delay(u8x8, U8X8_MSG_DELAY_MILLI, v);	    
 188:..\..\..\..\..\..\Dev\Library embedded l2c display\u8g2\csrc/u8x8_cad.c **** 	  data++;
 189:..\..\..\..\..\..\Dev\Library embedded l2c display\u8g2\csrc/u8x8_cad.c **** 	  break;
 190:..\..\..\..\..\..\Dev\Library embedded l2c display\u8g2\csrc/u8x8_cad.c ****       default:
 191:..\..\..\..\..\..\Dev\Library embedded l2c display\u8g2\csrc/u8x8_cad.c **** 	return;
 192:..\..\..\..\..\..\Dev\Library embedded l2c display\u8g2\csrc/u8x8_cad.c ****     }
 193:..\..\..\..\..\..\Dev\Library embedded l2c display\u8g2\csrc/u8x8_cad.c ****   }
 194:..\..\..\..\..\..\Dev\Library embedded l2c display\u8g2\csrc/u8x8_cad.c **** }
 195:..\..\..\..\..\..\Dev\Library embedded l2c display\u8g2\csrc/u8x8_cad.c **** 
 196:..\..\..\..\..\..\Dev\Library embedded l2c display\u8g2\csrc/u8x8_cad.c **** 
 197:..\..\..\..\..\..\Dev\Library embedded l2c display\u8g2\csrc/u8x8_cad.c **** uint8_t u8x8_cad_empty(u8x8_t *u8x8, uint8_t msg, uint8_t arg_int, void *arg_ptr)
 198:..\..\..\..\..\..\Dev\Library embedded l2c display\u8g2\csrc/u8x8_cad.c **** {
 199:..\..\..\..\..\..\Dev\Library embedded l2c display\u8g2\csrc/u8x8_cad.c ****   switch(msg)
 200:..\..\..\..\..\..\Dev\Library embedded l2c display\u8g2\csrc/u8x8_cad.c ****   {
 201:..\..\..\..\..\..\Dev\Library embedded l2c display\u8g2\csrc/u8x8_cad.c ****     case U8X8_MSG_CAD_SEND_CMD:
 202:..\..\..\..\..\..\Dev\Library embedded l2c display\u8g2\csrc/u8x8_cad.c ****       u8x8_byte_SendByte(u8x8, arg_int);
ARM GAS  C:\Users\Abude\AppData\Local\Temp\cc3E6hY2.s 			page 5


 203:..\..\..\..\..\..\Dev\Library embedded l2c display\u8g2\csrc/u8x8_cad.c ****       break;
 204:..\..\..\..\..\..\Dev\Library embedded l2c display\u8g2\csrc/u8x8_cad.c ****     case U8X8_MSG_CAD_SEND_ARG:
 205:..\..\..\..\..\..\Dev\Library embedded l2c display\u8g2\csrc/u8x8_cad.c ****       u8x8_byte_SendByte(u8x8, arg_int);
 206:..\..\..\..\..\..\Dev\Library embedded l2c display\u8g2\csrc/u8x8_cad.c ****       break;
 207:..\..\..\..\..\..\Dev\Library embedded l2c display\u8g2\csrc/u8x8_cad.c ****     case U8X8_MSG_CAD_SEND_DATA:
 208:..\..\..\..\..\..\Dev\Library embedded l2c display\u8g2\csrc/u8x8_cad.c ****     case U8X8_MSG_CAD_INIT:
 209:..\..\..\..\..\..\Dev\Library embedded l2c display\u8g2\csrc/u8x8_cad.c ****     case U8X8_MSG_CAD_START_TRANSFER:
 210:..\..\..\..\..\..\Dev\Library embedded l2c display\u8g2\csrc/u8x8_cad.c ****     case U8X8_MSG_CAD_END_TRANSFER:
 211:..\..\..\..\..\..\Dev\Library embedded l2c display\u8g2\csrc/u8x8_cad.c ****       return u8x8->byte_cb(u8x8, msg, arg_int, arg_ptr);
 212:..\..\..\..\..\..\Dev\Library embedded l2c display\u8g2\csrc/u8x8_cad.c ****     default:
 213:..\..\..\..\..\..\Dev\Library embedded l2c display\u8g2\csrc/u8x8_cad.c ****       return 0;
 214:..\..\..\..\..\..\Dev\Library embedded l2c display\u8g2\csrc/u8x8_cad.c ****   }
 215:..\..\..\..\..\..\Dev\Library embedded l2c display\u8g2\csrc/u8x8_cad.c ****   return 1;
 216:..\..\..\..\..\..\Dev\Library embedded l2c display\u8g2\csrc/u8x8_cad.c **** }
 217:..\..\..\..\..\..\Dev\Library embedded l2c display\u8g2\csrc/u8x8_cad.c **** 
 218:..\..\..\..\..\..\Dev\Library embedded l2c display\u8g2\csrc/u8x8_cad.c **** 
 219:..\..\..\..\..\..\Dev\Library embedded l2c display\u8g2\csrc/u8x8_cad.c **** /*
 220:..\..\..\..\..\..\Dev\Library embedded l2c display\u8g2\csrc/u8x8_cad.c ****   convert to bytes by using 
 221:..\..\..\..\..\..\Dev\Library embedded l2c display\u8g2\csrc/u8x8_cad.c ****     dc = 1 for commands and args and
 222:..\..\..\..\..\..\Dev\Library embedded l2c display\u8g2\csrc/u8x8_cad.c ****     dc = 0 for data
 223:..\..\..\..\..\..\Dev\Library embedded l2c display\u8g2\csrc/u8x8_cad.c **** */
 224:..\..\..\..\..\..\Dev\Library embedded l2c display\u8g2\csrc/u8x8_cad.c **** uint8_t u8x8_cad_110(u8x8_t *u8x8, uint8_t msg, uint8_t arg_int, void *arg_ptr)
 225:..\..\..\..\..\..\Dev\Library embedded l2c display\u8g2\csrc/u8x8_cad.c **** {
 226:..\..\..\..\..\..\Dev\Library embedded l2c display\u8g2\csrc/u8x8_cad.c ****   switch(msg)
 227:..\..\..\..\..\..\Dev\Library embedded l2c display\u8g2\csrc/u8x8_cad.c ****   {
 228:..\..\..\..\..\..\Dev\Library embedded l2c display\u8g2\csrc/u8x8_cad.c ****     case U8X8_MSG_CAD_SEND_CMD:
 229:..\..\..\..\..\..\Dev\Library embedded l2c display\u8g2\csrc/u8x8_cad.c ****       u8x8_byte_SetDC(u8x8, 1);
 230:..\..\..\..\..\..\Dev\Library embedded l2c display\u8g2\csrc/u8x8_cad.c ****       u8x8_byte_SendByte(u8x8, arg_int);
 231:..\..\..\..\..\..\Dev\Library embedded l2c display\u8g2\csrc/u8x8_cad.c ****       break;
 232:..\..\..\..\..\..\Dev\Library embedded l2c display\u8g2\csrc/u8x8_cad.c ****     case U8X8_MSG_CAD_SEND_ARG:
 233:..\..\..\..\..\..\Dev\Library embedded l2c display\u8g2\csrc/u8x8_cad.c ****       u8x8_byte_SetDC(u8x8, 1);
 234:..\..\..\..\..\..\Dev\Library embedded l2c display\u8g2\csrc/u8x8_cad.c ****       u8x8_byte_SendByte(u8x8, arg_int);
 235:..\..\..\..\..\..\Dev\Library embedded l2c display\u8g2\csrc/u8x8_cad.c ****       break;
 236:..\..\..\..\..\..\Dev\Library embedded l2c display\u8g2\csrc/u8x8_cad.c ****     case U8X8_MSG_CAD_SEND_DATA:
 237:..\..\..\..\..\..\Dev\Library embedded l2c display\u8g2\csrc/u8x8_cad.c ****       u8x8_byte_SetDC(u8x8, 0);
 238:..\..\..\..\..\..\Dev\Library embedded l2c display\u8g2\csrc/u8x8_cad.c ****       //u8x8_byte_SendBytes(u8x8, arg_int, arg_ptr);
 239:..\..\..\..\..\..\Dev\Library embedded l2c display\u8g2\csrc/u8x8_cad.c ****       //break;
 240:..\..\..\..\..\..\Dev\Library embedded l2c display\u8g2\csrc/u8x8_cad.c ****       /* fall through */
 241:..\..\..\..\..\..\Dev\Library embedded l2c display\u8g2\csrc/u8x8_cad.c ****     case U8X8_MSG_CAD_INIT:
 242:..\..\..\..\..\..\Dev\Library embedded l2c display\u8g2\csrc/u8x8_cad.c ****     case U8X8_MSG_CAD_START_TRANSFER:
 243:..\..\..\..\..\..\Dev\Library embedded l2c display\u8g2\csrc/u8x8_cad.c ****     case U8X8_MSG_CAD_END_TRANSFER:
 244:..\..\..\..\..\..\Dev\Library embedded l2c display\u8g2\csrc/u8x8_cad.c ****       return u8x8->byte_cb(u8x8, msg, arg_int, arg_ptr);
 245:..\..\..\..\..\..\Dev\Library embedded l2c display\u8g2\csrc/u8x8_cad.c ****     default:
 246:..\..\..\..\..\..\Dev\Library embedded l2c display\u8g2\csrc/u8x8_cad.c ****       return 0;
 247:..\..\..\..\..\..\Dev\Library embedded l2c display\u8g2\csrc/u8x8_cad.c ****   }
 248:..\..\..\..\..\..\Dev\Library embedded l2c display\u8g2\csrc/u8x8_cad.c ****   return 1;
 249:..\..\..\..\..\..\Dev\Library embedded l2c display\u8g2\csrc/u8x8_cad.c **** }
 250:..\..\..\..\..\..\Dev\Library embedded l2c display\u8g2\csrc/u8x8_cad.c **** 
 251:..\..\..\..\..\..\Dev\Library embedded l2c display\u8g2\csrc/u8x8_cad.c **** /*
 252:..\..\..\..\..\..\Dev\Library embedded l2c display\u8g2\csrc/u8x8_cad.c ****   convert to bytes by using 
 253:..\..\..\..\..\..\Dev\Library embedded l2c display\u8g2\csrc/u8x8_cad.c ****     dc = 1 for commands and args and
 254:..\..\..\..\..\..\Dev\Library embedded l2c display\u8g2\csrc/u8x8_cad.c ****     dc = 0 for data
 255:..\..\..\..\..\..\Dev\Library embedded l2c display\u8g2\csrc/u8x8_cad.c **** */
 256:..\..\..\..\..\..\Dev\Library embedded l2c display\u8g2\csrc/u8x8_cad.c **** uint8_t u8x8_gu800_cad_110(u8x8_t *u8x8, uint8_t msg, uint8_t arg_int, void *arg_ptr)
 257:..\..\..\..\..\..\Dev\Library embedded l2c display\u8g2\csrc/u8x8_cad.c **** {
 258:..\..\..\..\..\..\Dev\Library embedded l2c display\u8g2\csrc/u8x8_cad.c ****   uint8_t *data;
 259:..\..\..\..\..\..\Dev\Library embedded l2c display\u8g2\csrc/u8x8_cad.c ****   switch(msg)
ARM GAS  C:\Users\Abude\AppData\Local\Temp\cc3E6hY2.s 			page 6


 260:..\..\..\..\..\..\Dev\Library embedded l2c display\u8g2\csrc/u8x8_cad.c ****   {
 261:..\..\..\..\..\..\Dev\Library embedded l2c display\u8g2\csrc/u8x8_cad.c ****     case U8X8_MSG_CAD_SEND_CMD:
 262:..\..\..\..\..\..\Dev\Library embedded l2c display\u8g2\csrc/u8x8_cad.c ****       u8x8_byte_SetDC(u8x8, 1);
 263:..\..\..\..\..\..\Dev\Library embedded l2c display\u8g2\csrc/u8x8_cad.c ****       u8x8_byte_StartTransfer(u8x8);
 264:..\..\..\..\..\..\Dev\Library embedded l2c display\u8g2\csrc/u8x8_cad.c ****       u8x8_byte_SendByte(u8x8, arg_int);
 265:..\..\..\..\..\..\Dev\Library embedded l2c display\u8g2\csrc/u8x8_cad.c ****       u8x8_byte_EndTransfer(u8x8);
 266:..\..\..\..\..\..\Dev\Library embedded l2c display\u8g2\csrc/u8x8_cad.c ****       break;
 267:..\..\..\..\..\..\Dev\Library embedded l2c display\u8g2\csrc/u8x8_cad.c ****     case U8X8_MSG_CAD_SEND_ARG:
 268:..\..\..\..\..\..\Dev\Library embedded l2c display\u8g2\csrc/u8x8_cad.c ****       u8x8_byte_SetDC(u8x8, 1);
 269:..\..\..\..\..\..\Dev\Library embedded l2c display\u8g2\csrc/u8x8_cad.c ****       u8x8_byte_StartTransfer(u8x8);
 270:..\..\..\..\..\..\Dev\Library embedded l2c display\u8g2\csrc/u8x8_cad.c ****       u8x8_byte_SendByte(u8x8, arg_int);
 271:..\..\..\..\..\..\Dev\Library embedded l2c display\u8g2\csrc/u8x8_cad.c ****       u8x8_byte_EndTransfer(u8x8);
 272:..\..\..\..\..\..\Dev\Library embedded l2c display\u8g2\csrc/u8x8_cad.c ****       break;
 273:..\..\..\..\..\..\Dev\Library embedded l2c display\u8g2\csrc/u8x8_cad.c ****     case U8X8_MSG_CAD_SEND_DATA:
 274:..\..\..\..\..\..\Dev\Library embedded l2c display\u8g2\csrc/u8x8_cad.c ****       u8x8_byte_SetDC(u8x8, 0);
 275:..\..\..\..\..\..\Dev\Library embedded l2c display\u8g2\csrc/u8x8_cad.c ****       data = (uint8_t *)arg_ptr;
 276:..\..\..\..\..\..\Dev\Library embedded l2c display\u8g2\csrc/u8x8_cad.c ****       while( arg_int > 0 )
 277:..\..\..\..\..\..\Dev\Library embedded l2c display\u8g2\csrc/u8x8_cad.c ****       {
 278:..\..\..\..\..\..\Dev\Library embedded l2c display\u8g2\csrc/u8x8_cad.c ****         u8x8_byte_StartTransfer(u8x8);
 279:..\..\..\..\..\..\Dev\Library embedded l2c display\u8g2\csrc/u8x8_cad.c ****         u8x8_byte_SendByte(u8x8, *data);
 280:..\..\..\..\..\..\Dev\Library embedded l2c display\u8g2\csrc/u8x8_cad.c ****         u8x8_byte_EndTransfer(u8x8);
 281:..\..\..\..\..\..\Dev\Library embedded l2c display\u8g2\csrc/u8x8_cad.c ****         data++;
 282:..\..\..\..\..\..\Dev\Library embedded l2c display\u8g2\csrc/u8x8_cad.c ****         arg_int--;
 283:..\..\..\..\..\..\Dev\Library embedded l2c display\u8g2\csrc/u8x8_cad.c ****       }
 284:..\..\..\..\..\..\Dev\Library embedded l2c display\u8g2\csrc/u8x8_cad.c ****       break;
 285:..\..\..\..\..\..\Dev\Library embedded l2c display\u8g2\csrc/u8x8_cad.c ****     case U8X8_MSG_CAD_INIT:
 286:..\..\..\..\..\..\Dev\Library embedded l2c display\u8g2\csrc/u8x8_cad.c ****       u8x8->byte_cb(u8x8, msg, arg_int, arg_ptr);
 287:..\..\..\..\..\..\Dev\Library embedded l2c display\u8g2\csrc/u8x8_cad.c ****       break;
 288:..\..\..\..\..\..\Dev\Library embedded l2c display\u8g2\csrc/u8x8_cad.c ****     case U8X8_MSG_CAD_START_TRANSFER:
 289:..\..\..\..\..\..\Dev\Library embedded l2c display\u8g2\csrc/u8x8_cad.c ****     case U8X8_MSG_CAD_END_TRANSFER:
 290:..\..\..\..\..\..\Dev\Library embedded l2c display\u8g2\csrc/u8x8_cad.c ****       break;
 291:..\..\..\..\..\..\Dev\Library embedded l2c display\u8g2\csrc/u8x8_cad.c ****     default:
 292:..\..\..\..\..\..\Dev\Library embedded l2c display\u8g2\csrc/u8x8_cad.c ****       return 0;
 293:..\..\..\..\..\..\Dev\Library embedded l2c display\u8g2\csrc/u8x8_cad.c ****   }
 294:..\..\..\..\..\..\Dev\Library embedded l2c display\u8g2\csrc/u8x8_cad.c ****   return 1;
 295:..\..\..\..\..\..\Dev\Library embedded l2c display\u8g2\csrc/u8x8_cad.c **** }
 296:..\..\..\..\..\..\Dev\Library embedded l2c display\u8g2\csrc/u8x8_cad.c **** 
 297:..\..\..\..\..\..\Dev\Library embedded l2c display\u8g2\csrc/u8x8_cad.c **** /*
 298:..\..\..\..\..\..\Dev\Library embedded l2c display\u8g2\csrc/u8x8_cad.c ****   convert to bytes by using 
 299:..\..\..\..\..\..\Dev\Library embedded l2c display\u8g2\csrc/u8x8_cad.c ****     dc = 1 for commands and args and
 300:..\..\..\..\..\..\Dev\Library embedded l2c display\u8g2\csrc/u8x8_cad.c ****     dc = 0 for data
 301:..\..\..\..\..\..\Dev\Library embedded l2c display\u8g2\csrc/u8x8_cad.c ****     t6963
 302:..\..\..\..\..\..\Dev\Library embedded l2c display\u8g2\csrc/u8x8_cad.c **** */
 303:..\..\..\..\..\..\Dev\Library embedded l2c display\u8g2\csrc/u8x8_cad.c **** uint8_t u8x8_cad_100(u8x8_t *u8x8, uint8_t msg, uint8_t arg_int, void *arg_ptr)
 304:..\..\..\..\..\..\Dev\Library embedded l2c display\u8g2\csrc/u8x8_cad.c **** {
 305:..\..\..\..\..\..\Dev\Library embedded l2c display\u8g2\csrc/u8x8_cad.c ****   switch(msg)
 306:..\..\..\..\..\..\Dev\Library embedded l2c display\u8g2\csrc/u8x8_cad.c ****   {
 307:..\..\..\..\..\..\Dev\Library embedded l2c display\u8g2\csrc/u8x8_cad.c ****     case U8X8_MSG_CAD_SEND_CMD:
 308:..\..\..\..\..\..\Dev\Library embedded l2c display\u8g2\csrc/u8x8_cad.c ****       u8x8_byte_SetDC(u8x8, 1);
 309:..\..\..\..\..\..\Dev\Library embedded l2c display\u8g2\csrc/u8x8_cad.c ****       u8x8_byte_SendByte(u8x8, arg_int);
 310:..\..\..\..\..\..\Dev\Library embedded l2c display\u8g2\csrc/u8x8_cad.c ****       break;
 311:..\..\..\..\..\..\Dev\Library embedded l2c display\u8g2\csrc/u8x8_cad.c ****     case U8X8_MSG_CAD_SEND_ARG:
 312:..\..\..\..\..\..\Dev\Library embedded l2c display\u8g2\csrc/u8x8_cad.c ****       u8x8_byte_SetDC(u8x8, 0);
 313:..\..\..\..\..\..\Dev\Library embedded l2c display\u8g2\csrc/u8x8_cad.c ****       u8x8_byte_SendByte(u8x8, arg_int);
 314:..\..\..\..\..\..\Dev\Library embedded l2c display\u8g2\csrc/u8x8_cad.c ****       break;
 315:..\..\..\..\..\..\Dev\Library embedded l2c display\u8g2\csrc/u8x8_cad.c ****     case U8X8_MSG_CAD_SEND_DATA:
 316:..\..\..\..\..\..\Dev\Library embedded l2c display\u8g2\csrc/u8x8_cad.c ****       u8x8_byte_SetDC(u8x8, 0);
ARM GAS  C:\Users\Abude\AppData\Local\Temp\cc3E6hY2.s 			page 7


 317:..\..\..\..\..\..\Dev\Library embedded l2c display\u8g2\csrc/u8x8_cad.c ****       //u8x8_byte_SendBytes(u8x8, arg_int, arg_ptr);
 318:..\..\..\..\..\..\Dev\Library embedded l2c display\u8g2\csrc/u8x8_cad.c ****       //break;
 319:..\..\..\..\..\..\Dev\Library embedded l2c display\u8g2\csrc/u8x8_cad.c ****       /* fall through */
 320:..\..\..\..\..\..\Dev\Library embedded l2c display\u8g2\csrc/u8x8_cad.c ****     case U8X8_MSG_CAD_INIT:
 321:..\..\..\..\..\..\Dev\Library embedded l2c display\u8g2\csrc/u8x8_cad.c ****     case U8X8_MSG_CAD_START_TRANSFER:
 322:..\..\..\..\..\..\Dev\Library embedded l2c display\u8g2\csrc/u8x8_cad.c ****     case U8X8_MSG_CAD_END_TRANSFER:
 323:..\..\..\..\..\..\Dev\Library embedded l2c display\u8g2\csrc/u8x8_cad.c ****       return u8x8->byte_cb(u8x8, msg, arg_int, arg_ptr);
 324:..\..\..\..\..\..\Dev\Library embedded l2c display\u8g2\csrc/u8x8_cad.c ****     default:
 325:..\..\..\..\..\..\Dev\Library embedded l2c display\u8g2\csrc/u8x8_cad.c ****       return 0;
 326:..\..\..\..\..\..\Dev\Library embedded l2c display\u8g2\csrc/u8x8_cad.c ****   }
 327:..\..\..\..\..\..\Dev\Library embedded l2c display\u8g2\csrc/u8x8_cad.c ****   return 1;
 328:..\..\..\..\..\..\Dev\Library embedded l2c display\u8g2\csrc/u8x8_cad.c **** }
 329:..\..\..\..\..\..\Dev\Library embedded l2c display\u8g2\csrc/u8x8_cad.c **** 
 330:..\..\..\..\..\..\Dev\Library embedded l2c display\u8g2\csrc/u8x8_cad.c **** /*
 331:..\..\..\..\..\..\Dev\Library embedded l2c display\u8g2\csrc/u8x8_cad.c ****   convert to bytes by using 
 332:..\..\..\..\..\..\Dev\Library embedded l2c display\u8g2\csrc/u8x8_cad.c ****     dc = 0 for commands and args and
 333:..\..\..\..\..\..\Dev\Library embedded l2c display\u8g2\csrc/u8x8_cad.c ****     dc = 1 for data
 334:..\..\..\..\..\..\Dev\Library embedded l2c display\u8g2\csrc/u8x8_cad.c **** */
 335:..\..\..\..\..\..\Dev\Library embedded l2c display\u8g2\csrc/u8x8_cad.c **** uint8_t u8x8_cad_001(u8x8_t *u8x8, uint8_t msg, uint8_t arg_int, void *arg_ptr)
 336:..\..\..\..\..\..\Dev\Library embedded l2c display\u8g2\csrc/u8x8_cad.c **** {
 337:..\..\..\..\..\..\Dev\Library embedded l2c display\u8g2\csrc/u8x8_cad.c ****   switch(msg)
 338:..\..\..\..\..\..\Dev\Library embedded l2c display\u8g2\csrc/u8x8_cad.c ****   {
 339:..\..\..\..\..\..\Dev\Library embedded l2c display\u8g2\csrc/u8x8_cad.c ****     case U8X8_MSG_CAD_SEND_CMD:
 340:..\..\..\..\..\..\Dev\Library embedded l2c display\u8g2\csrc/u8x8_cad.c ****       u8x8_byte_SetDC(u8x8, 0);
 341:..\..\..\..\..\..\Dev\Library embedded l2c display\u8g2\csrc/u8x8_cad.c ****       u8x8_byte_SendByte(u8x8, arg_int);
 342:..\..\..\..\..\..\Dev\Library embedded l2c display\u8g2\csrc/u8x8_cad.c ****       break;
 343:..\..\..\..\..\..\Dev\Library embedded l2c display\u8g2\csrc/u8x8_cad.c ****     case U8X8_MSG_CAD_SEND_ARG:
 344:..\..\..\..\..\..\Dev\Library embedded l2c display\u8g2\csrc/u8x8_cad.c ****       u8x8_byte_SetDC(u8x8, 0);
 345:..\..\..\..\..\..\Dev\Library embedded l2c display\u8g2\csrc/u8x8_cad.c ****       u8x8_byte_SendByte(u8x8, arg_int);
 346:..\..\..\..\..\..\Dev\Library embedded l2c display\u8g2\csrc/u8x8_cad.c ****       break;
 347:..\..\..\..\..\..\Dev\Library embedded l2c display\u8g2\csrc/u8x8_cad.c ****     case U8X8_MSG_CAD_SEND_DATA:
 348:..\..\..\..\..\..\Dev\Library embedded l2c display\u8g2\csrc/u8x8_cad.c ****       u8x8_byte_SetDC(u8x8, 1);
 349:..\..\..\..\..\..\Dev\Library embedded l2c display\u8g2\csrc/u8x8_cad.c ****       //u8x8_byte_SendBytes(u8x8, arg_int, arg_ptr);
 350:..\..\..\..\..\..\Dev\Library embedded l2c display\u8g2\csrc/u8x8_cad.c ****       //break;
 351:..\..\..\..\..\..\Dev\Library embedded l2c display\u8g2\csrc/u8x8_cad.c ****       /* fall through */
 352:..\..\..\..\..\..\Dev\Library embedded l2c display\u8g2\csrc/u8x8_cad.c ****     case U8X8_MSG_CAD_INIT:
 353:..\..\..\..\..\..\Dev\Library embedded l2c display\u8g2\csrc/u8x8_cad.c ****     case U8X8_MSG_CAD_START_TRANSFER:
 354:..\..\..\..\..\..\Dev\Library embedded l2c display\u8g2\csrc/u8x8_cad.c ****     case U8X8_MSG_CAD_END_TRANSFER:
 355:..\..\..\..\..\..\Dev\Library embedded l2c display\u8g2\csrc/u8x8_cad.c ****       return u8x8->byte_cb(u8x8, msg, arg_int, arg_ptr);
 356:..\..\..\..\..\..\Dev\Library embedded l2c display\u8g2\csrc/u8x8_cad.c ****     default:
 357:..\..\..\..\..\..\Dev\Library embedded l2c display\u8g2\csrc/u8x8_cad.c ****       return 0;
 358:..\..\..\..\..\..\Dev\Library embedded l2c display\u8g2\csrc/u8x8_cad.c ****   }
 359:..\..\..\..\..\..\Dev\Library embedded l2c display\u8g2\csrc/u8x8_cad.c ****   return 1;
 360:..\..\..\..\..\..\Dev\Library embedded l2c display\u8g2\csrc/u8x8_cad.c **** }
 361:..\..\..\..\..\..\Dev\Library embedded l2c display\u8g2\csrc/u8x8_cad.c **** 
 362:..\..\..\..\..\..\Dev\Library embedded l2c display\u8g2\csrc/u8x8_cad.c **** /*
 363:..\..\..\..\..\..\Dev\Library embedded l2c display\u8g2\csrc/u8x8_cad.c ****   convert to bytes by using 
 364:..\..\..\..\..\..\Dev\Library embedded l2c display\u8g2\csrc/u8x8_cad.c ****     dc = 0 for commands 
 365:..\..\..\..\..\..\Dev\Library embedded l2c display\u8g2\csrc/u8x8_cad.c ****     dc = 1 for args and data
 366:..\..\..\..\..\..\Dev\Library embedded l2c display\u8g2\csrc/u8x8_cad.c **** */
 367:..\..\..\..\..\..\Dev\Library embedded l2c display\u8g2\csrc/u8x8_cad.c **** uint8_t u8x8_cad_011(u8x8_t *u8x8, uint8_t msg, uint8_t arg_int, void *arg_ptr)
 368:..\..\..\..\..\..\Dev\Library embedded l2c display\u8g2\csrc/u8x8_cad.c **** {
 369:..\..\..\..\..\..\Dev\Library embedded l2c display\u8g2\csrc/u8x8_cad.c ****   switch(msg)
 370:..\..\..\..\..\..\Dev\Library embedded l2c display\u8g2\csrc/u8x8_cad.c ****   {
 371:..\..\..\..\..\..\Dev\Library embedded l2c display\u8g2\csrc/u8x8_cad.c ****     case U8X8_MSG_CAD_SEND_CMD:
 372:..\..\..\..\..\..\Dev\Library embedded l2c display\u8g2\csrc/u8x8_cad.c ****       u8x8_byte_SetDC(u8x8, 0);
 373:..\..\..\..\..\..\Dev\Library embedded l2c display\u8g2\csrc/u8x8_cad.c ****       u8x8_byte_SendByte(u8x8, arg_int);
ARM GAS  C:\Users\Abude\AppData\Local\Temp\cc3E6hY2.s 			page 8


 374:..\..\..\..\..\..\Dev\Library embedded l2c display\u8g2\csrc/u8x8_cad.c ****       break;
 375:..\..\..\..\..\..\Dev\Library embedded l2c display\u8g2\csrc/u8x8_cad.c ****     case U8X8_MSG_CAD_SEND_ARG:
 376:..\..\..\..\..\..\Dev\Library embedded l2c display\u8g2\csrc/u8x8_cad.c ****       u8x8_byte_SetDC(u8x8, 1);
 377:..\..\..\..\..\..\Dev\Library embedded l2c display\u8g2\csrc/u8x8_cad.c ****       u8x8_byte_SendByte(u8x8, arg_int);
 378:..\..\..\..\..\..\Dev\Library embedded l2c display\u8g2\csrc/u8x8_cad.c ****       break;
 379:..\..\..\..\..\..\Dev\Library embedded l2c display\u8g2\csrc/u8x8_cad.c ****     case U8X8_MSG_CAD_SEND_DATA:
 380:..\..\..\..\..\..\Dev\Library embedded l2c display\u8g2\csrc/u8x8_cad.c ****       u8x8_byte_SetDC(u8x8, 1);
 381:..\..\..\..\..\..\Dev\Library embedded l2c display\u8g2\csrc/u8x8_cad.c ****       //u8x8_byte_SendBytes(u8x8, arg_int, arg_ptr);
 382:..\..\..\..\..\..\Dev\Library embedded l2c display\u8g2\csrc/u8x8_cad.c ****       //break;
 383:..\..\..\..\..\..\Dev\Library embedded l2c display\u8g2\csrc/u8x8_cad.c ****       /* fall through */
 384:..\..\..\..\..\..\Dev\Library embedded l2c display\u8g2\csrc/u8x8_cad.c ****     case U8X8_MSG_CAD_INIT:
 385:..\..\..\..\..\..\Dev\Library embedded l2c display\u8g2\csrc/u8x8_cad.c ****     case U8X8_MSG_CAD_START_TRANSFER:
 386:..\..\..\..\..\..\Dev\Library embedded l2c display\u8g2\csrc/u8x8_cad.c ****     case U8X8_MSG_CAD_END_TRANSFER:
 387:..\..\..\..\..\..\Dev\Library embedded l2c display\u8g2\csrc/u8x8_cad.c ****       return u8x8->byte_cb(u8x8, msg, arg_int, arg_ptr);
 388:..\..\..\..\..\..\Dev\Library embedded l2c display\u8g2\csrc/u8x8_cad.c ****     default:
 389:..\..\..\..\..\..\Dev\Library embedded l2c display\u8g2\csrc/u8x8_cad.c ****       return 0;
 390:..\..\..\..\..\..\Dev\Library embedded l2c display\u8g2\csrc/u8x8_cad.c ****   }
 391:..\..\..\..\..\..\Dev\Library embedded l2c display\u8g2\csrc/u8x8_cad.c ****   return 1;
 392:..\..\..\..\..\..\Dev\Library embedded l2c display\u8g2\csrc/u8x8_cad.c **** }
 393:..\..\..\..\..\..\Dev\Library embedded l2c display\u8g2\csrc/u8x8_cad.c **** 
 394:..\..\..\..\..\..\Dev\Library embedded l2c display\u8g2\csrc/u8x8_cad.c **** /* cad procedure for the ST7920 in SPI mode */
 395:..\..\..\..\..\..\Dev\Library embedded l2c display\u8g2\csrc/u8x8_cad.c **** /* u8x8_byte_SetDC is not used */
 396:..\..\..\..\..\..\Dev\Library embedded l2c display\u8g2\csrc/u8x8_cad.c **** uint8_t u8x8_cad_st7920_spi(u8x8_t *u8x8, uint8_t msg, uint8_t arg_int, void *arg_ptr)
 397:..\..\..\..\..\..\Dev\Library embedded l2c display\u8g2\csrc/u8x8_cad.c **** {
 398:..\..\..\..\..\..\Dev\Library embedded l2c display\u8g2\csrc/u8x8_cad.c ****   uint8_t *data;
 399:..\..\..\..\..\..\Dev\Library embedded l2c display\u8g2\csrc/u8x8_cad.c ****   uint8_t b;
 400:..\..\..\..\..\..\Dev\Library embedded l2c display\u8g2\csrc/u8x8_cad.c ****   uint8_t i;
 401:..\..\..\..\..\..\Dev\Library embedded l2c display\u8g2\csrc/u8x8_cad.c ****   static uint8_t buf[16];
 402:..\..\..\..\..\..\Dev\Library embedded l2c display\u8g2\csrc/u8x8_cad.c ****   uint8_t *ptr;
 403:..\..\..\..\..\..\Dev\Library embedded l2c display\u8g2\csrc/u8x8_cad.c ****   
 404:..\..\..\..\..\..\Dev\Library embedded l2c display\u8g2\csrc/u8x8_cad.c ****   switch(msg)
 405:..\..\..\..\..\..\Dev\Library embedded l2c display\u8g2\csrc/u8x8_cad.c ****   {
 406:..\..\..\..\..\..\Dev\Library embedded l2c display\u8g2\csrc/u8x8_cad.c ****     case U8X8_MSG_CAD_SEND_CMD:
 407:..\..\..\..\..\..\Dev\Library embedded l2c display\u8g2\csrc/u8x8_cad.c ****       u8x8_byte_SendByte(u8x8, 0x0f8);
 408:..\..\..\..\..\..\Dev\Library embedded l2c display\u8g2\csrc/u8x8_cad.c ****       u8x8_gpio_Delay(u8x8, U8X8_MSG_DELAY_NANO, 1);
 409:..\..\..\..\..\..\Dev\Library embedded l2c display\u8g2\csrc/u8x8_cad.c ****       u8x8_byte_SendByte(u8x8, arg_int & 0x0f0);
 410:..\..\..\..\..\..\Dev\Library embedded l2c display\u8g2\csrc/u8x8_cad.c ****       u8x8_gpio_Delay(u8x8, U8X8_MSG_DELAY_NANO, 1);
 411:..\..\..\..\..\..\Dev\Library embedded l2c display\u8g2\csrc/u8x8_cad.c ****       u8x8_byte_SendByte(u8x8, arg_int << 4);
 412:..\..\..\..\..\..\Dev\Library embedded l2c display\u8g2\csrc/u8x8_cad.c ****       u8x8_gpio_Delay(u8x8, U8X8_MSG_DELAY_NANO, 1);
 413:..\..\..\..\..\..\Dev\Library embedded l2c display\u8g2\csrc/u8x8_cad.c ****       break;
 414:..\..\..\..\..\..\Dev\Library embedded l2c display\u8g2\csrc/u8x8_cad.c ****     case U8X8_MSG_CAD_SEND_ARG:
 415:..\..\..\..\..\..\Dev\Library embedded l2c display\u8g2\csrc/u8x8_cad.c ****       u8x8_byte_SendByte(u8x8, 0x0f8);
 416:..\..\..\..\..\..\Dev\Library embedded l2c display\u8g2\csrc/u8x8_cad.c ****       u8x8_byte_SendByte(u8x8, arg_int & 0x0f0);
 417:..\..\..\..\..\..\Dev\Library embedded l2c display\u8g2\csrc/u8x8_cad.c ****       u8x8_byte_SendByte(u8x8, arg_int << 4);
 418:..\..\..\..\..\..\Dev\Library embedded l2c display\u8g2\csrc/u8x8_cad.c ****       break;
 419:..\..\..\..\..\..\Dev\Library embedded l2c display\u8g2\csrc/u8x8_cad.c ****     case U8X8_MSG_CAD_SEND_DATA:
 420:..\..\..\..\..\..\Dev\Library embedded l2c display\u8g2\csrc/u8x8_cad.c ****     
 421:..\..\..\..\..\..\Dev\Library embedded l2c display\u8g2\csrc/u8x8_cad.c ****       u8x8_byte_SendByte(u8x8, 0x0fa);
 422:..\..\..\..\..\..\Dev\Library embedded l2c display\u8g2\csrc/u8x8_cad.c ****       u8x8_gpio_Delay(u8x8, U8X8_MSG_DELAY_NANO, 1);
 423:..\..\..\..\..\..\Dev\Library embedded l2c display\u8g2\csrc/u8x8_cad.c **** 
 424:..\..\..\..\..\..\Dev\Library embedded l2c display\u8g2\csrc/u8x8_cad.c ****       /* this loop should be optimized: multiple bytes should be sent */
 425:..\..\..\..\..\..\Dev\Library embedded l2c display\u8g2\csrc/u8x8_cad.c ****       /* u8x8_byte_SendBytes(u8x8, arg_int, arg_ptr); */
 426:..\..\..\..\..\..\Dev\Library embedded l2c display\u8g2\csrc/u8x8_cad.c ****       data = (uint8_t *)arg_ptr;
 427:..\..\..\..\..\..\Dev\Library embedded l2c display\u8g2\csrc/u8x8_cad.c ****     
 428:..\..\..\..\..\..\Dev\Library embedded l2c display\u8g2\csrc/u8x8_cad.c ****       /* the following loop increases speed by 20% */
 429:..\..\..\..\..\..\Dev\Library embedded l2c display\u8g2\csrc/u8x8_cad.c ****       while( arg_int >= 8 )
 430:..\..\..\..\..\..\Dev\Library embedded l2c display\u8g2\csrc/u8x8_cad.c ****       {
ARM GAS  C:\Users\Abude\AppData\Local\Temp\cc3E6hY2.s 			page 9


 431:..\..\..\..\..\..\Dev\Library embedded l2c display\u8g2\csrc/u8x8_cad.c **** 	i = 8;
 432:..\..\..\..\..\..\Dev\Library embedded l2c display\u8g2\csrc/u8x8_cad.c **** 	ptr = buf;
 433:..\..\..\..\..\..\Dev\Library embedded l2c display\u8g2\csrc/u8x8_cad.c **** 	do
 434:..\..\..\..\..\..\Dev\Library embedded l2c display\u8g2\csrc/u8x8_cad.c **** 	{
 435:..\..\..\..\..\..\Dev\Library embedded l2c display\u8g2\csrc/u8x8_cad.c **** 	  b = *data++;
 436:..\..\..\..\..\..\Dev\Library embedded l2c display\u8g2\csrc/u8x8_cad.c **** 	  *ptr++= b & 0x0f0;
 437:..\..\..\..\..\..\Dev\Library embedded l2c display\u8g2\csrc/u8x8_cad.c **** 	  b <<= 4;
 438:..\..\..\..\..\..\Dev\Library embedded l2c display\u8g2\csrc/u8x8_cad.c **** 	  *ptr++= b;
 439:..\..\..\..\..\..\Dev\Library embedded l2c display\u8g2\csrc/u8x8_cad.c **** 	  i--;
 440:..\..\..\..\..\..\Dev\Library embedded l2c display\u8g2\csrc/u8x8_cad.c **** 	} while( i > 0 );
 441:..\..\..\..\..\..\Dev\Library embedded l2c display\u8g2\csrc/u8x8_cad.c **** 	arg_int -= 8;
 442:..\..\..\..\..\..\Dev\Library embedded l2c display\u8g2\csrc/u8x8_cad.c **** 	u8x8_byte_SendBytes(u8x8, 16, buf); 
 443:..\..\..\..\..\..\Dev\Library embedded l2c display\u8g2\csrc/u8x8_cad.c ****       }
 444:..\..\..\..\..\..\Dev\Library embedded l2c display\u8g2\csrc/u8x8_cad.c ****       
 445:..\..\..\..\..\..\Dev\Library embedded l2c display\u8g2\csrc/u8x8_cad.c ****     
 446:..\..\..\..\..\..\Dev\Library embedded l2c display\u8g2\csrc/u8x8_cad.c ****       while( arg_int > 0 )
 447:..\..\..\..\..\..\Dev\Library embedded l2c display\u8g2\csrc/u8x8_cad.c ****       {
 448:..\..\..\..\..\..\Dev\Library embedded l2c display\u8g2\csrc/u8x8_cad.c **** 	b = *data;
 449:..\..\..\..\..\..\Dev\Library embedded l2c display\u8g2\csrc/u8x8_cad.c **** 	u8x8_byte_SendByte(u8x8, b & 0x0f0);
 450:..\..\..\..\..\..\Dev\Library embedded l2c display\u8g2\csrc/u8x8_cad.c **** 	u8x8_byte_SendByte(u8x8, b << 4);
 451:..\..\..\..\..\..\Dev\Library embedded l2c display\u8g2\csrc/u8x8_cad.c **** 	data++;
 452:..\..\..\..\..\..\Dev\Library embedded l2c display\u8g2\csrc/u8x8_cad.c **** 	arg_int--;
 453:..\..\..\..\..\..\Dev\Library embedded l2c display\u8g2\csrc/u8x8_cad.c ****       }
 454:..\..\..\..\..\..\Dev\Library embedded l2c display\u8g2\csrc/u8x8_cad.c ****       u8x8_gpio_Delay(u8x8, U8X8_MSG_DELAY_NANO, 1);
 455:..\..\..\..\..\..\Dev\Library embedded l2c display\u8g2\csrc/u8x8_cad.c ****       break;
 456:..\..\..\..\..\..\Dev\Library embedded l2c display\u8g2\csrc/u8x8_cad.c ****     case U8X8_MSG_CAD_INIT:
 457:..\..\..\..\..\..\Dev\Library embedded l2c display\u8g2\csrc/u8x8_cad.c ****     case U8X8_MSG_CAD_START_TRANSFER:
 458:..\..\..\..\..\..\Dev\Library embedded l2c display\u8g2\csrc/u8x8_cad.c ****     case U8X8_MSG_CAD_END_TRANSFER:
 459:..\..\..\..\..\..\Dev\Library embedded l2c display\u8g2\csrc/u8x8_cad.c ****       return u8x8->byte_cb(u8x8, msg, arg_int, arg_ptr);
 460:..\..\..\..\..\..\Dev\Library embedded l2c display\u8g2\csrc/u8x8_cad.c ****     default:
 461:..\..\..\..\..\..\Dev\Library embedded l2c display\u8g2\csrc/u8x8_cad.c ****       return 0;
 462:..\..\..\..\..\..\Dev\Library embedded l2c display\u8g2\csrc/u8x8_cad.c ****   }
 463:..\..\..\..\..\..\Dev\Library embedded l2c display\u8g2\csrc/u8x8_cad.c ****   return 1;
 464:..\..\..\..\..\..\Dev\Library embedded l2c display\u8g2\csrc/u8x8_cad.c **** }
 465:..\..\..\..\..\..\Dev\Library embedded l2c display\u8g2\csrc/u8x8_cad.c **** 
 466:..\..\..\..\..\..\Dev\Library embedded l2c display\u8g2\csrc/u8x8_cad.c **** 
 467:..\..\..\..\..\..\Dev\Library embedded l2c display\u8g2\csrc/u8x8_cad.c **** /* cad procedure for the SSD13xx family in I2C mode */
 468:..\..\..\..\..\..\Dev\Library embedded l2c display\u8g2\csrc/u8x8_cad.c **** /* this procedure is also used by the ST7588 */
 469:..\..\..\..\..\..\Dev\Library embedded l2c display\u8g2\csrc/u8x8_cad.c **** /* u8x8_byte_SetDC is not used */
 470:..\..\..\..\..\..\Dev\Library embedded l2c display\u8g2\csrc/u8x8_cad.c **** /* U8X8_MSG_BYTE_START_TRANSFER starts i2c transfer, U8X8_MSG_BYTE_END_TRANSFER stops transfer */
 471:..\..\..\..\..\..\Dev\Library embedded l2c display\u8g2\csrc/u8x8_cad.c **** /* After transfer start, a full byte indicates command or data mode */
 472:..\..\..\..\..\..\Dev\Library embedded l2c display\u8g2\csrc/u8x8_cad.c **** 
 473:..\..\..\..\..\..\Dev\Library embedded l2c display\u8g2\csrc/u8x8_cad.c **** static void u8x8_i2c_data_transfer(u8x8_t *u8x8, uint8_t arg_int, void *arg_ptr) U8X8_NOINLINE;
 474:..\..\..\..\..\..\Dev\Library embedded l2c display\u8g2\csrc/u8x8_cad.c **** static void u8x8_i2c_data_transfer(u8x8_t *u8x8, uint8_t arg_int, void *arg_ptr)
 475:..\..\..\..\..\..\Dev\Library embedded l2c display\u8g2\csrc/u8x8_cad.c **** {
  27              		.loc 1 475 0
  28              		.cfi_startproc
  29              		@ args = 0, pretend = 0, frame = 0
  30              		@ frame_needed = 0, uses_anonymous_args = 0
  31              	.LVL0:
  32 0000 F8B5     		push	{r3, r4, r5, r6, r7, lr}
  33              		.cfi_def_cfa_offset 24
  34              		.cfi_offset 3, -24
  35              		.cfi_offset 4, -20
  36              		.cfi_offset 5, -16
  37              		.cfi_offset 6, -12
  38              		.cfi_offset 7, -8
ARM GAS  C:\Users\Abude\AppData\Local\Temp\cc3E6hY2.s 			page 10


  39              		.cfi_offset 14, -4
  40 0002 0446     		mov	r4, r0
  41 0004 0E46     		mov	r6, r1
  42 0006 1746     		mov	r7, r2
 476:..\..\..\..\..\..\Dev\Library embedded l2c display\u8g2\csrc/u8x8_cad.c ****     u8x8_byte_StartTransfer(u8x8);    
  43              		.loc 1 476 0
  44 0008 FFF7FEFF 		bl	u8x8_byte_StartTransfer
  45              	.LVL1:
 477:..\..\..\..\..\..\Dev\Library embedded l2c display\u8g2\csrc/u8x8_cad.c ****     u8x8_byte_SendByte(u8x8, 0x040);
  46              		.loc 1 477 0
  47 000c 4021     		movs	r1, #64
  48 000e 2046     		mov	r0, r4
  49 0010 FFF7FEFF 		bl	u8x8_byte_SendByte
  50              	.LVL2:
 478:..\..\..\..\..\..\Dev\Library embedded l2c display\u8g2\csrc/u8x8_cad.c ****     u8x8->byte_cb(u8x8, U8X8_MSG_CAD_SEND_DATA, arg_int, arg_ptr);
  51              		.loc 1 478 0
  52 0014 2569     		ldr	r5, [r4, #16]
  53 0016 3B46     		mov	r3, r7
  54 0018 3246     		mov	r2, r6
  55 001a 1721     		movs	r1, #23
  56 001c 2046     		mov	r0, r4
  57 001e A847     		blx	r5
  58              	.LVL3:
 479:..\..\..\..\..\..\Dev\Library embedded l2c display\u8g2\csrc/u8x8_cad.c ****     u8x8_byte_EndTransfer(u8x8);
  59              		.loc 1 479 0
  60 0020 2046     		mov	r0, r4
  61 0022 FFF7FEFF 		bl	u8x8_byte_EndTransfer
  62              	.LVL4:
  63 0026 F8BD     		pop	{r3, r4, r5, r6, r7, pc}
  64              		.cfi_endproc
  65              	.LFE16:
  66              		.size	u8x8_i2c_data_transfer, .-u8x8_i2c_data_transfer
  67              		.section	.text.u8x8_cad_SendCmd,"ax",%progbits
  68              		.align	2
  69              		.global	u8x8_cad_SendCmd
  70              		.thumb
  71              		.thumb_func
  72              		.type	u8x8_cad_SendCmd, %function
  73              	u8x8_cad_SendCmd:
  74              	.LFB0:
  89:..\..\..\..\..\..\Dev\Library embedded l2c display\u8g2\csrc/u8x8_cad.c ****   return u8x8->cad_cb(u8x8, U8X8_MSG_CAD_SEND_CMD, cmd, NULL);
  75              		.loc 1 89 0
  76              		.cfi_startproc
  77              		@ args = 0, pretend = 0, frame = 0
  78              		@ frame_needed = 0, uses_anonymous_args = 0
  79              	.LVL5:
  80 0000 10B5     		push	{r4, lr}
  81              		.cfi_def_cfa_offset 8
  82              		.cfi_offset 4, -8
  83              		.cfi_offset 14, -4
  90:..\..\..\..\..\..\Dev\Library embedded l2c display\u8g2\csrc/u8x8_cad.c **** }
  84              		.loc 1 90 0
  85 0002 C468     		ldr	r4, [r0, #12]
  86 0004 0023     		movs	r3, #0
  87 0006 0A46     		mov	r2, r1
  88 0008 1521     		movs	r1, #21
  89              	.LVL6:
ARM GAS  C:\Users\Abude\AppData\Local\Temp\cc3E6hY2.s 			page 11


  90 000a A047     		blx	r4
  91              	.LVL7:
  91:..\..\..\..\..\..\Dev\Library embedded l2c display\u8g2\csrc/u8x8_cad.c **** 
  92              		.loc 1 91 0
  93 000c 10BD     		pop	{r4, pc}
  94              		.cfi_endproc
  95              	.LFE0:
  96              		.size	u8x8_cad_SendCmd, .-u8x8_cad_SendCmd
  97 000e 00BF     		.section	.text.u8x8_cad_SendArg,"ax",%progbits
  98              		.align	2
  99              		.global	u8x8_cad_SendArg
 100              		.thumb
 101              		.thumb_func
 102              		.type	u8x8_cad_SendArg, %function
 103              	u8x8_cad_SendArg:
 104              	.LFB1:
  94:..\..\..\..\..\..\Dev\Library embedded l2c display\u8g2\csrc/u8x8_cad.c ****   return u8x8->cad_cb(u8x8, U8X8_MSG_CAD_SEND_ARG, arg, NULL);
 105              		.loc 1 94 0
 106              		.cfi_startproc
 107              		@ args = 0, pretend = 0, frame = 0
 108              		@ frame_needed = 0, uses_anonymous_args = 0
 109              	.LVL8:
 110 0000 10B5     		push	{r4, lr}
 111              		.cfi_def_cfa_offset 8
 112              		.cfi_offset 4, -8
 113              		.cfi_offset 14, -4
  95:..\..\..\..\..\..\Dev\Library embedded l2c display\u8g2\csrc/u8x8_cad.c **** }
 114              		.loc 1 95 0
 115 0002 C468     		ldr	r4, [r0, #12]
 116 0004 0023     		movs	r3, #0
 117 0006 0A46     		mov	r2, r1
 118 0008 1621     		movs	r1, #22
 119              	.LVL9:
 120 000a A047     		blx	r4
 121              	.LVL10:
  96:..\..\..\..\..\..\Dev\Library embedded l2c display\u8g2\csrc/u8x8_cad.c **** 
 122              		.loc 1 96 0
 123 000c 10BD     		pop	{r4, pc}
 124              		.cfi_endproc
 125              	.LFE1:
 126              		.size	u8x8_cad_SendArg, .-u8x8_cad_SendArg
 127 000e 00BF     		.section	.text.u8x8_cad_SendMultipleArg,"ax",%progbits
 128              		.align	2
 129              		.global	u8x8_cad_SendMultipleArg
 130              		.thumb
 131              		.thumb_func
 132              		.type	u8x8_cad_SendMultipleArg, %function
 133              	u8x8_cad_SendMultipleArg:
 134              	.LFB2:
  99:..\..\..\..\..\..\Dev\Library embedded l2c display\u8g2\csrc/u8x8_cad.c ****   while( cnt > 0 )
 135              		.loc 1 99 0
 136              		.cfi_startproc
 137              		@ args = 0, pretend = 0, frame = 0
 138              		@ frame_needed = 0, uses_anonymous_args = 0
 139              	.LVL11:
 140 0000 F8B5     		push	{r3, r4, r5, r6, r7, lr}
 141              		.cfi_def_cfa_offset 24
ARM GAS  C:\Users\Abude\AppData\Local\Temp\cc3E6hY2.s 			page 12


 142              		.cfi_offset 3, -24
 143              		.cfi_offset 4, -20
 144              		.cfi_offset 5, -16
 145              		.cfi_offset 6, -12
 146              		.cfi_offset 7, -8
 147              		.cfi_offset 14, -4
 148 0002 0546     		mov	r5, r0
 149 0004 0C46     		mov	r4, r1
 150 0006 1746     		mov	r7, r2
 100:..\..\..\..\..\..\Dev\Library embedded l2c display\u8g2\csrc/u8x8_cad.c ****   {
 151              		.loc 1 100 0
 152 0008 07E0     		b	.L8
 153              	.LVL12:
 154              	.L9:
 102:..\..\..\..\..\..\Dev\Library embedded l2c display\u8g2\csrc/u8x8_cad.c ****     cnt--;
 155              		.loc 1 102 0
 156 000a EE68     		ldr	r6, [r5, #12]
 157 000c 0023     		movs	r3, #0
 158 000e 3A46     		mov	r2, r7
 159 0010 1621     		movs	r1, #22
 160 0012 2846     		mov	r0, r5
 161 0014 B047     		blx	r6
 162              	.LVL13:
 103:..\..\..\..\..\..\Dev\Library embedded l2c display\u8g2\csrc/u8x8_cad.c ****   }
 163              		.loc 1 103 0
 164 0016 013C     		subs	r4, r4, #1
 165              	.LVL14:
 166 0018 E4B2     		uxtb	r4, r4
 167              	.LVL15:
 168              	.L8:
 100:..\..\..\..\..\..\Dev\Library embedded l2c display\u8g2\csrc/u8x8_cad.c ****   {
 169              		.loc 1 100 0
 170 001a 002C     		cmp	r4, #0
 171 001c F5D1     		bne	.L9
 106:..\..\..\..\..\..\Dev\Library embedded l2c display\u8g2\csrc/u8x8_cad.c **** 
 172              		.loc 1 106 0
 173 001e 0120     		movs	r0, #1
 174 0020 F8BD     		pop	{r3, r4, r5, r6, r7, pc}
 175              		.cfi_endproc
 176              	.LFE2:
 177              		.size	u8x8_cad_SendMultipleArg, .-u8x8_cad_SendMultipleArg
 178 0022 00BF     		.section	.text.u8x8_cad_SendData,"ax",%progbits
 179              		.align	2
 180              		.global	u8x8_cad_SendData
 181              		.thumb
 182              		.thumb_func
 183              		.type	u8x8_cad_SendData, %function
 184              	u8x8_cad_SendData:
 185              	.LFB3:
 109:..\..\..\..\..\..\Dev\Library embedded l2c display\u8g2\csrc/u8x8_cad.c ****   return u8x8->cad_cb(u8x8, U8X8_MSG_CAD_SEND_DATA, cnt, data);
 186              		.loc 1 109 0
 187              		.cfi_startproc
 188              		@ args = 0, pretend = 0, frame = 0
 189              		@ frame_needed = 0, uses_anonymous_args = 0
 190              	.LVL16:
 191 0000 10B5     		push	{r4, lr}
 192              		.cfi_def_cfa_offset 8
ARM GAS  C:\Users\Abude\AppData\Local\Temp\cc3E6hY2.s 			page 13


 193              		.cfi_offset 4, -8
 194              		.cfi_offset 14, -4
 110:..\..\..\..\..\..\Dev\Library embedded l2c display\u8g2\csrc/u8x8_cad.c **** }
 195              		.loc 1 110 0
 196 0002 C468     		ldr	r4, [r0, #12]
 197 0004 1346     		mov	r3, r2
 198 0006 0A46     		mov	r2, r1
 199              	.LVL17:
 200 0008 1721     		movs	r1, #23
 201              	.LVL18:
 202 000a A047     		blx	r4
 203              	.LVL19:
 111:..\..\..\..\..\..\Dev\Library embedded l2c display\u8g2\csrc/u8x8_cad.c **** 
 204              		.loc 1 111 0
 205 000c 10BD     		pop	{r4, pc}
 206              		.cfi_endproc
 207              	.LFE3:
 208              		.size	u8x8_cad_SendData, .-u8x8_cad_SendData
 209 000e 00BF     		.section	.text.u8x8_cad_StartTransfer,"ax",%progbits
 210              		.align	2
 211              		.global	u8x8_cad_StartTransfer
 212              		.thumb
 213              		.thumb_func
 214              		.type	u8x8_cad_StartTransfer, %function
 215              	u8x8_cad_StartTransfer:
 216              	.LFB4:
 114:..\..\..\..\..\..\Dev\Library embedded l2c display\u8g2\csrc/u8x8_cad.c ****   return u8x8->cad_cb(u8x8, U8X8_MSG_CAD_START_TRANSFER, 0, NULL);
 217              		.loc 1 114 0
 218              		.cfi_startproc
 219              		@ args = 0, pretend = 0, frame = 0
 220              		@ frame_needed = 0, uses_anonymous_args = 0
 221              	.LVL20:
 222 0000 10B5     		push	{r4, lr}
 223              		.cfi_def_cfa_offset 8
 224              		.cfi_offset 4, -8
 225              		.cfi_offset 14, -4
 115:..\..\..\..\..\..\Dev\Library embedded l2c display\u8g2\csrc/u8x8_cad.c **** }
 226              		.loc 1 115 0
 227 0002 C468     		ldr	r4, [r0, #12]
 228 0004 0023     		movs	r3, #0
 229 0006 1A46     		mov	r2, r3
 230 0008 1821     		movs	r1, #24
 231 000a A047     		blx	r4
 232              	.LVL21:
 116:..\..\..\..\..\..\Dev\Library embedded l2c display\u8g2\csrc/u8x8_cad.c **** 
 233              		.loc 1 116 0
 234 000c 10BD     		pop	{r4, pc}
 235              		.cfi_endproc
 236              	.LFE4:
 237              		.size	u8x8_cad_StartTransfer, .-u8x8_cad_StartTransfer
 238 000e 00BF     		.section	.text.u8x8_cad_EndTransfer,"ax",%progbits
 239              		.align	2
 240              		.global	u8x8_cad_EndTransfer
 241              		.thumb
 242              		.thumb_func
 243              		.type	u8x8_cad_EndTransfer, %function
 244              	u8x8_cad_EndTransfer:
ARM GAS  C:\Users\Abude\AppData\Local\Temp\cc3E6hY2.s 			page 14


 245              	.LFB5:
 119:..\..\..\..\..\..\Dev\Library embedded l2c display\u8g2\csrc/u8x8_cad.c ****   return u8x8->cad_cb(u8x8, U8X8_MSG_CAD_END_TRANSFER, 0, NULL);
 246              		.loc 1 119 0
 247              		.cfi_startproc
 248              		@ args = 0, pretend = 0, frame = 0
 249              		@ frame_needed = 0, uses_anonymous_args = 0
 250              	.LVL22:
 251 0000 10B5     		push	{r4, lr}
 252              		.cfi_def_cfa_offset 8
 253              		.cfi_offset 4, -8
 254              		.cfi_offset 14, -4
 120:..\..\..\..\..\..\Dev\Library embedded l2c display\u8g2\csrc/u8x8_cad.c **** }
 255              		.loc 1 120 0
 256 0002 C468     		ldr	r4, [r0, #12]
 257 0004 0023     		movs	r3, #0
 258 0006 1A46     		mov	r2, r3
 259 0008 1921     		movs	r1, #25
 260 000a A047     		blx	r4
 261              	.LVL23:
 121:..\..\..\..\..\..\Dev\Library embedded l2c display\u8g2\csrc/u8x8_cad.c **** 
 262              		.loc 1 121 0
 263 000c 10BD     		pop	{r4, pc}
 264              		.cfi_endproc
 265              	.LFE5:
 266              		.size	u8x8_cad_EndTransfer, .-u8x8_cad_EndTransfer
 267 000e 00BF     		.section	.text.u8x8_cad_vsendf,"ax",%progbits
 268              		.align	2
 269              		.global	u8x8_cad_vsendf
 270              		.thumb
 271              		.thumb_func
 272              		.type	u8x8_cad_vsendf, %function
 273              	u8x8_cad_vsendf:
 274              	.LFB6:
 124:..\..\..\..\..\..\Dev\Library embedded l2c display\u8g2\csrc/u8x8_cad.c ****   uint8_t d;
 275              		.loc 1 124 0
 276              		.cfi_startproc
 277              		@ args = 0, pretend = 0, frame = 8
 278              		@ frame_needed = 0, uses_anonymous_args = 0
 279              	.LVL24:
 280 0000 70B5     		push	{r4, r5, r6, lr}
 281              		.cfi_def_cfa_offset 16
 282              		.cfi_offset 4, -16
 283              		.cfi_offset 5, -12
 284              		.cfi_offset 6, -8
 285              		.cfi_offset 14, -4
 286 0002 82B0     		sub	sp, sp, #8
 287              		.cfi_def_cfa_offset 24
 288 0004 0646     		mov	r6, r0
 289 0006 0C46     		mov	r4, r1
 290 0008 1546     		mov	r5, r2
 126:..\..\..\..\..\..\Dev\Library embedded l2c display\u8g2\csrc/u8x8_cad.c ****   while( *fmt != '\0' )
 291              		.loc 1 126 0
 292 000a FFF7FEFF 		bl	u8x8_cad_StartTransfer
 293              	.LVL25:
 127:..\..\..\..\..\..\Dev\Library embedded l2c display\u8g2\csrc/u8x8_cad.c ****   {
 294              		.loc 1 127 0
 295 000e 19E0     		b	.L18
ARM GAS  C:\Users\Abude\AppData\Local\Temp\cc3E6hY2.s 			page 15


 296              	.L23:
 129:..\..\..\..\..\..\Dev\Library embedded l2c display\u8g2\csrc/u8x8_cad.c ****     switch(*fmt)
 297              		.loc 1 129 0
 298 0010 2978     		ldrb	r1, [r5]	@ zero_extendqisi2
 299              	.LVL26:
 300 0012 0435     		adds	r5, r5, #4
 301              	.LVL27:
 302 0014 8DF80710 		strb	r1, [sp, #7]
 130:..\..\..\..\..\..\Dev\Library embedded l2c display\u8g2\csrc/u8x8_cad.c ****     {
 303              		.loc 1 130 0
 304 0018 2378     		ldrb	r3, [r4]	@ zero_extendqisi2
 305 001a 632B     		cmp	r3, #99
 306 001c 07D0     		beq	.L20
 307 001e 642B     		cmp	r3, #100
 308 0020 09D0     		beq	.L21
 309 0022 612B     		cmp	r3, #97
 310 0024 0DD1     		bne	.L19
 132:..\..\..\..\..\..\Dev\Library embedded l2c display\u8g2\csrc/u8x8_cad.c ****       case 'c':  u8x8_cad_SendCmd(u8x8, d); break;
 311              		.loc 1 132 0
 312 0026 3046     		mov	r0, r6
 313 0028 FFF7FEFF 		bl	u8x8_cad_SendArg
 314              	.LVL28:
 315 002c 09E0     		b	.L19
 316              	.L20:
 133:..\..\..\..\..\..\Dev\Library embedded l2c display\u8g2\csrc/u8x8_cad.c ****       case 'd':  u8x8_cad_SendData(u8x8, 1, &d); break;
 317              		.loc 1 133 0
 318 002e 3046     		mov	r0, r6
 319 0030 FFF7FEFF 		bl	u8x8_cad_SendCmd
 320              	.LVL29:
 321 0034 05E0     		b	.L19
 322              	.L21:
 134:..\..\..\..\..\..\Dev\Library embedded l2c display\u8g2\csrc/u8x8_cad.c ****     }
 323              		.loc 1 134 0
 324 0036 0DF10702 		add	r2, sp, #7
 325 003a 0121     		movs	r1, #1
 326 003c 3046     		mov	r0, r6
 327 003e FFF7FEFF 		bl	u8x8_cad_SendData
 328              	.LVL30:
 329              	.L19:
 136:..\..\..\..\..\..\Dev\Library embedded l2c display\u8g2\csrc/u8x8_cad.c ****   }
 330              		.loc 1 136 0
 331 0042 0134     		adds	r4, r4, #1
 332              	.LVL31:
 333              	.L18:
 127:..\..\..\..\..\..\Dev\Library embedded l2c display\u8g2\csrc/u8x8_cad.c ****   {
 334              		.loc 1 127 0
 335 0044 2378     		ldrb	r3, [r4]	@ zero_extendqisi2
 336 0046 002B     		cmp	r3, #0
 337 0048 E2D1     		bne	.L23
 138:..\..\..\..\..\..\Dev\Library embedded l2c display\u8g2\csrc/u8x8_cad.c **** }
 338              		.loc 1 138 0
 339 004a 3046     		mov	r0, r6
 340 004c FFF7FEFF 		bl	u8x8_cad_EndTransfer
 341              	.LVL32:
 139:..\..\..\..\..\..\Dev\Library embedded l2c display\u8g2\csrc/u8x8_cad.c **** 
 342              		.loc 1 139 0
 343 0050 02B0     		add	sp, sp, #8
ARM GAS  C:\Users\Abude\AppData\Local\Temp\cc3E6hY2.s 			page 16


 344              		.cfi_def_cfa_offset 16
 345              		@ sp needed
 346 0052 70BD     		pop	{r4, r5, r6, pc}
 347              		.cfi_endproc
 348              	.LFE6:
 349              		.size	u8x8_cad_vsendf, .-u8x8_cad_vsendf
 350              		.section	.text.u8x8_SendF,"ax",%progbits
 351              		.align	2
 352              		.global	u8x8_SendF
 353              		.thumb
 354              		.thumb_func
 355              		.type	u8x8_SendF, %function
 356              	u8x8_SendF:
 357              	.LFB7:
 142:..\..\..\..\..\..\Dev\Library embedded l2c display\u8g2\csrc/u8x8_cad.c ****   va_list va;
 358              		.loc 1 142 0
 359              		.cfi_startproc
 360              		@ args = 4, pretend = 12, frame = 8
 361              		@ frame_needed = 0, uses_anonymous_args = 1
 362              	.LVL33:
 363 0000 0EB4     		push	{r1, r2, r3}
 364              		.cfi_def_cfa_offset 12
 365              		.cfi_offset 1, -12
 366              		.cfi_offset 2, -8
 367              		.cfi_offset 3, -4
 368 0002 00B5     		push	{lr}
 369              		.cfi_def_cfa_offset 16
 370              		.cfi_offset 14, -16
 371 0004 82B0     		sub	sp, sp, #8
 372              		.cfi_def_cfa_offset 24
 373 0006 03AA     		add	r2, sp, #12
 374 0008 52F8041B 		ldr	r1, [r2], #4
 144:..\..\..\..\..\..\Dev\Library embedded l2c display\u8g2\csrc/u8x8_cad.c ****   u8x8_cad_vsendf(u8x8, fmt, va);
 375              		.loc 1 144 0
 376 000c 0192     		str	r2, [sp, #4]
 145:..\..\..\..\..\..\Dev\Library embedded l2c display\u8g2\csrc/u8x8_cad.c ****   va_end(va);
 377              		.loc 1 145 0
 378 000e FFF7FEFF 		bl	u8x8_cad_vsendf
 379              	.LVL34:
 147:..\..\..\..\..\..\Dev\Library embedded l2c display\u8g2\csrc/u8x8_cad.c **** 
 380              		.loc 1 147 0
 381 0012 02B0     		add	sp, sp, #8
 382              		.cfi_def_cfa_offset 16
 383              		@ sp needed
 384 0014 5DF804EB 		ldr	lr, [sp], #4
 385              		.cfi_restore 14
 386              		.cfi_def_cfa_offset 12
 387 0018 03B0     		add	sp, sp, #12
 388              		.cfi_restore 3
 389              		.cfi_restore 2
 390              		.cfi_restore 1
 391              		.cfi_def_cfa_offset 0
 392 001a 7047     		bx	lr
 393              		.cfi_endproc
 394              	.LFE7:
 395              		.size	u8x8_SendF, .-u8x8_SendF
 396              		.section	.text.u8x8_cad_SendSequence,"ax",%progbits
ARM GAS  C:\Users\Abude\AppData\Local\Temp\cc3E6hY2.s 			page 17


 397              		.align	2
 398              		.global	u8x8_cad_SendSequence
 399              		.thumb
 400              		.thumb_func
 401              		.type	u8x8_cad_SendSequence, %function
 402              	u8x8_cad_SendSequence:
 403              	.LFB8:
 160:..\..\..\..\..\..\Dev\Library embedded l2c display\u8g2\csrc/u8x8_cad.c ****   uint8_t cmd;
 404              		.loc 1 160 0
 405              		.cfi_startproc
 406              		@ args = 0, pretend = 0, frame = 8
 407              		@ frame_needed = 0, uses_anonymous_args = 0
 408              	.LVL35:
 409 0000 70B5     		push	{r4, r5, r6, lr}
 410              		.cfi_def_cfa_offset 16
 411              		.cfi_offset 4, -16
 412              		.cfi_offset 5, -12
 413              		.cfi_offset 6, -8
 414              		.cfi_offset 14, -4
 415 0002 82B0     		sub	sp, sp, #8
 416              		.cfi_def_cfa_offset 24
 417 0004 0546     		mov	r5, r0
 418 0006 0C46     		mov	r4, r1
 419              	.LVL36:
 420              	.L28:
 166:..\..\..\..\..\..\Dev\Library embedded l2c display\u8g2\csrc/u8x8_cad.c ****     data++;
 421              		.loc 1 166 0
 422 0008 14F8011B 		ldrb	r1, [r4], #1	@ zero_extendqisi2
 423              	.LVL37:
 168:..\..\..\..\..\..\Dev\Library embedded l2c display\u8g2\csrc/u8x8_cad.c ****     {
 424              		.loc 1 168 0
 425 000c 1729     		cmp	r1, #23
 426 000e 11D0     		beq	.L30
 427 0010 02D8     		bhi	.L31
 428 0012 1529     		cmp	r1, #21
 429 0014 05D2     		bcs	.L36
 430 0016 26E0     		b	.L27
 431              	.L31:
 432 0018 1929     		cmp	r1, #25
 433 001a 15D9     		bls	.L33
 434 001c FE29     		cmp	r1, #254
 435 001e 19D0     		beq	.L34
 436 0020 21E0     		b	.L27
 437              	.L36:
 172:..\..\..\..\..\..\Dev\Library embedded l2c display\u8g2\csrc/u8x8_cad.c **** 	  u8x8->cad_cb(u8x8, cmd, v, NULL);
 438              		.loc 1 172 0
 439 0022 14F8012B 		ldrb	r2, [r4], #1	@ zero_extendqisi2
 440              	.LVL38:
 441 0026 8DF80720 		strb	r2, [sp, #7]
 173:..\..\..\..\..\..\Dev\Library embedded l2c display\u8g2\csrc/u8x8_cad.c **** 	  data++;
 442              		.loc 1 173 0
 443 002a EE68     		ldr	r6, [r5, #12]
 444 002c 0023     		movs	r3, #0
 445 002e 2846     		mov	r0, r5
 446 0030 B047     		blx	r6
 447              	.LVL39:
 175:..\..\..\..\..\..\Dev\Library embedded l2c display\u8g2\csrc/u8x8_cad.c ****       case U8X8_MSG_CAD_SEND_DATA:
ARM GAS  C:\Users\Abude\AppData\Local\Temp\cc3E6hY2.s 			page 18


 448              		.loc 1 175 0
 449 0032 E9E7     		b	.L28
 450              	.LVL40:
 451              	.L30:
 177:..\..\..\..\..\..\Dev\Library embedded l2c display\u8g2\csrc/u8x8_cad.c **** 	  u8x8_cad_SendData(u8x8, 1, &v);
 452              		.loc 1 177 0
 453 0034 14F8013B 		ldrb	r3, [r4], #1	@ zero_extendqisi2
 454              	.LVL41:
 455 0038 02AA     		add	r2, sp, #8
 456 003a 02F8013D 		strb	r3, [r2, #-1]!
 178:..\..\..\..\..\..\Dev\Library embedded l2c display\u8g2\csrc/u8x8_cad.c **** 	  data++;
 457              		.loc 1 178 0
 458 003e 0121     		movs	r1, #1
 459              	.LVL42:
 460 0040 2846     		mov	r0, r5
 461 0042 FFF7FEFF 		bl	u8x8_cad_SendData
 462              	.LVL43:
 180:..\..\..\..\..\..\Dev\Library embedded l2c display\u8g2\csrc/u8x8_cad.c ****       case U8X8_MSG_CAD_START_TRANSFER:
 463              		.loc 1 180 0
 464 0046 DFE7     		b	.L28
 465              	.LVL44:
 466              	.L33:
 183:..\..\..\..\..\..\Dev\Library embedded l2c display\u8g2\csrc/u8x8_cad.c **** 	  break;
 467              		.loc 1 183 0
 468 0048 EE68     		ldr	r6, [r5, #12]
 469 004a 0023     		movs	r3, #0
 470 004c 1A46     		mov	r2, r3
 471 004e 2846     		mov	r0, r5
 472 0050 B047     		blx	r6
 473              	.LVL45:
 184:..\..\..\..\..\..\Dev\Library embedded l2c display\u8g2\csrc/u8x8_cad.c ****       case 0x0fe:
 474              		.loc 1 184 0
 475 0052 D9E7     		b	.L28
 476              	.LVL46:
 477              	.L34:
 186:..\..\..\..\..\..\Dev\Library embedded l2c display\u8g2\csrc/u8x8_cad.c **** 	  u8x8_gpio_Delay(u8x8, U8X8_MSG_DELAY_MILLI, v);	    
 478              		.loc 1 186 0
 479 0054 14F8012B 		ldrb	r2, [r4], #1	@ zero_extendqisi2
 480              	.LVL47:
 481 0058 8DF80720 		strb	r2, [sp, #7]
 187:..\..\..\..\..\..\Dev\Library embedded l2c display\u8g2\csrc/u8x8_cad.c **** 	  data++;
 482              		.loc 1 187 0
 483 005c 2921     		movs	r1, #41
 484              	.LVL48:
 485 005e 2846     		mov	r0, r5
 486 0060 FFF7FEFF 		bl	u8x8_gpio_call
 487              	.LVL49:
 189:..\..\..\..\..\..\Dev\Library embedded l2c display\u8g2\csrc/u8x8_cad.c ****       default:
 488              		.loc 1 189 0
 489 0064 D0E7     		b	.L28
 490              	.LVL50:
 491              	.L27:
 194:..\..\..\..\..\..\Dev\Library embedded l2c display\u8g2\csrc/u8x8_cad.c **** 
 492              		.loc 1 194 0
 493 0066 02B0     		add	sp, sp, #8
 494              		.cfi_def_cfa_offset 16
 495              		@ sp needed
ARM GAS  C:\Users\Abude\AppData\Local\Temp\cc3E6hY2.s 			page 19


 496 0068 70BD     		pop	{r4, r5, r6, pc}
 497              		.cfi_endproc
 498              	.LFE8:
 499              		.size	u8x8_cad_SendSequence, .-u8x8_cad_SendSequence
 500 006a 00BF     		.section	.text.u8x8_cad_empty,"ax",%progbits
 501              		.align	2
 502              		.global	u8x8_cad_empty
 503              		.thumb
 504              		.thumb_func
 505              		.type	u8x8_cad_empty, %function
 506              	u8x8_cad_empty:
 507              	.LFB9:
 198:..\..\..\..\..\..\Dev\Library embedded l2c display\u8g2\csrc/u8x8_cad.c ****   switch(msg)
 508              		.loc 1 198 0
 509              		.cfi_startproc
 510              		@ args = 0, pretend = 0, frame = 0
 511              		@ frame_needed = 0, uses_anonymous_args = 0
 512              	.LVL51:
 513 0000 10B5     		push	{r4, lr}
 514              		.cfi_def_cfa_offset 8
 515              		.cfi_offset 4, -8
 516              		.cfi_offset 14, -4
 199:..\..\..\..\..\..\Dev\Library embedded l2c display\u8g2\csrc/u8x8_cad.c ****   {
 517              		.loc 1 199 0
 518 0002 A1F11404 		sub	r4, r1, #20
 519 0006 052C     		cmp	r4, #5
 520 0008 11D8     		bhi	.L44
 521 000a DFE804F0 		tbb	[pc, r4]
 522              	.L41:
 523 000e 0D       		.byte	(.L40-.L41)/2
 524 000f 03       		.byte	(.L42-.L41)/2
 525 0010 08       		.byte	(.L43-.L41)/2
 526 0011 0D       		.byte	(.L40-.L41)/2
 527 0012 0D       		.byte	(.L40-.L41)/2
 528 0013 0D       		.byte	(.L40-.L41)/2
 529              		.p2align 1
 530              	.L42:
 202:..\..\..\..\..\..\Dev\Library embedded l2c display\u8g2\csrc/u8x8_cad.c ****       break;
 531              		.loc 1 202 0
 532 0014 1146     		mov	r1, r2
 533              	.LVL52:
 534 0016 FFF7FEFF 		bl	u8x8_byte_SendByte
 535              	.LVL53:
 215:..\..\..\..\..\..\Dev\Library embedded l2c display\u8g2\csrc/u8x8_cad.c **** }
 536              		.loc 1 215 0
 537 001a 0120     		movs	r0, #1
 203:..\..\..\..\..\..\Dev\Library embedded l2c display\u8g2\csrc/u8x8_cad.c ****     case U8X8_MSG_CAD_SEND_ARG:
 538              		.loc 1 203 0
 539 001c 10BD     		pop	{r4, pc}
 540              	.LVL54:
 541              	.L43:
 205:..\..\..\..\..\..\Dev\Library embedded l2c display\u8g2\csrc/u8x8_cad.c ****       break;
 542              		.loc 1 205 0
 543 001e 1146     		mov	r1, r2
 544              	.LVL55:
 545 0020 FFF7FEFF 		bl	u8x8_byte_SendByte
 546              	.LVL56:
ARM GAS  C:\Users\Abude\AppData\Local\Temp\cc3E6hY2.s 			page 20


 215:..\..\..\..\..\..\Dev\Library embedded l2c display\u8g2\csrc/u8x8_cad.c **** }
 547              		.loc 1 215 0
 548 0024 0120     		movs	r0, #1
 206:..\..\..\..\..\..\Dev\Library embedded l2c display\u8g2\csrc/u8x8_cad.c ****     case U8X8_MSG_CAD_SEND_DATA:
 549              		.loc 1 206 0
 550 0026 10BD     		pop	{r4, pc}
 551              	.LVL57:
 552              	.L40:
 211:..\..\..\..\..\..\Dev\Library embedded l2c display\u8g2\csrc/u8x8_cad.c ****     default:
 553              		.loc 1 211 0
 554 0028 0469     		ldr	r4, [r0, #16]
 555 002a A047     		blx	r4
 556              	.LVL58:
 557 002c 10BD     		pop	{r4, pc}
 558              	.LVL59:
 559              	.L44:
 213:..\..\..\..\..\..\Dev\Library embedded l2c display\u8g2\csrc/u8x8_cad.c ****   }
 560              		.loc 1 213 0
 561 002e 0020     		movs	r0, #0
 562              	.LVL60:
 216:..\..\..\..\..\..\Dev\Library embedded l2c display\u8g2\csrc/u8x8_cad.c **** 
 563              		.loc 1 216 0
 564 0030 10BD     		pop	{r4, pc}
 565              		.cfi_endproc
 566              	.LFE9:
 567              		.size	u8x8_cad_empty, .-u8x8_cad_empty
 568 0032 00BF     		.section	.text.u8x8_cad_110,"ax",%progbits
 569              		.align	2
 570              		.global	u8x8_cad_110
 571              		.thumb
 572              		.thumb_func
 573              		.type	u8x8_cad_110, %function
 574              	u8x8_cad_110:
 575              	.LFB10:
 225:..\..\..\..\..\..\Dev\Library embedded l2c display\u8g2\csrc/u8x8_cad.c ****   switch(msg)
 576              		.loc 1 225 0
 577              		.cfi_startproc
 578              		@ args = 0, pretend = 0, frame = 0
 579              		@ frame_needed = 0, uses_anonymous_args = 0
 580              	.LVL61:
 581 0000 2DE9F041 		push	{r4, r5, r6, r7, r8, lr}
 582              		.cfi_def_cfa_offset 24
 583              		.cfi_offset 4, -24
 584              		.cfi_offset 5, -20
 585              		.cfi_offset 6, -16
 586              		.cfi_offset 7, -12
 587              		.cfi_offset 8, -8
 588              		.cfi_offset 14, -4
 589 0004 0446     		mov	r4, r0
 590 0006 0D46     		mov	r5, r1
 591 0008 1646     		mov	r6, r2
 592 000a 9846     		mov	r8, r3
 226:..\..\..\..\..\..\Dev\Library embedded l2c display\u8g2\csrc/u8x8_cad.c ****   {
 593              		.loc 1 226 0
 594 000c A1F11403 		sub	r3, r1, #20
 595              	.LVL62:
 596 0010 052B     		cmp	r3, #5
ARM GAS  C:\Users\Abude\AppData\Local\Temp\cc3E6hY2.s 			page 21


 597 0012 23D8     		bhi	.L53
 598 0014 DFE803F0 		tbb	[pc, r3]
 599              	.LVL63:
 600              	.L49:
 601 0018 1A       		.byte	(.L48-.L49)/2
 602 0019 03       		.byte	(.L50-.L49)/2
 603 001a 0D       		.byte	(.L51-.L49)/2
 604 001b 17       		.byte	(.L52-.L49)/2
 605 001c 1A       		.byte	(.L48-.L49)/2
 606 001d 1A       		.byte	(.L48-.L49)/2
 607              		.p2align 1
 608              	.L50:
 229:..\..\..\..\..\..\Dev\Library embedded l2c display\u8g2\csrc/u8x8_cad.c ****       u8x8_byte_SendByte(u8x8, arg_int);
 609              		.loc 1 229 0
 610 001e 0121     		movs	r1, #1
 611              	.LVL64:
 612 0020 FFF7FEFF 		bl	u8x8_byte_SetDC
 613              	.LVL65:
 230:..\..\..\..\..\..\Dev\Library embedded l2c display\u8g2\csrc/u8x8_cad.c ****       break;
 614              		.loc 1 230 0
 615 0024 3146     		mov	r1, r6
 616 0026 2046     		mov	r0, r4
 617 0028 FFF7FEFF 		bl	u8x8_byte_SendByte
 618              	.LVL66:
 248:..\..\..\..\..\..\Dev\Library embedded l2c display\u8g2\csrc/u8x8_cad.c **** }
 619              		.loc 1 248 0
 620 002c 0120     		movs	r0, #1
 231:..\..\..\..\..\..\Dev\Library embedded l2c display\u8g2\csrc/u8x8_cad.c ****     case U8X8_MSG_CAD_SEND_ARG:
 621              		.loc 1 231 0
 622 002e BDE8F081 		pop	{r4, r5, r6, r7, r8, pc}
 623              	.LVL67:
 624              	.L51:
 233:..\..\..\..\..\..\Dev\Library embedded l2c display\u8g2\csrc/u8x8_cad.c ****       u8x8_byte_SendByte(u8x8, arg_int);
 625              		.loc 1 233 0
 626 0032 0121     		movs	r1, #1
 627              	.LVL68:
 628 0034 FFF7FEFF 		bl	u8x8_byte_SetDC
 629              	.LVL69:
 234:..\..\..\..\..\..\Dev\Library embedded l2c display\u8g2\csrc/u8x8_cad.c ****       break;
 630              		.loc 1 234 0
 631 0038 3146     		mov	r1, r6
 632 003a 2046     		mov	r0, r4
 633 003c FFF7FEFF 		bl	u8x8_byte_SendByte
 634              	.LVL70:
 248:..\..\..\..\..\..\Dev\Library embedded l2c display\u8g2\csrc/u8x8_cad.c **** }
 635              		.loc 1 248 0
 636 0040 0120     		movs	r0, #1
 235:..\..\..\..\..\..\Dev\Library embedded l2c display\u8g2\csrc/u8x8_cad.c ****     case U8X8_MSG_CAD_SEND_DATA:
 637              		.loc 1 235 0
 638 0042 BDE8F081 		pop	{r4, r5, r6, r7, r8, pc}
 639              	.LVL71:
 640              	.L52:
 237:..\..\..\..\..\..\Dev\Library embedded l2c display\u8g2\csrc/u8x8_cad.c ****       //u8x8_byte_SendBytes(u8x8, arg_int, arg_ptr);
 641              		.loc 1 237 0
 642 0046 0021     		movs	r1, #0
 643              	.LVL72:
 644 0048 FFF7FEFF 		bl	u8x8_byte_SetDC
ARM GAS  C:\Users\Abude\AppData\Local\Temp\cc3E6hY2.s 			page 22


 645              	.LVL73:
 646              	.L48:
 244:..\..\..\..\..\..\Dev\Library embedded l2c display\u8g2\csrc/u8x8_cad.c ****     default:
 647              		.loc 1 244 0
 648 004c 2769     		ldr	r7, [r4, #16]
 649 004e 4346     		mov	r3, r8
 650 0050 3246     		mov	r2, r6
 651 0052 2946     		mov	r1, r5
 652 0054 2046     		mov	r0, r4
 653 0056 B847     		blx	r7
 654              	.LVL74:
 655 0058 BDE8F081 		pop	{r4, r5, r6, r7, r8, pc}
 656              	.LVL75:
 657              	.L53:
 246:..\..\..\..\..\..\Dev\Library embedded l2c display\u8g2\csrc/u8x8_cad.c ****   }
 658              		.loc 1 246 0
 659 005c 0020     		movs	r0, #0
 660              	.LVL76:
 249:..\..\..\..\..\..\Dev\Library embedded l2c display\u8g2\csrc/u8x8_cad.c **** 
 661              		.loc 1 249 0
 662 005e BDE8F081 		pop	{r4, r5, r6, r7, r8, pc}
 663              		.cfi_endproc
 664              	.LFE10:
 665              		.size	u8x8_cad_110, .-u8x8_cad_110
 666 0062 00BF     		.section	.text.u8x8_gu800_cad_110,"ax",%progbits
 667              		.align	2
 668              		.global	u8x8_gu800_cad_110
 669              		.thumb
 670              		.thumb_func
 671              		.type	u8x8_gu800_cad_110, %function
 672              	u8x8_gu800_cad_110:
 673              	.LFB11:
 257:..\..\..\..\..\..\Dev\Library embedded l2c display\u8g2\csrc/u8x8_cad.c ****   uint8_t *data;
 674              		.loc 1 257 0
 675              		.cfi_startproc
 676              		@ args = 0, pretend = 0, frame = 0
 677              		@ frame_needed = 0, uses_anonymous_args = 0
 678              	.LVL77:
 679 0000 F8B5     		push	{r3, r4, r5, r6, r7, lr}
 680              		.cfi_def_cfa_offset 24
 681              		.cfi_offset 3, -24
 682              		.cfi_offset 4, -20
 683              		.cfi_offset 5, -16
 684              		.cfi_offset 6, -12
 685              		.cfi_offset 7, -8
 686              		.cfi_offset 14, -4
 687 0002 0546     		mov	r5, r0
 688 0004 1446     		mov	r4, r2
 689 0006 1E46     		mov	r6, r3
 259:..\..\..\..\..\..\Dev\Library embedded l2c display\u8g2\csrc/u8x8_cad.c ****   {
 690              		.loc 1 259 0
 691 0008 A1F11403 		sub	r3, r1, #20
 692              	.LVL78:
 693 000c 052B     		cmp	r3, #5
 694 000e 04D8     		bhi	.L56
 695 0010 DFE803F0 		tbb	[pc, r3]
 696              	.LVL79:
ARM GAS  C:\Users\Abude\AppData\Local\Temp\cc3E6hY2.s 			page 23


 697              	.L58:
 698 0014 38       		.byte	(.L57-.L58)/2
 699 0015 05       		.byte	(.L59-.L58)/2
 700 0016 14       		.byte	(.L60-.L58)/2
 701 0017 23       		.byte	(.L61-.L58)/2
 702 0018 3E       		.byte	(.L65-.L58)/2
 703 0019 3E       		.byte	(.L65-.L58)/2
 704              		.p2align 1
 705              	.L56:
 292:..\..\..\..\..\..\Dev\Library embedded l2c display\u8g2\csrc/u8x8_cad.c ****   }
 706              		.loc 1 292 0
 707 001a 0020     		movs	r0, #0
 708              	.LVL80:
 709 001c F8BD     		pop	{r3, r4, r5, r6, r7, pc}
 710              	.LVL81:
 711              	.L59:
 262:..\..\..\..\..\..\Dev\Library embedded l2c display\u8g2\csrc/u8x8_cad.c ****       u8x8_byte_StartTransfer(u8x8);
 712              		.loc 1 262 0
 713 001e 0121     		movs	r1, #1
 714              	.LVL82:
 715 0020 FFF7FEFF 		bl	u8x8_byte_SetDC
 716              	.LVL83:
 263:..\..\..\..\..\..\Dev\Library embedded l2c display\u8g2\csrc/u8x8_cad.c ****       u8x8_byte_SendByte(u8x8, arg_int);
 717              		.loc 1 263 0
 718 0024 2846     		mov	r0, r5
 719 0026 FFF7FEFF 		bl	u8x8_byte_StartTransfer
 720              	.LVL84:
 264:..\..\..\..\..\..\Dev\Library embedded l2c display\u8g2\csrc/u8x8_cad.c ****       u8x8_byte_EndTransfer(u8x8);
 721              		.loc 1 264 0
 722 002a 2146     		mov	r1, r4
 723 002c 2846     		mov	r0, r5
 724 002e FFF7FEFF 		bl	u8x8_byte_SendByte
 725              	.LVL85:
 265:..\..\..\..\..\..\Dev\Library embedded l2c display\u8g2\csrc/u8x8_cad.c ****       break;
 726              		.loc 1 265 0
 727 0032 2846     		mov	r0, r5
 728 0034 FFF7FEFF 		bl	u8x8_byte_EndTransfer
 729              	.LVL86:
 294:..\..\..\..\..\..\Dev\Library embedded l2c display\u8g2\csrc/u8x8_cad.c **** }
 730              		.loc 1 294 0
 731 0038 0120     		movs	r0, #1
 266:..\..\..\..\..\..\Dev\Library embedded l2c display\u8g2\csrc/u8x8_cad.c ****     case U8X8_MSG_CAD_SEND_ARG:
 732              		.loc 1 266 0
 733 003a F8BD     		pop	{r3, r4, r5, r6, r7, pc}
 734              	.LVL87:
 735              	.L60:
 268:..\..\..\..\..\..\Dev\Library embedded l2c display\u8g2\csrc/u8x8_cad.c ****       u8x8_byte_StartTransfer(u8x8);
 736              		.loc 1 268 0
 737 003c 0121     		movs	r1, #1
 738              	.LVL88:
 739 003e FFF7FEFF 		bl	u8x8_byte_SetDC
 740              	.LVL89:
 269:..\..\..\..\..\..\Dev\Library embedded l2c display\u8g2\csrc/u8x8_cad.c ****       u8x8_byte_SendByte(u8x8, arg_int);
 741              		.loc 1 269 0
 742 0042 2846     		mov	r0, r5
 743 0044 FFF7FEFF 		bl	u8x8_byte_StartTransfer
 744              	.LVL90:
ARM GAS  C:\Users\Abude\AppData\Local\Temp\cc3E6hY2.s 			page 24


 270:..\..\..\..\..\..\Dev\Library embedded l2c display\u8g2\csrc/u8x8_cad.c ****       u8x8_byte_EndTransfer(u8x8);
 745              		.loc 1 270 0
 746 0048 2146     		mov	r1, r4
 747 004a 2846     		mov	r0, r5
 748 004c FFF7FEFF 		bl	u8x8_byte_SendByte
 749              	.LVL91:
 271:..\..\..\..\..\..\Dev\Library embedded l2c display\u8g2\csrc/u8x8_cad.c ****       break;
 750              		.loc 1 271 0
 751 0050 2846     		mov	r0, r5
 752 0052 FFF7FEFF 		bl	u8x8_byte_EndTransfer
 753              	.LVL92:
 294:..\..\..\..\..\..\Dev\Library embedded l2c display\u8g2\csrc/u8x8_cad.c **** }
 754              		.loc 1 294 0
 755 0056 0120     		movs	r0, #1
 272:..\..\..\..\..\..\Dev\Library embedded l2c display\u8g2\csrc/u8x8_cad.c ****     case U8X8_MSG_CAD_SEND_DATA:
 756              		.loc 1 272 0
 757 0058 F8BD     		pop	{r3, r4, r5, r6, r7, pc}
 758              	.LVL93:
 759              	.L61:
 274:..\..\..\..\..\..\Dev\Library embedded l2c display\u8g2\csrc/u8x8_cad.c ****       data = (uint8_t *)arg_ptr;
 760              		.loc 1 274 0
 761 005a 0021     		movs	r1, #0
 762              	.LVL94:
 763 005c FFF7FEFF 		bl	u8x8_byte_SetDC
 764              	.LVL95:
 276:..\..\..\..\..\..\Dev\Library embedded l2c display\u8g2\csrc/u8x8_cad.c ****       {
 765              		.loc 1 276 0
 766 0060 0CE0     		b	.L63
 767              	.LVL96:
 768              	.L64:
 278:..\..\..\..\..\..\Dev\Library embedded l2c display\u8g2\csrc/u8x8_cad.c ****         u8x8_byte_SendByte(u8x8, *data);
 769              		.loc 1 278 0
 770 0062 2846     		mov	r0, r5
 771 0064 FFF7FEFF 		bl	u8x8_byte_StartTransfer
 772              	.LVL97:
 279:..\..\..\..\..\..\Dev\Library embedded l2c display\u8g2\csrc/u8x8_cad.c ****         u8x8_byte_EndTransfer(u8x8);
 773              		.loc 1 279 0
 774 0068 16F8011B 		ldrb	r1, [r6], #1	@ zero_extendqisi2
 775              	.LVL98:
 776 006c 2846     		mov	r0, r5
 777 006e FFF7FEFF 		bl	u8x8_byte_SendByte
 778              	.LVL99:
 280:..\..\..\..\..\..\Dev\Library embedded l2c display\u8g2\csrc/u8x8_cad.c ****         data++;
 779              		.loc 1 280 0
 780 0072 2846     		mov	r0, r5
 781 0074 FFF7FEFF 		bl	u8x8_byte_EndTransfer
 782              	.LVL100:
 282:..\..\..\..\..\..\Dev\Library embedded l2c display\u8g2\csrc/u8x8_cad.c ****       }
 783              		.loc 1 282 0
 784 0078 013C     		subs	r4, r4, #1
 785              	.LVL101:
 786 007a E4B2     		uxtb	r4, r4
 787              	.LVL102:
 788              	.L63:
 276:..\..\..\..\..\..\Dev\Library embedded l2c display\u8g2\csrc/u8x8_cad.c ****       {
 789              		.loc 1 276 0
 790 007c 002C     		cmp	r4, #0
ARM GAS  C:\Users\Abude\AppData\Local\Temp\cc3E6hY2.s 			page 25


 791 007e F0D1     		bne	.L64
 294:..\..\..\..\..\..\Dev\Library embedded l2c display\u8g2\csrc/u8x8_cad.c **** }
 792              		.loc 1 294 0
 793 0080 0120     		movs	r0, #1
 794 0082 F8BD     		pop	{r3, r4, r5, r6, r7, pc}
 795              	.LVL103:
 796              	.L57:
 286:..\..\..\..\..\..\Dev\Library embedded l2c display\u8g2\csrc/u8x8_cad.c ****       break;
 797              		.loc 1 286 0
 798 0084 0769     		ldr	r7, [r0, #16]
 799 0086 3346     		mov	r3, r6
 800 0088 2246     		mov	r2, r4
 801 008a B847     		blx	r7
 802              	.LVL104:
 294:..\..\..\..\..\..\Dev\Library embedded l2c display\u8g2\csrc/u8x8_cad.c **** }
 803              		.loc 1 294 0
 804 008c 0120     		movs	r0, #1
 287:..\..\..\..\..\..\Dev\Library embedded l2c display\u8g2\csrc/u8x8_cad.c ****     case U8X8_MSG_CAD_START_TRANSFER:
 805              		.loc 1 287 0
 806 008e F8BD     		pop	{r3, r4, r5, r6, r7, pc}
 807              	.LVL105:
 808              	.L65:
 294:..\..\..\..\..\..\Dev\Library embedded l2c display\u8g2\csrc/u8x8_cad.c **** }
 809              		.loc 1 294 0
 810 0090 0120     		movs	r0, #1
 811              	.LVL106:
 295:..\..\..\..\..\..\Dev\Library embedded l2c display\u8g2\csrc/u8x8_cad.c **** 
 812              		.loc 1 295 0
 813 0092 F8BD     		pop	{r3, r4, r5, r6, r7, pc}
 814              		.cfi_endproc
 815              	.LFE11:
 816              		.size	u8x8_gu800_cad_110, .-u8x8_gu800_cad_110
 817              		.section	.text.u8x8_cad_100,"ax",%progbits
 818              		.align	2
 819              		.global	u8x8_cad_100
 820              		.thumb
 821              		.thumb_func
 822              		.type	u8x8_cad_100, %function
 823              	u8x8_cad_100:
 824              	.LFB12:
 304:..\..\..\..\..\..\Dev\Library embedded l2c display\u8g2\csrc/u8x8_cad.c ****   switch(msg)
 825              		.loc 1 304 0
 826              		.cfi_startproc
 827              		@ args = 0, pretend = 0, frame = 0
 828              		@ frame_needed = 0, uses_anonymous_args = 0
 829              	.LVL107:
 830 0000 2DE9F041 		push	{r4, r5, r6, r7, r8, lr}
 831              		.cfi_def_cfa_offset 24
 832              		.cfi_offset 4, -24
 833              		.cfi_offset 5, -20
 834              		.cfi_offset 6, -16
 835              		.cfi_offset 7, -12
 836              		.cfi_offset 8, -8
 837              		.cfi_offset 14, -4
 838 0004 0446     		mov	r4, r0
 839 0006 0D46     		mov	r5, r1
 840 0008 1646     		mov	r6, r2
ARM GAS  C:\Users\Abude\AppData\Local\Temp\cc3E6hY2.s 			page 26


 841 000a 9846     		mov	r8, r3
 305:..\..\..\..\..\..\Dev\Library embedded l2c display\u8g2\csrc/u8x8_cad.c ****   {
 842              		.loc 1 305 0
 843 000c A1F11403 		sub	r3, r1, #20
 844              	.LVL108:
 845 0010 052B     		cmp	r3, #5
 846 0012 23D8     		bhi	.L74
 847 0014 DFE803F0 		tbb	[pc, r3]
 848              	.LVL109:
 849              	.L70:
 850 0018 1A       		.byte	(.L69-.L70)/2
 851 0019 03       		.byte	(.L71-.L70)/2
 852 001a 0D       		.byte	(.L72-.L70)/2
 853 001b 17       		.byte	(.L73-.L70)/2
 854 001c 1A       		.byte	(.L69-.L70)/2
 855 001d 1A       		.byte	(.L69-.L70)/2
 856              		.p2align 1
 857              	.L71:
 308:..\..\..\..\..\..\Dev\Library embedded l2c display\u8g2\csrc/u8x8_cad.c ****       u8x8_byte_SendByte(u8x8, arg_int);
 858              		.loc 1 308 0
 859 001e 0121     		movs	r1, #1
 860              	.LVL110:
 861 0020 FFF7FEFF 		bl	u8x8_byte_SetDC
 862              	.LVL111:
 309:..\..\..\..\..\..\Dev\Library embedded l2c display\u8g2\csrc/u8x8_cad.c ****       break;
 863              		.loc 1 309 0
 864 0024 3146     		mov	r1, r6
 865 0026 2046     		mov	r0, r4
 866 0028 FFF7FEFF 		bl	u8x8_byte_SendByte
 867              	.LVL112:
 327:..\..\..\..\..\..\Dev\Library embedded l2c display\u8g2\csrc/u8x8_cad.c **** }
 868              		.loc 1 327 0
 869 002c 0120     		movs	r0, #1
 310:..\..\..\..\..\..\Dev\Library embedded l2c display\u8g2\csrc/u8x8_cad.c ****     case U8X8_MSG_CAD_SEND_ARG:
 870              		.loc 1 310 0
 871 002e BDE8F081 		pop	{r4, r5, r6, r7, r8, pc}
 872              	.LVL113:
 873              	.L72:
 312:..\..\..\..\..\..\Dev\Library embedded l2c display\u8g2\csrc/u8x8_cad.c ****       u8x8_byte_SendByte(u8x8, arg_int);
 874              		.loc 1 312 0
 875 0032 0021     		movs	r1, #0
 876              	.LVL114:
 877 0034 FFF7FEFF 		bl	u8x8_byte_SetDC
 878              	.LVL115:
 313:..\..\..\..\..\..\Dev\Library embedded l2c display\u8g2\csrc/u8x8_cad.c ****       break;
 879              		.loc 1 313 0
 880 0038 3146     		mov	r1, r6
 881 003a 2046     		mov	r0, r4
 882 003c FFF7FEFF 		bl	u8x8_byte_SendByte
 883              	.LVL116:
 327:..\..\..\..\..\..\Dev\Library embedded l2c display\u8g2\csrc/u8x8_cad.c **** }
 884              		.loc 1 327 0
 885 0040 0120     		movs	r0, #1
 314:..\..\..\..\..\..\Dev\Library embedded l2c display\u8g2\csrc/u8x8_cad.c ****     case U8X8_MSG_CAD_SEND_DATA:
 886              		.loc 1 314 0
 887 0042 BDE8F081 		pop	{r4, r5, r6, r7, r8, pc}
 888              	.LVL117:
ARM GAS  C:\Users\Abude\AppData\Local\Temp\cc3E6hY2.s 			page 27


 889              	.L73:
 316:..\..\..\..\..\..\Dev\Library embedded l2c display\u8g2\csrc/u8x8_cad.c ****       //u8x8_byte_SendBytes(u8x8, arg_int, arg_ptr);
 890              		.loc 1 316 0
 891 0046 0021     		movs	r1, #0
 892              	.LVL118:
 893 0048 FFF7FEFF 		bl	u8x8_byte_SetDC
 894              	.LVL119:
 895              	.L69:
 323:..\..\..\..\..\..\Dev\Library embedded l2c display\u8g2\csrc/u8x8_cad.c ****     default:
 896              		.loc 1 323 0
 897 004c 2769     		ldr	r7, [r4, #16]
 898 004e 4346     		mov	r3, r8
 899 0050 3246     		mov	r2, r6
 900 0052 2946     		mov	r1, r5
 901 0054 2046     		mov	r0, r4
 902 0056 B847     		blx	r7
 903              	.LVL120:
 904 0058 BDE8F081 		pop	{r4, r5, r6, r7, r8, pc}
 905              	.LVL121:
 906              	.L74:
 325:..\..\..\..\..\..\Dev\Library embedded l2c display\u8g2\csrc/u8x8_cad.c ****   }
 907              		.loc 1 325 0
 908 005c 0020     		movs	r0, #0
 909              	.LVL122:
 328:..\..\..\..\..\..\Dev\Library embedded l2c display\u8g2\csrc/u8x8_cad.c **** 
 910              		.loc 1 328 0
 911 005e BDE8F081 		pop	{r4, r5, r6, r7, r8, pc}
 912              		.cfi_endproc
 913              	.LFE12:
 914              		.size	u8x8_cad_100, .-u8x8_cad_100
 915 0062 00BF     		.section	.text.u8x8_cad_001,"ax",%progbits
 916              		.align	2
 917              		.global	u8x8_cad_001
 918              		.thumb
 919              		.thumb_func
 920              		.type	u8x8_cad_001, %function
 921              	u8x8_cad_001:
 922              	.LFB13:
 336:..\..\..\..\..\..\Dev\Library embedded l2c display\u8g2\csrc/u8x8_cad.c ****   switch(msg)
 923              		.loc 1 336 0
 924              		.cfi_startproc
 925              		@ args = 0, pretend = 0, frame = 0
 926              		@ frame_needed = 0, uses_anonymous_args = 0
 927              	.LVL123:
 928 0000 2DE9F041 		push	{r4, r5, r6, r7, r8, lr}
 929              		.cfi_def_cfa_offset 24
 930              		.cfi_offset 4, -24
 931              		.cfi_offset 5, -20
 932              		.cfi_offset 6, -16
 933              		.cfi_offset 7, -12
 934              		.cfi_offset 8, -8
 935              		.cfi_offset 14, -4
 936 0004 0446     		mov	r4, r0
 937 0006 0D46     		mov	r5, r1
 938 0008 1646     		mov	r6, r2
 939 000a 9846     		mov	r8, r3
 337:..\..\..\..\..\..\Dev\Library embedded l2c display\u8g2\csrc/u8x8_cad.c ****   {
ARM GAS  C:\Users\Abude\AppData\Local\Temp\cc3E6hY2.s 			page 28


 940              		.loc 1 337 0
 941 000c A1F11403 		sub	r3, r1, #20
 942              	.LVL124:
 943 0010 052B     		cmp	r3, #5
 944 0012 23D8     		bhi	.L83
 945 0014 DFE803F0 		tbb	[pc, r3]
 946              	.LVL125:
 947              	.L79:
 948 0018 1A       		.byte	(.L78-.L79)/2
 949 0019 03       		.byte	(.L80-.L79)/2
 950 001a 0D       		.byte	(.L81-.L79)/2
 951 001b 17       		.byte	(.L82-.L79)/2
 952 001c 1A       		.byte	(.L78-.L79)/2
 953 001d 1A       		.byte	(.L78-.L79)/2
 954              		.p2align 1
 955              	.L80:
 340:..\..\..\..\..\..\Dev\Library embedded l2c display\u8g2\csrc/u8x8_cad.c ****       u8x8_byte_SendByte(u8x8, arg_int);
 956              		.loc 1 340 0
 957 001e 0021     		movs	r1, #0
 958              	.LVL126:
 959 0020 FFF7FEFF 		bl	u8x8_byte_SetDC
 960              	.LVL127:
 341:..\..\..\..\..\..\Dev\Library embedded l2c display\u8g2\csrc/u8x8_cad.c ****       break;
 961              		.loc 1 341 0
 962 0024 3146     		mov	r1, r6
 963 0026 2046     		mov	r0, r4
 964 0028 FFF7FEFF 		bl	u8x8_byte_SendByte
 965              	.LVL128:
 359:..\..\..\..\..\..\Dev\Library embedded l2c display\u8g2\csrc/u8x8_cad.c **** }
 966              		.loc 1 359 0
 967 002c 0120     		movs	r0, #1
 342:..\..\..\..\..\..\Dev\Library embedded l2c display\u8g2\csrc/u8x8_cad.c ****     case U8X8_MSG_CAD_SEND_ARG:
 968              		.loc 1 342 0
 969 002e BDE8F081 		pop	{r4, r5, r6, r7, r8, pc}
 970              	.LVL129:
 971              	.L81:
 344:..\..\..\..\..\..\Dev\Library embedded l2c display\u8g2\csrc/u8x8_cad.c ****       u8x8_byte_SendByte(u8x8, arg_int);
 972              		.loc 1 344 0
 973 0032 0021     		movs	r1, #0
 974              	.LVL130:
 975 0034 FFF7FEFF 		bl	u8x8_byte_SetDC
 976              	.LVL131:
 345:..\..\..\..\..\..\Dev\Library embedded l2c display\u8g2\csrc/u8x8_cad.c ****       break;
 977              		.loc 1 345 0
 978 0038 3146     		mov	r1, r6
 979 003a 2046     		mov	r0, r4
 980 003c FFF7FEFF 		bl	u8x8_byte_SendByte
 981              	.LVL132:
 359:..\..\..\..\..\..\Dev\Library embedded l2c display\u8g2\csrc/u8x8_cad.c **** }
 982              		.loc 1 359 0
 983 0040 0120     		movs	r0, #1
 346:..\..\..\..\..\..\Dev\Library embedded l2c display\u8g2\csrc/u8x8_cad.c ****     case U8X8_MSG_CAD_SEND_DATA:
 984              		.loc 1 346 0
 985 0042 BDE8F081 		pop	{r4, r5, r6, r7, r8, pc}
 986              	.LVL133:
 987              	.L82:
 348:..\..\..\..\..\..\Dev\Library embedded l2c display\u8g2\csrc/u8x8_cad.c ****       //u8x8_byte_SendBytes(u8x8, arg_int, arg_ptr);
ARM GAS  C:\Users\Abude\AppData\Local\Temp\cc3E6hY2.s 			page 29


 988              		.loc 1 348 0
 989 0046 0121     		movs	r1, #1
 990              	.LVL134:
 991 0048 FFF7FEFF 		bl	u8x8_byte_SetDC
 992              	.LVL135:
 993              	.L78:
 355:..\..\..\..\..\..\Dev\Library embedded l2c display\u8g2\csrc/u8x8_cad.c ****     default:
 994              		.loc 1 355 0
 995 004c 2769     		ldr	r7, [r4, #16]
 996 004e 4346     		mov	r3, r8
 997 0050 3246     		mov	r2, r6
 998 0052 2946     		mov	r1, r5
 999 0054 2046     		mov	r0, r4
 1000 0056 B847     		blx	r7
 1001              	.LVL136:
 1002 0058 BDE8F081 		pop	{r4, r5, r6, r7, r8, pc}
 1003              	.LVL137:
 1004              	.L83:
 357:..\..\..\..\..\..\Dev\Library embedded l2c display\u8g2\csrc/u8x8_cad.c ****   }
 1005              		.loc 1 357 0
 1006 005c 0020     		movs	r0, #0
 1007              	.LVL138:
 360:..\..\..\..\..\..\Dev\Library embedded l2c display\u8g2\csrc/u8x8_cad.c **** 
 1008              		.loc 1 360 0
 1009 005e BDE8F081 		pop	{r4, r5, r6, r7, r8, pc}
 1010              		.cfi_endproc
 1011              	.LFE13:
 1012              		.size	u8x8_cad_001, .-u8x8_cad_001
 1013 0062 00BF     		.section	.text.u8x8_cad_011,"ax",%progbits
 1014              		.align	2
 1015              		.global	u8x8_cad_011
 1016              		.thumb
 1017              		.thumb_func
 1018              		.type	u8x8_cad_011, %function
 1019              	u8x8_cad_011:
 1020              	.LFB14:
 368:..\..\..\..\..\..\Dev\Library embedded l2c display\u8g2\csrc/u8x8_cad.c ****   switch(msg)
 1021              		.loc 1 368 0
 1022              		.cfi_startproc
 1023              		@ args = 0, pretend = 0, frame = 0
 1024              		@ frame_needed = 0, uses_anonymous_args = 0
 1025              	.LVL139:
 1026 0000 2DE9F041 		push	{r4, r5, r6, r7, r8, lr}
 1027              		.cfi_def_cfa_offset 24
 1028              		.cfi_offset 4, -24
 1029              		.cfi_offset 5, -20
 1030              		.cfi_offset 6, -16
 1031              		.cfi_offset 7, -12
 1032              		.cfi_offset 8, -8
 1033              		.cfi_offset 14, -4
 1034 0004 0446     		mov	r4, r0
 1035 0006 0D46     		mov	r5, r1
 1036 0008 1646     		mov	r6, r2
 1037 000a 9846     		mov	r8, r3
 369:..\..\..\..\..\..\Dev\Library embedded l2c display\u8g2\csrc/u8x8_cad.c ****   {
 1038              		.loc 1 369 0
 1039 000c A1F11403 		sub	r3, r1, #20
ARM GAS  C:\Users\Abude\AppData\Local\Temp\cc3E6hY2.s 			page 30


 1040              	.LVL140:
 1041 0010 052B     		cmp	r3, #5
 1042 0012 23D8     		bhi	.L92
 1043 0014 DFE803F0 		tbb	[pc, r3]
 1044              	.LVL141:
 1045              	.L88:
 1046 0018 1A       		.byte	(.L87-.L88)/2
 1047 0019 03       		.byte	(.L89-.L88)/2
 1048 001a 0D       		.byte	(.L90-.L88)/2
 1049 001b 17       		.byte	(.L91-.L88)/2
 1050 001c 1A       		.byte	(.L87-.L88)/2
 1051 001d 1A       		.byte	(.L87-.L88)/2
 1052              		.p2align 1
 1053              	.L89:
 372:..\..\..\..\..\..\Dev\Library embedded l2c display\u8g2\csrc/u8x8_cad.c ****       u8x8_byte_SendByte(u8x8, arg_int);
 1054              		.loc 1 372 0
 1055 001e 0021     		movs	r1, #0
 1056              	.LVL142:
 1057 0020 FFF7FEFF 		bl	u8x8_byte_SetDC
 1058              	.LVL143:
 373:..\..\..\..\..\..\Dev\Library embedded l2c display\u8g2\csrc/u8x8_cad.c ****       break;
 1059              		.loc 1 373 0
 1060 0024 3146     		mov	r1, r6
 1061 0026 2046     		mov	r0, r4
 1062 0028 FFF7FEFF 		bl	u8x8_byte_SendByte
 1063              	.LVL144:
 391:..\..\..\..\..\..\Dev\Library embedded l2c display\u8g2\csrc/u8x8_cad.c **** }
 1064              		.loc 1 391 0
 1065 002c 0120     		movs	r0, #1
 374:..\..\..\..\..\..\Dev\Library embedded l2c display\u8g2\csrc/u8x8_cad.c ****     case U8X8_MSG_CAD_SEND_ARG:
 1066              		.loc 1 374 0
 1067 002e BDE8F081 		pop	{r4, r5, r6, r7, r8, pc}
 1068              	.LVL145:
 1069              	.L90:
 376:..\..\..\..\..\..\Dev\Library embedded l2c display\u8g2\csrc/u8x8_cad.c ****       u8x8_byte_SendByte(u8x8, arg_int);
 1070              		.loc 1 376 0
 1071 0032 0121     		movs	r1, #1
 1072              	.LVL146:
 1073 0034 FFF7FEFF 		bl	u8x8_byte_SetDC
 1074              	.LVL147:
 377:..\..\..\..\..\..\Dev\Library embedded l2c display\u8g2\csrc/u8x8_cad.c ****       break;
 1075              		.loc 1 377 0
 1076 0038 3146     		mov	r1, r6
 1077 003a 2046     		mov	r0, r4
 1078 003c FFF7FEFF 		bl	u8x8_byte_SendByte
 1079              	.LVL148:
 391:..\..\..\..\..\..\Dev\Library embedded l2c display\u8g2\csrc/u8x8_cad.c **** }
 1080              		.loc 1 391 0
 1081 0040 0120     		movs	r0, #1
 378:..\..\..\..\..\..\Dev\Library embedded l2c display\u8g2\csrc/u8x8_cad.c ****     case U8X8_MSG_CAD_SEND_DATA:
 1082              		.loc 1 378 0
 1083 0042 BDE8F081 		pop	{r4, r5, r6, r7, r8, pc}
 1084              	.LVL149:
 1085              	.L91:
 380:..\..\..\..\..\..\Dev\Library embedded l2c display\u8g2\csrc/u8x8_cad.c ****       //u8x8_byte_SendBytes(u8x8, arg_int, arg_ptr);
 1086              		.loc 1 380 0
 1087 0046 0121     		movs	r1, #1
ARM GAS  C:\Users\Abude\AppData\Local\Temp\cc3E6hY2.s 			page 31


 1088              	.LVL150:
 1089 0048 FFF7FEFF 		bl	u8x8_byte_SetDC
 1090              	.LVL151:
 1091              	.L87:
 387:..\..\..\..\..\..\Dev\Library embedded l2c display\u8g2\csrc/u8x8_cad.c ****     default:
 1092              		.loc 1 387 0
 1093 004c 2769     		ldr	r7, [r4, #16]
 1094 004e 4346     		mov	r3, r8
 1095 0050 3246     		mov	r2, r6
 1096 0052 2946     		mov	r1, r5
 1097 0054 2046     		mov	r0, r4
 1098 0056 B847     		blx	r7
 1099              	.LVL152:
 1100 0058 BDE8F081 		pop	{r4, r5, r6, r7, r8, pc}
 1101              	.LVL153:
 1102              	.L92:
 389:..\..\..\..\..\..\Dev\Library embedded l2c display\u8g2\csrc/u8x8_cad.c ****   }
 1103              		.loc 1 389 0
 1104 005c 0020     		movs	r0, #0
 1105              	.LVL154:
 392:..\..\..\..\..\..\Dev\Library embedded l2c display\u8g2\csrc/u8x8_cad.c **** 
 1106              		.loc 1 392 0
 1107 005e BDE8F081 		pop	{r4, r5, r6, r7, r8, pc}
 1108              		.cfi_endproc
 1109              	.LFE14:
 1110              		.size	u8x8_cad_011, .-u8x8_cad_011
 1111 0062 00BF     		.section	.text.u8x8_cad_st7920_spi,"ax",%progbits
 1112              		.align	2
 1113              		.global	u8x8_cad_st7920_spi
 1114              		.thumb
 1115              		.thumb_func
 1116              		.type	u8x8_cad_st7920_spi, %function
 1117              	u8x8_cad_st7920_spi:
 1118              	.LFB15:
 397:..\..\..\..\..\..\Dev\Library embedded l2c display\u8g2\csrc/u8x8_cad.c ****   uint8_t *data;
 1119              		.loc 1 397 0
 1120              		.cfi_startproc
 1121              		@ args = 0, pretend = 0, frame = 0
 1122              		@ frame_needed = 0, uses_anonymous_args = 0
 1123              	.LVL155:
 1124 0000 F8B5     		push	{r3, r4, r5, r6, r7, lr}
 1125              		.cfi_def_cfa_offset 24
 1126              		.cfi_offset 3, -24
 1127              		.cfi_offset 4, -20
 1128              		.cfi_offset 5, -16
 1129              		.cfi_offset 6, -12
 1130              		.cfi_offset 7, -8
 1131              		.cfi_offset 14, -4
 1132 0002 0646     		mov	r6, r0
 1133 0004 1546     		mov	r5, r2
 1134 0006 1F46     		mov	r7, r3
 404:..\..\..\..\..\..\Dev\Library embedded l2c display\u8g2\csrc/u8x8_cad.c ****   {
 1135              		.loc 1 404 0
 1136 0008 A1F11403 		sub	r3, r1, #20
 1137              	.LVL156:
 1138 000c 052B     		cmp	r3, #5
 1139 000e 74D8     		bhi	.L105
ARM GAS  C:\Users\Abude\AppData\Local\Temp\cc3E6hY2.s 			page 32


 1140 0010 DFE803F0 		tbb	[pc, r3]
 1141              	.LVL157:
 1142              	.L97:
 1143 0014 6E       		.byte	(.L96-.L97)/2
 1144 0015 03       		.byte	(.L98-.L97)/2
 1145 0016 22       		.byte	(.L99-.L97)/2
 1146 0017 32       		.byte	(.L100-.L97)/2
 1147 0018 6E       		.byte	(.L96-.L97)/2
 1148 0019 6E       		.byte	(.L96-.L97)/2
 1149              		.p2align 1
 1150              	.L98:
 407:..\..\..\..\..\..\Dev\Library embedded l2c display\u8g2\csrc/u8x8_cad.c ****       u8x8_gpio_Delay(u8x8, U8X8_MSG_DELAY_NANO, 1);
 1151              		.loc 1 407 0
 1152 001a F821     		movs	r1, #248
 1153              	.LVL158:
 1154 001c FFF7FEFF 		bl	u8x8_byte_SendByte
 1155              	.LVL159:
 408:..\..\..\..\..\..\Dev\Library embedded l2c display\u8g2\csrc/u8x8_cad.c ****       u8x8_byte_SendByte(u8x8, arg_int & 0x0f0);
 1156              		.loc 1 408 0
 1157 0020 0122     		movs	r2, #1
 1158 0022 2C21     		movs	r1, #44
 1159 0024 3046     		mov	r0, r6
 1160 0026 FFF7FEFF 		bl	u8x8_gpio_call
 1161              	.LVL160:
 409:..\..\..\..\..\..\Dev\Library embedded l2c display\u8g2\csrc/u8x8_cad.c ****       u8x8_gpio_Delay(u8x8, U8X8_MSG_DELAY_NANO, 1);
 1162              		.loc 1 409 0
 1163 002a 05F0F001 		and	r1, r5, #240
 1164 002e 3046     		mov	r0, r6
 1165 0030 FFF7FEFF 		bl	u8x8_byte_SendByte
 1166              	.LVL161:
 410:..\..\..\..\..\..\Dev\Library embedded l2c display\u8g2\csrc/u8x8_cad.c ****       u8x8_byte_SendByte(u8x8, arg_int << 4);
 1167              		.loc 1 410 0
 1168 0034 0122     		movs	r2, #1
 1169 0036 2C21     		movs	r1, #44
 1170 0038 3046     		mov	r0, r6
 1171 003a FFF7FEFF 		bl	u8x8_gpio_call
 1172              	.LVL162:
 411:..\..\..\..\..\..\Dev\Library embedded l2c display\u8g2\csrc/u8x8_cad.c ****       u8x8_gpio_Delay(u8x8, U8X8_MSG_DELAY_NANO, 1);
 1173              		.loc 1 411 0
 1174 003e 2901     		lsls	r1, r5, #4
 1175 0040 01F0F001 		and	r1, r1, #240
 1176 0044 3046     		mov	r0, r6
 1177 0046 FFF7FEFF 		bl	u8x8_byte_SendByte
 1178              	.LVL163:
 412:..\..\..\..\..\..\Dev\Library embedded l2c display\u8g2\csrc/u8x8_cad.c ****       break;
 1179              		.loc 1 412 0
 1180 004a 0122     		movs	r2, #1
 1181 004c 2C21     		movs	r1, #44
 1182 004e 3046     		mov	r0, r6
 1183 0050 FFF7FEFF 		bl	u8x8_gpio_call
 1184              	.LVL164:
 463:..\..\..\..\..\..\Dev\Library embedded l2c display\u8g2\csrc/u8x8_cad.c **** }
 1185              		.loc 1 463 0
 1186 0054 0120     		movs	r0, #1
 413:..\..\..\..\..\..\Dev\Library embedded l2c display\u8g2\csrc/u8x8_cad.c ****     case U8X8_MSG_CAD_SEND_ARG:
 1187              		.loc 1 413 0
 1188 0056 F8BD     		pop	{r3, r4, r5, r6, r7, pc}
ARM GAS  C:\Users\Abude\AppData\Local\Temp\cc3E6hY2.s 			page 33


 1189              	.LVL165:
 1190              	.L99:
 415:..\..\..\..\..\..\Dev\Library embedded l2c display\u8g2\csrc/u8x8_cad.c ****       u8x8_byte_SendByte(u8x8, arg_int & 0x0f0);
 1191              		.loc 1 415 0
 1192 0058 F821     		movs	r1, #248
 1193              	.LVL166:
 1194 005a FFF7FEFF 		bl	u8x8_byte_SendByte
 1195              	.LVL167:
 416:..\..\..\..\..\..\Dev\Library embedded l2c display\u8g2\csrc/u8x8_cad.c ****       u8x8_byte_SendByte(u8x8, arg_int << 4);
 1196              		.loc 1 416 0
 1197 005e 05F0F001 		and	r1, r5, #240
 1198 0062 3046     		mov	r0, r6
 1199 0064 FFF7FEFF 		bl	u8x8_byte_SendByte
 1200              	.LVL168:
 417:..\..\..\..\..\..\Dev\Library embedded l2c display\u8g2\csrc/u8x8_cad.c ****       break;
 1201              		.loc 1 417 0
 1202 0068 2901     		lsls	r1, r5, #4
 1203 006a 01F0F001 		and	r1, r1, #240
 1204 006e 3046     		mov	r0, r6
 1205 0070 FFF7FEFF 		bl	u8x8_byte_SendByte
 1206              	.LVL169:
 463:..\..\..\..\..\..\Dev\Library embedded l2c display\u8g2\csrc/u8x8_cad.c **** }
 1207              		.loc 1 463 0
 1208 0074 0120     		movs	r0, #1
 418:..\..\..\..\..\..\Dev\Library embedded l2c display\u8g2\csrc/u8x8_cad.c ****     case U8X8_MSG_CAD_SEND_DATA:
 1209              		.loc 1 418 0
 1210 0076 F8BD     		pop	{r3, r4, r5, r6, r7, pc}
 1211              	.LVL170:
 1212              	.L100:
 421:..\..\..\..\..\..\Dev\Library embedded l2c display\u8g2\csrc/u8x8_cad.c ****       u8x8_gpio_Delay(u8x8, U8X8_MSG_DELAY_NANO, 1);
 1213              		.loc 1 421 0
 1214 0078 FA21     		movs	r1, #250
 1215              	.LVL171:
 1216 007a FFF7FEFF 		bl	u8x8_byte_SendByte
 1217              	.LVL172:
 422:..\..\..\..\..\..\Dev\Library embedded l2c display\u8g2\csrc/u8x8_cad.c **** 
 1218              		.loc 1 422 0
 1219 007e 0122     		movs	r2, #1
 1220 0080 2C21     		movs	r1, #44
 1221 0082 3046     		mov	r0, r6
 1222 0084 FFF7FEFF 		bl	u8x8_gpio_call
 1223              	.LVL173:
 429:..\..\..\..\..\..\Dev\Library embedded l2c display\u8g2\csrc/u8x8_cad.c ****       {
 1224              		.loc 1 429 0
 1225 0088 17E0     		b	.L101
 1226              	.LVL174:
 1227              	.L106:
 1228 008a 1D48     		ldr	r0, .L108
 1229 008c 0823     		movs	r3, #8
 1230              	.L102:
 1231              	.LVL175:
 435:..\..\..\..\..\..\Dev\Library embedded l2c display\u8g2\csrc/u8x8_cad.c **** 	  *ptr++= b & 0x0f0;
 1232              		.loc 1 435 0 discriminator 1
 1233 008e 7C1C     		adds	r4, r7, #1
 1234              	.LVL176:
 1235 0090 3A78     		ldrb	r2, [r7]	@ zero_extendqisi2
 1236              	.LVL177:
ARM GAS  C:\Users\Abude\AppData\Local\Temp\cc3E6hY2.s 			page 34


 436:..\..\..\..\..\..\Dev\Library embedded l2c display\u8g2\csrc/u8x8_cad.c **** 	  b <<= 4;
 1237              		.loc 1 436 0 discriminator 1
 1238 0092 22F00F07 		bic	r7, r2, #15
 1239 0096 0146     		mov	r1, r0
 1240 0098 01F8027B 		strb	r7, [r1], #2
 437:..\..\..\..\..\..\Dev\Library embedded l2c display\u8g2\csrc/u8x8_cad.c **** 	  *ptr++= b;
 1241              		.loc 1 437 0 discriminator 1
 1242 009c 1201     		lsls	r2, r2, #4
 1243              	.LVL178:
 438:..\..\..\..\..\..\Dev\Library embedded l2c display\u8g2\csrc/u8x8_cad.c **** 	  i--;
 1244              		.loc 1 438 0 discriminator 1
 1245 009e 4270     		strb	r2, [r0, #1]
 439:..\..\..\..\..\..\Dev\Library embedded l2c display\u8g2\csrc/u8x8_cad.c **** 	} while( i > 0 );
 1246              		.loc 1 439 0 discriminator 1
 1247 00a0 013B     		subs	r3, r3, #1
 1248              	.LVL179:
 435:..\..\..\..\..\..\Dev\Library embedded l2c display\u8g2\csrc/u8x8_cad.c **** 	  *ptr++= b & 0x0f0;
 1249              		.loc 1 435 0 discriminator 1
 1250 00a2 2746     		mov	r7, r4
 438:..\..\..\..\..\..\Dev\Library embedded l2c display\u8g2\csrc/u8x8_cad.c **** 	  i--;
 1251              		.loc 1 438 0 discriminator 1
 1252 00a4 0846     		mov	r0, r1
 440:..\..\..\..\..\..\Dev\Library embedded l2c display\u8g2\csrc/u8x8_cad.c **** 	arg_int -= 8;
 1253              		.loc 1 440 0 discriminator 1
 1254 00a6 13F0FF03 		ands	r3, r3, #255
 1255              	.LVL180:
 1256 00aa F0D1     		bne	.L102
 441:..\..\..\..\..\..\Dev\Library embedded l2c display\u8g2\csrc/u8x8_cad.c **** 	u8x8_byte_SendBytes(u8x8, 16, buf); 
 1257              		.loc 1 441 0
 1258 00ac 083D     		subs	r5, r5, #8
 1259              	.LVL181:
 1260 00ae EDB2     		uxtb	r5, r5
 1261              	.LVL182:
 442:..\..\..\..\..\..\Dev\Library embedded l2c display\u8g2\csrc/u8x8_cad.c ****       }
 1262              		.loc 1 442 0
 1263 00b0 134A     		ldr	r2, .L108
 1264              	.LVL183:
 1265 00b2 1021     		movs	r1, #16
 1266              	.LVL184:
 1267 00b4 3046     		mov	r0, r6
 1268              	.LVL185:
 1269 00b6 FFF7FEFF 		bl	u8x8_byte_SendBytes
 1270              	.LVL186:
 1271              	.L101:
 429:..\..\..\..\..\..\Dev\Library embedded l2c display\u8g2\csrc/u8x8_cad.c ****       {
 1272              		.loc 1 429 0
 1273 00ba 072D     		cmp	r5, #7
 1274 00bc E5D8     		bhi	.L106
 1275 00be 0EE0     		b	.L103
 1276              	.L104:
 448:..\..\..\..\..\..\Dev\Library embedded l2c display\u8g2\csrc/u8x8_cad.c **** 	u8x8_byte_SendByte(u8x8, b & 0x0f0);
 1277              		.loc 1 448 0
 1278 00c0 17F8014B 		ldrb	r4, [r7], #1	@ zero_extendqisi2
 1279              	.LVL187:
 449:..\..\..\..\..\..\Dev\Library embedded l2c display\u8g2\csrc/u8x8_cad.c **** 	u8x8_byte_SendByte(u8x8, b << 4);
 1280              		.loc 1 449 0
 1281 00c4 04F0F001 		and	r1, r4, #240
ARM GAS  C:\Users\Abude\AppData\Local\Temp\cc3E6hY2.s 			page 35


 1282 00c8 3046     		mov	r0, r6
 1283 00ca FFF7FEFF 		bl	u8x8_byte_SendByte
 1284              	.LVL188:
 450:..\..\..\..\..\..\Dev\Library embedded l2c display\u8g2\csrc/u8x8_cad.c **** 	data++;
 1285              		.loc 1 450 0
 1286 00ce 2101     		lsls	r1, r4, #4
 1287 00d0 01F0F001 		and	r1, r1, #240
 1288 00d4 3046     		mov	r0, r6
 1289 00d6 FFF7FEFF 		bl	u8x8_byte_SendByte
 1290              	.LVL189:
 452:..\..\..\..\..\..\Dev\Library embedded l2c display\u8g2\csrc/u8x8_cad.c ****       }
 1291              		.loc 1 452 0
 1292 00da 013D     		subs	r5, r5, #1
 1293              	.LVL190:
 1294 00dc EDB2     		uxtb	r5, r5
 1295              	.LVL191:
 1296              	.L103:
 446:..\..\..\..\..\..\Dev\Library embedded l2c display\u8g2\csrc/u8x8_cad.c ****       {
 1297              		.loc 1 446 0
 1298 00de 002D     		cmp	r5, #0
 1299 00e0 EED1     		bne	.L104
 454:..\..\..\..\..\..\Dev\Library embedded l2c display\u8g2\csrc/u8x8_cad.c ****       break;
 1300              		.loc 1 454 0
 1301 00e2 0122     		movs	r2, #1
 1302 00e4 2C21     		movs	r1, #44
 1303 00e6 3046     		mov	r0, r6
 1304 00e8 FFF7FEFF 		bl	u8x8_gpio_call
 1305              	.LVL192:
 463:..\..\..\..\..\..\Dev\Library embedded l2c display\u8g2\csrc/u8x8_cad.c **** }
 1306              		.loc 1 463 0
 1307 00ec 0120     		movs	r0, #1
 455:..\..\..\..\..\..\Dev\Library embedded l2c display\u8g2\csrc/u8x8_cad.c ****     case U8X8_MSG_CAD_INIT:
 1308              		.loc 1 455 0
 1309 00ee F8BD     		pop	{r3, r4, r5, r6, r7, pc}
 1310              	.LVL193:
 1311              	.L96:
 459:..\..\..\..\..\..\Dev\Library embedded l2c display\u8g2\csrc/u8x8_cad.c ****     default:
 1312              		.loc 1 459 0
 1313 00f0 0469     		ldr	r4, [r0, #16]
 1314 00f2 3B46     		mov	r3, r7
 1315 00f4 2A46     		mov	r2, r5
 1316 00f6 A047     		blx	r4
 1317              	.LVL194:
 1318 00f8 F8BD     		pop	{r3, r4, r5, r6, r7, pc}
 1319              	.LVL195:
 1320              	.L105:
 461:..\..\..\..\..\..\Dev\Library embedded l2c display\u8g2\csrc/u8x8_cad.c ****   }
 1321              		.loc 1 461 0
 1322 00fa 0020     		movs	r0, #0
 1323              	.LVL196:
 464:..\..\..\..\..\..\Dev\Library embedded l2c display\u8g2\csrc/u8x8_cad.c **** 
 1324              		.loc 1 464 0
 1325 00fc F8BD     		pop	{r3, r4, r5, r6, r7, pc}
 1326              	.LVL197:
 1327              	.L109:
 1328 00fe 00BF     		.align	2
 1329              	.L108:
ARM GAS  C:\Users\Abude\AppData\Local\Temp\cc3E6hY2.s 			page 36


 1330 0100 00000000 		.word	.LANCHOR0
 1331              		.cfi_endproc
 1332              	.LFE15:
 1333              		.size	u8x8_cad_st7920_spi, .-u8x8_cad_st7920_spi
 1334              		.section	.text.u8x8_cad_ssd13xx_i2c,"ax",%progbits
 1335              		.align	2
 1336              		.global	u8x8_cad_ssd13xx_i2c
 1337              		.thumb
 1338              		.thumb_func
 1339              		.type	u8x8_cad_ssd13xx_i2c, %function
 1340              	u8x8_cad_ssd13xx_i2c:
 1341              	.LFB17:
 480:..\..\..\..\..\..\Dev\Library embedded l2c display\u8g2\csrc/u8x8_cad.c **** }
 481:..\..\..\..\..\..\Dev\Library embedded l2c display\u8g2\csrc/u8x8_cad.c **** 
 482:..\..\..\..\..\..\Dev\Library embedded l2c display\u8g2\csrc/u8x8_cad.c **** /* classic version: will put a start/stop condition around each command and arg */
 483:..\..\..\..\..\..\Dev\Library embedded l2c display\u8g2\csrc/u8x8_cad.c **** uint8_t u8x8_cad_ssd13xx_i2c(u8x8_t *u8x8, uint8_t msg, uint8_t arg_int, void *arg_ptr)
 484:..\..\..\..\..\..\Dev\Library embedded l2c display\u8g2\csrc/u8x8_cad.c **** {
 1342              		.loc 1 484 0
 1343              		.cfi_startproc
 1344              		@ args = 0, pretend = 0, frame = 0
 1345              		@ frame_needed = 0, uses_anonymous_args = 0
 1346              	.LVL198:
 1347 0000 F8B5     		push	{r3, r4, r5, r6, r7, lr}
 1348              		.cfi_def_cfa_offset 24
 1349              		.cfi_offset 3, -24
 1350              		.cfi_offset 4, -20
 1351              		.cfi_offset 5, -16
 1352              		.cfi_offset 6, -12
 1353              		.cfi_offset 7, -8
 1354              		.cfi_offset 14, -4
 1355 0002 0646     		mov	r6, r0
 1356 0004 1446     		mov	r4, r2
 1357 0006 1D46     		mov	r5, r3
 485:..\..\..\..\..\..\Dev\Library embedded l2c display\u8g2\csrc/u8x8_cad.c ****   uint8_t *p;
 486:..\..\..\..\..\..\Dev\Library embedded l2c display\u8g2\csrc/u8x8_cad.c ****   switch(msg)
 1358              		.loc 1 486 0
 1359 0008 A1F11403 		sub	r3, r1, #20
 1360              	.LVL199:
 1361 000c 052B     		cmp	r3, #5
 1362 000e 04D8     		bhi	.L111
 1363 0010 DFE803F0 		tbb	[pc, r3]
 1364              	.LVL200:
 1365              	.L113:
 1366 0014 25       		.byte	(.L112-.L113)/2
 1367 0015 05       		.byte	(.L114-.L113)/2
 1368 0016 05       		.byte	(.L114-.L113)/2
 1369 0017 1C       		.byte	(.L115-.L113)/2
 1370 0018 32       		.byte	(.L119-.L113)/2
 1371 0019 32       		.byte	(.L119-.L113)/2
 1372              		.p2align 1
 1373              	.L111:
 487:..\..\..\..\..\..\Dev\Library embedded l2c display\u8g2\csrc/u8x8_cad.c ****   {
 488:..\..\..\..\..\..\Dev\Library embedded l2c display\u8g2\csrc/u8x8_cad.c ****     case U8X8_MSG_CAD_SEND_CMD:
 489:..\..\..\..\..\..\Dev\Library embedded l2c display\u8g2\csrc/u8x8_cad.c ****     case U8X8_MSG_CAD_SEND_ARG:
 490:..\..\..\..\..\..\Dev\Library embedded l2c display\u8g2\csrc/u8x8_cad.c ****       /* 7 Nov 2016: Can this be improved?  */
 491:..\..\..\..\..\..\Dev\Library embedded l2c display\u8g2\csrc/u8x8_cad.c ****       //u8x8_byte_SetDC(u8x8, 0);
 492:..\..\..\..\..\..\Dev\Library embedded l2c display\u8g2\csrc/u8x8_cad.c ****       u8x8_byte_StartTransfer(u8x8);
ARM GAS  C:\Users\Abude\AppData\Local\Temp\cc3E6hY2.s 			page 37


 493:..\..\..\..\..\..\Dev\Library embedded l2c display\u8g2\csrc/u8x8_cad.c ****       //u8x8_byte_SendByte(u8x8, u8x8_GetI2CAddress(u8x8));
 494:..\..\..\..\..\..\Dev\Library embedded l2c display\u8g2\csrc/u8x8_cad.c ****       u8x8_byte_SendByte(u8x8, 0x000);
 495:..\..\..\..\..\..\Dev\Library embedded l2c display\u8g2\csrc/u8x8_cad.c ****       u8x8_byte_SendByte(u8x8, arg_int);
 496:..\..\..\..\..\..\Dev\Library embedded l2c display\u8g2\csrc/u8x8_cad.c ****       u8x8_byte_EndTransfer(u8x8);      
 497:..\..\..\..\..\..\Dev\Library embedded l2c display\u8g2\csrc/u8x8_cad.c ****       break;
 498:..\..\..\..\..\..\Dev\Library embedded l2c display\u8g2\csrc/u8x8_cad.c ****     case U8X8_MSG_CAD_SEND_DATA:
 499:..\..\..\..\..\..\Dev\Library embedded l2c display\u8g2\csrc/u8x8_cad.c ****       //u8x8_byte_SetDC(u8x8, 1);
 500:..\..\..\..\..\..\Dev\Library embedded l2c display\u8g2\csrc/u8x8_cad.c ****     
 501:..\..\..\..\..\..\Dev\Library embedded l2c display\u8g2\csrc/u8x8_cad.c ****       /* the FeatherWing OLED with the 32u4 transfer of long byte */
 502:..\..\..\..\..\..\Dev\Library embedded l2c display\u8g2\csrc/u8x8_cad.c ****       /* streams was not possible. This is broken down to */
 503:..\..\..\..\..\..\Dev\Library embedded l2c display\u8g2\csrc/u8x8_cad.c ****       /* smaller streams, 32 seems to be the limit... */
 504:..\..\..\..\..\..\Dev\Library embedded l2c display\u8g2\csrc/u8x8_cad.c ****       /* I guess this is related to the size of the Wire buffers in Arduino */
 505:..\..\..\..\..\..\Dev\Library embedded l2c display\u8g2\csrc/u8x8_cad.c ****       /* Unfortunately, this can not be handled in the byte level drivers, */
 506:..\..\..\..\..\..\Dev\Library embedded l2c display\u8g2\csrc/u8x8_cad.c ****       /* so this is done here. Even further, only 24 bytes will be sent, */
 507:..\..\..\..\..\..\Dev\Library embedded l2c display\u8g2\csrc/u8x8_cad.c ****       /* because there will be another byte (DC) required during the transfer */
 508:..\..\..\..\..\..\Dev\Library embedded l2c display\u8g2\csrc/u8x8_cad.c ****       p = arg_ptr;
 509:..\..\..\..\..\..\Dev\Library embedded l2c display\u8g2\csrc/u8x8_cad.c ****        while( arg_int > 24 )
 510:..\..\..\..\..\..\Dev\Library embedded l2c display\u8g2\csrc/u8x8_cad.c ****       {
 511:..\..\..\..\..\..\Dev\Library embedded l2c display\u8g2\csrc/u8x8_cad.c **** 	u8x8_i2c_data_transfer(u8x8, 24, p);
 512:..\..\..\..\..\..\Dev\Library embedded l2c display\u8g2\csrc/u8x8_cad.c **** 	arg_int-=24;
 513:..\..\..\..\..\..\Dev\Library embedded l2c display\u8g2\csrc/u8x8_cad.c **** 	p+=24;
 514:..\..\..\..\..\..\Dev\Library embedded l2c display\u8g2\csrc/u8x8_cad.c ****       }
 515:..\..\..\..\..\..\Dev\Library embedded l2c display\u8g2\csrc/u8x8_cad.c ****       u8x8_i2c_data_transfer(u8x8, arg_int, p);
 516:..\..\..\..\..\..\Dev\Library embedded l2c display\u8g2\csrc/u8x8_cad.c ****       break;
 517:..\..\..\..\..\..\Dev\Library embedded l2c display\u8g2\csrc/u8x8_cad.c ****     case U8X8_MSG_CAD_INIT:
 518:..\..\..\..\..\..\Dev\Library embedded l2c display\u8g2\csrc/u8x8_cad.c ****       /* apply default i2c adr if required so that the start transfer msg can use this */
 519:..\..\..\..\..\..\Dev\Library embedded l2c display\u8g2\csrc/u8x8_cad.c ****       if ( u8x8->i2c_address == 255 )
 520:..\..\..\..\..\..\Dev\Library embedded l2c display\u8g2\csrc/u8x8_cad.c **** 	u8x8->i2c_address = 0x078;
 521:..\..\..\..\..\..\Dev\Library embedded l2c display\u8g2\csrc/u8x8_cad.c ****       return u8x8->byte_cb(u8x8, msg, arg_int, arg_ptr);
 522:..\..\..\..\..\..\Dev\Library embedded l2c display\u8g2\csrc/u8x8_cad.c ****     case U8X8_MSG_CAD_START_TRANSFER:
 523:..\..\..\..\..\..\Dev\Library embedded l2c display\u8g2\csrc/u8x8_cad.c ****     case U8X8_MSG_CAD_END_TRANSFER:
 524:..\..\..\..\..\..\Dev\Library embedded l2c display\u8g2\csrc/u8x8_cad.c ****       /* cad transfer commands are ignored */
 525:..\..\..\..\..\..\Dev\Library embedded l2c display\u8g2\csrc/u8x8_cad.c ****       break;
 526:..\..\..\..\..\..\Dev\Library embedded l2c display\u8g2\csrc/u8x8_cad.c ****     default:
 527:..\..\..\..\..\..\Dev\Library embedded l2c display\u8g2\csrc/u8x8_cad.c ****       return 0;
 1374              		.loc 1 527 0
 1375 001a 0020     		movs	r0, #0
 1376              	.LVL201:
 1377 001c F8BD     		pop	{r3, r4, r5, r6, r7, pc}
 1378              	.LVL202:
 1379              	.L114:
 492:..\..\..\..\..\..\Dev\Library embedded l2c display\u8g2\csrc/u8x8_cad.c ****       //u8x8_byte_SendByte(u8x8, u8x8_GetI2CAddress(u8x8));
 1380              		.loc 1 492 0
 1381 001e FFF7FEFF 		bl	u8x8_byte_StartTransfer
 1382              	.LVL203:
 494:..\..\..\..\..\..\Dev\Library embedded l2c display\u8g2\csrc/u8x8_cad.c ****       u8x8_byte_SendByte(u8x8, arg_int);
 1383              		.loc 1 494 0
 1384 0022 0021     		movs	r1, #0
 1385 0024 3046     		mov	r0, r6
 1386 0026 FFF7FEFF 		bl	u8x8_byte_SendByte
 1387              	.LVL204:
 495:..\..\..\..\..\..\Dev\Library embedded l2c display\u8g2\csrc/u8x8_cad.c ****       u8x8_byte_EndTransfer(u8x8);      
 1388              		.loc 1 495 0
 1389 002a 2146     		mov	r1, r4
 1390 002c 3046     		mov	r0, r6
 1391 002e FFF7FEFF 		bl	u8x8_byte_SendByte
 1392              	.LVL205:
ARM GAS  C:\Users\Abude\AppData\Local\Temp\cc3E6hY2.s 			page 38


 496:..\..\..\..\..\..\Dev\Library embedded l2c display\u8g2\csrc/u8x8_cad.c ****       break;
 1393              		.loc 1 496 0
 1394 0032 3046     		mov	r0, r6
 1395 0034 FFF7FEFF 		bl	u8x8_byte_EndTransfer
 1396              	.LVL206:
 528:..\..\..\..\..\..\Dev\Library embedded l2c display\u8g2\csrc/u8x8_cad.c ****   }
 529:..\..\..\..\..\..\Dev\Library embedded l2c display\u8g2\csrc/u8x8_cad.c ****   return 1;
 1397              		.loc 1 529 0
 1398 0038 0120     		movs	r0, #1
 497:..\..\..\..\..\..\Dev\Library embedded l2c display\u8g2\csrc/u8x8_cad.c ****     case U8X8_MSG_CAD_SEND_DATA:
 1399              		.loc 1 497 0
 1400 003a F8BD     		pop	{r3, r4, r5, r6, r7, pc}
 1401              	.LVL207:
 1402              	.L117:
 511:..\..\..\..\..\..\Dev\Library embedded l2c display\u8g2\csrc/u8x8_cad.c **** 	arg_int-=24;
 1403              		.loc 1 511 0
 1404 003c 2A46     		mov	r2, r5
 1405 003e 1821     		movs	r1, #24
 1406 0040 3046     		mov	r0, r6
 1407 0042 FFF7FEFF 		bl	u8x8_i2c_data_transfer
 1408              	.LVL208:
 512:..\..\..\..\..\..\Dev\Library embedded l2c display\u8g2\csrc/u8x8_cad.c **** 	p+=24;
 1409              		.loc 1 512 0
 1410 0046 183C     		subs	r4, r4, #24
 1411              	.LVL209:
 1412 0048 E4B2     		uxtb	r4, r4
 1413              	.LVL210:
 513:..\..\..\..\..\..\Dev\Library embedded l2c display\u8g2\csrc/u8x8_cad.c ****       }
 1414              		.loc 1 513 0
 1415 004a 1835     		adds	r5, r5, #24
 1416              	.LVL211:
 1417              	.L115:
 509:..\..\..\..\..\..\Dev\Library embedded l2c display\u8g2\csrc/u8x8_cad.c ****       {
 1418              		.loc 1 509 0
 1419 004c 182C     		cmp	r4, #24
 1420 004e F5D8     		bhi	.L117
 515:..\..\..\..\..\..\Dev\Library embedded l2c display\u8g2\csrc/u8x8_cad.c ****       break;
 1421              		.loc 1 515 0
 1422 0050 2A46     		mov	r2, r5
 1423 0052 2146     		mov	r1, r4
 1424 0054 3046     		mov	r0, r6
 1425 0056 FFF7FEFF 		bl	u8x8_i2c_data_transfer
 1426              	.LVL212:
 1427              		.loc 1 529 0
 1428 005a 0120     		movs	r0, #1
 516:..\..\..\..\..\..\Dev\Library embedded l2c display\u8g2\csrc/u8x8_cad.c ****     case U8X8_MSG_CAD_INIT:
 1429              		.loc 1 516 0
 1430 005c F8BD     		pop	{r3, r4, r5, r6, r7, pc}
 1431              	.LVL213:
 1432              	.L112:
 519:..\..\..\..\..\..\Dev\Library embedded l2c display\u8g2\csrc/u8x8_cad.c **** 	u8x8->i2c_address = 0x078;
 1433              		.loc 1 519 0
 1434 005e 90F82430 		ldrb	r3, [r0, #36]	@ zero_extendqisi2
 1435 0062 FF2B     		cmp	r3, #255
 1436 0064 02D1     		bne	.L118
 520:..\..\..\..\..\..\Dev\Library embedded l2c display\u8g2\csrc/u8x8_cad.c ****       return u8x8->byte_cb(u8x8, msg, arg_int, arg_ptr);
 1437              		.loc 1 520 0
ARM GAS  C:\Users\Abude\AppData\Local\Temp\cc3E6hY2.s 			page 39


 1438 0066 7823     		movs	r3, #120
 1439 0068 80F82430 		strb	r3, [r0, #36]
 1440              	.L118:
 521:..\..\..\..\..\..\Dev\Library embedded l2c display\u8g2\csrc/u8x8_cad.c ****     case U8X8_MSG_CAD_START_TRANSFER:
 1441              		.loc 1 521 0
 1442 006c 3769     		ldr	r7, [r6, #16]
 1443 006e 2B46     		mov	r3, r5
 1444 0070 2246     		mov	r2, r4
 1445 0072 3046     		mov	r0, r6
 1446              	.LVL214:
 1447 0074 B847     		blx	r7
 1448              	.LVL215:
 1449 0076 F8BD     		pop	{r3, r4, r5, r6, r7, pc}
 1450              	.LVL216:
 1451              	.L119:
 1452              		.loc 1 529 0
 1453 0078 0120     		movs	r0, #1
 1454              	.LVL217:
 530:..\..\..\..\..\..\Dev\Library embedded l2c display\u8g2\csrc/u8x8_cad.c **** }
 1455              		.loc 1 530 0
 1456 007a F8BD     		pop	{r3, r4, r5, r6, r7, pc}
 1457              		.cfi_endproc
 1458              	.LFE17:
 1459              		.size	u8x8_cad_ssd13xx_i2c, .-u8x8_cad_ssd13xx_i2c
 1460              		.section	.text.u8x8_cad_ssd13xx_fast_i2c,"ax",%progbits
 1461              		.align	2
 1462              		.global	u8x8_cad_ssd13xx_fast_i2c
 1463              		.thumb
 1464              		.thumb_func
 1465              		.type	u8x8_cad_ssd13xx_fast_i2c, %function
 1466              	u8x8_cad_ssd13xx_fast_i2c:
 1467              	.LFB18:
 531:..\..\..\..\..\..\Dev\Library embedded l2c display\u8g2\csrc/u8x8_cad.c **** 
 532:..\..\..\..\..\..\Dev\Library embedded l2c display\u8g2\csrc/u8x8_cad.c **** 
 533:..\..\..\..\..\..\Dev\Library embedded l2c display\u8g2\csrc/u8x8_cad.c **** /* fast version with reduced data start/stops, issue 735 */
 534:..\..\..\..\..\..\Dev\Library embedded l2c display\u8g2\csrc/u8x8_cad.c **** uint8_t u8x8_cad_ssd13xx_fast_i2c(u8x8_t *u8x8, uint8_t msg, uint8_t arg_int, void *arg_ptr)
 535:..\..\..\..\..\..\Dev\Library embedded l2c display\u8g2\csrc/u8x8_cad.c **** {
 1468              		.loc 1 535 0
 1469              		.cfi_startproc
 1470              		@ args = 0, pretend = 0, frame = 0
 1471              		@ frame_needed = 0, uses_anonymous_args = 0
 1472              	.LVL218:
 1473 0000 F8B5     		push	{r3, r4, r5, r6, r7, lr}
 1474              		.cfi_def_cfa_offset 24
 1475              		.cfi_offset 3, -24
 1476              		.cfi_offset 4, -20
 1477              		.cfi_offset 5, -16
 1478              		.cfi_offset 6, -12
 1479              		.cfi_offset 7, -8
 1480              		.cfi_offset 14, -4
 1481 0002 0646     		mov	r6, r0
 1482 0004 1446     		mov	r4, r2
 1483 0006 1D46     		mov	r5, r3
 536:..\..\..\..\..\..\Dev\Library embedded l2c display\u8g2\csrc/u8x8_cad.c ****   static uint8_t in_transfer = 0;
 537:..\..\..\..\..\..\Dev\Library embedded l2c display\u8g2\csrc/u8x8_cad.c ****   uint8_t *p;
 538:..\..\..\..\..\..\Dev\Library embedded l2c display\u8g2\csrc/u8x8_cad.c ****   switch(msg)
 1484              		.loc 1 538 0
ARM GAS  C:\Users\Abude\AppData\Local\Temp\cc3E6hY2.s 			page 40


 1485 0008 A1F11403 		sub	r3, r1, #20
 1486              	.LVL219:
 1487 000c 052B     		cmp	r3, #5
 1488 000e 53D8     		bhi	.L136
 1489 0010 DFE803F0 		tbb	[pc, r3]
 1490              	.LVL220:
 1491              	.L124:
 1492 0014 36       		.byte	(.L123-.L124)/2
 1493 0015 03       		.byte	(.L125-.L124)/2
 1494 0016 17       		.byte	(.L126-.L124)/2
 1495 0017 1C       		.byte	(.L127-.L124)/2
 1496 0018 43       		.byte	(.L128-.L124)/2
 1497 0019 48       		.byte	(.L129-.L124)/2
 1498              		.p2align 1
 1499              	.L125:
 539:..\..\..\..\..\..\Dev\Library embedded l2c display\u8g2\csrc/u8x8_cad.c ****   {
 540:..\..\..\..\..\..\Dev\Library embedded l2c display\u8g2\csrc/u8x8_cad.c ****     case U8X8_MSG_CAD_SEND_CMD:
 541:..\..\..\..\..\..\Dev\Library embedded l2c display\u8g2\csrc/u8x8_cad.c ****       /* improved version, takeover from ld7032 */
 542:..\..\..\..\..\..\Dev\Library embedded l2c display\u8g2\csrc/u8x8_cad.c ****       /* assumes, that the args of a command is not longer than 31 bytes */
 543:..\..\..\..\..\..\Dev\Library embedded l2c display\u8g2\csrc/u8x8_cad.c ****       /* speed improvement is about 4% compared to the classic version */
 544:..\..\..\..\..\..\Dev\Library embedded l2c display\u8g2\csrc/u8x8_cad.c ****       if ( in_transfer != 0 )
 1500              		.loc 1 544 0
 1501 001a 284B     		ldr	r3, .L138
 1502 001c 1B7C     		ldrb	r3, [r3, #16]	@ zero_extendqisi2
 1503 001e 0BB1     		cbz	r3, .L130
 545:..\..\..\..\..\..\Dev\Library embedded l2c display\u8g2\csrc/u8x8_cad.c **** 	 u8x8_byte_EndTransfer(u8x8); 
 1504              		.loc 1 545 0
 1505 0020 FFF7FEFF 		bl	u8x8_byte_EndTransfer
 1506              	.LVL221:
 1507              	.L130:
 546:..\..\..\..\..\..\Dev\Library embedded l2c display\u8g2\csrc/u8x8_cad.c ****       
 547:..\..\..\..\..\..\Dev\Library embedded l2c display\u8g2\csrc/u8x8_cad.c ****       u8x8_byte_StartTransfer(u8x8);
 1508              		.loc 1 547 0
 1509 0024 3046     		mov	r0, r6
 1510 0026 FFF7FEFF 		bl	u8x8_byte_StartTransfer
 1511              	.LVL222:
 548:..\..\..\..\..\..\Dev\Library embedded l2c display\u8g2\csrc/u8x8_cad.c ****       u8x8_byte_SendByte(u8x8, 0x000);	/* cmd byte for ssd13xx controller */
 1512              		.loc 1 548 0
 1513 002a 0021     		movs	r1, #0
 1514 002c 3046     		mov	r0, r6
 1515 002e FFF7FEFF 		bl	u8x8_byte_SendByte
 1516              	.LVL223:
 549:..\..\..\..\..\..\Dev\Library embedded l2c display\u8g2\csrc/u8x8_cad.c ****       u8x8_byte_SendByte(u8x8, arg_int);
 1517              		.loc 1 549 0
 1518 0032 2146     		mov	r1, r4
 1519 0034 3046     		mov	r0, r6
 1520 0036 FFF7FEFF 		bl	u8x8_byte_SendByte
 1521              	.LVL224:
 550:..\..\..\..\..\..\Dev\Library embedded l2c display\u8g2\csrc/u8x8_cad.c ****       in_transfer = 1;
 1522              		.loc 1 550 0
 1523 003a 0120     		movs	r0, #1
 1524 003c 1F4B     		ldr	r3, .L138
 1525 003e 1874     		strb	r0, [r3, #16]
 551:..\..\..\..\..\..\Dev\Library embedded l2c display\u8g2\csrc/u8x8_cad.c ****       /* lightning version: can replace the improved version from above */
 552:..\..\..\..\..\..\Dev\Library embedded l2c display\u8g2\csrc/u8x8_cad.c ****       /* the drawback of the lightning version is this: The complete init sequence */
 553:..\..\..\..\..\..\Dev\Library embedded l2c display\u8g2\csrc/u8x8_cad.c ****       /* must fit into the 32 byte Arduino Wire buffer, which might not always be the case */
 554:..\..\..\..\..\..\Dev\Library embedded l2c display\u8g2\csrc/u8x8_cad.c ****       /* speed improvement is about 6% compared to the classic version */
ARM GAS  C:\Users\Abude\AppData\Local\Temp\cc3E6hY2.s 			page 41


 555:..\..\..\..\..\..\Dev\Library embedded l2c display\u8g2\csrc/u8x8_cad.c ****       // if ( in_transfer == 0 )
 556:..\..\..\..\..\..\Dev\Library embedded l2c display\u8g2\csrc/u8x8_cad.c **** 	// {
 557:..\..\..\..\..\..\Dev\Library embedded l2c display\u8g2\csrc/u8x8_cad.c **** 	//   u8x8_byte_StartTransfer(u8x8);
 558:..\..\..\..\..\..\Dev\Library embedded l2c display\u8g2\csrc/u8x8_cad.c **** 	//   u8x8_byte_SendByte(u8x8, 0x000);	/* cmd byte for ssd13xx controller */
 559:..\..\..\..\..\..\Dev\Library embedded l2c display\u8g2\csrc/u8x8_cad.c **** 	//   in_transfer = 1;
 560:..\..\..\..\..\..\Dev\Library embedded l2c display\u8g2\csrc/u8x8_cad.c **** 	// }
 561:..\..\..\..\..\..\Dev\Library embedded l2c display\u8g2\csrc/u8x8_cad.c **** 	//u8x8_byte_SendByte(u8x8, arg_int);
 562:..\..\..\..\..\..\Dev\Library embedded l2c display\u8g2\csrc/u8x8_cad.c ****       break;
 1526              		.loc 1 562 0
 1527 0040 F8BD     		pop	{r3, r4, r5, r6, r7, pc}
 1528              	.LVL225:
 1529              	.L126:
 563:..\..\..\..\..\..\Dev\Library embedded l2c display\u8g2\csrc/u8x8_cad.c ****     case U8X8_MSG_CAD_SEND_ARG:
 564:..\..\..\..\..\..\Dev\Library embedded l2c display\u8g2\csrc/u8x8_cad.c ****       u8x8_byte_SendByte(u8x8, arg_int);
 1530              		.loc 1 564 0
 1531 0042 2146     		mov	r1, r4
 1532              	.LVL226:
 1533 0044 FFF7FEFF 		bl	u8x8_byte_SendByte
 1534              	.LVL227:
 565:..\..\..\..\..\..\Dev\Library embedded l2c display\u8g2\csrc/u8x8_cad.c ****       break;      
 566:..\..\..\..\..\..\Dev\Library embedded l2c display\u8g2\csrc/u8x8_cad.c ****     case U8X8_MSG_CAD_SEND_DATA:
 567:..\..\..\..\..\..\Dev\Library embedded l2c display\u8g2\csrc/u8x8_cad.c ****       if ( in_transfer != 0 )
 568:..\..\..\..\..\..\Dev\Library embedded l2c display\u8g2\csrc/u8x8_cad.c **** 	u8x8_byte_EndTransfer(u8x8); 
 569:..\..\..\..\..\..\Dev\Library embedded l2c display\u8g2\csrc/u8x8_cad.c ****       
 570:..\..\..\..\..\..\Dev\Library embedded l2c display\u8g2\csrc/u8x8_cad.c ****     
 571:..\..\..\..\..\..\Dev\Library embedded l2c display\u8g2\csrc/u8x8_cad.c ****       /* the FeatherWing OLED with the 32u4 transfer of long byte */
 572:..\..\..\..\..\..\Dev\Library embedded l2c display\u8g2\csrc/u8x8_cad.c ****       /* streams was not possible. This is broken down to */
 573:..\..\..\..\..\..\Dev\Library embedded l2c display\u8g2\csrc/u8x8_cad.c ****       /* smaller streams, 32 seems to be the limit... */
 574:..\..\..\..\..\..\Dev\Library embedded l2c display\u8g2\csrc/u8x8_cad.c ****       /* I guess this is related to the size of the Wire buffers in Arduino */
 575:..\..\..\..\..\..\Dev\Library embedded l2c display\u8g2\csrc/u8x8_cad.c ****       /* Unfortunately, this can not be handled in the byte level drivers, */
 576:..\..\..\..\..\..\Dev\Library embedded l2c display\u8g2\csrc/u8x8_cad.c ****       /* so this is done here. Even further, only 24 bytes will be sent, */
 577:..\..\..\..\..\..\Dev\Library embedded l2c display\u8g2\csrc/u8x8_cad.c ****       /* because there will be another byte (DC) required during the transfer */
 578:..\..\..\..\..\..\Dev\Library embedded l2c display\u8g2\csrc/u8x8_cad.c ****       p = arg_ptr;
 579:..\..\..\..\..\..\Dev\Library embedded l2c display\u8g2\csrc/u8x8_cad.c ****        while( arg_int > 24 )
 580:..\..\..\..\..\..\Dev\Library embedded l2c display\u8g2\csrc/u8x8_cad.c ****       {
 581:..\..\..\..\..\..\Dev\Library embedded l2c display\u8g2\csrc/u8x8_cad.c **** 	u8x8_i2c_data_transfer(u8x8, 24, p);
 582:..\..\..\..\..\..\Dev\Library embedded l2c display\u8g2\csrc/u8x8_cad.c **** 	arg_int-=24;
 583:..\..\..\..\..\..\Dev\Library embedded l2c display\u8g2\csrc/u8x8_cad.c **** 	p+=24;
 584:..\..\..\..\..\..\Dev\Library embedded l2c display\u8g2\csrc/u8x8_cad.c ****       }
 585:..\..\..\..\..\..\Dev\Library embedded l2c display\u8g2\csrc/u8x8_cad.c ****       u8x8_i2c_data_transfer(u8x8, arg_int, p);
 586:..\..\..\..\..\..\Dev\Library embedded l2c display\u8g2\csrc/u8x8_cad.c ****       in_transfer = 0;
 587:..\..\..\..\..\..\Dev\Library embedded l2c display\u8g2\csrc/u8x8_cad.c ****       break;
 588:..\..\..\..\..\..\Dev\Library embedded l2c display\u8g2\csrc/u8x8_cad.c ****     case U8X8_MSG_CAD_INIT:
 589:..\..\..\..\..\..\Dev\Library embedded l2c display\u8g2\csrc/u8x8_cad.c ****       /* apply default i2c adr if required so that the start transfer msg can use this */
 590:..\..\..\..\..\..\Dev\Library embedded l2c display\u8g2\csrc/u8x8_cad.c ****       if ( u8x8->i2c_address == 255 )
 591:..\..\..\..\..\..\Dev\Library embedded l2c display\u8g2\csrc/u8x8_cad.c **** 	u8x8->i2c_address = 0x078;
 592:..\..\..\..\..\..\Dev\Library embedded l2c display\u8g2\csrc/u8x8_cad.c ****       return u8x8->byte_cb(u8x8, msg, arg_int, arg_ptr);
 593:..\..\..\..\..\..\Dev\Library embedded l2c display\u8g2\csrc/u8x8_cad.c ****     case U8X8_MSG_CAD_START_TRANSFER:
 594:..\..\..\..\..\..\Dev\Library embedded l2c display\u8g2\csrc/u8x8_cad.c ****       in_transfer = 0;
 595:..\..\..\..\..\..\Dev\Library embedded l2c display\u8g2\csrc/u8x8_cad.c ****       break;
 596:..\..\..\..\..\..\Dev\Library embedded l2c display\u8g2\csrc/u8x8_cad.c ****     case U8X8_MSG_CAD_END_TRANSFER:
 597:..\..\..\..\..\..\Dev\Library embedded l2c display\u8g2\csrc/u8x8_cad.c ****       if ( in_transfer != 0 )
 598:..\..\..\..\..\..\Dev\Library embedded l2c display\u8g2\csrc/u8x8_cad.c **** 	u8x8_byte_EndTransfer(u8x8); 
 599:..\..\..\..\..\..\Dev\Library embedded l2c display\u8g2\csrc/u8x8_cad.c ****       in_transfer = 0;
 600:..\..\..\..\..\..\Dev\Library embedded l2c display\u8g2\csrc/u8x8_cad.c ****       break;
 601:..\..\..\..\..\..\Dev\Library embedded l2c display\u8g2\csrc/u8x8_cad.c ****     default:
 602:..\..\..\..\..\..\Dev\Library embedded l2c display\u8g2\csrc/u8x8_cad.c ****       return 0;
ARM GAS  C:\Users\Abude\AppData\Local\Temp\cc3E6hY2.s 			page 42


 603:..\..\..\..\..\..\Dev\Library embedded l2c display\u8g2\csrc/u8x8_cad.c ****   }
 604:..\..\..\..\..\..\Dev\Library embedded l2c display\u8g2\csrc/u8x8_cad.c ****   return 1;
 1535              		.loc 1 604 0
 1536 0048 0120     		movs	r0, #1
 565:..\..\..\..\..\..\Dev\Library embedded l2c display\u8g2\csrc/u8x8_cad.c ****       break;      
 1537              		.loc 1 565 0
 1538 004a F8BD     		pop	{r3, r4, r5, r6, r7, pc}
 1539              	.LVL228:
 1540              	.L127:
 567:..\..\..\..\..\..\Dev\Library embedded l2c display\u8g2\csrc/u8x8_cad.c **** 	u8x8_byte_EndTransfer(u8x8); 
 1541              		.loc 1 567 0
 1542 004c 1B4B     		ldr	r3, .L138
 1543 004e 1B7C     		ldrb	r3, [r3, #16]	@ zero_extendqisi2
 1544 0050 53B1     		cbz	r3, .L132
 568:..\..\..\..\..\..\Dev\Library embedded l2c display\u8g2\csrc/u8x8_cad.c ****       
 1545              		.loc 1 568 0
 1546 0052 FFF7FEFF 		bl	u8x8_byte_EndTransfer
 1547              	.LVL229:
 1548 0056 07E0     		b	.L132
 1549              	.LVL230:
 1550              	.L133:
 581:..\..\..\..\..\..\Dev\Library embedded l2c display\u8g2\csrc/u8x8_cad.c **** 	arg_int-=24;
 1551              		.loc 1 581 0
 1552 0058 2A46     		mov	r2, r5
 1553 005a 1821     		movs	r1, #24
 1554 005c 3046     		mov	r0, r6
 1555 005e FFF7FEFF 		bl	u8x8_i2c_data_transfer
 1556              	.LVL231:
 582:..\..\..\..\..\..\Dev\Library embedded l2c display\u8g2\csrc/u8x8_cad.c **** 	p+=24;
 1557              		.loc 1 582 0
 1558 0062 183C     		subs	r4, r4, #24
 1559              	.LVL232:
 1560 0064 E4B2     		uxtb	r4, r4
 1561              	.LVL233:
 583:..\..\..\..\..\..\Dev\Library embedded l2c display\u8g2\csrc/u8x8_cad.c ****       }
 1562              		.loc 1 583 0
 1563 0066 1835     		adds	r5, r5, #24
 1564              	.LVL234:
 1565              	.L132:
 579:..\..\..\..\..\..\Dev\Library embedded l2c display\u8g2\csrc/u8x8_cad.c ****       {
 1566              		.loc 1 579 0
 1567 0068 182C     		cmp	r4, #24
 1568 006a F5D8     		bhi	.L133
 585:..\..\..\..\..\..\Dev\Library embedded l2c display\u8g2\csrc/u8x8_cad.c ****       in_transfer = 0;
 1569              		.loc 1 585 0
 1570 006c 2A46     		mov	r2, r5
 1571 006e 2146     		mov	r1, r4
 1572 0070 3046     		mov	r0, r6
 1573 0072 FFF7FEFF 		bl	u8x8_i2c_data_transfer
 1574              	.LVL235:
 586:..\..\..\..\..\..\Dev\Library embedded l2c display\u8g2\csrc/u8x8_cad.c ****       break;
 1575              		.loc 1 586 0
 1576 0076 0022     		movs	r2, #0
 1577 0078 104B     		ldr	r3, .L138
 1578 007a 1A74     		strb	r2, [r3, #16]
 1579              		.loc 1 604 0
 1580 007c 0120     		movs	r0, #1
ARM GAS  C:\Users\Abude\AppData\Local\Temp\cc3E6hY2.s 			page 43


 587:..\..\..\..\..\..\Dev\Library embedded l2c display\u8g2\csrc/u8x8_cad.c ****     case U8X8_MSG_CAD_INIT:
 1581              		.loc 1 587 0
 1582 007e F8BD     		pop	{r3, r4, r5, r6, r7, pc}
 1583              	.LVL236:
 1584              	.L123:
 590:..\..\..\..\..\..\Dev\Library embedded l2c display\u8g2\csrc/u8x8_cad.c **** 	u8x8->i2c_address = 0x078;
 1585              		.loc 1 590 0
 1586 0080 90F82430 		ldrb	r3, [r0, #36]	@ zero_extendqisi2
 1587 0084 FF2B     		cmp	r3, #255
 1588 0086 02D1     		bne	.L134
 591:..\..\..\..\..\..\Dev\Library embedded l2c display\u8g2\csrc/u8x8_cad.c ****       return u8x8->byte_cb(u8x8, msg, arg_int, arg_ptr);
 1589              		.loc 1 591 0
 1590 0088 7823     		movs	r3, #120
 1591 008a 80F82430 		strb	r3, [r0, #36]
 1592              	.L134:
 592:..\..\..\..\..\..\Dev\Library embedded l2c display\u8g2\csrc/u8x8_cad.c ****     case U8X8_MSG_CAD_START_TRANSFER:
 1593              		.loc 1 592 0
 1594 008e 3769     		ldr	r7, [r6, #16]
 1595 0090 2B46     		mov	r3, r5
 1596 0092 2246     		mov	r2, r4
 1597 0094 3046     		mov	r0, r6
 1598              	.LVL237:
 1599 0096 B847     		blx	r7
 1600              	.LVL238:
 1601 0098 F8BD     		pop	{r3, r4, r5, r6, r7, pc}
 1602              	.LVL239:
 1603              	.L128:
 594:..\..\..\..\..\..\Dev\Library embedded l2c display\u8g2\csrc/u8x8_cad.c ****       break;
 1604              		.loc 1 594 0
 1605 009a 0022     		movs	r2, #0
 1606 009c 074B     		ldr	r3, .L138
 1607 009e 1A74     		strb	r2, [r3, #16]
 1608              		.loc 1 604 0
 1609 00a0 0120     		movs	r0, #1
 1610              	.LVL240:
 595:..\..\..\..\..\..\Dev\Library embedded l2c display\u8g2\csrc/u8x8_cad.c ****     case U8X8_MSG_CAD_END_TRANSFER:
 1611              		.loc 1 595 0
 1612 00a2 F8BD     		pop	{r3, r4, r5, r6, r7, pc}
 1613              	.LVL241:
 1614              	.L129:
 597:..\..\..\..\..\..\Dev\Library embedded l2c display\u8g2\csrc/u8x8_cad.c **** 	u8x8_byte_EndTransfer(u8x8); 
 1615              		.loc 1 597 0
 1616 00a4 054B     		ldr	r3, .L138
 1617 00a6 1B7C     		ldrb	r3, [r3, #16]	@ zero_extendqisi2
 1618 00a8 0BB1     		cbz	r3, .L135
 598:..\..\..\..\..\..\Dev\Library embedded l2c display\u8g2\csrc/u8x8_cad.c ****       in_transfer = 0;
 1619              		.loc 1 598 0
 1620 00aa FFF7FEFF 		bl	u8x8_byte_EndTransfer
 1621              	.LVL242:
 1622              	.L135:
 599:..\..\..\..\..\..\Dev\Library embedded l2c display\u8g2\csrc/u8x8_cad.c ****       break;
 1623              		.loc 1 599 0
 1624 00ae 0022     		movs	r2, #0
 1625 00b0 024B     		ldr	r3, .L138
 1626 00b2 1A74     		strb	r2, [r3, #16]
 1627              		.loc 1 604 0
 1628 00b4 0120     		movs	r0, #1
ARM GAS  C:\Users\Abude\AppData\Local\Temp\cc3E6hY2.s 			page 44


 600:..\..\..\..\..\..\Dev\Library embedded l2c display\u8g2\csrc/u8x8_cad.c ****     default:
 1629              		.loc 1 600 0
 1630 00b6 F8BD     		pop	{r3, r4, r5, r6, r7, pc}
 1631              	.LVL243:
 1632              	.L136:
 602:..\..\..\..\..\..\Dev\Library embedded l2c display\u8g2\csrc/u8x8_cad.c ****   }
 1633              		.loc 1 602 0
 1634 00b8 0020     		movs	r0, #0
 1635              	.LVL244:
 605:..\..\..\..\..\..\Dev\Library embedded l2c display\u8g2\csrc/u8x8_cad.c **** }
 1636              		.loc 1 605 0
 1637 00ba F8BD     		pop	{r3, r4, r5, r6, r7, pc}
 1638              	.LVL245:
 1639              	.L139:
 1640              		.align	2
 1641              	.L138:
 1642 00bc 00000000 		.word	.LANCHOR0
 1643              		.cfi_endproc
 1644              	.LFE18:
 1645              		.size	u8x8_cad_ssd13xx_fast_i2c, .-u8x8_cad_ssd13xx_fast_i2c
 1646              		.section	.text.u8x8_cad_st75256_i2c,"ax",%progbits
 1647              		.align	2
 1648              		.global	u8x8_cad_st75256_i2c
 1649              		.thumb
 1650              		.thumb_func
 1651              		.type	u8x8_cad_st75256_i2c, %function
 1652              	u8x8_cad_st75256_i2c:
 1653              	.LFB19:
 606:..\..\..\..\..\..\Dev\Library embedded l2c display\u8g2\csrc/u8x8_cad.c **** 
 607:..\..\..\..\..\..\Dev\Library embedded l2c display\u8g2\csrc/u8x8_cad.c **** 
 608:..\..\..\..\..\..\Dev\Library embedded l2c display\u8g2\csrc/u8x8_cad.c **** 
 609:..\..\..\..\..\..\Dev\Library embedded l2c display\u8g2\csrc/u8x8_cad.c **** /* the st75256 i2c driver is a copy of the ssd13xx driver, but with arg=1 */
 610:..\..\..\..\..\..\Dev\Library embedded l2c display\u8g2\csrc/u8x8_cad.c **** /* modified from cad001 (ssd13xx) to cad011 */
 611:..\..\..\..\..\..\Dev\Library embedded l2c display\u8g2\csrc/u8x8_cad.c **** uint8_t u8x8_cad_st75256_i2c(u8x8_t *u8x8, uint8_t msg, uint8_t arg_int, void *arg_ptr)
 612:..\..\..\..\..\..\Dev\Library embedded l2c display\u8g2\csrc/u8x8_cad.c **** {
 1654              		.loc 1 612 0
 1655              		.cfi_startproc
 1656              		@ args = 0, pretend = 0, frame = 0
 1657              		@ frame_needed = 0, uses_anonymous_args = 0
 1658              	.LVL246:
 1659 0000 F8B5     		push	{r3, r4, r5, r6, r7, lr}
 1660              		.cfi_def_cfa_offset 24
 1661              		.cfi_offset 3, -24
 1662              		.cfi_offset 4, -20
 1663              		.cfi_offset 5, -16
 1664              		.cfi_offset 6, -12
 1665              		.cfi_offset 7, -8
 1666              		.cfi_offset 14, -4
 1667 0002 0646     		mov	r6, r0
 1668 0004 1446     		mov	r4, r2
 1669 0006 1D46     		mov	r5, r3
 613:..\..\..\..\..\..\Dev\Library embedded l2c display\u8g2\csrc/u8x8_cad.c ****   uint8_t *p;
 614:..\..\..\..\..\..\Dev\Library embedded l2c display\u8g2\csrc/u8x8_cad.c ****   switch(msg)
 1670              		.loc 1 614 0
 1671 0008 A1F11403 		sub	r3, r1, #20
 1672              	.LVL247:
 1673 000c 052B     		cmp	r3, #5
ARM GAS  C:\Users\Abude\AppData\Local\Temp\cc3E6hY2.s 			page 45


 1674 000e 04D8     		bhi	.L141
 1675 0010 DFE803F0 		tbb	[pc, r3]
 1676              	.LVL248:
 1677              	.L143:
 1678 0014 34       		.byte	(.L142-.L143)/2
 1679 0015 05       		.byte	(.L144-.L143)/2
 1680 0016 14       		.byte	(.L145-.L143)/2
 1681 0017 2B       		.byte	(.L146-.L143)/2
 1682 0018 41       		.byte	(.L150-.L143)/2
 1683 0019 41       		.byte	(.L150-.L143)/2
 1684              		.p2align 1
 1685              	.L141:
 615:..\..\..\..\..\..\Dev\Library embedded l2c display\u8g2\csrc/u8x8_cad.c ****   {
 616:..\..\..\..\..\..\Dev\Library embedded l2c display\u8g2\csrc/u8x8_cad.c ****     case U8X8_MSG_CAD_SEND_CMD:
 617:..\..\..\..\..\..\Dev\Library embedded l2c display\u8g2\csrc/u8x8_cad.c ****       u8x8_byte_StartTransfer(u8x8);
 618:..\..\..\..\..\..\Dev\Library embedded l2c display\u8g2\csrc/u8x8_cad.c ****       u8x8_byte_SendByte(u8x8, 0x000);
 619:..\..\..\..\..\..\Dev\Library embedded l2c display\u8g2\csrc/u8x8_cad.c ****       u8x8_byte_SendByte(u8x8, arg_int);
 620:..\..\..\..\..\..\Dev\Library embedded l2c display\u8g2\csrc/u8x8_cad.c ****       u8x8_byte_EndTransfer(u8x8);      
 621:..\..\..\..\..\..\Dev\Library embedded l2c display\u8g2\csrc/u8x8_cad.c ****       break;
 622:..\..\..\..\..\..\Dev\Library embedded l2c display\u8g2\csrc/u8x8_cad.c ****     case U8X8_MSG_CAD_SEND_ARG:
 623:..\..\..\..\..\..\Dev\Library embedded l2c display\u8g2\csrc/u8x8_cad.c ****       u8x8_byte_StartTransfer(u8x8);
 624:..\..\..\..\..\..\Dev\Library embedded l2c display\u8g2\csrc/u8x8_cad.c ****       u8x8_byte_SendByte(u8x8, 0x040);
 625:..\..\..\..\..\..\Dev\Library embedded l2c display\u8g2\csrc/u8x8_cad.c ****       u8x8_byte_SendByte(u8x8, arg_int);
 626:..\..\..\..\..\..\Dev\Library embedded l2c display\u8g2\csrc/u8x8_cad.c ****       u8x8_byte_EndTransfer(u8x8);
 627:..\..\..\..\..\..\Dev\Library embedded l2c display\u8g2\csrc/u8x8_cad.c ****       break;
 628:..\..\..\..\..\..\Dev\Library embedded l2c display\u8g2\csrc/u8x8_cad.c ****     case U8X8_MSG_CAD_SEND_DATA:
 629:..\..\..\..\..\..\Dev\Library embedded l2c display\u8g2\csrc/u8x8_cad.c ****       /* see ssd13xx driver */
 630:..\..\..\..\..\..\Dev\Library embedded l2c display\u8g2\csrc/u8x8_cad.c ****       p = arg_ptr;
 631:..\..\..\..\..\..\Dev\Library embedded l2c display\u8g2\csrc/u8x8_cad.c ****        while( arg_int > 24 )
 632:..\..\..\..\..\..\Dev\Library embedded l2c display\u8g2\csrc/u8x8_cad.c ****       {
 633:..\..\..\..\..\..\Dev\Library embedded l2c display\u8g2\csrc/u8x8_cad.c **** 	u8x8_i2c_data_transfer(u8x8, 24, p);
 634:..\..\..\..\..\..\Dev\Library embedded l2c display\u8g2\csrc/u8x8_cad.c **** 	arg_int-=24;
 635:..\..\..\..\..\..\Dev\Library embedded l2c display\u8g2\csrc/u8x8_cad.c **** 	p+=24;
 636:..\..\..\..\..\..\Dev\Library embedded l2c display\u8g2\csrc/u8x8_cad.c ****       }
 637:..\..\..\..\..\..\Dev\Library embedded l2c display\u8g2\csrc/u8x8_cad.c ****       u8x8_i2c_data_transfer(u8x8, arg_int, p);
 638:..\..\..\..\..\..\Dev\Library embedded l2c display\u8g2\csrc/u8x8_cad.c ****       break;
 639:..\..\..\..\..\..\Dev\Library embedded l2c display\u8g2\csrc/u8x8_cad.c ****     case U8X8_MSG_CAD_INIT:
 640:..\..\..\..\..\..\Dev\Library embedded l2c display\u8g2\csrc/u8x8_cad.c ****       /* apply default i2c adr if required so that the start transfer msg can use this */
 641:..\..\..\..\..\..\Dev\Library embedded l2c display\u8g2\csrc/u8x8_cad.c ****       if ( u8x8->i2c_address == 255 )
 642:..\..\..\..\..\..\Dev\Library embedded l2c display\u8g2\csrc/u8x8_cad.c **** 	u8x8->i2c_address = 0x078;	/* ST75256, often this is 0x07e */
 643:..\..\..\..\..\..\Dev\Library embedded l2c display\u8g2\csrc/u8x8_cad.c ****       return u8x8->byte_cb(u8x8, msg, arg_int, arg_ptr);
 644:..\..\..\..\..\..\Dev\Library embedded l2c display\u8g2\csrc/u8x8_cad.c ****     case U8X8_MSG_CAD_START_TRANSFER:
 645:..\..\..\..\..\..\Dev\Library embedded l2c display\u8g2\csrc/u8x8_cad.c ****     case U8X8_MSG_CAD_END_TRANSFER:
 646:..\..\..\..\..\..\Dev\Library embedded l2c display\u8g2\csrc/u8x8_cad.c ****       /* cad transfer commands are ignored */
 647:..\..\..\..\..\..\Dev\Library embedded l2c display\u8g2\csrc/u8x8_cad.c ****       break;
 648:..\..\..\..\..\..\Dev\Library embedded l2c display\u8g2\csrc/u8x8_cad.c ****     default:
 649:..\..\..\..\..\..\Dev\Library embedded l2c display\u8g2\csrc/u8x8_cad.c ****       return 0;
 1686              		.loc 1 649 0
 1687 001a 0020     		movs	r0, #0
 1688              	.LVL249:
 1689 001c F8BD     		pop	{r3, r4, r5, r6, r7, pc}
 1690              	.LVL250:
 1691              	.L144:
 617:..\..\..\..\..\..\Dev\Library embedded l2c display\u8g2\csrc/u8x8_cad.c ****       u8x8_byte_SendByte(u8x8, 0x000);
 1692              		.loc 1 617 0
 1693 001e FFF7FEFF 		bl	u8x8_byte_StartTransfer
 1694              	.LVL251:
ARM GAS  C:\Users\Abude\AppData\Local\Temp\cc3E6hY2.s 			page 46


 618:..\..\..\..\..\..\Dev\Library embedded l2c display\u8g2\csrc/u8x8_cad.c ****       u8x8_byte_SendByte(u8x8, arg_int);
 1695              		.loc 1 618 0
 1696 0022 0021     		movs	r1, #0
 1697 0024 3046     		mov	r0, r6
 1698 0026 FFF7FEFF 		bl	u8x8_byte_SendByte
 1699              	.LVL252:
 619:..\..\..\..\..\..\Dev\Library embedded l2c display\u8g2\csrc/u8x8_cad.c ****       u8x8_byte_EndTransfer(u8x8);      
 1700              		.loc 1 619 0
 1701 002a 2146     		mov	r1, r4
 1702 002c 3046     		mov	r0, r6
 1703 002e FFF7FEFF 		bl	u8x8_byte_SendByte
 1704              	.LVL253:
 620:..\..\..\..\..\..\Dev\Library embedded l2c display\u8g2\csrc/u8x8_cad.c ****       break;
 1705              		.loc 1 620 0
 1706 0032 3046     		mov	r0, r6
 1707 0034 FFF7FEFF 		bl	u8x8_byte_EndTransfer
 1708              	.LVL254:
 650:..\..\..\..\..\..\Dev\Library embedded l2c display\u8g2\csrc/u8x8_cad.c ****   }
 651:..\..\..\..\..\..\Dev\Library embedded l2c display\u8g2\csrc/u8x8_cad.c ****   return 1;
 1709              		.loc 1 651 0
 1710 0038 0120     		movs	r0, #1
 621:..\..\..\..\..\..\Dev\Library embedded l2c display\u8g2\csrc/u8x8_cad.c ****     case U8X8_MSG_CAD_SEND_ARG:
 1711              		.loc 1 621 0
 1712 003a F8BD     		pop	{r3, r4, r5, r6, r7, pc}
 1713              	.LVL255:
 1714              	.L145:
 623:..\..\..\..\..\..\Dev\Library embedded l2c display\u8g2\csrc/u8x8_cad.c ****       u8x8_byte_SendByte(u8x8, 0x040);
 1715              		.loc 1 623 0
 1716 003c FFF7FEFF 		bl	u8x8_byte_StartTransfer
 1717              	.LVL256:
 624:..\..\..\..\..\..\Dev\Library embedded l2c display\u8g2\csrc/u8x8_cad.c ****       u8x8_byte_SendByte(u8x8, arg_int);
 1718              		.loc 1 624 0
 1719 0040 4021     		movs	r1, #64
 1720 0042 3046     		mov	r0, r6
 1721 0044 FFF7FEFF 		bl	u8x8_byte_SendByte
 1722              	.LVL257:
 625:..\..\..\..\..\..\Dev\Library embedded l2c display\u8g2\csrc/u8x8_cad.c ****       u8x8_byte_EndTransfer(u8x8);
 1723              		.loc 1 625 0
 1724 0048 2146     		mov	r1, r4
 1725 004a 3046     		mov	r0, r6
 1726 004c FFF7FEFF 		bl	u8x8_byte_SendByte
 1727              	.LVL258:
 626:..\..\..\..\..\..\Dev\Library embedded l2c display\u8g2\csrc/u8x8_cad.c ****       break;
 1728              		.loc 1 626 0
 1729 0050 3046     		mov	r0, r6
 1730 0052 FFF7FEFF 		bl	u8x8_byte_EndTransfer
 1731              	.LVL259:
 1732              		.loc 1 651 0
 1733 0056 0120     		movs	r0, #1
 627:..\..\..\..\..\..\Dev\Library embedded l2c display\u8g2\csrc/u8x8_cad.c ****     case U8X8_MSG_CAD_SEND_DATA:
 1734              		.loc 1 627 0
 1735 0058 F8BD     		pop	{r3, r4, r5, r6, r7, pc}
 1736              	.LVL260:
 1737              	.L148:
 633:..\..\..\..\..\..\Dev\Library embedded l2c display\u8g2\csrc/u8x8_cad.c **** 	arg_int-=24;
 1738              		.loc 1 633 0
 1739 005a 2A46     		mov	r2, r5
ARM GAS  C:\Users\Abude\AppData\Local\Temp\cc3E6hY2.s 			page 47


 1740 005c 1821     		movs	r1, #24
 1741 005e 3046     		mov	r0, r6
 1742 0060 FFF7FEFF 		bl	u8x8_i2c_data_transfer
 1743              	.LVL261:
 634:..\..\..\..\..\..\Dev\Library embedded l2c display\u8g2\csrc/u8x8_cad.c **** 	p+=24;
 1744              		.loc 1 634 0
 1745 0064 183C     		subs	r4, r4, #24
 1746              	.LVL262:
 1747 0066 E4B2     		uxtb	r4, r4
 1748              	.LVL263:
 635:..\..\..\..\..\..\Dev\Library embedded l2c display\u8g2\csrc/u8x8_cad.c ****       }
 1749              		.loc 1 635 0
 1750 0068 1835     		adds	r5, r5, #24
 1751              	.LVL264:
 1752              	.L146:
 631:..\..\..\..\..\..\Dev\Library embedded l2c display\u8g2\csrc/u8x8_cad.c ****       {
 1753              		.loc 1 631 0
 1754 006a 182C     		cmp	r4, #24
 1755 006c F5D8     		bhi	.L148
 637:..\..\..\..\..\..\Dev\Library embedded l2c display\u8g2\csrc/u8x8_cad.c ****       break;
 1756              		.loc 1 637 0
 1757 006e 2A46     		mov	r2, r5
 1758 0070 2146     		mov	r1, r4
 1759 0072 3046     		mov	r0, r6
 1760 0074 FFF7FEFF 		bl	u8x8_i2c_data_transfer
 1761              	.LVL265:
 1762              		.loc 1 651 0
 1763 0078 0120     		movs	r0, #1
 638:..\..\..\..\..\..\Dev\Library embedded l2c display\u8g2\csrc/u8x8_cad.c ****     case U8X8_MSG_CAD_INIT:
 1764              		.loc 1 638 0
 1765 007a F8BD     		pop	{r3, r4, r5, r6, r7, pc}
 1766              	.LVL266:
 1767              	.L142:
 641:..\..\..\..\..\..\Dev\Library embedded l2c display\u8g2\csrc/u8x8_cad.c **** 	u8x8->i2c_address = 0x078;	/* ST75256, often this is 0x07e */
 1768              		.loc 1 641 0
 1769 007c 90F82430 		ldrb	r3, [r0, #36]	@ zero_extendqisi2
 1770 0080 FF2B     		cmp	r3, #255
 1771 0082 02D1     		bne	.L149
 642:..\..\..\..\..\..\Dev\Library embedded l2c display\u8g2\csrc/u8x8_cad.c ****       return u8x8->byte_cb(u8x8, msg, arg_int, arg_ptr);
 1772              		.loc 1 642 0
 1773 0084 7823     		movs	r3, #120
 1774 0086 80F82430 		strb	r3, [r0, #36]
 1775              	.L149:
 643:..\..\..\..\..\..\Dev\Library embedded l2c display\u8g2\csrc/u8x8_cad.c ****     case U8X8_MSG_CAD_START_TRANSFER:
 1776              		.loc 1 643 0
 1777 008a 3769     		ldr	r7, [r6, #16]
 1778 008c 2B46     		mov	r3, r5
 1779 008e 2246     		mov	r2, r4
 1780 0090 3046     		mov	r0, r6
 1781              	.LVL267:
 1782 0092 B847     		blx	r7
 1783              	.LVL268:
 1784 0094 F8BD     		pop	{r3, r4, r5, r6, r7, pc}
 1785              	.LVL269:
 1786              	.L150:
 1787              		.loc 1 651 0
 1788 0096 0120     		movs	r0, #1
ARM GAS  C:\Users\Abude\AppData\Local\Temp\cc3E6hY2.s 			page 48


 1789              	.LVL270:
 652:..\..\..\..\..\..\Dev\Library embedded l2c display\u8g2\csrc/u8x8_cad.c **** }
 1790              		.loc 1 652 0
 1791 0098 F8BD     		pop	{r3, r4, r5, r6, r7, pc}
 1792              		.cfi_endproc
 1793              	.LFE19:
 1794              		.size	u8x8_cad_st75256_i2c, .-u8x8_cad_st75256_i2c
 1795 009a 00BF     		.section	.text.u8x8_cad_ld7032_i2c,"ax",%progbits
 1796              		.align	2
 1797              		.global	u8x8_cad_ld7032_i2c
 1798              		.thumb
 1799              		.thumb_func
 1800              		.type	u8x8_cad_ld7032_i2c, %function
 1801              	u8x8_cad_ld7032_i2c:
 1802              	.LFB20:
 653:..\..\..\..\..\..\Dev\Library embedded l2c display\u8g2\csrc/u8x8_cad.c **** 
 654:..\..\..\..\..\..\Dev\Library embedded l2c display\u8g2\csrc/u8x8_cad.c **** /* cad i2c procedure for the ld7032 controller */
 655:..\..\..\..\..\..\Dev\Library embedded l2c display\u8g2\csrc/u8x8_cad.c **** /* Issue https://github.com/olikraus/u8g2/issues/865 mentiones, that I2C does not work */
 656:..\..\..\..\..\..\Dev\Library embedded l2c display\u8g2\csrc/u8x8_cad.c **** /* Workaround is to remove the while loop (or increase the value in the condition) */
 657:..\..\..\..\..\..\Dev\Library embedded l2c display\u8g2\csrc/u8x8_cad.c **** uint8_t u8x8_cad_ld7032_i2c(u8x8_t *u8x8, uint8_t msg, uint8_t arg_int, void *arg_ptr)
 658:..\..\..\..\..\..\Dev\Library embedded l2c display\u8g2\csrc/u8x8_cad.c **** {
 1803              		.loc 1 658 0
 1804              		.cfi_startproc
 1805              		@ args = 0, pretend = 0, frame = 0
 1806              		@ frame_needed = 0, uses_anonymous_args = 0
 1807              	.LVL271:
 1808 0000 F8B5     		push	{r3, r4, r5, r6, r7, lr}
 1809              		.cfi_def_cfa_offset 24
 1810              		.cfi_offset 3, -24
 1811              		.cfi_offset 4, -20
 1812              		.cfi_offset 5, -16
 1813              		.cfi_offset 6, -12
 1814              		.cfi_offset 7, -8
 1815              		.cfi_offset 14, -4
 1816 0002 0446     		mov	r4, r0
 1817 0004 1546     		mov	r5, r2
 1818 0006 1E46     		mov	r6, r3
 659:..\..\..\..\..\..\Dev\Library embedded l2c display\u8g2\csrc/u8x8_cad.c ****   static uint8_t in_transfer = 0;
 660:..\..\..\..\..\..\Dev\Library embedded l2c display\u8g2\csrc/u8x8_cad.c ****   uint8_t *p;
 661:..\..\..\..\..\..\Dev\Library embedded l2c display\u8g2\csrc/u8x8_cad.c ****   switch(msg)
 1819              		.loc 1 661 0
 1820 0008 A1F11403 		sub	r3, r1, #20
 1821              	.LVL272:
 1822 000c 052B     		cmp	r3, #5
 1823 000e 4FD8     		bhi	.L164
 1824 0010 DFE803F0 		tbb	[pc, r3]
 1825              	.LVL273:
 1826              	.L155:
 1827 0014 35       		.byte	(.L154-.L155)/2
 1828 0015 03       		.byte	(.L156-.L155)/2
 1829 0016 13       		.byte	(.L157-.L155)/2
 1830 0017 2B       		.byte	(.L158-.L155)/2
 1831 0018 42       		.byte	(.L159-.L155)/2
 1832 0019 47       		.byte	(.L160-.L155)/2
 1833              		.p2align 1
 1834              	.L156:
 662:..\..\..\..\..\..\Dev\Library embedded l2c display\u8g2\csrc/u8x8_cad.c ****   {
ARM GAS  C:\Users\Abude\AppData\Local\Temp\cc3E6hY2.s 			page 49


 663:..\..\..\..\..\..\Dev\Library embedded l2c display\u8g2\csrc/u8x8_cad.c ****     case U8X8_MSG_CAD_SEND_CMD:
 664:..\..\..\..\..\..\Dev\Library embedded l2c display\u8g2\csrc/u8x8_cad.c ****       if ( in_transfer != 0 )
 1835              		.loc 1 664 0
 1836 001a 274B     		ldr	r3, .L167
 1837 001c 5B7C     		ldrb	r3, [r3, #17]	@ zero_extendqisi2
 1838 001e 0BB1     		cbz	r3, .L161
 665:..\..\..\..\..\..\Dev\Library embedded l2c display\u8g2\csrc/u8x8_cad.c **** 	u8x8_byte_EndTransfer(u8x8); 
 1839              		.loc 1 665 0
 1840 0020 FFF7FEFF 		bl	u8x8_byte_EndTransfer
 1841              	.LVL274:
 1842              	.L161:
 666:..\..\..\..\..\..\Dev\Library embedded l2c display\u8g2\csrc/u8x8_cad.c ****       u8x8_byte_StartTransfer(u8x8);
 1843              		.loc 1 666 0
 1844 0024 2046     		mov	r0, r4
 1845 0026 FFF7FEFF 		bl	u8x8_byte_StartTransfer
 1846              	.LVL275:
 667:..\..\..\..\..\..\Dev\Library embedded l2c display\u8g2\csrc/u8x8_cad.c ****       u8x8_byte_SendByte(u8x8, arg_int);
 1847              		.loc 1 667 0
 1848 002a 2946     		mov	r1, r5
 1849 002c 2046     		mov	r0, r4
 1850 002e FFF7FEFF 		bl	u8x8_byte_SendByte
 1851              	.LVL276:
 668:..\..\..\..\..\..\Dev\Library embedded l2c display\u8g2\csrc/u8x8_cad.c ****       in_transfer = 1;
 1852              		.loc 1 668 0
 1853 0032 0120     		movs	r0, #1
 1854 0034 204B     		ldr	r3, .L167
 1855 0036 5874     		strb	r0, [r3, #17]
 669:..\..\..\..\..\..\Dev\Library embedded l2c display\u8g2\csrc/u8x8_cad.c ****       break;
 1856              		.loc 1 669 0
 1857 0038 F8BD     		pop	{r3, r4, r5, r6, r7, pc}
 1858              	.LVL277:
 1859              	.L157:
 670:..\..\..\..\..\..\Dev\Library embedded l2c display\u8g2\csrc/u8x8_cad.c ****     case U8X8_MSG_CAD_SEND_ARG:
 671:..\..\..\..\..\..\Dev\Library embedded l2c display\u8g2\csrc/u8x8_cad.c ****       u8x8_byte_SendByte(u8x8, arg_int);
 1860              		.loc 1 671 0
 1861 003a 2946     		mov	r1, r5
 1862              	.LVL278:
 1863 003c FFF7FEFF 		bl	u8x8_byte_SendByte
 1864              	.LVL279:
 672:..\..\..\..\..\..\Dev\Library embedded l2c display\u8g2\csrc/u8x8_cad.c ****       break;
 673:..\..\..\..\..\..\Dev\Library embedded l2c display\u8g2\csrc/u8x8_cad.c ****     case U8X8_MSG_CAD_SEND_DATA:
 674:..\..\..\..\..\..\Dev\Library embedded l2c display\u8g2\csrc/u8x8_cad.c ****       //u8x8_byte_SetDC(u8x8, 1);
 675:..\..\..\..\..\..\Dev\Library embedded l2c display\u8g2\csrc/u8x8_cad.c ****     
 676:..\..\..\..\..\..\Dev\Library embedded l2c display\u8g2\csrc/u8x8_cad.c ****       /* the FeatherWing OLED with the 32u4 transfer of long byte */
 677:..\..\..\..\..\..\Dev\Library embedded l2c display\u8g2\csrc/u8x8_cad.c ****       /* streams was not possible. This is broken down to */
 678:..\..\..\..\..\..\Dev\Library embedded l2c display\u8g2\csrc/u8x8_cad.c ****       /* smaller streams, 32 seems to be the limit... */
 679:..\..\..\..\..\..\Dev\Library embedded l2c display\u8g2\csrc/u8x8_cad.c ****       /* I guess this is related to the size of the Wire buffers in Arduino */
 680:..\..\..\..\..\..\Dev\Library embedded l2c display\u8g2\csrc/u8x8_cad.c ****       /* Unfortunately, this can not be handled in the byte level drivers, */
 681:..\..\..\..\..\..\Dev\Library embedded l2c display\u8g2\csrc/u8x8_cad.c ****       /* so this is done here. Even further, only 24 bytes will be sent, */
 682:..\..\..\..\..\..\Dev\Library embedded l2c display\u8g2\csrc/u8x8_cad.c ****       /* because there will be another byte (DC) required during the transfer */
 683:..\..\..\..\..\..\Dev\Library embedded l2c display\u8g2\csrc/u8x8_cad.c ****       p = arg_ptr;
 684:..\..\..\..\..\..\Dev\Library embedded l2c display\u8g2\csrc/u8x8_cad.c ****        while( arg_int > 24 )
 685:..\..\..\..\..\..\Dev\Library embedded l2c display\u8g2\csrc/u8x8_cad.c ****       {
 686:..\..\..\..\..\..\Dev\Library embedded l2c display\u8g2\csrc/u8x8_cad.c **** 	u8x8->byte_cb(u8x8, U8X8_MSG_CAD_SEND_DATA, 24, p);
 687:..\..\..\..\..\..\Dev\Library embedded l2c display\u8g2\csrc/u8x8_cad.c **** 	arg_int-=24;
 688:..\..\..\..\..\..\Dev\Library embedded l2c display\u8g2\csrc/u8x8_cad.c **** 	p+=24;
 689:..\..\..\..\..\..\Dev\Library embedded l2c display\u8g2\csrc/u8x8_cad.c **** 	u8x8_byte_EndTransfer(u8x8); 
ARM GAS  C:\Users\Abude\AppData\Local\Temp\cc3E6hY2.s 			page 50


 690:..\..\..\..\..\..\Dev\Library embedded l2c display\u8g2\csrc/u8x8_cad.c **** 	u8x8_byte_StartTransfer(u8x8);
 691:..\..\..\..\..\..\Dev\Library embedded l2c display\u8g2\csrc/u8x8_cad.c **** 	u8x8_byte_SendByte(u8x8, 0x08);	/* data write for LD7032 */
 692:..\..\..\..\..\..\Dev\Library embedded l2c display\u8g2\csrc/u8x8_cad.c ****       }
 693:..\..\..\..\..\..\Dev\Library embedded l2c display\u8g2\csrc/u8x8_cad.c ****       u8x8->byte_cb(u8x8, U8X8_MSG_CAD_SEND_DATA, arg_int, p);
 694:..\..\..\..\..\..\Dev\Library embedded l2c display\u8g2\csrc/u8x8_cad.c ****       break;
 695:..\..\..\..\..\..\Dev\Library embedded l2c display\u8g2\csrc/u8x8_cad.c ****     case U8X8_MSG_CAD_INIT:
 696:..\..\..\..\..\..\Dev\Library embedded l2c display\u8g2\csrc/u8x8_cad.c ****       /* apply default i2c adr if required so that the start transfer msg can use this */
 697:..\..\..\..\..\..\Dev\Library embedded l2c display\u8g2\csrc/u8x8_cad.c ****       if ( u8x8->i2c_address == 255 )
 698:..\..\..\..\..\..\Dev\Library embedded l2c display\u8g2\csrc/u8x8_cad.c **** 	u8x8->i2c_address = 0x060;
 699:..\..\..\..\..\..\Dev\Library embedded l2c display\u8g2\csrc/u8x8_cad.c ****       return u8x8->byte_cb(u8x8, msg, arg_int, arg_ptr);
 700:..\..\..\..\..\..\Dev\Library embedded l2c display\u8g2\csrc/u8x8_cad.c ****     case U8X8_MSG_CAD_START_TRANSFER:
 701:..\..\..\..\..\..\Dev\Library embedded l2c display\u8g2\csrc/u8x8_cad.c ****       in_transfer = 0;
 702:..\..\..\..\..\..\Dev\Library embedded l2c display\u8g2\csrc/u8x8_cad.c ****       break;
 703:..\..\..\..\..\..\Dev\Library embedded l2c display\u8g2\csrc/u8x8_cad.c ****     case U8X8_MSG_CAD_END_TRANSFER:
 704:..\..\..\..\..\..\Dev\Library embedded l2c display\u8g2\csrc/u8x8_cad.c ****       if ( in_transfer != 0 )
 705:..\..\..\..\..\..\Dev\Library embedded l2c display\u8g2\csrc/u8x8_cad.c **** 	u8x8_byte_EndTransfer(u8x8); 
 706:..\..\..\..\..\..\Dev\Library embedded l2c display\u8g2\csrc/u8x8_cad.c ****       break;
 707:..\..\..\..\..\..\Dev\Library embedded l2c display\u8g2\csrc/u8x8_cad.c ****     default:
 708:..\..\..\..\..\..\Dev\Library embedded l2c display\u8g2\csrc/u8x8_cad.c ****       return 0;
 709:..\..\..\..\..\..\Dev\Library embedded l2c display\u8g2\csrc/u8x8_cad.c ****   }
 710:..\..\..\..\..\..\Dev\Library embedded l2c display\u8g2\csrc/u8x8_cad.c ****   return 1;
 1865              		.loc 1 710 0
 1866 0040 0120     		movs	r0, #1
 672:..\..\..\..\..\..\Dev\Library embedded l2c display\u8g2\csrc/u8x8_cad.c ****       break;
 1867              		.loc 1 672 0
 1868 0042 F8BD     		pop	{r3, r4, r5, r6, r7, pc}
 1869              	.LVL280:
 1870              	.L162:
 686:..\..\..\..\..\..\Dev\Library embedded l2c display\u8g2\csrc/u8x8_cad.c **** 	arg_int-=24;
 1871              		.loc 1 686 0
 1872 0044 2769     		ldr	r7, [r4, #16]
 1873 0046 3346     		mov	r3, r6
 1874 0048 1822     		movs	r2, #24
 1875 004a 1721     		movs	r1, #23
 1876 004c 2046     		mov	r0, r4
 1877 004e B847     		blx	r7
 1878              	.LVL281:
 687:..\..\..\..\..\..\Dev\Library embedded l2c display\u8g2\csrc/u8x8_cad.c **** 	p+=24;
 1879              		.loc 1 687 0
 1880 0050 183D     		subs	r5, r5, #24
 1881              	.LVL282:
 1882 0052 EDB2     		uxtb	r5, r5
 1883              	.LVL283:
 688:..\..\..\..\..\..\Dev\Library embedded l2c display\u8g2\csrc/u8x8_cad.c **** 	u8x8_byte_EndTransfer(u8x8); 
 1884              		.loc 1 688 0
 1885 0054 1836     		adds	r6, r6, #24
 1886              	.LVL284:
 689:..\..\..\..\..\..\Dev\Library embedded l2c display\u8g2\csrc/u8x8_cad.c **** 	u8x8_byte_StartTransfer(u8x8);
 1887              		.loc 1 689 0
 1888 0056 2046     		mov	r0, r4
 1889 0058 FFF7FEFF 		bl	u8x8_byte_EndTransfer
 1890              	.LVL285:
 690:..\..\..\..\..\..\Dev\Library embedded l2c display\u8g2\csrc/u8x8_cad.c **** 	u8x8_byte_SendByte(u8x8, 0x08);	/* data write for LD7032 */
 1891              		.loc 1 690 0
 1892 005c 2046     		mov	r0, r4
 1893 005e FFF7FEFF 		bl	u8x8_byte_StartTransfer
 1894              	.LVL286:
ARM GAS  C:\Users\Abude\AppData\Local\Temp\cc3E6hY2.s 			page 51


 691:..\..\..\..\..\..\Dev\Library embedded l2c display\u8g2\csrc/u8x8_cad.c ****       }
 1895              		.loc 1 691 0
 1896 0062 0821     		movs	r1, #8
 1897 0064 2046     		mov	r0, r4
 1898 0066 FFF7FEFF 		bl	u8x8_byte_SendByte
 1899              	.LVL287:
 1900              	.L158:
 684:..\..\..\..\..\..\Dev\Library embedded l2c display\u8g2\csrc/u8x8_cad.c ****       {
 1901              		.loc 1 684 0
 1902 006a 182D     		cmp	r5, #24
 1903 006c EAD8     		bhi	.L162
 693:..\..\..\..\..\..\Dev\Library embedded l2c display\u8g2\csrc/u8x8_cad.c ****       break;
 1904              		.loc 1 693 0
 1905 006e 2769     		ldr	r7, [r4, #16]
 1906 0070 3346     		mov	r3, r6
 1907 0072 2A46     		mov	r2, r5
 1908 0074 1721     		movs	r1, #23
 1909 0076 2046     		mov	r0, r4
 1910 0078 B847     		blx	r7
 1911              	.LVL288:
 1912              		.loc 1 710 0
 1913 007a 0120     		movs	r0, #1
 694:..\..\..\..\..\..\Dev\Library embedded l2c display\u8g2\csrc/u8x8_cad.c ****     case U8X8_MSG_CAD_INIT:
 1914              		.loc 1 694 0
 1915 007c F8BD     		pop	{r3, r4, r5, r6, r7, pc}
 1916              	.LVL289:
 1917              	.L154:
 697:..\..\..\..\..\..\Dev\Library embedded l2c display\u8g2\csrc/u8x8_cad.c **** 	u8x8->i2c_address = 0x060;
 1918              		.loc 1 697 0
 1919 007e 90F82430 		ldrb	r3, [r0, #36]	@ zero_extendqisi2
 1920 0082 FF2B     		cmp	r3, #255
 1921 0084 02D1     		bne	.L163
 698:..\..\..\..\..\..\Dev\Library embedded l2c display\u8g2\csrc/u8x8_cad.c ****       return u8x8->byte_cb(u8x8, msg, arg_int, arg_ptr);
 1922              		.loc 1 698 0
 1923 0086 6023     		movs	r3, #96
 1924 0088 80F82430 		strb	r3, [r0, #36]
 1925              	.L163:
 699:..\..\..\..\..\..\Dev\Library embedded l2c display\u8g2\csrc/u8x8_cad.c ****     case U8X8_MSG_CAD_START_TRANSFER:
 1926              		.loc 1 699 0
 1927 008c 2769     		ldr	r7, [r4, #16]
 1928 008e 3346     		mov	r3, r6
 1929 0090 2A46     		mov	r2, r5
 1930 0092 2046     		mov	r0, r4
 1931              	.LVL290:
 1932 0094 B847     		blx	r7
 1933              	.LVL291:
 1934 0096 F8BD     		pop	{r3, r4, r5, r6, r7, pc}
 1935              	.LVL292:
 1936              	.L159:
 701:..\..\..\..\..\..\Dev\Library embedded l2c display\u8g2\csrc/u8x8_cad.c ****       break;
 1937              		.loc 1 701 0
 1938 0098 0022     		movs	r2, #0
 1939 009a 074B     		ldr	r3, .L167
 1940 009c 5A74     		strb	r2, [r3, #17]
 1941              		.loc 1 710 0
 1942 009e 0120     		movs	r0, #1
 1943              	.LVL293:
ARM GAS  C:\Users\Abude\AppData\Local\Temp\cc3E6hY2.s 			page 52


 702:..\..\..\..\..\..\Dev\Library embedded l2c display\u8g2\csrc/u8x8_cad.c ****     case U8X8_MSG_CAD_END_TRANSFER:
 1944              		.loc 1 702 0
 1945 00a0 F8BD     		pop	{r3, r4, r5, r6, r7, pc}
 1946              	.LVL294:
 1947              	.L160:
 704:..\..\..\..\..\..\Dev\Library embedded l2c display\u8g2\csrc/u8x8_cad.c **** 	u8x8_byte_EndTransfer(u8x8); 
 1948              		.loc 1 704 0
 1949 00a2 054B     		ldr	r3, .L167
 1950 00a4 5B7C     		ldrb	r3, [r3, #17]	@ zero_extendqisi2
 1951 00a6 2BB1     		cbz	r3, .L165
 705:..\..\..\..\..\..\Dev\Library embedded l2c display\u8g2\csrc/u8x8_cad.c ****       break;
 1952              		.loc 1 705 0
 1953 00a8 FFF7FEFF 		bl	u8x8_byte_EndTransfer
 1954              	.LVL295:
 1955              		.loc 1 710 0
 1956 00ac 0120     		movs	r0, #1
 1957 00ae F8BD     		pop	{r3, r4, r5, r6, r7, pc}
 1958              	.LVL296:
 1959              	.L164:
 708:..\..\..\..\..\..\Dev\Library embedded l2c display\u8g2\csrc/u8x8_cad.c ****   }
 1960              		.loc 1 708 0
 1961 00b0 0020     		movs	r0, #0
 1962              	.LVL297:
 1963 00b2 F8BD     		pop	{r3, r4, r5, r6, r7, pc}
 1964              	.LVL298:
 1965              	.L165:
 1966              		.loc 1 710 0
 1967 00b4 0120     		movs	r0, #1
 1968              	.LVL299:
 711:..\..\..\..\..\..\Dev\Library embedded l2c display\u8g2\csrc/u8x8_cad.c **** }
 1969              		.loc 1 711 0
 1970 00b6 F8BD     		pop	{r3, r4, r5, r6, r7, pc}
 1971              	.LVL300:
 1972              	.L168:
 1973              		.align	2
 1974              	.L167:
 1975 00b8 00000000 		.word	.LANCHOR0
 1976              		.cfi_endproc
 1977              	.LFE20:
 1978              		.size	u8x8_cad_ld7032_i2c, .-u8x8_cad_ld7032_i2c
 1979              		.section	.text.u8x8_cad_uc16xx_i2c,"ax",%progbits
 1980              		.align	2
 1981              		.global	u8x8_cad_uc16xx_i2c
 1982              		.thumb
 1983              		.thumb_func
 1984              		.type	u8x8_cad_uc16xx_i2c, %function
 1985              	u8x8_cad_uc16xx_i2c:
 1986              	.LFB21:
 712:..\..\..\..\..\..\Dev\Library embedded l2c display\u8g2\csrc/u8x8_cad.c **** 
 713:..\..\..\..\..\..\Dev\Library embedded l2c display\u8g2\csrc/u8x8_cad.c **** /* cad procedure for the UC16xx family in I2C mode */
 714:..\..\..\..\..\..\Dev\Library embedded l2c display\u8g2\csrc/u8x8_cad.c **** /* u8x8_byte_SetDC is not used */
 715:..\..\..\..\..\..\Dev\Library embedded l2c display\u8g2\csrc/u8x8_cad.c **** /* DC bit is encoded into the adr byte, structure is CAD001 */
 716:..\..\..\..\..\..\Dev\Library embedded l2c display\u8g2\csrc/u8x8_cad.c **** uint8_t u8x8_cad_uc16xx_i2c(u8x8_t *u8x8, uint8_t msg, uint8_t arg_int, void *arg_ptr)
 717:..\..\..\..\..\..\Dev\Library embedded l2c display\u8g2\csrc/u8x8_cad.c **** {
 1987              		.loc 1 717 0
 1988              		.cfi_startproc
 1989              		@ args = 0, pretend = 0, frame = 0
ARM GAS  C:\Users\Abude\AppData\Local\Temp\cc3E6hY2.s 			page 53


 1990              		@ frame_needed = 0, uses_anonymous_args = 0
 1991              	.LVL301:
 1992 0000 F8B5     		push	{r3, r4, r5, r6, r7, lr}
 1993              		.cfi_def_cfa_offset 24
 1994              		.cfi_offset 3, -24
 1995              		.cfi_offset 4, -20
 1996              		.cfi_offset 5, -16
 1997              		.cfi_offset 6, -12
 1998              		.cfi_offset 7, -8
 1999              		.cfi_offset 14, -4
 2000 0002 0546     		mov	r5, r0
 2001 0004 1446     		mov	r4, r2
 2002 0006 1E46     		mov	r6, r3
 718:..\..\..\..\..\..\Dev\Library embedded l2c display\u8g2\csrc/u8x8_cad.c ****   static uint8_t in_transfer = 0;	
 719:..\..\..\..\..\..\Dev\Library embedded l2c display\u8g2\csrc/u8x8_cad.c ****   static uint8_t is_data = 0;
 720:..\..\..\..\..\..\Dev\Library embedded l2c display\u8g2\csrc/u8x8_cad.c ****   uint8_t *p;
 721:..\..\..\..\..\..\Dev\Library embedded l2c display\u8g2\csrc/u8x8_cad.c ****   switch(msg)
 2003              		.loc 1 721 0
 2004 0008 A1F11403 		sub	r3, r1, #20
 2005              	.LVL302:
 2006 000c 052B     		cmp	r3, #5
 2007 000e 6BD8     		bhi	.L184
 2008 0010 DFE803F0 		tbb	[pc, r3]
 2009              	.LVL303:
 2010              	.L172:
 2011 0014 4E       		.byte	(.L171-.L172)/2
 2012 0015 03       		.byte	(.L173-.L172)/2
 2013 0016 03       		.byte	(.L173-.L172)/2
 2014 0017 16       		.byte	(.L174-.L172)/2
 2015 0018 5B       		.byte	(.L175-.L172)/2
 2016 0019 60       		.byte	(.L176-.L172)/2
 2017              		.p2align 1
 2018              	.L173:
 722:..\..\..\..\..\..\Dev\Library embedded l2c display\u8g2\csrc/u8x8_cad.c ****   {
 723:..\..\..\..\..\..\Dev\Library embedded l2c display\u8g2\csrc/u8x8_cad.c ****     case U8X8_MSG_CAD_SEND_CMD:
 724:..\..\..\..\..\..\Dev\Library embedded l2c display\u8g2\csrc/u8x8_cad.c ****     case U8X8_MSG_CAD_SEND_ARG:
 725:..\..\..\..\..\..\Dev\Library embedded l2c display\u8g2\csrc/u8x8_cad.c ****       if ( in_transfer != 0 )
 2019              		.loc 1 725 0
 2020 001a 344B     		ldr	r3, .L186
 2021 001c 9B7C     		ldrb	r3, [r3, #18]	@ zero_extendqisi2
 2022 001e 3BB9     		cbnz	r3, .L177
 726:..\..\..\..\..\..\Dev\Library embedded l2c display\u8g2\csrc/u8x8_cad.c ****       {
 727:..\..\..\..\..\..\Dev\Library embedded l2c display\u8g2\csrc/u8x8_cad.c **** 	if ( is_data != 0 )
 728:..\..\..\..\..\..\Dev\Library embedded l2c display\u8g2\csrc/u8x8_cad.c **** 	{
 729:..\..\..\..\..\..\Dev\Library embedded l2c display\u8g2\csrc/u8x8_cad.c **** 	  /* transfer mode is active, but data transfer */
 730:..\..\..\..\..\..\Dev\Library embedded l2c display\u8g2\csrc/u8x8_cad.c **** 	  u8x8_byte_EndTransfer(u8x8); 
 731:..\..\..\..\..\..\Dev\Library embedded l2c display\u8g2\csrc/u8x8_cad.c **** 	  /* clear the lowest two bits of the adr */
 732:..\..\..\..\..\..\Dev\Library embedded l2c display\u8g2\csrc/u8x8_cad.c **** 	  u8x8_SetI2CAddress( u8x8, u8x8_GetI2CAddress(u8x8)&0x0fc );
 733:..\..\..\..\..\..\Dev\Library embedded l2c display\u8g2\csrc/u8x8_cad.c **** 	  u8x8_byte_StartTransfer(u8x8); 
 734:..\..\..\..\..\..\Dev\Library embedded l2c display\u8g2\csrc/u8x8_cad.c **** 	}
 735:..\..\..\..\..\..\Dev\Library embedded l2c display\u8g2\csrc/u8x8_cad.c ****       }
 736:..\..\..\..\..\..\Dev\Library embedded l2c display\u8g2\csrc/u8x8_cad.c ****       else
 737:..\..\..\..\..\..\Dev\Library embedded l2c display\u8g2\csrc/u8x8_cad.c ****       {
 738:..\..\..\..\..\..\Dev\Library embedded l2c display\u8g2\csrc/u8x8_cad.c **** 	/* clear the lowest two bits of the adr */
 739:..\..\..\..\..\..\Dev\Library embedded l2c display\u8g2\csrc/u8x8_cad.c **** 	u8x8_SetI2CAddress( u8x8, u8x8_GetI2CAddress(u8x8)&0x0fc );
 2023              		.loc 1 739 0
 2024 0020 90F82430 		ldrb	r3, [r0, #36]	@ zero_extendqisi2
ARM GAS  C:\Users\Abude\AppData\Local\Temp\cc3E6hY2.s 			page 54


 2025 0024 23F00303 		bic	r3, r3, #3
 2026 0028 80F82430 		strb	r3, [r0, #36]
 740:..\..\..\..\..\..\Dev\Library embedded l2c display\u8g2\csrc/u8x8_cad.c **** 	u8x8_byte_StartTransfer(u8x8);
 2027              		.loc 1 740 0
 2028 002c FFF7FEFF 		bl	u8x8_byte_StartTransfer
 2029              	.LVL304:
 2030              	.L177:
 741:..\..\..\..\..\..\Dev\Library embedded l2c display\u8g2\csrc/u8x8_cad.c ****       }
 742:..\..\..\..\..\..\Dev\Library embedded l2c display\u8g2\csrc/u8x8_cad.c ****       u8x8_byte_SendByte(u8x8, arg_int);
 2031              		.loc 1 742 0
 2032 0030 2146     		mov	r1, r4
 2033 0032 2846     		mov	r0, r5
 2034 0034 FFF7FEFF 		bl	u8x8_byte_SendByte
 2035              	.LVL305:
 743:..\..\..\..\..\..\Dev\Library embedded l2c display\u8g2\csrc/u8x8_cad.c ****       in_transfer = 1;
 2036              		.loc 1 743 0
 2037 0038 0120     		movs	r0, #1
 2038 003a 2C4B     		ldr	r3, .L186
 2039 003c 9874     		strb	r0, [r3, #18]
 744:..\..\..\..\..\..\Dev\Library embedded l2c display\u8g2\csrc/u8x8_cad.c ****       // is_data = 0;  // 20 Jun 2021: I assume that this is missing here
 745:..\..\..\..\..\..\Dev\Library embedded l2c display\u8g2\csrc/u8x8_cad.c ****       break;
 2040              		.loc 1 745 0
 2041 003e F8BD     		pop	{r3, r4, r5, r6, r7, pc}
 2042              	.LVL306:
 2043              	.L174:
 746:..\..\..\..\..\..\Dev\Library embedded l2c display\u8g2\csrc/u8x8_cad.c ****     case U8X8_MSG_CAD_SEND_DATA:
 747:..\..\..\..\..\..\Dev\Library embedded l2c display\u8g2\csrc/u8x8_cad.c ****       if ( in_transfer != 0 )
 2044              		.loc 1 747 0
 2045 0040 2A4B     		ldr	r3, .L186
 2046 0042 9B7C     		ldrb	r3, [r3, #18]	@ zero_extendqisi2
 2047 0044 6BB1     		cbz	r3, .L178
 748:..\..\..\..\..\..\Dev\Library embedded l2c display\u8g2\csrc/u8x8_cad.c ****       {
 749:..\..\..\..\..\..\Dev\Library embedded l2c display\u8g2\csrc/u8x8_cad.c **** 	if ( is_data == 0 )
 750:..\..\..\..\..\..\Dev\Library embedded l2c display\u8g2\csrc/u8x8_cad.c **** 	{
 751:..\..\..\..\..\..\Dev\Library embedded l2c display\u8g2\csrc/u8x8_cad.c **** 	  /* transfer mode is active, but data transfer */
 752:..\..\..\..\..\..\Dev\Library embedded l2c display\u8g2\csrc/u8x8_cad.c **** 	  u8x8_byte_EndTransfer(u8x8); 
 2048              		.loc 1 752 0
 2049 0046 FFF7FEFF 		bl	u8x8_byte_EndTransfer
 2050              	.LVL307:
 753:..\..\..\..\..\..\Dev\Library embedded l2c display\u8g2\csrc/u8x8_cad.c **** 	  /* clear the lowest two bits of the adr */
 754:..\..\..\..\..\..\Dev\Library embedded l2c display\u8g2\csrc/u8x8_cad.c **** 	  u8x8_SetI2CAddress( u8x8, (u8x8_GetI2CAddress(u8x8)&0x0fc)|2 );
 2051              		.loc 1 754 0
 2052 004a 95F82430 		ldrb	r3, [r5, #36]	@ zero_extendqisi2
 2053 004e 23F00303 		bic	r3, r3, #3
 2054 0052 43F00203 		orr	r3, r3, #2
 2055 0056 85F82430 		strb	r3, [r5, #36]
 755:..\..\..\..\..\..\Dev\Library embedded l2c display\u8g2\csrc/u8x8_cad.c **** 	  u8x8_byte_StartTransfer(u8x8); 
 2056              		.loc 1 755 0
 2057 005a 2846     		mov	r0, r5
 2058 005c FFF7FEFF 		bl	u8x8_byte_StartTransfer
 2059              	.LVL308:
 2060 0060 09E0     		b	.L179
 2061              	.LVL309:
 2062              	.L178:
 756:..\..\..\..\..\..\Dev\Library embedded l2c display\u8g2\csrc/u8x8_cad.c **** 	}
 757:..\..\..\..\..\..\Dev\Library embedded l2c display\u8g2\csrc/u8x8_cad.c ****       }
 758:..\..\..\..\..\..\Dev\Library embedded l2c display\u8g2\csrc/u8x8_cad.c ****       else
ARM GAS  C:\Users\Abude\AppData\Local\Temp\cc3E6hY2.s 			page 55


 759:..\..\..\..\..\..\Dev\Library embedded l2c display\u8g2\csrc/u8x8_cad.c ****       {
 760:..\..\..\..\..\..\Dev\Library embedded l2c display\u8g2\csrc/u8x8_cad.c **** 	/* clear the lowest two bits of the adr */
 761:..\..\..\..\..\..\Dev\Library embedded l2c display\u8g2\csrc/u8x8_cad.c **** 	u8x8_SetI2CAddress( u8x8, (u8x8_GetI2CAddress(u8x8)&0x0fc)|2 );
 2063              		.loc 1 761 0
 2064 0062 90F82430 		ldrb	r3, [r0, #36]	@ zero_extendqisi2
 2065 0066 23F00303 		bic	r3, r3, #3
 2066 006a 43F00203 		orr	r3, r3, #2
 2067 006e 80F82430 		strb	r3, [r0, #36]
 762:..\..\..\..\..\..\Dev\Library embedded l2c display\u8g2\csrc/u8x8_cad.c **** 	u8x8_byte_StartTransfer(u8x8);
 2068              		.loc 1 762 0
 2069 0072 FFF7FEFF 		bl	u8x8_byte_StartTransfer
 2070              	.LVL310:
 2071              	.L179:
 763:..\..\..\..\..\..\Dev\Library embedded l2c display\u8g2\csrc/u8x8_cad.c ****       }
 764:..\..\..\..\..\..\Dev\Library embedded l2c display\u8g2\csrc/u8x8_cad.c ****       in_transfer = 1;
 2072              		.loc 1 764 0
 2073 0076 0122     		movs	r2, #1
 2074 0078 1C4B     		ldr	r3, .L186
 2075 007a 9A74     		strb	r2, [r3, #18]
 2076              	.LVL311:
 765:..\..\..\..\..\..\Dev\Library embedded l2c display\u8g2\csrc/u8x8_cad.c ****       // is_data = 1;  // 20 Jun 2021: I assume that this is missing here
 766:..\..\..\..\..\..\Dev\Library embedded l2c display\u8g2\csrc/u8x8_cad.c ****       
 767:..\..\..\..\..\..\Dev\Library embedded l2c display\u8g2\csrc/u8x8_cad.c ****       p = arg_ptr;
 768:..\..\..\..\..\..\Dev\Library embedded l2c display\u8g2\csrc/u8x8_cad.c ****       while( arg_int > 24 )
 2077              		.loc 1 768 0
 2078 007c 0EE0     		b	.L180
 2079              	.LVL312:
 2080              	.L181:
 769:..\..\..\..\..\..\Dev\Library embedded l2c display\u8g2\csrc/u8x8_cad.c ****       {
 770:..\..\..\..\..\..\Dev\Library embedded l2c display\u8g2\csrc/u8x8_cad.c **** 	u8x8->byte_cb(u8x8, U8X8_MSG_CAD_SEND_DATA, 24, p);
 2081              		.loc 1 770 0
 2082 007e 2F69     		ldr	r7, [r5, #16]
 2083 0080 3346     		mov	r3, r6
 2084 0082 1822     		movs	r2, #24
 2085 0084 1721     		movs	r1, #23
 2086 0086 2846     		mov	r0, r5
 2087 0088 B847     		blx	r7
 2088              	.LVL313:
 771:..\..\..\..\..\..\Dev\Library embedded l2c display\u8g2\csrc/u8x8_cad.c **** 	arg_int-=24;
 2089              		.loc 1 771 0
 2090 008a 183C     		subs	r4, r4, #24
 2091              	.LVL314:
 2092 008c E4B2     		uxtb	r4, r4
 2093              	.LVL315:
 772:..\..\..\..\..\..\Dev\Library embedded l2c display\u8g2\csrc/u8x8_cad.c **** 	p+=24;
 2094              		.loc 1 772 0
 2095 008e 1836     		adds	r6, r6, #24
 2096              	.LVL316:
 773:..\..\..\..\..\..\Dev\Library embedded l2c display\u8g2\csrc/u8x8_cad.c **** 	u8x8_byte_EndTransfer(u8x8); 
 2097              		.loc 1 773 0
 2098 0090 2846     		mov	r0, r5
 2099 0092 FFF7FEFF 		bl	u8x8_byte_EndTransfer
 2100              	.LVL317:
 774:..\..\..\..\..\..\Dev\Library embedded l2c display\u8g2\csrc/u8x8_cad.c **** 	u8x8_byte_StartTransfer(u8x8);
 2101              		.loc 1 774 0
 2102 0096 2846     		mov	r0, r5
 2103 0098 FFF7FEFF 		bl	u8x8_byte_StartTransfer
ARM GAS  C:\Users\Abude\AppData\Local\Temp\cc3E6hY2.s 			page 56


 2104              	.LVL318:
 2105              	.L180:
 768:..\..\..\..\..\..\Dev\Library embedded l2c display\u8g2\csrc/u8x8_cad.c ****       {
 2106              		.loc 1 768 0
 2107 009c 182C     		cmp	r4, #24
 2108 009e EED8     		bhi	.L181
 775:..\..\..\..\..\..\Dev\Library embedded l2c display\u8g2\csrc/u8x8_cad.c ****       }
 776:..\..\..\..\..\..\Dev\Library embedded l2c display\u8g2\csrc/u8x8_cad.c ****       u8x8->byte_cb(u8x8, U8X8_MSG_CAD_SEND_DATA, arg_int, p);
 2109              		.loc 1 776 0
 2110 00a0 2F69     		ldr	r7, [r5, #16]
 2111 00a2 3346     		mov	r3, r6
 2112 00a4 2246     		mov	r2, r4
 2113 00a6 1721     		movs	r1, #23
 2114 00a8 2846     		mov	r0, r5
 2115 00aa B847     		blx	r7
 2116              	.LVL319:
 777:..\..\..\..\..\..\Dev\Library embedded l2c display\u8g2\csrc/u8x8_cad.c ****       
 778:..\..\..\..\..\..\Dev\Library embedded l2c display\u8g2\csrc/u8x8_cad.c ****       break;
 779:..\..\..\..\..\..\Dev\Library embedded l2c display\u8g2\csrc/u8x8_cad.c ****     case U8X8_MSG_CAD_INIT:
 780:..\..\..\..\..\..\Dev\Library embedded l2c display\u8g2\csrc/u8x8_cad.c ****       /* apply default i2c adr if required so that the start transfer msg can use this */
 781:..\..\..\..\..\..\Dev\Library embedded l2c display\u8g2\csrc/u8x8_cad.c ****       if ( u8x8->i2c_address == 255 )
 782:..\..\..\..\..\..\Dev\Library embedded l2c display\u8g2\csrc/u8x8_cad.c **** 	u8x8->i2c_address = 0x070;
 783:..\..\..\..\..\..\Dev\Library embedded l2c display\u8g2\csrc/u8x8_cad.c ****       return u8x8->byte_cb(u8x8, msg, arg_int, arg_ptr);
 784:..\..\..\..\..\..\Dev\Library embedded l2c display\u8g2\csrc/u8x8_cad.c ****     case U8X8_MSG_CAD_START_TRANSFER:
 785:..\..\..\..\..\..\Dev\Library embedded l2c display\u8g2\csrc/u8x8_cad.c ****       in_transfer = 0;    
 786:..\..\..\..\..\..\Dev\Library embedded l2c display\u8g2\csrc/u8x8_cad.c ****       /* actual start is delayed, because we do not whether this is data or cmd transfer */
 787:..\..\..\..\..\..\Dev\Library embedded l2c display\u8g2\csrc/u8x8_cad.c ****       break;
 788:..\..\..\..\..\..\Dev\Library embedded l2c display\u8g2\csrc/u8x8_cad.c ****     case U8X8_MSG_CAD_END_TRANSFER:
 789:..\..\..\..\..\..\Dev\Library embedded l2c display\u8g2\csrc/u8x8_cad.c ****       if ( in_transfer != 0 )
 790:..\..\..\..\..\..\Dev\Library embedded l2c display\u8g2\csrc/u8x8_cad.c **** 	u8x8_byte_EndTransfer(u8x8);
 791:..\..\..\..\..\..\Dev\Library embedded l2c display\u8g2\csrc/u8x8_cad.c ****       in_transfer = 0;
 792:..\..\..\..\..\..\Dev\Library embedded l2c display\u8g2\csrc/u8x8_cad.c ****       break;
 793:..\..\..\..\..\..\Dev\Library embedded l2c display\u8g2\csrc/u8x8_cad.c ****     default:
 794:..\..\..\..\..\..\Dev\Library embedded l2c display\u8g2\csrc/u8x8_cad.c ****       return 0;
 795:..\..\..\..\..\..\Dev\Library embedded l2c display\u8g2\csrc/u8x8_cad.c ****   }
 796:..\..\..\..\..\..\Dev\Library embedded l2c display\u8g2\csrc/u8x8_cad.c ****   return 1;
 2117              		.loc 1 796 0
 2118 00ac 0120     		movs	r0, #1
 778:..\..\..\..\..\..\Dev\Library embedded l2c display\u8g2\csrc/u8x8_cad.c ****     case U8X8_MSG_CAD_INIT:
 2119              		.loc 1 778 0
 2120 00ae F8BD     		pop	{r3, r4, r5, r6, r7, pc}
 2121              	.LVL320:
 2122              	.L171:
 781:..\..\..\..\..\..\Dev\Library embedded l2c display\u8g2\csrc/u8x8_cad.c **** 	u8x8->i2c_address = 0x070;
 2123              		.loc 1 781 0
 2124 00b0 90F82430 		ldrb	r3, [r0, #36]	@ zero_extendqisi2
 2125 00b4 FF2B     		cmp	r3, #255
 2126 00b6 02D1     		bne	.L182
 782:..\..\..\..\..\..\Dev\Library embedded l2c display\u8g2\csrc/u8x8_cad.c ****       return u8x8->byte_cb(u8x8, msg, arg_int, arg_ptr);
 2127              		.loc 1 782 0
 2128 00b8 7023     		movs	r3, #112
 2129 00ba 80F82430 		strb	r3, [r0, #36]
 2130              	.L182:
 783:..\..\..\..\..\..\Dev\Library embedded l2c display\u8g2\csrc/u8x8_cad.c ****     case U8X8_MSG_CAD_START_TRANSFER:
 2131              		.loc 1 783 0
 2132 00be 2F69     		ldr	r7, [r5, #16]
 2133 00c0 3346     		mov	r3, r6
ARM GAS  C:\Users\Abude\AppData\Local\Temp\cc3E6hY2.s 			page 57


 2134 00c2 2246     		mov	r2, r4
 2135 00c4 2846     		mov	r0, r5
 2136              	.LVL321:
 2137 00c6 B847     		blx	r7
 2138              	.LVL322:
 2139 00c8 F8BD     		pop	{r3, r4, r5, r6, r7, pc}
 2140              	.LVL323:
 2141              	.L175:
 785:..\..\..\..\..\..\Dev\Library embedded l2c display\u8g2\csrc/u8x8_cad.c ****       /* actual start is delayed, because we do not whether this is data or cmd transfer */
 2142              		.loc 1 785 0
 2143 00ca 0022     		movs	r2, #0
 2144 00cc 074B     		ldr	r3, .L186
 2145 00ce 9A74     		strb	r2, [r3, #18]
 2146              		.loc 1 796 0
 2147 00d0 0120     		movs	r0, #1
 2148              	.LVL324:
 787:..\..\..\..\..\..\Dev\Library embedded l2c display\u8g2\csrc/u8x8_cad.c ****     case U8X8_MSG_CAD_END_TRANSFER:
 2149              		.loc 1 787 0
 2150 00d2 F8BD     		pop	{r3, r4, r5, r6, r7, pc}
 2151              	.LVL325:
 2152              	.L176:
 789:..\..\..\..\..\..\Dev\Library embedded l2c display\u8g2\csrc/u8x8_cad.c **** 	u8x8_byte_EndTransfer(u8x8);
 2153              		.loc 1 789 0
 2154 00d4 054B     		ldr	r3, .L186
 2155 00d6 9B7C     		ldrb	r3, [r3, #18]	@ zero_extendqisi2
 2156 00d8 0BB1     		cbz	r3, .L183
 790:..\..\..\..\..\..\Dev\Library embedded l2c display\u8g2\csrc/u8x8_cad.c ****       in_transfer = 0;
 2157              		.loc 1 790 0
 2158 00da FFF7FEFF 		bl	u8x8_byte_EndTransfer
 2159              	.LVL326:
 2160              	.L183:
 791:..\..\..\..\..\..\Dev\Library embedded l2c display\u8g2\csrc/u8x8_cad.c ****       break;
 2161              		.loc 1 791 0
 2162 00de 0022     		movs	r2, #0
 2163 00e0 024B     		ldr	r3, .L186
 2164 00e2 9A74     		strb	r2, [r3, #18]
 2165              		.loc 1 796 0
 2166 00e4 0120     		movs	r0, #1
 792:..\..\..\..\..\..\Dev\Library embedded l2c display\u8g2\csrc/u8x8_cad.c ****     default:
 2167              		.loc 1 792 0
 2168 00e6 F8BD     		pop	{r3, r4, r5, r6, r7, pc}
 2169              	.LVL327:
 2170              	.L184:
 794:..\..\..\..\..\..\Dev\Library embedded l2c display\u8g2\csrc/u8x8_cad.c ****   }
 2171              		.loc 1 794 0
 2172 00e8 0020     		movs	r0, #0
 2173              	.LVL328:
 797:..\..\..\..\..\..\Dev\Library embedded l2c display\u8g2\csrc/u8x8_cad.c **** }
 2174              		.loc 1 797 0
 2175 00ea F8BD     		pop	{r3, r4, r5, r6, r7, pc}
 2176              	.LVL329:
 2177              	.L187:
 2178              		.align	2
 2179              	.L186:
 2180 00ec 00000000 		.word	.LANCHOR0
 2181              		.cfi_endproc
 2182              	.LFE21:
ARM GAS  C:\Users\Abude\AppData\Local\Temp\cc3E6hY2.s 			page 58


 2183              		.size	u8x8_cad_uc16xx_i2c, .-u8x8_cad_uc16xx_i2c
 2184              		.section	.text.u8x8_cad_uc1638_i2c,"ax",%progbits
 2185              		.align	2
 2186              		.global	u8x8_cad_uc1638_i2c
 2187              		.thumb
 2188              		.thumb_func
 2189              		.type	u8x8_cad_uc1638_i2c, %function
 2190              	u8x8_cad_uc1638_i2c:
 2191              	.LFB22:
 798:..\..\..\..\..\..\Dev\Library embedded l2c display\u8g2\csrc/u8x8_cad.c **** 
 799:..\..\..\..\..\..\Dev\Library embedded l2c display\u8g2\csrc/u8x8_cad.c **** 
 800:..\..\..\..\..\..\Dev\Library embedded l2c display\u8g2\csrc/u8x8_cad.c **** /* cad procedure for the UC1638 in I2C mode */
 801:..\..\..\..\..\..\Dev\Library embedded l2c display\u8g2\csrc/u8x8_cad.c **** /* same as  u8x8_cad_uc16xx_i2c but CAD structure is CAD011 */
 802:..\..\..\..\..\..\Dev\Library embedded l2c display\u8g2\csrc/u8x8_cad.c **** uint8_t u8x8_cad_uc1638_i2c(u8x8_t *u8x8, uint8_t msg, uint8_t arg_int, void *arg_ptr)
 803:..\..\..\..\..\..\Dev\Library embedded l2c display\u8g2\csrc/u8x8_cad.c **** {
 2192              		.loc 1 803 0
 2193              		.cfi_startproc
 2194              		@ args = 0, pretend = 0, frame = 0
 2195              		@ frame_needed = 0, uses_anonymous_args = 0
 2196              	.LVL330:
 2197 0000 F8B5     		push	{r3, r4, r5, r6, r7, lr}
 2198              		.cfi_def_cfa_offset 24
 2199              		.cfi_offset 3, -24
 2200              		.cfi_offset 4, -20
 2201              		.cfi_offset 5, -16
 2202              		.cfi_offset 6, -12
 2203              		.cfi_offset 7, -8
 2204              		.cfi_offset 14, -4
 2205 0002 0546     		mov	r5, r0
 2206 0004 1446     		mov	r4, r2
 2207 0006 1E46     		mov	r6, r3
 804:..\..\..\..\..\..\Dev\Library embedded l2c display\u8g2\csrc/u8x8_cad.c ****   static uint8_t in_transfer = 0;	
 805:..\..\..\..\..\..\Dev\Library embedded l2c display\u8g2\csrc/u8x8_cad.c ****   static uint8_t is_data = 0;
 806:..\..\..\..\..\..\Dev\Library embedded l2c display\u8g2\csrc/u8x8_cad.c ****   uint8_t *p;
 807:..\..\..\..\..\..\Dev\Library embedded l2c display\u8g2\csrc/u8x8_cad.c ****   switch(msg)
 2208              		.loc 1 807 0
 2209 0008 A1F11403 		sub	r3, r1, #20
 2210              	.LVL331:
 2211 000c 052B     		cmp	r3, #5
 2212 000e 00F2A880 		bhi	.L207
 2213 0012 DFE803F0 		tbb	[pc, r3]
 2214              	.LVL332:
 2215              	.L191:
 2216 0016 8A       		.byte	(.L190-.L191)/2
 2217 0017 03       		.byte	(.L192-.L191)/2
 2218 0018 27       		.byte	(.L193-.L191)/2
 2219 0019 4E       		.byte	(.L194-.L191)/2
 2220 001a 97       		.byte	(.L195-.L191)/2
 2221 001b 9C       		.byte	(.L196-.L191)/2
 2222              		.p2align 1
 2223              	.L192:
 808:..\..\..\..\..\..\Dev\Library embedded l2c display\u8g2\csrc/u8x8_cad.c ****   {
 809:..\..\..\..\..\..\Dev\Library embedded l2c display\u8g2\csrc/u8x8_cad.c ****     case U8X8_MSG_CAD_SEND_CMD:
 810:..\..\..\..\..\..\Dev\Library embedded l2c display\u8g2\csrc/u8x8_cad.c ****       if ( in_transfer != 0 )
 2224              		.loc 1 810 0
 2225 001c 524B     		ldr	r3, .L209
 2226 001e DB7C     		ldrb	r3, [r3, #19]	@ zero_extendqisi2
ARM GAS  C:\Users\Abude\AppData\Local\Temp\cc3E6hY2.s 			page 59


 2227 0020 73B1     		cbz	r3, .L197
 811:..\..\..\..\..\..\Dev\Library embedded l2c display\u8g2\csrc/u8x8_cad.c ****       {
 812:..\..\..\..\..\..\Dev\Library embedded l2c display\u8g2\csrc/u8x8_cad.c **** 	if ( is_data != 0 )
 2228              		.loc 1 812 0
 2229 0022 514B     		ldr	r3, .L209
 2230 0024 1B7D     		ldrb	r3, [r3, #20]	@ zero_extendqisi2
 2231 0026 9BB1     		cbz	r3, .L198
 813:..\..\..\..\..\..\Dev\Library embedded l2c display\u8g2\csrc/u8x8_cad.c **** 	{
 814:..\..\..\..\..\..\Dev\Library embedded l2c display\u8g2\csrc/u8x8_cad.c **** 	  /* transfer mode is active, but data transfer */
 815:..\..\..\..\..\..\Dev\Library embedded l2c display\u8g2\csrc/u8x8_cad.c **** 	  u8x8_byte_EndTransfer(u8x8); 
 2232              		.loc 1 815 0
 2233 0028 FFF7FEFF 		bl	u8x8_byte_EndTransfer
 2234              	.LVL333:
 816:..\..\..\..\..\..\Dev\Library embedded l2c display\u8g2\csrc/u8x8_cad.c **** 	  /* clear the lowest two bits of the adr */
 817:..\..\..\..\..\..\Dev\Library embedded l2c display\u8g2\csrc/u8x8_cad.c **** 	  u8x8_SetI2CAddress( u8x8, u8x8_GetI2CAddress(u8x8)&0x0fc );
 2235              		.loc 1 817 0
 2236 002c 95F82430 		ldrb	r3, [r5, #36]	@ zero_extendqisi2
 2237 0030 23F00303 		bic	r3, r3, #3
 2238 0034 85F82430 		strb	r3, [r5, #36]
 818:..\..\..\..\..\..\Dev\Library embedded l2c display\u8g2\csrc/u8x8_cad.c **** 	  u8x8_byte_StartTransfer(u8x8); 
 2239              		.loc 1 818 0
 2240 0038 2846     		mov	r0, r5
 2241 003a FFF7FEFF 		bl	u8x8_byte_StartTransfer
 2242              	.LVL334:
 2243 003e 07E0     		b	.L198
 2244              	.LVL335:
 2245              	.L197:
 819:..\..\..\..\..\..\Dev\Library embedded l2c display\u8g2\csrc/u8x8_cad.c **** 	}
 820:..\..\..\..\..\..\Dev\Library embedded l2c display\u8g2\csrc/u8x8_cad.c ****       }
 821:..\..\..\..\..\..\Dev\Library embedded l2c display\u8g2\csrc/u8x8_cad.c ****       else
 822:..\..\..\..\..\..\Dev\Library embedded l2c display\u8g2\csrc/u8x8_cad.c ****       {
 823:..\..\..\..\..\..\Dev\Library embedded l2c display\u8g2\csrc/u8x8_cad.c **** 	/* clear the lowest two bits of the adr */
 824:..\..\..\..\..\..\Dev\Library embedded l2c display\u8g2\csrc/u8x8_cad.c **** 	u8x8_SetI2CAddress( u8x8, u8x8_GetI2CAddress(u8x8)&0x0fc );
 2246              		.loc 1 824 0
 2247 0040 90F82430 		ldrb	r3, [r0, #36]	@ zero_extendqisi2
 2248 0044 23F00303 		bic	r3, r3, #3
 2249 0048 80F82430 		strb	r3, [r0, #36]
 825:..\..\..\..\..\..\Dev\Library embedded l2c display\u8g2\csrc/u8x8_cad.c **** 	u8x8_byte_StartTransfer(u8x8);
 2250              		.loc 1 825 0
 2251 004c FFF7FEFF 		bl	u8x8_byte_StartTransfer
 2252              	.LVL336:
 2253              	.L198:
 826:..\..\..\..\..\..\Dev\Library embedded l2c display\u8g2\csrc/u8x8_cad.c ****       }
 827:..\..\..\..\..\..\Dev\Library embedded l2c display\u8g2\csrc/u8x8_cad.c ****       u8x8_byte_SendByte(u8x8, arg_int);
 2254              		.loc 1 827 0
 2255 0050 2146     		mov	r1, r4
 2256 0052 2846     		mov	r0, r5
 2257 0054 FFF7FEFF 		bl	u8x8_byte_SendByte
 2258              	.LVL337:
 828:..\..\..\..\..\..\Dev\Library embedded l2c display\u8g2\csrc/u8x8_cad.c ****       in_transfer = 1;
 2259              		.loc 1 828 0
 2260 0058 434B     		ldr	r3, .L209
 2261 005a 0120     		movs	r0, #1
 2262 005c D874     		strb	r0, [r3, #19]
 829:..\..\..\..\..\..\Dev\Library embedded l2c display\u8g2\csrc/u8x8_cad.c ****       is_data = 0;
 2263              		.loc 1 829 0
 2264 005e 0022     		movs	r2, #0
ARM GAS  C:\Users\Abude\AppData\Local\Temp\cc3E6hY2.s 			page 60


 2265 0060 1A75     		strb	r2, [r3, #20]
 830:..\..\..\..\..\..\Dev\Library embedded l2c display\u8g2\csrc/u8x8_cad.c ****       break;
 2266              		.loc 1 830 0
 2267 0062 F8BD     		pop	{r3, r4, r5, r6, r7, pc}
 2268              	.LVL338:
 2269              	.L193:
 831:..\..\..\..\..\..\Dev\Library embedded l2c display\u8g2\csrc/u8x8_cad.c ****     case U8X8_MSG_CAD_SEND_ARG:
 832:..\..\..\..\..\..\Dev\Library embedded l2c display\u8g2\csrc/u8x8_cad.c ****       if ( in_transfer != 0 )
 2270              		.loc 1 832 0
 2271 0064 404B     		ldr	r3, .L209
 2272 0066 DB7C     		ldrb	r3, [r3, #19]	@ zero_extendqisi2
 2273 0068 83B1     		cbz	r3, .L199
 833:..\..\..\..\..\..\Dev\Library embedded l2c display\u8g2\csrc/u8x8_cad.c ****       {
 834:..\..\..\..\..\..\Dev\Library embedded l2c display\u8g2\csrc/u8x8_cad.c **** 	if ( is_data == 0 )
 2274              		.loc 1 834 0
 2275 006a 3F4B     		ldr	r3, .L209
 2276 006c 1B7D     		ldrb	r3, [r3, #20]	@ zero_extendqisi2
 2277 006e BBB9     		cbnz	r3, .L200
 835:..\..\..\..\..\..\Dev\Library embedded l2c display\u8g2\csrc/u8x8_cad.c **** 	{
 836:..\..\..\..\..\..\Dev\Library embedded l2c display\u8g2\csrc/u8x8_cad.c **** 	  /* transfer mode is active, but data transfer */
 837:..\..\..\..\..\..\Dev\Library embedded l2c display\u8g2\csrc/u8x8_cad.c **** 	  u8x8_byte_EndTransfer(u8x8); 
 2278              		.loc 1 837 0
 2279 0070 FFF7FEFF 		bl	u8x8_byte_EndTransfer
 2280              	.LVL339:
 838:..\..\..\..\..\..\Dev\Library embedded l2c display\u8g2\csrc/u8x8_cad.c **** 	  /* clear the lowest two bits of the adr */
 839:..\..\..\..\..\..\Dev\Library embedded l2c display\u8g2\csrc/u8x8_cad.c **** 	  u8x8_SetI2CAddress( u8x8, (u8x8_GetI2CAddress(u8x8)&0x0fc)|2 );
 2281              		.loc 1 839 0
 2282 0074 95F82430 		ldrb	r3, [r5, #36]	@ zero_extendqisi2
 2283 0078 23F00303 		bic	r3, r3, #3
 2284 007c 43F00203 		orr	r3, r3, #2
 2285 0080 85F82430 		strb	r3, [r5, #36]
 840:..\..\..\..\..\..\Dev\Library embedded l2c display\u8g2\csrc/u8x8_cad.c **** 	  u8x8_byte_StartTransfer(u8x8); 
 2286              		.loc 1 840 0
 2287 0084 2846     		mov	r0, r5
 2288 0086 FFF7FEFF 		bl	u8x8_byte_StartTransfer
 2289              	.LVL340:
 2290 008a 09E0     		b	.L200
 2291              	.LVL341:
 2292              	.L199:
 841:..\..\..\..\..\..\Dev\Library embedded l2c display\u8g2\csrc/u8x8_cad.c **** 	}
 842:..\..\..\..\..\..\Dev\Library embedded l2c display\u8g2\csrc/u8x8_cad.c ****       }
 843:..\..\..\..\..\..\Dev\Library embedded l2c display\u8g2\csrc/u8x8_cad.c ****       else
 844:..\..\..\..\..\..\Dev\Library embedded l2c display\u8g2\csrc/u8x8_cad.c ****       {
 845:..\..\..\..\..\..\Dev\Library embedded l2c display\u8g2\csrc/u8x8_cad.c **** 	/* clear the lowest two bits of the adr */
 846:..\..\..\..\..\..\Dev\Library embedded l2c display\u8g2\csrc/u8x8_cad.c **** 	u8x8_SetI2CAddress( u8x8, (u8x8_GetI2CAddress(u8x8)&0x0fc)|2 );
 2293              		.loc 1 846 0
 2294 008c 90F82430 		ldrb	r3, [r0, #36]	@ zero_extendqisi2
 2295 0090 23F00303 		bic	r3, r3, #3
 2296 0094 43F00203 		orr	r3, r3, #2
 2297 0098 80F82430 		strb	r3, [r0, #36]
 847:..\..\..\..\..\..\Dev\Library embedded l2c display\u8g2\csrc/u8x8_cad.c **** 	u8x8_byte_StartTransfer(u8x8);
 2298              		.loc 1 847 0
 2299 009c FFF7FEFF 		bl	u8x8_byte_StartTransfer
 2300              	.LVL342:
 2301              	.L200:
 848:..\..\..\..\..\..\Dev\Library embedded l2c display\u8g2\csrc/u8x8_cad.c ****       }
 849:..\..\..\..\..\..\Dev\Library embedded l2c display\u8g2\csrc/u8x8_cad.c ****       u8x8_byte_SendByte(u8x8, arg_int);
ARM GAS  C:\Users\Abude\AppData\Local\Temp\cc3E6hY2.s 			page 61


 2302              		.loc 1 849 0
 2303 00a0 2146     		mov	r1, r4
 2304 00a2 2846     		mov	r0, r5
 2305 00a4 FFF7FEFF 		bl	u8x8_byte_SendByte
 2306              	.LVL343:
 850:..\..\..\..\..\..\Dev\Library embedded l2c display\u8g2\csrc/u8x8_cad.c ****       in_transfer = 1;
 2307              		.loc 1 850 0
 2308 00a8 2F4B     		ldr	r3, .L209
 2309 00aa 0120     		movs	r0, #1
 2310 00ac D874     		strb	r0, [r3, #19]
 851:..\..\..\..\..\..\Dev\Library embedded l2c display\u8g2\csrc/u8x8_cad.c ****       is_data = 1;
 2311              		.loc 1 851 0
 2312 00ae 1875     		strb	r0, [r3, #20]
 852:..\..\..\..\..\..\Dev\Library embedded l2c display\u8g2\csrc/u8x8_cad.c ****       break;
 2313              		.loc 1 852 0
 2314 00b0 F8BD     		pop	{r3, r4, r5, r6, r7, pc}
 2315              	.LVL344:
 2316              	.L194:
 853:..\..\..\..\..\..\Dev\Library embedded l2c display\u8g2\csrc/u8x8_cad.c ****     case U8X8_MSG_CAD_SEND_DATA:
 854:..\..\..\..\..\..\Dev\Library embedded l2c display\u8g2\csrc/u8x8_cad.c ****       if ( in_transfer != 0 )
 2317              		.loc 1 854 0
 2318 00b2 2D4B     		ldr	r3, .L209
 2319 00b4 DB7C     		ldrb	r3, [r3, #19]	@ zero_extendqisi2
 2320 00b6 83B1     		cbz	r3, .L201
 855:..\..\..\..\..\..\Dev\Library embedded l2c display\u8g2\csrc/u8x8_cad.c ****       {
 856:..\..\..\..\..\..\Dev\Library embedded l2c display\u8g2\csrc/u8x8_cad.c **** 	if ( is_data == 0 )
 2321              		.loc 1 856 0
 2322 00b8 2B4B     		ldr	r3, .L209
 2323 00ba 1B7D     		ldrb	r3, [r3, #20]	@ zero_extendqisi2
 2324 00bc BBB9     		cbnz	r3, .L202
 857:..\..\..\..\..\..\Dev\Library embedded l2c display\u8g2\csrc/u8x8_cad.c **** 	{
 858:..\..\..\..\..\..\Dev\Library embedded l2c display\u8g2\csrc/u8x8_cad.c **** 	  /* transfer mode is active, but data transfer */
 859:..\..\..\..\..\..\Dev\Library embedded l2c display\u8g2\csrc/u8x8_cad.c **** 	  u8x8_byte_EndTransfer(u8x8); 
 2325              		.loc 1 859 0
 2326 00be FFF7FEFF 		bl	u8x8_byte_EndTransfer
 2327              	.LVL345:
 860:..\..\..\..\..\..\Dev\Library embedded l2c display\u8g2\csrc/u8x8_cad.c **** 	  /* clear the lowest two bits of the adr */
 861:..\..\..\..\..\..\Dev\Library embedded l2c display\u8g2\csrc/u8x8_cad.c **** 	  u8x8_SetI2CAddress( u8x8, (u8x8_GetI2CAddress(u8x8)&0x0fc)|2 );
 2328              		.loc 1 861 0
 2329 00c2 95F82430 		ldrb	r3, [r5, #36]	@ zero_extendqisi2
 2330 00c6 23F00303 		bic	r3, r3, #3
 2331 00ca 43F00203 		orr	r3, r3, #2
 2332 00ce 85F82430 		strb	r3, [r5, #36]
 862:..\..\..\..\..\..\Dev\Library embedded l2c display\u8g2\csrc/u8x8_cad.c **** 	  u8x8_byte_StartTransfer(u8x8); 
 2333              		.loc 1 862 0
 2334 00d2 2846     		mov	r0, r5
 2335 00d4 FFF7FEFF 		bl	u8x8_byte_StartTransfer
 2336              	.LVL346:
 2337 00d8 09E0     		b	.L202
 2338              	.LVL347:
 2339              	.L201:
 863:..\..\..\..\..\..\Dev\Library embedded l2c display\u8g2\csrc/u8x8_cad.c **** 	}
 864:..\..\..\..\..\..\Dev\Library embedded l2c display\u8g2\csrc/u8x8_cad.c ****       }
 865:..\..\..\..\..\..\Dev\Library embedded l2c display\u8g2\csrc/u8x8_cad.c ****       else
 866:..\..\..\..\..\..\Dev\Library embedded l2c display\u8g2\csrc/u8x8_cad.c ****       {
 867:..\..\..\..\..\..\Dev\Library embedded l2c display\u8g2\csrc/u8x8_cad.c **** 	/* clear the lowest two bits of the adr */
 868:..\..\..\..\..\..\Dev\Library embedded l2c display\u8g2\csrc/u8x8_cad.c **** 	u8x8_SetI2CAddress( u8x8, (u8x8_GetI2CAddress(u8x8)&0x0fc)|2 );
ARM GAS  C:\Users\Abude\AppData\Local\Temp\cc3E6hY2.s 			page 62


 2340              		.loc 1 868 0
 2341 00da 90F82430 		ldrb	r3, [r0, #36]	@ zero_extendqisi2
 2342 00de 23F00303 		bic	r3, r3, #3
 2343 00e2 43F00203 		orr	r3, r3, #2
 2344 00e6 80F82430 		strb	r3, [r0, #36]
 869:..\..\..\..\..\..\Dev\Library embedded l2c display\u8g2\csrc/u8x8_cad.c **** 	u8x8_byte_StartTransfer(u8x8);
 2345              		.loc 1 869 0
 2346 00ea FFF7FEFF 		bl	u8x8_byte_StartTransfer
 2347              	.LVL348:
 2348              	.L202:
 870:..\..\..\..\..\..\Dev\Library embedded l2c display\u8g2\csrc/u8x8_cad.c ****       }
 871:..\..\..\..\..\..\Dev\Library embedded l2c display\u8g2\csrc/u8x8_cad.c ****       in_transfer = 1;
 2349              		.loc 1 871 0
 2350 00ee 1E4B     		ldr	r3, .L209
 2351 00f0 0122     		movs	r2, #1
 2352 00f2 DA74     		strb	r2, [r3, #19]
 872:..\..\..\..\..\..\Dev\Library embedded l2c display\u8g2\csrc/u8x8_cad.c ****       is_data = 1;
 2353              		.loc 1 872 0
 2354 00f4 1A75     		strb	r2, [r3, #20]
 2355              	.LVL349:
 873:..\..\..\..\..\..\Dev\Library embedded l2c display\u8g2\csrc/u8x8_cad.c ****       
 874:..\..\..\..\..\..\Dev\Library embedded l2c display\u8g2\csrc/u8x8_cad.c ****       p = arg_ptr;
 875:..\..\..\..\..\..\Dev\Library embedded l2c display\u8g2\csrc/u8x8_cad.c ****       while( arg_int > 24 )
 2356              		.loc 1 875 0
 2357 00f6 0EE0     		b	.L203
 2358              	.LVL350:
 2359              	.L204:
 876:..\..\..\..\..\..\Dev\Library embedded l2c display\u8g2\csrc/u8x8_cad.c ****       {
 877:..\..\..\..\..\..\Dev\Library embedded l2c display\u8g2\csrc/u8x8_cad.c **** 	u8x8->byte_cb(u8x8, U8X8_MSG_CAD_SEND_DATA, 24, p);
 2360              		.loc 1 877 0
 2361 00f8 2F69     		ldr	r7, [r5, #16]
 2362 00fa 3346     		mov	r3, r6
 2363 00fc 1822     		movs	r2, #24
 2364 00fe 1721     		movs	r1, #23
 2365 0100 2846     		mov	r0, r5
 2366 0102 B847     		blx	r7
 2367              	.LVL351:
 878:..\..\..\..\..\..\Dev\Library embedded l2c display\u8g2\csrc/u8x8_cad.c **** 	arg_int-=24;
 2368              		.loc 1 878 0
 2369 0104 183C     		subs	r4, r4, #24
 2370              	.LVL352:
 2371 0106 E4B2     		uxtb	r4, r4
 2372              	.LVL353:
 879:..\..\..\..\..\..\Dev\Library embedded l2c display\u8g2\csrc/u8x8_cad.c **** 	p+=24;
 2373              		.loc 1 879 0
 2374 0108 1836     		adds	r6, r6, #24
 2375              	.LVL354:
 880:..\..\..\..\..\..\Dev\Library embedded l2c display\u8g2\csrc/u8x8_cad.c **** 	u8x8_byte_EndTransfer(u8x8); 
 2376              		.loc 1 880 0
 2377 010a 2846     		mov	r0, r5
 2378 010c FFF7FEFF 		bl	u8x8_byte_EndTransfer
 2379              	.LVL355:
 881:..\..\..\..\..\..\Dev\Library embedded l2c display\u8g2\csrc/u8x8_cad.c **** 	u8x8_byte_StartTransfer(u8x8);
 2380              		.loc 1 881 0
 2381 0110 2846     		mov	r0, r5
 2382 0112 FFF7FEFF 		bl	u8x8_byte_StartTransfer
 2383              	.LVL356:
ARM GAS  C:\Users\Abude\AppData\Local\Temp\cc3E6hY2.s 			page 63


 2384              	.L203:
 875:..\..\..\..\..\..\Dev\Library embedded l2c display\u8g2\csrc/u8x8_cad.c ****       {
 2385              		.loc 1 875 0
 2386 0116 182C     		cmp	r4, #24
 2387 0118 EED8     		bhi	.L204
 882:..\..\..\..\..\..\Dev\Library embedded l2c display\u8g2\csrc/u8x8_cad.c ****       }
 883:..\..\..\..\..\..\Dev\Library embedded l2c display\u8g2\csrc/u8x8_cad.c ****       u8x8->byte_cb(u8x8, U8X8_MSG_CAD_SEND_DATA, arg_int, p);
 2388              		.loc 1 883 0
 2389 011a 2F69     		ldr	r7, [r5, #16]
 2390 011c 3346     		mov	r3, r6
 2391 011e 2246     		mov	r2, r4
 2392 0120 1721     		movs	r1, #23
 2393 0122 2846     		mov	r0, r5
 2394 0124 B847     		blx	r7
 2395              	.LVL357:
 884:..\..\..\..\..\..\Dev\Library embedded l2c display\u8g2\csrc/u8x8_cad.c ****       
 885:..\..\..\..\..\..\Dev\Library embedded l2c display\u8g2\csrc/u8x8_cad.c ****       break;
 886:..\..\..\..\..\..\Dev\Library embedded l2c display\u8g2\csrc/u8x8_cad.c ****     case U8X8_MSG_CAD_INIT:
 887:..\..\..\..\..\..\Dev\Library embedded l2c display\u8g2\csrc/u8x8_cad.c ****       /* apply default i2c adr if required so that the start transfer msg can use this */
 888:..\..\..\..\..\..\Dev\Library embedded l2c display\u8g2\csrc/u8x8_cad.c ****       if ( u8x8->i2c_address == 255 )
 889:..\..\..\..\..\..\Dev\Library embedded l2c display\u8g2\csrc/u8x8_cad.c **** 	u8x8->i2c_address = 0x078;  /* see also https://github.com/olikraus/u8g2/issues/371 for a discussi
 890:..\..\..\..\..\..\Dev\Library embedded l2c display\u8g2\csrc/u8x8_cad.c ****       return u8x8->byte_cb(u8x8, msg, arg_int, arg_ptr);
 891:..\..\..\..\..\..\Dev\Library embedded l2c display\u8g2\csrc/u8x8_cad.c ****     case U8X8_MSG_CAD_START_TRANSFER:
 892:..\..\..\..\..\..\Dev\Library embedded l2c display\u8g2\csrc/u8x8_cad.c ****       in_transfer = 0;    
 893:..\..\..\..\..\..\Dev\Library embedded l2c display\u8g2\csrc/u8x8_cad.c ****       /* actual start is delayed, because we do not whether this is data or cmd transfer */
 894:..\..\..\..\..\..\Dev\Library embedded l2c display\u8g2\csrc/u8x8_cad.c ****       break;
 895:..\..\..\..\..\..\Dev\Library embedded l2c display\u8g2\csrc/u8x8_cad.c ****     case U8X8_MSG_CAD_END_TRANSFER:
 896:..\..\..\..\..\..\Dev\Library embedded l2c display\u8g2\csrc/u8x8_cad.c ****       if ( in_transfer != 0 )
 897:..\..\..\..\..\..\Dev\Library embedded l2c display\u8g2\csrc/u8x8_cad.c **** 	u8x8_byte_EndTransfer(u8x8);
 898:..\..\..\..\..\..\Dev\Library embedded l2c display\u8g2\csrc/u8x8_cad.c ****       in_transfer = 0;
 899:..\..\..\..\..\..\Dev\Library embedded l2c display\u8g2\csrc/u8x8_cad.c ****       break;
 900:..\..\..\..\..\..\Dev\Library embedded l2c display\u8g2\csrc/u8x8_cad.c ****     default:
 901:..\..\..\..\..\..\Dev\Library embedded l2c display\u8g2\csrc/u8x8_cad.c ****       return 0;
 902:..\..\..\..\..\..\Dev\Library embedded l2c display\u8g2\csrc/u8x8_cad.c ****   }
 903:..\..\..\..\..\..\Dev\Library embedded l2c display\u8g2\csrc/u8x8_cad.c ****   return 1;
 2396              		.loc 1 903 0
 2397 0126 0120     		movs	r0, #1
 885:..\..\..\..\..\..\Dev\Library embedded l2c display\u8g2\csrc/u8x8_cad.c ****     case U8X8_MSG_CAD_INIT:
 2398              		.loc 1 885 0
 2399 0128 F8BD     		pop	{r3, r4, r5, r6, r7, pc}
 2400              	.LVL358:
 2401              	.L190:
 888:..\..\..\..\..\..\Dev\Library embedded l2c display\u8g2\csrc/u8x8_cad.c **** 	u8x8->i2c_address = 0x078;  /* see also https://github.com/olikraus/u8g2/issues/371 for a discussi
 2402              		.loc 1 888 0
 2403 012a 90F82430 		ldrb	r3, [r0, #36]	@ zero_extendqisi2
 2404 012e FF2B     		cmp	r3, #255
 2405 0130 02D1     		bne	.L205
 889:..\..\..\..\..\..\Dev\Library embedded l2c display\u8g2\csrc/u8x8_cad.c ****       return u8x8->byte_cb(u8x8, msg, arg_int, arg_ptr);
 2406              		.loc 1 889 0
 2407 0132 7823     		movs	r3, #120
 2408 0134 80F82430 		strb	r3, [r0, #36]
 2409              	.L205:
 890:..\..\..\..\..\..\Dev\Library embedded l2c display\u8g2\csrc/u8x8_cad.c ****     case U8X8_MSG_CAD_START_TRANSFER:
 2410              		.loc 1 890 0
 2411 0138 2F69     		ldr	r7, [r5, #16]
 2412 013a 3346     		mov	r3, r6
 2413 013c 2246     		mov	r2, r4
ARM GAS  C:\Users\Abude\AppData\Local\Temp\cc3E6hY2.s 			page 64


 2414 013e 2846     		mov	r0, r5
 2415              	.LVL359:
 2416 0140 B847     		blx	r7
 2417              	.LVL360:
 2418 0142 F8BD     		pop	{r3, r4, r5, r6, r7, pc}
 2419              	.LVL361:
 2420              	.L195:
 892:..\..\..\..\..\..\Dev\Library embedded l2c display\u8g2\csrc/u8x8_cad.c ****       /* actual start is delayed, because we do not whether this is data or cmd transfer */
 2421              		.loc 1 892 0
 2422 0144 0022     		movs	r2, #0
 2423 0146 084B     		ldr	r3, .L209
 2424 0148 DA74     		strb	r2, [r3, #19]
 2425              		.loc 1 903 0
 2426 014a 0120     		movs	r0, #1
 2427              	.LVL362:
 894:..\..\..\..\..\..\Dev\Library embedded l2c display\u8g2\csrc/u8x8_cad.c ****     case U8X8_MSG_CAD_END_TRANSFER:
 2428              		.loc 1 894 0
 2429 014c F8BD     		pop	{r3, r4, r5, r6, r7, pc}
 2430              	.LVL363:
 2431              	.L196:
 896:..\..\..\..\..\..\Dev\Library embedded l2c display\u8g2\csrc/u8x8_cad.c **** 	u8x8_byte_EndTransfer(u8x8);
 2432              		.loc 1 896 0
 2433 014e 064B     		ldr	r3, .L209
 2434 0150 DB7C     		ldrb	r3, [r3, #19]	@ zero_extendqisi2
 2435 0152 0BB1     		cbz	r3, .L206
 897:..\..\..\..\..\..\Dev\Library embedded l2c display\u8g2\csrc/u8x8_cad.c ****       in_transfer = 0;
 2436              		.loc 1 897 0
 2437 0154 FFF7FEFF 		bl	u8x8_byte_EndTransfer
 2438              	.LVL364:
 2439              	.L206:
 898:..\..\..\..\..\..\Dev\Library embedded l2c display\u8g2\csrc/u8x8_cad.c ****       break;
 2440              		.loc 1 898 0
 2441 0158 0022     		movs	r2, #0
 2442 015a 034B     		ldr	r3, .L209
 2443 015c DA74     		strb	r2, [r3, #19]
 2444              		.loc 1 903 0
 2445 015e 0120     		movs	r0, #1
 899:..\..\..\..\..\..\Dev\Library embedded l2c display\u8g2\csrc/u8x8_cad.c ****     default:
 2446              		.loc 1 899 0
 2447 0160 F8BD     		pop	{r3, r4, r5, r6, r7, pc}
 2448              	.LVL365:
 2449              	.L207:
 901:..\..\..\..\..\..\Dev\Library embedded l2c display\u8g2\csrc/u8x8_cad.c ****   }
 2450              		.loc 1 901 0
 2451 0162 0020     		movs	r0, #0
 2452              	.LVL366:
 904:..\..\..\..\..\..\Dev\Library embedded l2c display\u8g2\csrc/u8x8_cad.c **** }
 2453              		.loc 1 904 0
 2454 0164 F8BD     		pop	{r3, r4, r5, r6, r7, pc}
 2455              	.LVL367:
 2456              	.L210:
 2457 0166 00BF     		.align	2
 2458              	.L209:
 2459 0168 00000000 		.word	.LANCHOR0
 2460              		.cfi_endproc
 2461              	.LFE22:
 2462              		.size	u8x8_cad_uc1638_i2c, .-u8x8_cad_uc1638_i2c
ARM GAS  C:\Users\Abude\AppData\Local\Temp\cc3E6hY2.s 			page 65


 2463              		.bss
 2464              		.align	2
 2465              		.set	.LANCHOR0,. + 0
 2466              		.type	buf.5841, %object
 2467              		.size	buf.5841, 16
 2468              	buf.5841:
 2469 0000 00000000 		.space	16
 2469      00000000 
 2469      00000000 
 2469      00000000 
 2470              		.type	in_transfer.5892, %object
 2471              		.size	in_transfer.5892, 1
 2472              	in_transfer.5892:
 2473 0010 00       		.space	1
 2474              		.type	in_transfer.5929, %object
 2475              		.size	in_transfer.5929, 1
 2476              	in_transfer.5929:
 2477 0011 00       		.space	1
 2478              		.type	in_transfer.5948, %object
 2479              		.size	in_transfer.5948, 1
 2480              	in_transfer.5948:
 2481 0012 00       		.space	1
 2482              		.type	in_transfer.5968, %object
 2483              		.size	in_transfer.5968, 1
 2484              	in_transfer.5968:
 2485 0013 00       		.space	1
 2486              		.type	is_data.5969, %object
 2487              		.size	is_data.5969, 1
 2488              	is_data.5969:
 2489 0014 00       		.space	1
 2490              		.text
 2491              	.Letext0:
 2492              		.file 2 "c:\\program files (x86)\\cypress\\psoc creator\\4.4\\psoc creator\\import\\gnu\\arm\\5.4.
 2493              		.file 3 "c:\\program files (x86)\\cypress\\psoc creator\\4.4\\psoc creator\\import\\gnu\\arm\\5.4.
 2494              		.file 4 "c:\\program files (x86)\\cypress\\psoc creator\\4.4\\psoc creator\\import\\gnu\\arm\\5.4.
 2495              		.file 5 "c:\\dev\\library embedded l2c display\\u8g2\\csrc\\u8x8.h"
 2496              		.file 6 "<built-in>"