ARM GAS  C:\Users\Abude\AppData\Local\Temp\ccISThNP.s 			page 1


   1              		.syntax unified
   2              		.cpu cortex-m3
   3              		.fpu softvfp
   4              		.eabi_attribute 20, 1
   5              		.eabi_attribute 21, 1
   6              		.eabi_attribute 23, 3
   7              		.eabi_attribute 24, 1
   8              		.eabi_attribute 25, 1
   9              		.eabi_attribute 26, 1
  10              		.eabi_attribute 30, 1
  11              		.eabi_attribute 34, 1
  12              		.eabi_attribute 18, 4
  13              		.thumb
  14              		.syntax unified
  15              		.file	"u8x8_d_uc1609.c"
  16              		.text
  17              	.Ltext0:
  18              		.cfi_sections	.debug_frame
  19              		.section	.text.u8x8_d_uc1609_slg19264,"ax",%progbits
  20              		.align	2
  21              		.global	u8x8_d_uc1609_slg19264
  22              		.thumb
  23              		.thumb_func
  24              		.type	u8x8_d_uc1609_slg19264, %function
  25              	u8x8_d_uc1609_slg19264:
  26              	.LFB0:
  27              		.file 1 "..\\..\\..\\..\\..\\..\\Dev\\Library embedded l2c display\\u8g2\\csrc\\u8x8_d_uc1609.c"
   1:..\..\..\..\..\..\Dev\Library embedded l2c display\u8g2\csrc/u8x8_d_uc1609.c **** /*
   2:..\..\..\..\..\..\Dev\Library embedded l2c display\u8g2\csrc/u8x8_d_uc1609.c **** 
   3:..\..\..\..\..\..\Dev\Library embedded l2c display\u8g2\csrc/u8x8_d_uc1609.c ****   u8x8_d_uc1609.c
   4:..\..\..\..\..\..\Dev\Library embedded l2c display\u8g2\csrc/u8x8_d_uc1609.c ****   
   5:..\..\..\..\..\..\Dev\Library embedded l2c display\u8g2\csrc/u8x8_d_uc1609.c ****   Universal 8bit Graphics Library (https://github.com/olikraus/u8g2/)
   6:..\..\..\..\..\..\Dev\Library embedded l2c display\u8g2\csrc/u8x8_d_uc1609.c **** 
   7:..\..\..\..\..\..\Dev\Library embedded l2c display\u8g2\csrc/u8x8_d_uc1609.c ****   Copyright (c) 2021, olikraus@gmail.com
   8:..\..\..\..\..\..\Dev\Library embedded l2c display\u8g2\csrc/u8x8_d_uc1609.c ****   All rights reserved.
   9:..\..\..\..\..\..\Dev\Library embedded l2c display\u8g2\csrc/u8x8_d_uc1609.c **** 
  10:..\..\..\..\..\..\Dev\Library embedded l2c display\u8g2\csrc/u8x8_d_uc1609.c ****   Redistribution and use in source and binary forms, with or without modification, 
  11:..\..\..\..\..\..\Dev\Library embedded l2c display\u8g2\csrc/u8x8_d_uc1609.c ****   are permitted provided that the following conditions are met:
  12:..\..\..\..\..\..\Dev\Library embedded l2c display\u8g2\csrc/u8x8_d_uc1609.c **** 
  13:..\..\..\..\..\..\Dev\Library embedded l2c display\u8g2\csrc/u8x8_d_uc1609.c ****   * Redistributions of source code must retain the above copyright notice, this list 
  14:..\..\..\..\..\..\Dev\Library embedded l2c display\u8g2\csrc/u8x8_d_uc1609.c ****     of conditions and the following disclaimer.
  15:..\..\..\..\..\..\Dev\Library embedded l2c display\u8g2\csrc/u8x8_d_uc1609.c ****     
  16:..\..\..\..\..\..\Dev\Library embedded l2c display\u8g2\csrc/u8x8_d_uc1609.c ****   * Redistributions in binary form must reproduce the above copyright notice, this 
  17:..\..\..\..\..\..\Dev\Library embedded l2c display\u8g2\csrc/u8x8_d_uc1609.c ****     list of conditions and the following disclaimer in the documentation and/or other 
  18:..\..\..\..\..\..\Dev\Library embedded l2c display\u8g2\csrc/u8x8_d_uc1609.c ****     materials provided with the distribution.
  19:..\..\..\..\..\..\Dev\Library embedded l2c display\u8g2\csrc/u8x8_d_uc1609.c **** 
  20:..\..\..\..\..\..\Dev\Library embedded l2c display\u8g2\csrc/u8x8_d_uc1609.c ****   THIS SOFTWARE IS PROVIDED BY THE COPYRIGHT HOLDERS AND 
  21:..\..\..\..\..\..\Dev\Library embedded l2c display\u8g2\csrc/u8x8_d_uc1609.c ****   CONTRIBUTORS "AS IS" AND ANY EXPRESS OR IMPLIED WARRANTIES, 
  22:..\..\..\..\..\..\Dev\Library embedded l2c display\u8g2\csrc/u8x8_d_uc1609.c ****   INCLUDING, BUT NOT LIMITED TO, THE IMPLIED WARRANTIES OF 
  23:..\..\..\..\..\..\Dev\Library embedded l2c display\u8g2\csrc/u8x8_d_uc1609.c ****   MERCHANTABILITY AND FITNESS FOR A PARTICULAR PURPOSE ARE 
  24:..\..\..\..\..\..\Dev\Library embedded l2c display\u8g2\csrc/u8x8_d_uc1609.c ****   DISCLAIMED. IN NO EVENT SHALL THE COPYRIGHT HOLDER OR 
  25:..\..\..\..\..\..\Dev\Library embedded l2c display\u8g2\csrc/u8x8_d_uc1609.c ****   CONTRIBUTORS BE LIABLE FOR ANY DIRECT, INDIRECT, INCIDENTAL, 
  26:..\..\..\..\..\..\Dev\Library embedded l2c display\u8g2\csrc/u8x8_d_uc1609.c ****   SPECIAL, EXEMPLARY, OR CONSEQUENTIAL DAMAGES (INCLUDING, BUT 
  27:..\..\..\..\..\..\Dev\Library embedded l2c display\u8g2\csrc/u8x8_d_uc1609.c ****   NOT LIMITED TO, PROCUREMENT OF SUBSTITUTE GOODS OR SERVICES; 
  28:..\..\..\..\..\..\Dev\Library embedded l2c display\u8g2\csrc/u8x8_d_uc1609.c ****   LOSS OF USE, DATA, OR PROFITS; OR BUSINESS INTERRUPTION) HOWEVER 
  29:..\..\..\..\..\..\Dev\Library embedded l2c display\u8g2\csrc/u8x8_d_uc1609.c ****   CAUSED AND ON ANY THEORY OF LIABILITY, WHETHER IN CONTRACT, 
  30:..\..\..\..\..\..\Dev\Library embedded l2c display\u8g2\csrc/u8x8_d_uc1609.c ****   STRICT LIABILITY, OR TORT (INCLUDING NEGLIGENCE OR OTHERWISE) 
ARM GAS  C:\Users\Abude\AppData\Local\Temp\ccISThNP.s 			page 2


  31:..\..\..\..\..\..\Dev\Library embedded l2c display\u8g2\csrc/u8x8_d_uc1609.c ****   ARISING IN ANY WAY OUT OF THE USE OF THIS SOFTWARE, EVEN IF 
  32:..\..\..\..\..\..\Dev\Library embedded l2c display\u8g2\csrc/u8x8_d_uc1609.c ****   ADVISED OF THE POSSIBILITY OF SUCH DAMAGE.  
  33:..\..\..\..\..\..\Dev\Library embedded l2c display\u8g2\csrc/u8x8_d_uc1609.c **** 
  34:..\..\..\..\..\..\Dev\Library embedded l2c display\u8g2\csrc/u8x8_d_uc1609.c **** 
  35:..\..\..\..\..\..\Dev\Library embedded l2c display\u8g2\csrc/u8x8_d_uc1609.c ****   https://github.com/olikraus/u8g2/issues/1565
  36:..\..\..\..\..\..\Dev\Library embedded l2c display\u8g2\csrc/u8x8_d_uc1609.c **** 
  37:..\..\..\..\..\..\Dev\Library embedded l2c display\u8g2\csrc/u8x8_d_uc1609.c ****   cad001
  38:..\..\..\..\..\..\Dev\Library embedded l2c display\u8g2\csrc/u8x8_d_uc1609.c ****   
  39:..\..\..\..\..\..\Dev\Library embedded l2c display\u8g2\csrc/u8x8_d_uc1609.c ****   
  40:..\..\..\..\..\..\Dev\Library embedded l2c display\u8g2\csrc/u8x8_d_uc1609.c **** */
  41:..\..\..\..\..\..\Dev\Library embedded l2c display\u8g2\csrc/u8x8_d_uc1609.c **** #include "u8x8.h"
  42:..\..\..\..\..\..\Dev\Library embedded l2c display\u8g2\csrc/u8x8_d_uc1609.c **** 
  43:..\..\..\..\..\..\Dev\Library embedded l2c display\u8g2\csrc/u8x8_d_uc1609.c **** 
  44:..\..\..\..\..\..\Dev\Library embedded l2c display\u8g2\csrc/u8x8_d_uc1609.c **** static const uint8_t u8x8_d_uc1609_19264_init_seq[] = {
  45:..\..\..\..\..\..\Dev\Library embedded l2c display\u8g2\csrc/u8x8_d_uc1609.c ****     
  46:..\..\..\..\..\..\Dev\Library embedded l2c display\u8g2\csrc/u8x8_d_uc1609.c ****   U8X8_START_TRANSFER(),             	/* enable chip, delay is part of the transfer start */
  47:..\..\..\..\..\..\Dev\Library embedded l2c display\u8g2\csrc/u8x8_d_uc1609.c **** 
  48:..\..\..\..\..\..\Dev\Library embedded l2c display\u8g2\csrc/u8x8_d_uc1609.c ****   U8X8_CA(0x0f1, 63),		/* set COM end (display height-1) */
  49:..\..\..\..\..\..\Dev\Library embedded l2c display\u8g2\csrc/u8x8_d_uc1609.c ****   U8X8_C(0x0c0),            			/* SEG & COM normal */
  50:..\..\..\..\..\..\Dev\Library embedded l2c display\u8g2\csrc/u8x8_d_uc1609.c ****   U8X8_C(0x040),            			/* set scroll line to zero */
  51:..\..\..\..\..\..\Dev\Library embedded l2c display\u8g2\csrc/u8x8_d_uc1609.c ****   U8X8_C(0x02e),            			/* chare pump */
  52:..\..\..\..\..\..\Dev\Library embedded l2c display\u8g2\csrc/u8x8_d_uc1609.c ****   U8X8_C(0x0eb),            			/* set bias 1/2 */  
  53:..\..\..\..\..\..\Dev\Library embedded l2c display\u8g2\csrc/u8x8_d_uc1609.c ****   U8X8_CA(0x081, 0x08f),            	/* set contrast */
  54:..\..\..\..\..\..\Dev\Library embedded l2c display\u8g2\csrc/u8x8_d_uc1609.c ****   
  55:..\..\..\..\..\..\Dev\Library embedded l2c display\u8g2\csrc/u8x8_d_uc1609.c ****   /*
  56:..\..\..\..\..\..\Dev\Library embedded l2c display\u8g2\csrc/u8x8_d_uc1609.c ****     AC0:	0: stop at boundary, 1: increment by one
  57:..\..\..\..\..\..\Dev\Library embedded l2c display\u8g2\csrc/u8x8_d_uc1609.c ****     AC1: 	0: first column then page, 1: first page, then column increment
  58:..\..\..\..\..\..\Dev\Library embedded l2c display\u8g2\csrc/u8x8_d_uc1609.c ****     AC2:	0: increment page adr, 1: decrement page adr.
  59:..\..\..\..\..\..\Dev\Library embedded l2c display\u8g2\csrc/u8x8_d_uc1609.c ****   */
  60:..\..\..\..\..\..\Dev\Library embedded l2c display\u8g2\csrc/u8x8_d_uc1609.c ****   U8X8_C(0x088),            			/* set auto increment, low bits are AC2 AC1 AC0 */
  61:..\..\..\..\..\..\Dev\Library embedded l2c display\u8g2\csrc/u8x8_d_uc1609.c ****   U8X8_C(0x0a1),            			/* frame rate 95Hz */
  62:..\..\..\..\..\..\Dev\Library embedded l2c display\u8g2\csrc/u8x8_d_uc1609.c ****   
  63:..\..\..\..\..\..\Dev\Library embedded l2c display\u8g2\csrc/u8x8_d_uc1609.c ****   
  64:..\..\..\..\..\..\Dev\Library embedded l2c display\u8g2\csrc/u8x8_d_uc1609.c ****   /*
  65:..\..\..\..\..\..\Dev\Library embedded l2c display\u8g2\csrc/u8x8_d_uc1609.c ****     LC0:	0
  66:..\..\..\..\..\..\Dev\Library embedded l2c display\u8g2\csrc/u8x8_d_uc1609.c ****     MX:	Mirror X
  67:..\..\..\..\..\..\Dev\Library embedded l2c display\u8g2\csrc/u8x8_d_uc1609.c ****     MY:	Mirror Y
  68:..\..\..\..\..\..\Dev\Library embedded l2c display\u8g2\csrc/u8x8_d_uc1609.c ****   */  
  69:..\..\..\..\..\..\Dev\Library embedded l2c display\u8g2\csrc/u8x8_d_uc1609.c ****   U8X8_C(0x0c4),            			/* low bits are MY, MX, LC0 */
  70:..\..\..\..\..\..\Dev\Library embedded l2c display\u8g2\csrc/u8x8_d_uc1609.c ****   
  71:..\..\..\..\..\..\Dev\Library embedded l2c display\u8g2\csrc/u8x8_d_uc1609.c ****   U8X8_C(0x0a6),            			/* set normal pixel mode (not inverse) */
  72:..\..\..\..\..\..\Dev\Library embedded l2c display\u8g2\csrc/u8x8_d_uc1609.c ****   U8X8_C(0x0a4),            			/* set normal pixel mode (not all on) */
  73:..\..\..\..\..\..\Dev\Library embedded l2c display\u8g2\csrc/u8x8_d_uc1609.c **** 
  74:..\..\..\..\..\..\Dev\Library embedded l2c display\u8g2\csrc/u8x8_d_uc1609.c ****   U8X8_END_TRANSFER(),             	/* disable chip */
  75:..\..\..\..\..\..\Dev\Library embedded l2c display\u8g2\csrc/u8x8_d_uc1609.c ****   U8X8_END()             			/* end of sequence */
  76:..\..\..\..\..\..\Dev\Library embedded l2c display\u8g2\csrc/u8x8_d_uc1609.c **** };
  77:..\..\..\..\..\..\Dev\Library embedded l2c display\u8g2\csrc/u8x8_d_uc1609.c **** 
  78:..\..\..\..\..\..\Dev\Library embedded l2c display\u8g2\csrc/u8x8_d_uc1609.c **** static const uint8_t u8x8_d_uc1609_19264_powersave0_seq[] = {
  79:..\..\..\..\..\..\Dev\Library embedded l2c display\u8g2\csrc/u8x8_d_uc1609.c ****   U8X8_START_TRANSFER(),             	/* enable chip, delay is part of the transfer start */
  80:..\..\..\..\..\..\Dev\Library embedded l2c display\u8g2\csrc/u8x8_d_uc1609.c ****   U8X8_C(0x0af),		                /* display on, UC1609 */
  81:..\..\..\..\..\..\Dev\Library embedded l2c display\u8g2\csrc/u8x8_d_uc1609.c ****   U8X8_END_TRANSFER(),             	/* disable chip */
  82:..\..\..\..\..\..\Dev\Library embedded l2c display\u8g2\csrc/u8x8_d_uc1609.c ****   U8X8_END()             			/* end of sequence */
  83:..\..\..\..\..\..\Dev\Library embedded l2c display\u8g2\csrc/u8x8_d_uc1609.c **** };
  84:..\..\..\..\..\..\Dev\Library embedded l2c display\u8g2\csrc/u8x8_d_uc1609.c **** 
  85:..\..\..\..\..\..\Dev\Library embedded l2c display\u8g2\csrc/u8x8_d_uc1609.c **** static const uint8_t u8x8_d_uc1609_19264_powersave1_seq[] = {
  86:..\..\..\..\..\..\Dev\Library embedded l2c display\u8g2\csrc/u8x8_d_uc1609.c ****   U8X8_START_TRANSFER(),             	/* enable chip, delay is part of the transfer start */
  87:..\..\..\..\..\..\Dev\Library embedded l2c display\u8g2\csrc/u8x8_d_uc1609.c ****   U8X8_C(0x0ae),		                /* display off,  UC1609 */
ARM GAS  C:\Users\Abude\AppData\Local\Temp\ccISThNP.s 			page 3


  88:..\..\..\..\..\..\Dev\Library embedded l2c display\u8g2\csrc/u8x8_d_uc1609.c ****   U8X8_END_TRANSFER(),             	/* disable chip */
  89:..\..\..\..\..\..\Dev\Library embedded l2c display\u8g2\csrc/u8x8_d_uc1609.c ****   U8X8_END()             			/* end of sequence */
  90:..\..\..\..\..\..\Dev\Library embedded l2c display\u8g2\csrc/u8x8_d_uc1609.c **** };
  91:..\..\..\..\..\..\Dev\Library embedded l2c display\u8g2\csrc/u8x8_d_uc1609.c **** 
  92:..\..\..\..\..\..\Dev\Library embedded l2c display\u8g2\csrc/u8x8_d_uc1609.c **** static const uint8_t u8x8_d_uc1609_19264_flip0_seq[] = {
  93:..\..\..\..\..\..\Dev\Library embedded l2c display\u8g2\csrc/u8x8_d_uc1609.c ****   U8X8_START_TRANSFER(),             	/* enable chip, delay is part of the transfer start */
  94:..\..\..\..\..\..\Dev\Library embedded l2c display\u8g2\csrc/u8x8_d_uc1609.c ****   /*
  95:..\..\..\..\..\..\Dev\Library embedded l2c display\u8g2\csrc/u8x8_d_uc1609.c ****     LC0:	0
  96:..\..\..\..\..\..\Dev\Library embedded l2c display\u8g2\csrc/u8x8_d_uc1609.c ****     MX:	Mirror X
  97:..\..\..\..\..\..\Dev\Library embedded l2c display\u8g2\csrc/u8x8_d_uc1609.c ****     MY:	Mirror Y
  98:..\..\..\..\..\..\Dev\Library embedded l2c display\u8g2\csrc/u8x8_d_uc1609.c ****   */  
  99:..\..\..\..\..\..\Dev\Library embedded l2c display\u8g2\csrc/u8x8_d_uc1609.c ****   U8X8_C(0x0c4),            			/* low bits are MY, MX, LC0 */
 100:..\..\..\..\..\..\Dev\Library embedded l2c display\u8g2\csrc/u8x8_d_uc1609.c ****   U8X8_END_TRANSFER(),             	/* disable chip */
 101:..\..\..\..\..\..\Dev\Library embedded l2c display\u8g2\csrc/u8x8_d_uc1609.c ****   U8X8_END()             			/* end of sequence */
 102:..\..\..\..\..\..\Dev\Library embedded l2c display\u8g2\csrc/u8x8_d_uc1609.c **** };
 103:..\..\..\..\..\..\Dev\Library embedded l2c display\u8g2\csrc/u8x8_d_uc1609.c **** 
 104:..\..\..\..\..\..\Dev\Library embedded l2c display\u8g2\csrc/u8x8_d_uc1609.c **** static const uint8_t u8x8_d_uc1609_19264_flip1_seq[] = {
 105:..\..\..\..\..\..\Dev\Library embedded l2c display\u8g2\csrc/u8x8_d_uc1609.c ****   U8X8_START_TRANSFER(),             	/* enable chip, delay is part of the transfer start */
 106:..\..\..\..\..\..\Dev\Library embedded l2c display\u8g2\csrc/u8x8_d_uc1609.c ****   /*
 107:..\..\..\..\..\..\Dev\Library embedded l2c display\u8g2\csrc/u8x8_d_uc1609.c ****     LC0:	0
 108:..\..\..\..\..\..\Dev\Library embedded l2c display\u8g2\csrc/u8x8_d_uc1609.c ****     MX:	Mirror X
 109:..\..\..\..\..\..\Dev\Library embedded l2c display\u8g2\csrc/u8x8_d_uc1609.c ****     MY:	Mirror Y
 110:..\..\..\..\..\..\Dev\Library embedded l2c display\u8g2\csrc/u8x8_d_uc1609.c ****   */  
 111:..\..\..\..\..\..\Dev\Library embedded l2c display\u8g2\csrc/u8x8_d_uc1609.c ****   U8X8_C(0x0c2),            			/* low bits are MY, MX, LC0 */
 112:..\..\..\..\..\..\Dev\Library embedded l2c display\u8g2\csrc/u8x8_d_uc1609.c ****   U8X8_END_TRANSFER(),             	/* disable chip */
 113:..\..\..\..\..\..\Dev\Library embedded l2c display\u8g2\csrc/u8x8_d_uc1609.c ****   U8X8_END()             			/* end of sequence */
 114:..\..\..\..\..\..\Dev\Library embedded l2c display\u8g2\csrc/u8x8_d_uc1609.c **** };
 115:..\..\..\..\..\..\Dev\Library embedded l2c display\u8g2\csrc/u8x8_d_uc1609.c **** 
 116:..\..\..\..\..\..\Dev\Library embedded l2c display\u8g2\csrc/u8x8_d_uc1609.c **** 
 117:..\..\..\..\..\..\Dev\Library embedded l2c display\u8g2\csrc/u8x8_d_uc1609.c **** static const u8x8_display_info_t u8x8_uc1609_19264_display_info =
 118:..\..\..\..\..\..\Dev\Library embedded l2c display\u8g2\csrc/u8x8_d_uc1609.c **** {
 119:..\..\..\..\..\..\Dev\Library embedded l2c display\u8g2\csrc/u8x8_d_uc1609.c ****   /* chip_enable_level = */ 0,
 120:..\..\..\..\..\..\Dev\Library embedded l2c display\u8g2\csrc/u8x8_d_uc1609.c ****   /* chip_disable_level = */ 1,
 121:..\..\..\..\..\..\Dev\Library embedded l2c display\u8g2\csrc/u8x8_d_uc1609.c ****   
 122:..\..\..\..\..\..\Dev\Library embedded l2c display\u8g2\csrc/u8x8_d_uc1609.c ****   /* post_chip_enable_wait_ns = */ 15,
 123:..\..\..\..\..\..\Dev\Library embedded l2c display\u8g2\csrc/u8x8_d_uc1609.c ****   /* pre_chip_disable_wait_ns = */ 15,
 124:..\..\..\..\..\..\Dev\Library embedded l2c display\u8g2\csrc/u8x8_d_uc1609.c ****   /* reset_pulse_width_ms = */ 1, 
 125:..\..\..\..\..\..\Dev\Library embedded l2c display\u8g2\csrc/u8x8_d_uc1609.c ****   /* post_reset_wait_ms = */ 6, 
 126:..\..\..\..\..\..\Dev\Library embedded l2c display\u8g2\csrc/u8x8_d_uc1609.c ****   /* sda_setup_time_ns = */ 30,	
 127:..\..\..\..\..\..\Dev\Library embedded l2c display\u8g2\csrc/u8x8_d_uc1609.c ****   /* sck_pulse_width_ns = */ 63,	/* half of cycle time (125ns cycle time according to datasheet) --
 128:..\..\..\..\..\..\Dev\Library embedded l2c display\u8g2\csrc/u8x8_d_uc1609.c ****   /* sck_clock_hz = */ 8000000UL,	/* since Arduino 1.6.0, the SPI bus speed in Hz. Should be  10000
 129:..\..\..\..\..\..\Dev\Library embedded l2c display\u8g2\csrc/u8x8_d_uc1609.c ****   /* spi_mode = */ 0,		/* active high, rising edge */
 130:..\..\..\..\..\..\Dev\Library embedded l2c display\u8g2\csrc/u8x8_d_uc1609.c ****   /* i2c_bus_clock_100kHz = */ 4,
 131:..\..\..\..\..\..\Dev\Library embedded l2c display\u8g2\csrc/u8x8_d_uc1609.c ****   /* data_setup_time_ns = */ 30,
 132:..\..\..\..\..\..\Dev\Library embedded l2c display\u8g2\csrc/u8x8_d_uc1609.c ****   /* write_pulse_width_ns = */ 40,
 133:..\..\..\..\..\..\Dev\Library embedded l2c display\u8g2\csrc/u8x8_d_uc1609.c ****   /* tile_width = */ 24,		
 134:..\..\..\..\..\..\Dev\Library embedded l2c display\u8g2\csrc/u8x8_d_uc1609.c ****   /* tile_hight = */ 8,		
 135:..\..\..\..\..\..\Dev\Library embedded l2c display\u8g2\csrc/u8x8_d_uc1609.c ****   /* default_x_offset = */ 0,
 136:..\..\..\..\..\..\Dev\Library embedded l2c display\u8g2\csrc/u8x8_d_uc1609.c ****   /* flipmode_x_offset = */ 0,
 137:..\..\..\..\..\..\Dev\Library embedded l2c display\u8g2\csrc/u8x8_d_uc1609.c ****   /* pixel_width = */ 192,
 138:..\..\..\..\..\..\Dev\Library embedded l2c display\u8g2\csrc/u8x8_d_uc1609.c ****   /* pixel_height = */ 64
 139:..\..\..\..\..\..\Dev\Library embedded l2c display\u8g2\csrc/u8x8_d_uc1609.c **** };
 140:..\..\..\..\..\..\Dev\Library embedded l2c display\u8g2\csrc/u8x8_d_uc1609.c **** 
 141:..\..\..\..\..\..\Dev\Library embedded l2c display\u8g2\csrc/u8x8_d_uc1609.c **** 
 142:..\..\..\..\..\..\Dev\Library embedded l2c display\u8g2\csrc/u8x8_d_uc1609.c **** uint8_t u8x8_d_uc1609_slg19264(u8x8_t *u8x8, uint8_t msg, uint8_t arg_int, void *arg_ptr)
 143:..\..\..\..\..\..\Dev\Library embedded l2c display\u8g2\csrc/u8x8_d_uc1609.c **** {
  28              		.loc 1 143 0
ARM GAS  C:\Users\Abude\AppData\Local\Temp\ccISThNP.s 			page 4


  29              		.cfi_startproc
  30              		@ args = 0, pretend = 0, frame = 0
  31              		@ frame_needed = 0, uses_anonymous_args = 0
  32              	.LVL0:
  33 0000 2DE9F041 		push	{r4, r5, r6, r7, r8, lr}
  34              		.cfi_def_cfa_offset 24
  35              		.cfi_offset 4, -24
  36              		.cfi_offset 5, -20
  37              		.cfi_offset 6, -16
  38              		.cfi_offset 7, -12
  39              		.cfi_offset 8, -8
  40              		.cfi_offset 14, -4
  41 0004 0546     		mov	r5, r0
  42 0006 1446     		mov	r4, r2
  43 0008 1E46     		mov	r6, r3
 144:..\..\..\..\..\..\Dev\Library embedded l2c display\u8g2\csrc/u8x8_d_uc1609.c ****   uint8_t x, c, page;
 145:..\..\..\..\..\..\Dev\Library embedded l2c display\u8g2\csrc/u8x8_d_uc1609.c ****   uint8_t *ptr;
 146:..\..\..\..\..\..\Dev\Library embedded l2c display\u8g2\csrc/u8x8_d_uc1609.c ****   switch(msg)
  44              		.loc 1 146 0
  45 000a 0939     		subs	r1, r1, #9
  46              	.LVL1:
  47 000c 0629     		cmp	r1, #6
  48 000e 73D8     		bhi	.L13
  49 0010 DFE801F0 		tbb	[pc, r1]
  50              	.LVL2:
  51              	.L4:
  52 0014 04       		.byte	(.L3-.L4)/2
  53 0015 0A       		.byte	(.L5-.L4)/2
  54 0016 13       		.byte	(.L6-.L4)/2
  55 0017 72       		.byte	(.L13-.L4)/2
  56 0018 20       		.byte	(.L7-.L4)/2
  57 0019 35       		.byte	(.L8-.L4)/2
  58 001a 45       		.byte	(.L9-.L4)/2
  59 001b 00       		.p2align 1
  60              	.L3:
 147:..\..\..\..\..\..\Dev\Library embedded l2c display\u8g2\csrc/u8x8_d_uc1609.c ****   {
 148:..\..\..\..\..\..\Dev\Library embedded l2c display\u8g2\csrc/u8x8_d_uc1609.c ****     case U8X8_MSG_DISPLAY_SETUP_MEMORY:
 149:..\..\..\..\..\..\Dev\Library embedded l2c display\u8g2\csrc/u8x8_d_uc1609.c ****       u8x8_d_helper_display_setup_memory(u8x8, &u8x8_uc1609_19264_display_info);
  61              		.loc 1 149 0
  62 001c 3849     		ldr	r1, .L15
  63 001e FFF7FEFF 		bl	u8x8_d_helper_display_setup_memory
  64              	.LVL3:
 150:..\..\..\..\..\..\Dev\Library embedded l2c display\u8g2\csrc/u8x8_d_uc1609.c ****       break;
 151:..\..\..\..\..\..\Dev\Library embedded l2c display\u8g2\csrc/u8x8_d_uc1609.c ****     case U8X8_MSG_DISPLAY_INIT:
 152:..\..\..\..\..\..\Dev\Library embedded l2c display\u8g2\csrc/u8x8_d_uc1609.c ****       u8x8_d_helper_display_init(u8x8);
 153:..\..\..\..\..\..\Dev\Library embedded l2c display\u8g2\csrc/u8x8_d_uc1609.c ****       u8x8_cad_SendSequence(u8x8, u8x8_d_uc1609_19264_init_seq);
 154:..\..\..\..\..\..\Dev\Library embedded l2c display\u8g2\csrc/u8x8_d_uc1609.c ****       break;
 155:..\..\..\..\..\..\Dev\Library embedded l2c display\u8g2\csrc/u8x8_d_uc1609.c ****     case U8X8_MSG_DISPLAY_SET_POWER_SAVE:
 156:..\..\..\..\..\..\Dev\Library embedded l2c display\u8g2\csrc/u8x8_d_uc1609.c ****       if ( arg_int == 0 )
 157:..\..\..\..\..\..\Dev\Library embedded l2c display\u8g2\csrc/u8x8_d_uc1609.c **** 	u8x8_cad_SendSequence(u8x8, u8x8_d_uc1609_19264_powersave0_seq);
 158:..\..\..\..\..\..\Dev\Library embedded l2c display\u8g2\csrc/u8x8_d_uc1609.c ****       else
 159:..\..\..\..\..\..\Dev\Library embedded l2c display\u8g2\csrc/u8x8_d_uc1609.c **** 	u8x8_cad_SendSequence(u8x8, u8x8_d_uc1609_19264_powersave1_seq);
 160:..\..\..\..\..\..\Dev\Library embedded l2c display\u8g2\csrc/u8x8_d_uc1609.c ****       break;
 161:..\..\..\..\..\..\Dev\Library embedded l2c display\u8g2\csrc/u8x8_d_uc1609.c ****     case U8X8_MSG_DISPLAY_SET_FLIP_MODE:
 162:..\..\..\..\..\..\Dev\Library embedded l2c display\u8g2\csrc/u8x8_d_uc1609.c ****       if ( arg_int == 0 )
 163:..\..\..\..\..\..\Dev\Library embedded l2c display\u8g2\csrc/u8x8_d_uc1609.c ****       {
 164:..\..\..\..\..\..\Dev\Library embedded l2c display\u8g2\csrc/u8x8_d_uc1609.c **** 	u8x8_cad_SendSequence(u8x8, u8x8_d_uc1609_19264_flip0_seq);
ARM GAS  C:\Users\Abude\AppData\Local\Temp\ccISThNP.s 			page 5


 165:..\..\..\..\..\..\Dev\Library embedded l2c display\u8g2\csrc/u8x8_d_uc1609.c **** 	u8x8->x_offset = u8x8->display_info->default_x_offset;
 166:..\..\..\..\..\..\Dev\Library embedded l2c display\u8g2\csrc/u8x8_d_uc1609.c ****       }
 167:..\..\..\..\..\..\Dev\Library embedded l2c display\u8g2\csrc/u8x8_d_uc1609.c ****       else
 168:..\..\..\..\..\..\Dev\Library embedded l2c display\u8g2\csrc/u8x8_d_uc1609.c ****       {
 169:..\..\..\..\..\..\Dev\Library embedded l2c display\u8g2\csrc/u8x8_d_uc1609.c **** 	u8x8_cad_SendSequence(u8x8, u8x8_d_uc1609_19264_flip1_seq);
 170:..\..\..\..\..\..\Dev\Library embedded l2c display\u8g2\csrc/u8x8_d_uc1609.c **** 	u8x8->x_offset = u8x8->display_info->flipmode_x_offset;
 171:..\..\..\..\..\..\Dev\Library embedded l2c display\u8g2\csrc/u8x8_d_uc1609.c ****       }	
 172:..\..\..\..\..\..\Dev\Library embedded l2c display\u8g2\csrc/u8x8_d_uc1609.c ****       break;
 173:..\..\..\..\..\..\Dev\Library embedded l2c display\u8g2\csrc/u8x8_d_uc1609.c **** #ifdef U8X8_WITH_SET_CONTRAST
 174:..\..\..\..\..\..\Dev\Library embedded l2c display\u8g2\csrc/u8x8_d_uc1609.c ****     case U8X8_MSG_DISPLAY_SET_CONTRAST:
 175:..\..\..\..\..\..\Dev\Library embedded l2c display\u8g2\csrc/u8x8_d_uc1609.c ****       u8x8_cad_StartTransfer(u8x8);
 176:..\..\..\..\..\..\Dev\Library embedded l2c display\u8g2\csrc/u8x8_d_uc1609.c ****       u8x8_cad_SendCmd(u8x8, 0x081 );
 177:..\..\..\..\..\..\Dev\Library embedded l2c display\u8g2\csrc/u8x8_d_uc1609.c ****       u8x8_cad_SendArg(u8x8, arg_int  );	/* uc1610 has range from 0 to 255 */
 178:..\..\..\..\..\..\Dev\Library embedded l2c display\u8g2\csrc/u8x8_d_uc1609.c ****       u8x8_cad_EndTransfer(u8x8);
 179:..\..\..\..\..\..\Dev\Library embedded l2c display\u8g2\csrc/u8x8_d_uc1609.c ****       break;
 180:..\..\..\..\..\..\Dev\Library embedded l2c display\u8g2\csrc/u8x8_d_uc1609.c **** #endif
 181:..\..\..\..\..\..\Dev\Library embedded l2c display\u8g2\csrc/u8x8_d_uc1609.c ****     case U8X8_MSG_DISPLAY_DRAW_TILE:
 182:..\..\..\..\..\..\Dev\Library embedded l2c display\u8g2\csrc/u8x8_d_uc1609.c ****       u8x8_cad_StartTransfer(u8x8);
 183:..\..\..\..\..\..\Dev\Library embedded l2c display\u8g2\csrc/u8x8_d_uc1609.c **** 
 184:..\..\..\..\..\..\Dev\Library embedded l2c display\u8g2\csrc/u8x8_d_uc1609.c ****       x = ((u8x8_tile_t *)arg_ptr)->x_pos;
 185:..\..\..\..\..\..\Dev\Library embedded l2c display\u8g2\csrc/u8x8_d_uc1609.c ****       x *= 8;
 186:..\..\..\..\..\..\Dev\Library embedded l2c display\u8g2\csrc/u8x8_d_uc1609.c ****       x += u8x8->x_offset;
 187:..\..\..\..\..\..\Dev\Library embedded l2c display\u8g2\csrc/u8x8_d_uc1609.c ****     
 188:..\..\..\..\..\..\Dev\Library embedded l2c display\u8g2\csrc/u8x8_d_uc1609.c ****       page = (((u8x8_tile_t *)arg_ptr)->y_pos);
 189:..\..\..\..\..\..\Dev\Library embedded l2c display\u8g2\csrc/u8x8_d_uc1609.c ****       
 190:..\..\..\..\..\..\Dev\Library embedded l2c display\u8g2\csrc/u8x8_d_uc1609.c ****       u8x8_cad_SendCmd(u8x8, 0x010 | (x>>4) );
 191:..\..\..\..\..\..\Dev\Library embedded l2c display\u8g2\csrc/u8x8_d_uc1609.c ****       u8x8_cad_SendCmd(u8x8, 0x000 | ((x&15)));
 192:..\..\..\..\..\..\Dev\Library embedded l2c display\u8g2\csrc/u8x8_d_uc1609.c ****       u8x8_cad_SendCmd(u8x8, 0x0b0 | page);
 193:..\..\..\..\..\..\Dev\Library embedded l2c display\u8g2\csrc/u8x8_d_uc1609.c **** 
 194:..\..\..\..\..\..\Dev\Library embedded l2c display\u8g2\csrc/u8x8_d_uc1609.c ****       do
 195:..\..\..\..\..\..\Dev\Library embedded l2c display\u8g2\csrc/u8x8_d_uc1609.c ****       {
 196:..\..\..\..\..\..\Dev\Library embedded l2c display\u8g2\csrc/u8x8_d_uc1609.c **** 	c = ((u8x8_tile_t *)arg_ptr)->cnt;
 197:..\..\..\..\..\..\Dev\Library embedded l2c display\u8g2\csrc/u8x8_d_uc1609.c **** 	ptr = ((u8x8_tile_t *)arg_ptr)->tile_ptr;
 198:..\..\..\..\..\..\Dev\Library embedded l2c display\u8g2\csrc/u8x8_d_uc1609.c ****         u8x8_cad_SendData(u8x8, c*8, ptr);
 199:..\..\..\..\..\..\Dev\Library embedded l2c display\u8g2\csrc/u8x8_d_uc1609.c **** 	arg_int--;
 200:..\..\..\..\..\..\Dev\Library embedded l2c display\u8g2\csrc/u8x8_d_uc1609.c ****       } while( arg_int > 0 );
 201:..\..\..\..\..\..\Dev\Library embedded l2c display\u8g2\csrc/u8x8_d_uc1609.c ****       u8x8_cad_EndTransfer(u8x8);
 202:..\..\..\..\..\..\Dev\Library embedded l2c display\u8g2\csrc/u8x8_d_uc1609.c ****       
 203:..\..\..\..\..\..\Dev\Library embedded l2c display\u8g2\csrc/u8x8_d_uc1609.c ****       break;
 204:..\..\..\..\..\..\Dev\Library embedded l2c display\u8g2\csrc/u8x8_d_uc1609.c ****     default:
 205:..\..\..\..\..\..\Dev\Library embedded l2c display\u8g2\csrc/u8x8_d_uc1609.c ****       return 0;
 206:..\..\..\..\..\..\Dev\Library embedded l2c display\u8g2\csrc/u8x8_d_uc1609.c ****   }
 207:..\..\..\..\..\..\Dev\Library embedded l2c display\u8g2\csrc/u8x8_d_uc1609.c ****   return 1;
  65              		.loc 1 207 0
  66 0022 0120     		movs	r0, #1
 150:..\..\..\..\..\..\Dev\Library embedded l2c display\u8g2\csrc/u8x8_d_uc1609.c ****       break;
  67              		.loc 1 150 0
  68 0024 BDE8F081 		pop	{r4, r5, r6, r7, r8, pc}
  69              	.LVL4:
  70              	.L5:
 152:..\..\..\..\..\..\Dev\Library embedded l2c display\u8g2\csrc/u8x8_d_uc1609.c ****       u8x8_cad_SendSequence(u8x8, u8x8_d_uc1609_19264_init_seq);
  71              		.loc 1 152 0
  72 0028 FFF7FEFF 		bl	u8x8_d_helper_display_init
  73              	.LVL5:
 153:..\..\..\..\..\..\Dev\Library embedded l2c display\u8g2\csrc/u8x8_d_uc1609.c ****       break;
  74              		.loc 1 153 0
  75 002c 3549     		ldr	r1, .L15+4
ARM GAS  C:\Users\Abude\AppData\Local\Temp\ccISThNP.s 			page 6


  76 002e 2846     		mov	r0, r5
  77 0030 FFF7FEFF 		bl	u8x8_cad_SendSequence
  78              	.LVL6:
  79              		.loc 1 207 0
  80 0034 0120     		movs	r0, #1
 154:..\..\..\..\..\..\Dev\Library embedded l2c display\u8g2\csrc/u8x8_d_uc1609.c ****     case U8X8_MSG_DISPLAY_SET_POWER_SAVE:
  81              		.loc 1 154 0
  82 0036 BDE8F081 		pop	{r4, r5, r6, r7, r8, pc}
  83              	.LVL7:
  84              	.L6:
 156:..\..\..\..\..\..\Dev\Library embedded l2c display\u8g2\csrc/u8x8_d_uc1609.c **** 	u8x8_cad_SendSequence(u8x8, u8x8_d_uc1609_19264_powersave0_seq);
  85              		.loc 1 156 0
  86 003a 2AB9     		cbnz	r2, .L10
 157:..\..\..\..\..\..\Dev\Library embedded l2c display\u8g2\csrc/u8x8_d_uc1609.c ****       else
  87              		.loc 1 157 0
  88 003c 3249     		ldr	r1, .L15+8
  89 003e FFF7FEFF 		bl	u8x8_cad_SendSequence
  90              	.LVL8:
  91              		.loc 1 207 0
  92 0042 0120     		movs	r0, #1
  93 0044 BDE8F081 		pop	{r4, r5, r6, r7, r8, pc}
  94              	.LVL9:
  95              	.L10:
 159:..\..\..\..\..\..\Dev\Library embedded l2c display\u8g2\csrc/u8x8_d_uc1609.c ****       break;
  96              		.loc 1 159 0
  97 0048 3049     		ldr	r1, .L15+12
  98 004a FFF7FEFF 		bl	u8x8_cad_SendSequence
  99              	.LVL10:
 100              		.loc 1 207 0
 101 004e 0120     		movs	r0, #1
 102 0050 BDE8F081 		pop	{r4, r5, r6, r7, r8, pc}
 103              	.LVL11:
 104              	.L7:
 162:..\..\..\..\..\..\Dev\Library embedded l2c display\u8g2\csrc/u8x8_d_uc1609.c ****       {
 105              		.loc 1 162 0
 106 0054 4AB9     		cbnz	r2, .L11
 164:..\..\..\..\..\..\Dev\Library embedded l2c display\u8g2\csrc/u8x8_d_uc1609.c **** 	u8x8->x_offset = u8x8->display_info->default_x_offset;
 107              		.loc 1 164 0
 108 0056 2E49     		ldr	r1, .L15+16
 109 0058 FFF7FEFF 		bl	u8x8_cad_SendSequence
 110              	.LVL12:
 165:..\..\..\..\..\..\Dev\Library embedded l2c display\u8g2\csrc/u8x8_d_uc1609.c ****       }
 111              		.loc 1 165 0
 112 005c 2B68     		ldr	r3, [r5]
 113 005e 9B7C     		ldrb	r3, [r3, #18]	@ zero_extendqisi2
 114 0060 85F82230 		strb	r3, [r5, #34]
 115              		.loc 1 207 0
 116 0064 0120     		movs	r0, #1
 117 0066 BDE8F081 		pop	{r4, r5, r6, r7, r8, pc}
 118              	.LVL13:
 119              	.L11:
 169:..\..\..\..\..\..\Dev\Library embedded l2c display\u8g2\csrc/u8x8_d_uc1609.c **** 	u8x8->x_offset = u8x8->display_info->flipmode_x_offset;
 120              		.loc 1 169 0
 121 006a 2A49     		ldr	r1, .L15+20
 122 006c FFF7FEFF 		bl	u8x8_cad_SendSequence
 123              	.LVL14:
 170:..\..\..\..\..\..\Dev\Library embedded l2c display\u8g2\csrc/u8x8_d_uc1609.c ****       }	
ARM GAS  C:\Users\Abude\AppData\Local\Temp\ccISThNP.s 			page 7


 124              		.loc 1 170 0
 125 0070 2B68     		ldr	r3, [r5]
 126 0072 DB7C     		ldrb	r3, [r3, #19]	@ zero_extendqisi2
 127 0074 85F82230 		strb	r3, [r5, #34]
 128              		.loc 1 207 0
 129 0078 0120     		movs	r0, #1
 130 007a BDE8F081 		pop	{r4, r5, r6, r7, r8, pc}
 131              	.LVL15:
 132              	.L8:
 175:..\..\..\..\..\..\Dev\Library embedded l2c display\u8g2\csrc/u8x8_d_uc1609.c ****       u8x8_cad_SendCmd(u8x8, 0x081 );
 133              		.loc 1 175 0
 134 007e FFF7FEFF 		bl	u8x8_cad_StartTransfer
 135              	.LVL16:
 176:..\..\..\..\..\..\Dev\Library embedded l2c display\u8g2\csrc/u8x8_d_uc1609.c ****       u8x8_cad_SendArg(u8x8, arg_int  );	/* uc1610 has range from 0 to 255 */
 136              		.loc 1 176 0
 137 0082 8121     		movs	r1, #129
 138 0084 2846     		mov	r0, r5
 139 0086 FFF7FEFF 		bl	u8x8_cad_SendCmd
 140              	.LVL17:
 177:..\..\..\..\..\..\Dev\Library embedded l2c display\u8g2\csrc/u8x8_d_uc1609.c ****       u8x8_cad_EndTransfer(u8x8);
 141              		.loc 1 177 0
 142 008a 2146     		mov	r1, r4
 143 008c 2846     		mov	r0, r5
 144 008e FFF7FEFF 		bl	u8x8_cad_SendArg
 145              	.LVL18:
 178:..\..\..\..\..\..\Dev\Library embedded l2c display\u8g2\csrc/u8x8_d_uc1609.c ****       break;
 146              		.loc 1 178 0
 147 0092 2846     		mov	r0, r5
 148 0094 FFF7FEFF 		bl	u8x8_cad_EndTransfer
 149              	.LVL19:
 150              		.loc 1 207 0
 151 0098 0120     		movs	r0, #1
 179:..\..\..\..\..\..\Dev\Library embedded l2c display\u8g2\csrc/u8x8_d_uc1609.c **** #endif
 152              		.loc 1 179 0
 153 009a BDE8F081 		pop	{r4, r5, r6, r7, r8, pc}
 154              	.LVL20:
 155              	.L9:
 182:..\..\..\..\..\..\Dev\Library embedded l2c display\u8g2\csrc/u8x8_d_uc1609.c **** 
 156              		.loc 1 182 0
 157 009e FFF7FEFF 		bl	u8x8_cad_StartTransfer
 158              	.LVL21:
 184:..\..\..\..\..\..\Dev\Library embedded l2c display\u8g2\csrc/u8x8_d_uc1609.c ****       x *= 8;
 159              		.loc 1 184 0
 160 00a2 7779     		ldrb	r7, [r6, #5]	@ zero_extendqisi2
 161              	.LVL22:
 185:..\..\..\..\..\..\Dev\Library embedded l2c display\u8g2\csrc/u8x8_d_uc1609.c ****       x += u8x8->x_offset;
 162              		.loc 1 185 0
 163 00a4 FF00     		lsls	r7, r7, #3
 164              	.LVL23:
 165 00a6 FFB2     		uxtb	r7, r7
 166              	.LVL24:
 186:..\..\..\..\..\..\Dev\Library embedded l2c display\u8g2\csrc/u8x8_d_uc1609.c ****     
 167              		.loc 1 186 0
 168 00a8 95F82230 		ldrb	r3, [r5, #34]	@ zero_extendqisi2
 169 00ac 1F44     		add	r7, r7, r3
 170              	.LVL25:
 171 00ae FFB2     		uxtb	r7, r7
ARM GAS  C:\Users\Abude\AppData\Local\Temp\ccISThNP.s 			page 8


 172              	.LVL26:
 188:..\..\..\..\..\..\Dev\Library embedded l2c display\u8g2\csrc/u8x8_d_uc1609.c ****       
 173              		.loc 1 188 0
 174 00b0 96F80680 		ldrb	r8, [r6, #6]	@ zero_extendqisi2
 175              	.LVL27:
 190:..\..\..\..\..\..\Dev\Library embedded l2c display\u8g2\csrc/u8x8_d_uc1609.c ****       u8x8_cad_SendCmd(u8x8, 0x000 | ((x&15)));
 176              		.loc 1 190 0
 177 00b4 3909     		lsrs	r1, r7, #4
 178 00b6 41F01001 		orr	r1, r1, #16
 179 00ba 2846     		mov	r0, r5
 180 00bc FFF7FEFF 		bl	u8x8_cad_SendCmd
 181              	.LVL28:
 191:..\..\..\..\..\..\Dev\Library embedded l2c display\u8g2\csrc/u8x8_d_uc1609.c ****       u8x8_cad_SendCmd(u8x8, 0x0b0 | page);
 182              		.loc 1 191 0
 183 00c0 07F00F01 		and	r1, r7, #15
 184 00c4 2846     		mov	r0, r5
 185 00c6 FFF7FEFF 		bl	u8x8_cad_SendCmd
 186              	.LVL29:
 192:..\..\..\..\..\..\Dev\Library embedded l2c display\u8g2\csrc/u8x8_d_uc1609.c **** 
 187              		.loc 1 192 0
 188 00ca 48F0B001 		orr	r1, r8, #176
 189 00ce 2846     		mov	r0, r5
 190 00d0 FFF7FEFF 		bl	u8x8_cad_SendCmd
 191              	.LVL30:
 192              	.L12:
 196:..\..\..\..\..\..\Dev\Library embedded l2c display\u8g2\csrc/u8x8_d_uc1609.c **** 	ptr = ((u8x8_tile_t *)arg_ptr)->tile_ptr;
 193              		.loc 1 196 0 discriminator 1
 194 00d4 3179     		ldrb	r1, [r6, #4]	@ zero_extendqisi2
 195              	.LVL31:
 198:..\..\..\..\..\..\Dev\Library embedded l2c display\u8g2\csrc/u8x8_d_uc1609.c **** 	arg_int--;
 196              		.loc 1 198 0 discriminator 1
 197 00d6 C900     		lsls	r1, r1, #3
 198              	.LVL32:
 199 00d8 3268     		ldr	r2, [r6]
 200 00da 01F0F801 		and	r1, r1, #248
 201 00de 2846     		mov	r0, r5
 202 00e0 FFF7FEFF 		bl	u8x8_cad_SendData
 203              	.LVL33:
 199:..\..\..\..\..\..\Dev\Library embedded l2c display\u8g2\csrc/u8x8_d_uc1609.c ****       } while( arg_int > 0 );
 204              		.loc 1 199 0 discriminator 1
 205 00e4 621E     		subs	r2, r4, #1
 206              	.LVL34:
 200:..\..\..\..\..\..\Dev\Library embedded l2c display\u8g2\csrc/u8x8_d_uc1609.c ****       u8x8_cad_EndTransfer(u8x8);
 207              		.loc 1 200 0 discriminator 1
 208 00e6 12F0FF04 		ands	r4, r2, #255
 209 00ea F3D1     		bne	.L12
 201:..\..\..\..\..\..\Dev\Library embedded l2c display\u8g2\csrc/u8x8_d_uc1609.c ****       
 210              		.loc 1 201 0
 211 00ec 2846     		mov	r0, r5
 212 00ee FFF7FEFF 		bl	u8x8_cad_EndTransfer
 213              	.LVL35:
 214              		.loc 1 207 0
 215 00f2 0120     		movs	r0, #1
 203:..\..\..\..\..\..\Dev\Library embedded l2c display\u8g2\csrc/u8x8_d_uc1609.c ****     default:
 216              		.loc 1 203 0
 217 00f4 BDE8F081 		pop	{r4, r5, r6, r7, r8, pc}
 218              	.LVL36:
ARM GAS  C:\Users\Abude\AppData\Local\Temp\ccISThNP.s 			page 9


 219              	.L13:
 205:..\..\..\..\..\..\Dev\Library embedded l2c display\u8g2\csrc/u8x8_d_uc1609.c ****   }
 220              		.loc 1 205 0
 221 00f8 0020     		movs	r0, #0
 222              	.LVL37:
 208:..\..\..\..\..\..\Dev\Library embedded l2c display\u8g2\csrc/u8x8_d_uc1609.c **** }
 223              		.loc 1 208 0
 224 00fa BDE8F081 		pop	{r4, r5, r6, r7, r8, pc}
 225              	.LVL38:
 226              	.L16:
 227 00fe 00BF     		.align	2
 228              	.L15:
 229 0100 00000000 		.word	.LANCHOR0
 230 0104 18000000 		.word	.LANCHOR0+24
 231 0108 38000000 		.word	.LANCHOR0+56
 232 010c 40000000 		.word	.LANCHOR0+64
 233 0110 48000000 		.word	.LANCHOR0+72
 234 0114 50000000 		.word	.LANCHOR0+80
 235              		.cfi_endproc
 236              	.LFE0:
 237              		.size	u8x8_d_uc1609_slg19264, .-u8x8_d_uc1609_slg19264
 238              		.section	.rodata
 239              		.align	2
 240              		.set	.LANCHOR0,. + 0
 241              		.type	u8x8_uc1609_19264_display_info, %object
 242              		.size	u8x8_uc1609_19264_display_info, 24
 243              	u8x8_uc1609_19264_display_info:
 244 0000 00       		.byte	0
 245 0001 01       		.byte	1
 246 0002 0F       		.byte	15
 247 0003 0F       		.byte	15
 248 0004 01       		.byte	1
 249 0005 06       		.byte	6
 250 0006 1E       		.byte	30
 251 0007 3F       		.byte	63
 252 0008 00127A00 		.word	8000000
 253 000c 00       		.byte	0
 254 000d 04       		.byte	4
 255 000e 1E       		.byte	30
 256 000f 28       		.byte	40
 257 0010 18       		.byte	24
 258 0011 08       		.byte	8
 259 0012 00       		.byte	0
 260 0013 00       		.byte	0
 261 0014 C000     		.short	192
 262 0016 4000     		.short	64
 263              		.type	u8x8_d_uc1609_19264_init_seq, %object
 264              		.size	u8x8_d_uc1609_19264_init_seq, 29
 265              	u8x8_d_uc1609_19264_init_seq:
 266 0018 18       		.byte	24
 267 0019 15       		.byte	21
 268 001a F1       		.byte	-15
 269 001b 16       		.byte	22
 270 001c 3F       		.byte	63
 271 001d 15       		.byte	21
 272 001e C0       		.byte	-64
 273 001f 15       		.byte	21
ARM GAS  C:\Users\Abude\AppData\Local\Temp\ccISThNP.s 			page 10


 274 0020 40       		.byte	64
 275 0021 15       		.byte	21
 276 0022 2E       		.byte	46
 277 0023 15       		.byte	21
 278 0024 EB       		.byte	-21
 279 0025 15       		.byte	21
 280 0026 81       		.byte	-127
 281 0027 16       		.byte	22
 282 0028 8F       		.byte	-113
 283 0029 15       		.byte	21
 284 002a 88       		.byte	-120
 285 002b 15       		.byte	21
 286 002c A1       		.byte	-95
 287 002d 15       		.byte	21
 288 002e C4       		.byte	-60
 289 002f 15       		.byte	21
 290 0030 A6       		.byte	-90
 291 0031 15       		.byte	21
 292 0032 A4       		.byte	-92
 293 0033 19       		.byte	25
 294 0034 FF       		.byte	-1
 295 0035 000000   		.space	3
 296              		.type	u8x8_d_uc1609_19264_powersave0_seq, %object
 297              		.size	u8x8_d_uc1609_19264_powersave0_seq, 5
 298              	u8x8_d_uc1609_19264_powersave0_seq:
 299 0038 18       		.byte	24
 300 0039 15       		.byte	21
 301 003a AF       		.byte	-81
 302 003b 19       		.byte	25
 303 003c FF       		.byte	-1
 304 003d 000000   		.space	3
 305              		.type	u8x8_d_uc1609_19264_powersave1_seq, %object
 306              		.size	u8x8_d_uc1609_19264_powersave1_seq, 5
 307              	u8x8_d_uc1609_19264_powersave1_seq:
 308 0040 18       		.byte	24
 309 0041 15       		.byte	21
 310 0042 AE       		.byte	-82
 311 0043 19       		.byte	25
 312 0044 FF       		.byte	-1
 313 0045 000000   		.space	3
 314              		.type	u8x8_d_uc1609_19264_flip0_seq, %object
 315              		.size	u8x8_d_uc1609_19264_flip0_seq, 5
 316              	u8x8_d_uc1609_19264_flip0_seq:
 317 0048 18       		.byte	24
 318 0049 15       		.byte	21
 319 004a C4       		.byte	-60
 320 004b 19       		.byte	25
 321 004c FF       		.byte	-1
 322 004d 000000   		.space	3
 323              		.type	u8x8_d_uc1609_19264_flip1_seq, %object
 324              		.size	u8x8_d_uc1609_19264_flip1_seq, 5
 325              	u8x8_d_uc1609_19264_flip1_seq:
 326 0050 18       		.byte	24
 327 0051 15       		.byte	21
 328 0052 C2       		.byte	-62
 329 0053 19       		.byte	25
 330 0054 FF       		.byte	-1
ARM GAS  C:\Users\Abude\AppData\Local\Temp\ccISThNP.s 			page 11


 331              		.text
 332              	.Letext0:
 333              		.file 2 "c:\\program files (x86)\\cypress\\psoc creator\\4.4\\psoc creator\\import\\gnu\\arm\\5.4.
 334              		.file 3 "c:\\program files (x86)\\cypress\\psoc creator\\4.4\\psoc creator\\import\\gnu\\arm\\5.4.
 335              		.file 4 "c:\\dev\\library embedded l2c display\\u8g2\\csrc\\u8x8.h"