ARM GAS  C:\Users\Abude\AppData\Local\Temp\cc1FYLLw.s 			page 1


   1              		.syntax unified
   2              		.cpu cortex-m3
   3              		.fpu softvfp
   4              		.eabi_attribute 20, 1
   5              		.eabi_attribute 21, 1
   6              		.eabi_attribute 23, 3
   7              		.eabi_attribute 24, 1
   8              		.eabi_attribute 25, 1
   9              		.eabi_attribute 26, 1
  10              		.eabi_attribute 30, 1
  11              		.eabi_attribute 34, 1
  12              		.eabi_attribute 18, 4
  13              		.thumb
  14              		.syntax unified
  15              		.file	"u8x8_d_ist3020.c"
  16              		.text
  17              	.Ltext0:
  18              		.cfi_sections	.debug_frame
  19              		.section	.text.u8x8_d_ist3020_erc19264,"ax",%progbits
  20              		.align	2
  21              		.global	u8x8_d_ist3020_erc19264
  22              		.thumb
  23              		.thumb_func
  24              		.type	u8x8_d_ist3020_erc19264, %function
  25              	u8x8_d_ist3020_erc19264:
  26              	.LFB0:
  27              		.file 1 "..\\..\\..\\..\\..\\..\\Dev\\Library embedded l2c display\\u8g2\\csrc\\u8x8_d_ist3020.c"
   1:..\..\..\..\..\..\Dev\Library embedded l2c display\u8g2\csrc/u8x8_d_ist3020.c **** /*
   2:..\..\..\..\..\..\Dev\Library embedded l2c display\u8g2\csrc/u8x8_d_ist3020.c **** 
   3:..\..\..\..\..\..\Dev\Library embedded l2c display\u8g2\csrc/u8x8_d_ist3020.c ****   u8x8_d_ist3020.c
   4:..\..\..\..\..\..\Dev\Library embedded l2c display\u8g2\csrc/u8x8_d_ist3020.c ****   
   5:..\..\..\..\..\..\Dev\Library embedded l2c display\u8g2\csrc/u8x8_d_ist3020.c ****   Universal 8bit Graphics Library (https://github.com/olikraus/u8g2/)
   6:..\..\..\..\..\..\Dev\Library embedded l2c display\u8g2\csrc/u8x8_d_ist3020.c **** 
   7:..\..\..\..\..\..\Dev\Library embedded l2c display\u8g2\csrc/u8x8_d_ist3020.c ****   Copyright (c) 2017, olikraus@gmail.com
   8:..\..\..\..\..\..\Dev\Library embedded l2c display\u8g2\csrc/u8x8_d_ist3020.c ****   All rights reserved.
   9:..\..\..\..\..\..\Dev\Library embedded l2c display\u8g2\csrc/u8x8_d_ist3020.c **** 
  10:..\..\..\..\..\..\Dev\Library embedded l2c display\u8g2\csrc/u8x8_d_ist3020.c ****   Redistribution and use in source and binary forms, with or without modification, 
  11:..\..\..\..\..\..\Dev\Library embedded l2c display\u8g2\csrc/u8x8_d_ist3020.c ****   are permitted provided that the following conditions are met:
  12:..\..\..\..\..\..\Dev\Library embedded l2c display\u8g2\csrc/u8x8_d_ist3020.c **** 
  13:..\..\..\..\..\..\Dev\Library embedded l2c display\u8g2\csrc/u8x8_d_ist3020.c ****   * Redistributions of source code must retain the above copyright notice, this list 
  14:..\..\..\..\..\..\Dev\Library embedded l2c display\u8g2\csrc/u8x8_d_ist3020.c ****     of conditions and the following disclaimer.
  15:..\..\..\..\..\..\Dev\Library embedded l2c display\u8g2\csrc/u8x8_d_ist3020.c ****     
  16:..\..\..\..\..\..\Dev\Library embedded l2c display\u8g2\csrc/u8x8_d_ist3020.c ****   * Redistributions in binary form must reproduce the above copyright notice, this 
  17:..\..\..\..\..\..\Dev\Library embedded l2c display\u8g2\csrc/u8x8_d_ist3020.c ****     list of conditions and the following disclaimer in the documentation and/or other 
  18:..\..\..\..\..\..\Dev\Library embedded l2c display\u8g2\csrc/u8x8_d_ist3020.c ****     materials provided with the distribution.
  19:..\..\..\..\..\..\Dev\Library embedded l2c display\u8g2\csrc/u8x8_d_ist3020.c **** 
  20:..\..\..\..\..\..\Dev\Library embedded l2c display\u8g2\csrc/u8x8_d_ist3020.c ****   THIS SOFTWARE IS PROVIDED BY THE COPYRIGHT HOLDERS AND 
  21:..\..\..\..\..\..\Dev\Library embedded l2c display\u8g2\csrc/u8x8_d_ist3020.c ****   CONTRIBUTORS "AS IS" AND ANY EXPRESS OR IMPLIED WARRANTIES, 
  22:..\..\..\..\..\..\Dev\Library embedded l2c display\u8g2\csrc/u8x8_d_ist3020.c ****   INCLUDING, BUT NOT LIMITED TO, THE IMPLIED WARRANTIES OF 
  23:..\..\..\..\..\..\Dev\Library embedded l2c display\u8g2\csrc/u8x8_d_ist3020.c ****   MERCHANTABILITY AND FITNESS FOR A PARTICULAR PURPOSE ARE 
  24:..\..\..\..\..\..\Dev\Library embedded l2c display\u8g2\csrc/u8x8_d_ist3020.c ****   DISCLAIMED. IN NO EVENT SHALL THE COPYRIGHT HOLDER OR 
  25:..\..\..\..\..\..\Dev\Library embedded l2c display\u8g2\csrc/u8x8_d_ist3020.c ****   CONTRIBUTORS BE LIABLE FOR ANY DIRECT, INDIRECT, INCIDENTAL, 
  26:..\..\..\..\..\..\Dev\Library embedded l2c display\u8g2\csrc/u8x8_d_ist3020.c ****   SPECIAL, EXEMPLARY, OR CONSEQUENTIAL DAMAGES (INCLUDING, BUT 
  27:..\..\..\..\..\..\Dev\Library embedded l2c display\u8g2\csrc/u8x8_d_ist3020.c ****   NOT LIMITED TO, PROCUREMENT OF SUBSTITUTE GOODS OR SERVICES; 
  28:..\..\..\..\..\..\Dev\Library embedded l2c display\u8g2\csrc/u8x8_d_ist3020.c ****   LOSS OF USE, DATA, OR PROFITS; OR BUSINESS INTERRUPTION) HOWEVER 
  29:..\..\..\..\..\..\Dev\Library embedded l2c display\u8g2\csrc/u8x8_d_ist3020.c ****   CAUSED AND ON ANY THEORY OF LIABILITY, WHETHER IN CONTRACT, 
  30:..\..\..\..\..\..\Dev\Library embedded l2c display\u8g2\csrc/u8x8_d_ist3020.c ****   STRICT LIABILITY, OR TORT (INCLUDING NEGLIGENCE OR OTHERWISE) 
ARM GAS  C:\Users\Abude\AppData\Local\Temp\cc1FYLLw.s 			page 2


  31:..\..\..\..\..\..\Dev\Library embedded l2c display\u8g2\csrc/u8x8_d_ist3020.c ****   ARISING IN ANY WAY OUT OF THE USE OF THIS SOFTWARE, EVEN IF 
  32:..\..\..\..\..\..\Dev\Library embedded l2c display\u8g2\csrc/u8x8_d_ist3020.c ****   ADVISED OF THE POSSIBILITY OF SUCH DAMAGE.  
  33:..\..\..\..\..\..\Dev\Library embedded l2c display\u8g2\csrc/u8x8_d_ist3020.c **** 
  34:..\..\..\..\..\..\Dev\Library embedded l2c display\u8g2\csrc/u8x8_d_ist3020.c ****   
  35:..\..\..\..\..\..\Dev\Library embedded l2c display\u8g2\csrc/u8x8_d_ist3020.c **** */
  36:..\..\..\..\..\..\Dev\Library embedded l2c display\u8g2\csrc/u8x8_d_ist3020.c **** #include "u8x8.h"
  37:..\..\..\..\..\..\Dev\Library embedded l2c display\u8g2\csrc/u8x8_d_ist3020.c **** 
  38:..\..\..\..\..\..\Dev\Library embedded l2c display\u8g2\csrc/u8x8_d_ist3020.c **** 
  39:..\..\..\..\..\..\Dev\Library embedded l2c display\u8g2\csrc/u8x8_d_ist3020.c **** 
  40:..\..\..\..\..\..\Dev\Library embedded l2c display\u8g2\csrc/u8x8_d_ist3020.c **** 
  41:..\..\..\..\..\..\Dev\Library embedded l2c display\u8g2\csrc/u8x8_d_ist3020.c **** static const uint8_t u8x8_d_ist3020_erc19264_powersave0_seq[] = {
  42:..\..\..\..\..\..\Dev\Library embedded l2c display\u8g2\csrc/u8x8_d_ist3020.c ****   U8X8_START_TRANSFER(),             	/* enable chip, delay is part of the transfer start */
  43:..\..\..\..\..\..\Dev\Library embedded l2c display\u8g2\csrc/u8x8_d_ist3020.c ****   U8X8_C(0x0a4),		                /* all pixel off, issue 142 */
  44:..\..\..\..\..\..\Dev\Library embedded l2c display\u8g2\csrc/u8x8_d_ist3020.c ****   U8X8_C(0x0af),		                /* display on */
  45:..\..\..\..\..\..\Dev\Library embedded l2c display\u8g2\csrc/u8x8_d_ist3020.c ****   U8X8_END_TRANSFER(),             	/* disable chip */
  46:..\..\..\..\..\..\Dev\Library embedded l2c display\u8g2\csrc/u8x8_d_ist3020.c ****   U8X8_END()             			/* end of sequence */
  47:..\..\..\..\..\..\Dev\Library embedded l2c display\u8g2\csrc/u8x8_d_ist3020.c **** };
  48:..\..\..\..\..\..\Dev\Library embedded l2c display\u8g2\csrc/u8x8_d_ist3020.c **** 
  49:..\..\..\..\..\..\Dev\Library embedded l2c display\u8g2\csrc/u8x8_d_ist3020.c **** static const uint8_t u8x8_d_ist3020_erc19264_powersave1_seq[] = {
  50:..\..\..\..\..\..\Dev\Library embedded l2c display\u8g2\csrc/u8x8_d_ist3020.c ****   U8X8_START_TRANSFER(),             	/* enable chip, delay is part of the transfer start */
  51:..\..\..\..\..\..\Dev\Library embedded l2c display\u8g2\csrc/u8x8_d_ist3020.c ****   U8X8_C(0x0ae),		                /* display off */
  52:..\..\..\..\..\..\Dev\Library embedded l2c display\u8g2\csrc/u8x8_d_ist3020.c ****   U8X8_C(0x0a5),		                /* enter powersafe: all pixel on, issue 142 */
  53:..\..\..\..\..\..\Dev\Library embedded l2c display\u8g2\csrc/u8x8_d_ist3020.c ****   U8X8_END_TRANSFER(),             	/* disable chip */
  54:..\..\..\..\..\..\Dev\Library embedded l2c display\u8g2\csrc/u8x8_d_ist3020.c ****   U8X8_END()             			/* end of sequence */
  55:..\..\..\..\..\..\Dev\Library embedded l2c display\u8g2\csrc/u8x8_d_ist3020.c **** };
  56:..\..\..\..\..\..\Dev\Library embedded l2c display\u8g2\csrc/u8x8_d_ist3020.c **** 
  57:..\..\..\..\..\..\Dev\Library embedded l2c display\u8g2\csrc/u8x8_d_ist3020.c **** static const uint8_t u8x8_d_ist3020_erc19264_flip0_seq[] = {
  58:..\..\..\..\..\..\Dev\Library embedded l2c display\u8g2\csrc/u8x8_d_ist3020.c ****   U8X8_START_TRANSFER(),             	/* enable chip, delay is part of the transfer start */
  59:..\..\..\..\..\..\Dev\Library embedded l2c display\u8g2\csrc/u8x8_d_ist3020.c ****   U8X8_C(0x0a0),				/* segment remap a0/a1*/
  60:..\..\..\..\..\..\Dev\Library embedded l2c display\u8g2\csrc/u8x8_d_ist3020.c ****   U8X8_C(0x0c8),				/* c0: scan dir normal, c8: reverse */
  61:..\..\..\..\..\..\Dev\Library embedded l2c display\u8g2\csrc/u8x8_d_ist3020.c ****   U8X8_END_TRANSFER(),             	/* disable chip */
  62:..\..\..\..\..\..\Dev\Library embedded l2c display\u8g2\csrc/u8x8_d_ist3020.c ****   U8X8_END()             			/* end of sequence */
  63:..\..\..\..\..\..\Dev\Library embedded l2c display\u8g2\csrc/u8x8_d_ist3020.c **** };
  64:..\..\..\..\..\..\Dev\Library embedded l2c display\u8g2\csrc/u8x8_d_ist3020.c **** 
  65:..\..\..\..\..\..\Dev\Library embedded l2c display\u8g2\csrc/u8x8_d_ist3020.c **** static const uint8_t u8x8_d_ist3020_erc19264_flip1_seq[] = {
  66:..\..\..\..\..\..\Dev\Library embedded l2c display\u8g2\csrc/u8x8_d_ist3020.c ****   U8X8_START_TRANSFER(),             	/* enable chip, delay is part of the transfer start */
  67:..\..\..\..\..\..\Dev\Library embedded l2c display\u8g2\csrc/u8x8_d_ist3020.c ****   U8X8_C(0x0a1),				/* segment remap a0/a1*/
  68:..\..\..\..\..\..\Dev\Library embedded l2c display\u8g2\csrc/u8x8_d_ist3020.c ****   U8X8_C(0x0c0),				/* c0: scan dir normal, c8: reverse */
  69:..\..\..\..\..\..\Dev\Library embedded l2c display\u8g2\csrc/u8x8_d_ist3020.c ****   U8X8_END_TRANSFER(),             	/* disable chip */
  70:..\..\..\..\..\..\Dev\Library embedded l2c display\u8g2\csrc/u8x8_d_ist3020.c ****   U8X8_END()             			/* end of sequence */
  71:..\..\..\..\..\..\Dev\Library embedded l2c display\u8g2\csrc/u8x8_d_ist3020.c **** };
  72:..\..\..\..\..\..\Dev\Library embedded l2c display\u8g2\csrc/u8x8_d_ist3020.c **** 
  73:..\..\..\..\..\..\Dev\Library embedded l2c display\u8g2\csrc/u8x8_d_ist3020.c **** 
  74:..\..\..\..\..\..\Dev\Library embedded l2c display\u8g2\csrc/u8x8_d_ist3020.c **** static const u8x8_display_info_t u8x8_ist3020_erc19264_display_info =
  75:..\..\..\..\..\..\Dev\Library embedded l2c display\u8g2\csrc/u8x8_d_ist3020.c **** {
  76:..\..\..\..\..\..\Dev\Library embedded l2c display\u8g2\csrc/u8x8_d_ist3020.c ****   /* chip_enable_level = */ 0,
  77:..\..\..\..\..\..\Dev\Library embedded l2c display\u8g2\csrc/u8x8_d_ist3020.c ****   /* chip_disable_level = */ 1,
  78:..\..\..\..\..\..\Dev\Library embedded l2c display\u8g2\csrc/u8x8_d_ist3020.c ****   
  79:..\..\..\..\..\..\Dev\Library embedded l2c display\u8g2\csrc/u8x8_d_ist3020.c ****   /* post_chip_enable_wait_ns = */ 150,	/* IST3020 datasheet, page 56 */
  80:..\..\..\..\..\..\Dev\Library embedded l2c display\u8g2\csrc/u8x8_d_ist3020.c ****   /* pre_chip_disable_wait_ns = */ 150,	/* IST3020 datasheet, page 56 */
  81:..\..\..\..\..\..\Dev\Library embedded l2c display\u8g2\csrc/u8x8_d_ist3020.c ****   /* reset_pulse_width_ms = */ 1, 
  82:..\..\..\..\..\..\Dev\Library embedded l2c display\u8g2\csrc/u8x8_d_ist3020.c ****   /* post_reset_wait_ms = */ 1, 
  83:..\..\..\..\..\..\Dev\Library embedded l2c display\u8g2\csrc/u8x8_d_ist3020.c ****   /* sda_setup_time_ns = */ 100,		/* IST3020 datasheet, page 56 */
  84:..\..\..\..\..\..\Dev\Library embedded l2c display\u8g2\csrc/u8x8_d_ist3020.c ****   /* sck_pulse_width_ns = */ 100,	/* IST3020 datasheet, page 56 */
  85:..\..\..\..\..\..\Dev\Library embedded l2c display\u8g2\csrc/u8x8_d_ist3020.c ****   /* sck_clock_hz = */ 4000000UL,	/* */
  86:..\..\..\..\..\..\Dev\Library embedded l2c display\u8g2\csrc/u8x8_d_ist3020.c ****   /* spi_mode = */ 0,		/* active high, rising edge */
  87:..\..\..\..\..\..\Dev\Library embedded l2c display\u8g2\csrc/u8x8_d_ist3020.c ****   /* i2c_bus_clock_100kHz = */ 4,
ARM GAS  C:\Users\Abude\AppData\Local\Temp\cc1FYLLw.s 			page 3


  88:..\..\..\..\..\..\Dev\Library embedded l2c display\u8g2\csrc/u8x8_d_ist3020.c ****   /* data_setup_time_ns = */ 40,	/* IST3020 datasheet, page 54 */
  89:..\..\..\..\..\..\Dev\Library embedded l2c display\u8g2\csrc/u8x8_d_ist3020.c ****   /* write_pulse_width_ns = */ 60,	/* IST3020 datasheet, page 54 */
  90:..\..\..\..\..\..\Dev\Library embedded l2c display\u8g2\csrc/u8x8_d_ist3020.c ****   /* tile_width = */ 24,		/* width of 24*8=192 pixel */
  91:..\..\..\..\..\..\Dev\Library embedded l2c display\u8g2\csrc/u8x8_d_ist3020.c ****   /* tile_hight = */ 8,
  92:..\..\..\..\..\..\Dev\Library embedded l2c display\u8g2\csrc/u8x8_d_ist3020.c ****   /* default_x_offset = */ 0,
  93:..\..\..\..\..\..\Dev\Library embedded l2c display\u8g2\csrc/u8x8_d_ist3020.c ****   /* flipmode_x_offset = */ 64,
  94:..\..\..\..\..\..\Dev\Library embedded l2c display\u8g2\csrc/u8x8_d_ist3020.c ****   /* pixel_width = */ 192,
  95:..\..\..\..\..\..\Dev\Library embedded l2c display\u8g2\csrc/u8x8_d_ist3020.c ****   /* pixel_height = */ 64
  96:..\..\..\..\..\..\Dev\Library embedded l2c display\u8g2\csrc/u8x8_d_ist3020.c **** };
  97:..\..\..\..\..\..\Dev\Library embedded l2c display\u8g2\csrc/u8x8_d_ist3020.c **** 
  98:..\..\..\..\..\..\Dev\Library embedded l2c display\u8g2\csrc/u8x8_d_ist3020.c **** static const uint8_t u8x8_d_ist3020_erc19264_init_seq[] = {
  99:..\..\..\..\..\..\Dev\Library embedded l2c display\u8g2\csrc/u8x8_d_ist3020.c ****     
 100:..\..\..\..\..\..\Dev\Library embedded l2c display\u8g2\csrc/u8x8_d_ist3020.c ****   U8X8_START_TRANSFER(),             	/* enable chip, delay is part of the transfer start */
 101:..\..\..\..\..\..\Dev\Library embedded l2c display\u8g2\csrc/u8x8_d_ist3020.c ****   
 102:..\..\..\..\..\..\Dev\Library embedded l2c display\u8g2\csrc/u8x8_d_ist3020.c ****   U8X8_C(0x0e2),            			/* soft reset */
 103:..\..\..\..\..\..\Dev\Library embedded l2c display\u8g2\csrc/u8x8_d_ist3020.c ****   U8X8_C(0x0ab),            			/* build in osc on, used in ER code, but not mentioned in data sheet
 104:..\..\..\..\..\..\Dev\Library embedded l2c display\u8g2\csrc/u8x8_d_ist3020.c ****   U8X8_C(0x0ae),		                /* display off */
 105:..\..\..\..\..\..\Dev\Library embedded l2c display\u8g2\csrc/u8x8_d_ist3020.c ****   
 106:..\..\..\..\..\..\Dev\Library embedded l2c display\u8g2\csrc/u8x8_d_ist3020.c ****   U8X8_C(0x040),		                /* set display start line to 0 */
 107:..\..\..\..\..\..\Dev\Library embedded l2c display\u8g2\csrc/u8x8_d_ist3020.c ****   
 108:..\..\..\..\..\..\Dev\Library embedded l2c display\u8g2\csrc/u8x8_d_ist3020.c ****   U8X8_C(0x0a0),		                /* ADC set to reverse */
 109:..\..\..\..\..\..\Dev\Library embedded l2c display\u8g2\csrc/u8x8_d_ist3020.c ****   U8X8_C(0x0c8),		                /* common output mode */
 110:..\..\..\..\..\..\Dev\Library embedded l2c display\u8g2\csrc/u8x8_d_ist3020.c ****   // Flipmode
 111:..\..\..\..\..\..\Dev\Library embedded l2c display\u8g2\csrc/u8x8_d_ist3020.c ****   //U8X8_C(0x0a0),		                /* ADC set to reverse */
 112:..\..\..\..\..\..\Dev\Library embedded l2c display\u8g2\csrc/u8x8_d_ist3020.c ****   //U8X8_C(0x0c8),		                /* common output mode */
 113:..\..\..\..\..\..\Dev\Library embedded l2c display\u8g2\csrc/u8x8_d_ist3020.c ****   
 114:..\..\..\..\..\..\Dev\Library embedded l2c display\u8g2\csrc/u8x8_d_ist3020.c ****   U8X8_C(0x0a6),		                /* display normal, bit val 0: LCD pixel off. */
 115:..\..\..\..\..\..\Dev\Library embedded l2c display\u8g2\csrc/u8x8_d_ist3020.c ****   U8X8_C(0x0a3),		                /* FIX: LCD bias 1/7, old value was 1/9 (0x0a2) */
 116:..\..\..\..\..\..\Dev\Library embedded l2c display\u8g2\csrc/u8x8_d_ist3020.c ****   
 117:..\..\..\..\..\..\Dev\Library embedded l2c display\u8g2\csrc/u8x8_d_ist3020.c ****   U8X8_C(0x028|4),		                /* all power  control circuits on */
 118:..\..\..\..\..\..\Dev\Library embedded l2c display\u8g2\csrc/u8x8_d_ist3020.c ****   U8X8_DLY(50),
 119:..\..\..\..\..\..\Dev\Library embedded l2c display\u8g2\csrc/u8x8_d_ist3020.c ****   U8X8_C(0x028|6),		                /* all power  control circuits on */
 120:..\..\..\..\..\..\Dev\Library embedded l2c display\u8g2\csrc/u8x8_d_ist3020.c ****   U8X8_DLY(50),
 121:..\..\..\..\..\..\Dev\Library embedded l2c display\u8g2\csrc/u8x8_d_ist3020.c ****   U8X8_C(0x028|7),		                /* all power  control circuits on */
 122:..\..\..\..\..\..\Dev\Library embedded l2c display\u8g2\csrc/u8x8_d_ist3020.c ****   U8X8_DLY(50),
 123:..\..\..\..\..\..\Dev\Library embedded l2c display\u8g2\csrc/u8x8_d_ist3020.c ****   
 124:..\..\..\..\..\..\Dev\Library embedded l2c display\u8g2\csrc/u8x8_d_ist3020.c ****   U8X8_C(0x020),		                /* v0 voltage resistor ratio */
 125:..\..\..\..\..\..\Dev\Library embedded l2c display\u8g2\csrc/u8x8_d_ist3020.c ****   U8X8_CA(0x081, 0x019),		/* set contrast, contrast value (from ER code: 45) */
 126:..\..\..\..\..\..\Dev\Library embedded l2c display\u8g2\csrc/u8x8_d_ist3020.c ****   
 127:..\..\..\..\..\..\Dev\Library embedded l2c display\u8g2\csrc/u8x8_d_ist3020.c ****   U8X8_C(0x0ae),		                /* display off */
 128:..\..\..\..\..\..\Dev\Library embedded l2c display\u8g2\csrc/u8x8_d_ist3020.c ****   U8X8_C(0x0a5),		                /* enter powersafe: all pixel on, issue 142 */
 129:..\..\..\..\..\..\Dev\Library embedded l2c display\u8g2\csrc/u8x8_d_ist3020.c ****    
 130:..\..\..\..\..\..\Dev\Library embedded l2c display\u8g2\csrc/u8x8_d_ist3020.c ****   U8X8_END_TRANSFER(),             	/* disable chip */
 131:..\..\..\..\..\..\Dev\Library embedded l2c display\u8g2\csrc/u8x8_d_ist3020.c ****   U8X8_END()             			/* end of sequence */
 132:..\..\..\..\..\..\Dev\Library embedded l2c display\u8g2\csrc/u8x8_d_ist3020.c **** };
 133:..\..\..\..\..\..\Dev\Library embedded l2c display\u8g2\csrc/u8x8_d_ist3020.c **** 
 134:..\..\..\..\..\..\Dev\Library embedded l2c display\u8g2\csrc/u8x8_d_ist3020.c **** uint8_t u8x8_d_ist3020_erc19264(u8x8_t *u8x8, uint8_t msg, uint8_t arg_int, void *arg_ptr)
 135:..\..\..\..\..\..\Dev\Library embedded l2c display\u8g2\csrc/u8x8_d_ist3020.c **** {
  28              		.loc 1 135 0
  29              		.cfi_startproc
  30              		@ args = 0, pretend = 0, frame = 0
  31              		@ frame_needed = 0, uses_anonymous_args = 0
  32              	.LVL0:
  33 0000 F8B5     		push	{r3, r4, r5, r6, r7, lr}
  34              		.cfi_def_cfa_offset 24
  35              		.cfi_offset 3, -24
  36              		.cfi_offset 4, -20
ARM GAS  C:\Users\Abude\AppData\Local\Temp\cc1FYLLw.s 			page 4


  37              		.cfi_offset 5, -16
  38              		.cfi_offset 6, -12
  39              		.cfi_offset 7, -8
  40              		.cfi_offset 14, -4
  41 0002 0546     		mov	r5, r0
  42 0004 1446     		mov	r4, r2
  43 0006 1F46     		mov	r7, r3
 136:..\..\..\..\..\..\Dev\Library embedded l2c display\u8g2\csrc/u8x8_d_ist3020.c ****   uint8_t x, c;
 137:..\..\..\..\..\..\Dev\Library embedded l2c display\u8g2\csrc/u8x8_d_ist3020.c ****   uint8_t *ptr;
 138:..\..\..\..\..\..\Dev\Library embedded l2c display\u8g2\csrc/u8x8_d_ist3020.c ****   switch(msg)
  44              		.loc 1 138 0
  45 0008 0939     		subs	r1, r1, #9
  46              	.LVL1:
  47 000a 0629     		cmp	r1, #6
  48 000c 6BD8     		bhi	.L13
  49 000e DFE801F0 		tbb	[pc, r1]
  50              	.LVL2:
  51              	.L4:
  52 0012 04       		.byte	(.L3-.L4)/2
  53 0013 09       		.byte	(.L5-.L4)/2
  54 0014 11       		.byte	(.L6-.L4)/2
  55 0015 6A       		.byte	(.L13-.L4)/2
  56 0016 1C       		.byte	(.L7-.L4)/2
  57 0017 2F       		.byte	(.L8-.L4)/2
  58 0018 3E       		.byte	(.L9-.L4)/2
  59 0019 00       		.p2align 1
  60              	.L3:
 139:..\..\..\..\..\..\Dev\Library embedded l2c display\u8g2\csrc/u8x8_d_ist3020.c ****   {
 140:..\..\..\..\..\..\Dev\Library embedded l2c display\u8g2\csrc/u8x8_d_ist3020.c ****     case U8X8_MSG_DISPLAY_SETUP_MEMORY:
 141:..\..\..\..\..\..\Dev\Library embedded l2c display\u8g2\csrc/u8x8_d_ist3020.c ****       u8x8_d_helper_display_setup_memory(u8x8, &u8x8_ist3020_erc19264_display_info);
  61              		.loc 1 141 0
  62 001a 3449     		ldr	r1, .L15
  63 001c FFF7FEFF 		bl	u8x8_d_helper_display_setup_memory
  64              	.LVL3:
 142:..\..\..\..\..\..\Dev\Library embedded l2c display\u8g2\csrc/u8x8_d_ist3020.c ****       break;
 143:..\..\..\..\..\..\Dev\Library embedded l2c display\u8g2\csrc/u8x8_d_ist3020.c ****     case U8X8_MSG_DISPLAY_INIT:
 144:..\..\..\..\..\..\Dev\Library embedded l2c display\u8g2\csrc/u8x8_d_ist3020.c ****       u8x8_d_helper_display_init(u8x8);
 145:..\..\..\..\..\..\Dev\Library embedded l2c display\u8g2\csrc/u8x8_d_ist3020.c ****       u8x8_cad_SendSequence(u8x8, u8x8_d_ist3020_erc19264_init_seq);
 146:..\..\..\..\..\..\Dev\Library embedded l2c display\u8g2\csrc/u8x8_d_ist3020.c ****       break;
 147:..\..\..\..\..\..\Dev\Library embedded l2c display\u8g2\csrc/u8x8_d_ist3020.c ****     case U8X8_MSG_DISPLAY_SET_POWER_SAVE:
 148:..\..\..\..\..\..\Dev\Library embedded l2c display\u8g2\csrc/u8x8_d_ist3020.c ****       if ( arg_int == 0 )
 149:..\..\..\..\..\..\Dev\Library embedded l2c display\u8g2\csrc/u8x8_d_ist3020.c **** 	u8x8_cad_SendSequence(u8x8, u8x8_d_ist3020_erc19264_powersave0_seq);
 150:..\..\..\..\..\..\Dev\Library embedded l2c display\u8g2\csrc/u8x8_d_ist3020.c ****       else
 151:..\..\..\..\..\..\Dev\Library embedded l2c display\u8g2\csrc/u8x8_d_ist3020.c **** 	u8x8_cad_SendSequence(u8x8, u8x8_d_ist3020_erc19264_powersave1_seq);
 152:..\..\..\..\..\..\Dev\Library embedded l2c display\u8g2\csrc/u8x8_d_ist3020.c ****       break;
 153:..\..\..\..\..\..\Dev\Library embedded l2c display\u8g2\csrc/u8x8_d_ist3020.c ****     case U8X8_MSG_DISPLAY_SET_FLIP_MODE:
 154:..\..\..\..\..\..\Dev\Library embedded l2c display\u8g2\csrc/u8x8_d_ist3020.c ****       if ( arg_int == 0 )
 155:..\..\..\..\..\..\Dev\Library embedded l2c display\u8g2\csrc/u8x8_d_ist3020.c ****       {
 156:..\..\..\..\..\..\Dev\Library embedded l2c display\u8g2\csrc/u8x8_d_ist3020.c **** 	u8x8_cad_SendSequence(u8x8, u8x8_d_ist3020_erc19264_flip0_seq);
 157:..\..\..\..\..\..\Dev\Library embedded l2c display\u8g2\csrc/u8x8_d_ist3020.c **** 	u8x8->x_offset = u8x8->display_info->default_x_offset;
 158:..\..\..\..\..\..\Dev\Library embedded l2c display\u8g2\csrc/u8x8_d_ist3020.c ****       }
 159:..\..\..\..\..\..\Dev\Library embedded l2c display\u8g2\csrc/u8x8_d_ist3020.c ****       else
 160:..\..\..\..\..\..\Dev\Library embedded l2c display\u8g2\csrc/u8x8_d_ist3020.c ****       {
 161:..\..\..\..\..\..\Dev\Library embedded l2c display\u8g2\csrc/u8x8_d_ist3020.c **** 	u8x8_cad_SendSequence(u8x8, u8x8_d_ist3020_erc19264_flip1_seq);
 162:..\..\..\..\..\..\Dev\Library embedded l2c display\u8g2\csrc/u8x8_d_ist3020.c **** 	u8x8->x_offset = u8x8->display_info->flipmode_x_offset;
 163:..\..\..\..\..\..\Dev\Library embedded l2c display\u8g2\csrc/u8x8_d_ist3020.c ****       }	
 164:..\..\..\..\..\..\Dev\Library embedded l2c display\u8g2\csrc/u8x8_d_ist3020.c ****       break;
ARM GAS  C:\Users\Abude\AppData\Local\Temp\cc1FYLLw.s 			page 5


 165:..\..\..\..\..\..\Dev\Library embedded l2c display\u8g2\csrc/u8x8_d_ist3020.c **** #ifdef U8X8_WITH_SET_CONTRAST
 166:..\..\..\..\..\..\Dev\Library embedded l2c display\u8g2\csrc/u8x8_d_ist3020.c ****     case U8X8_MSG_DISPLAY_SET_CONTRAST:
 167:..\..\..\..\..\..\Dev\Library embedded l2c display\u8g2\csrc/u8x8_d_ist3020.c ****       u8x8_cad_StartTransfer(u8x8);
 168:..\..\..\..\..\..\Dev\Library embedded l2c display\u8g2\csrc/u8x8_d_ist3020.c ****       u8x8_cad_SendCmd(u8x8, 0x081 );
 169:..\..\..\..\..\..\Dev\Library embedded l2c display\u8g2\csrc/u8x8_d_ist3020.c ****       u8x8_cad_SendArg(u8x8, arg_int >> 2 );	/* st7567 has range from 0 to 63 */
 170:..\..\..\..\..\..\Dev\Library embedded l2c display\u8g2\csrc/u8x8_d_ist3020.c ****       u8x8_cad_EndTransfer(u8x8);
 171:..\..\..\..\..\..\Dev\Library embedded l2c display\u8g2\csrc/u8x8_d_ist3020.c ****       break;
 172:..\..\..\..\..\..\Dev\Library embedded l2c display\u8g2\csrc/u8x8_d_ist3020.c **** #endif
 173:..\..\..\..\..\..\Dev\Library embedded l2c display\u8g2\csrc/u8x8_d_ist3020.c ****     case U8X8_MSG_DISPLAY_DRAW_TILE:
 174:..\..\..\..\..\..\Dev\Library embedded l2c display\u8g2\csrc/u8x8_d_ist3020.c ****       u8x8_cad_StartTransfer(u8x8);
 175:..\..\..\..\..\..\Dev\Library embedded l2c display\u8g2\csrc/u8x8_d_ist3020.c ****     
 176:..\..\..\..\..\..\Dev\Library embedded l2c display\u8g2\csrc/u8x8_d_ist3020.c ****       x = ((u8x8_tile_t *)arg_ptr)->x_pos;
 177:..\..\..\..\..\..\Dev\Library embedded l2c display\u8g2\csrc/u8x8_d_ist3020.c ****       x *= 8;
 178:..\..\..\..\..\..\Dev\Library embedded l2c display\u8g2\csrc/u8x8_d_ist3020.c ****       x += u8x8->x_offset;
 179:..\..\..\..\..\..\Dev\Library embedded l2c display\u8g2\csrc/u8x8_d_ist3020.c ****       u8x8_cad_SendCmd(u8x8, 0x010 | (x>>4) );
 180:..\..\..\..\..\..\Dev\Library embedded l2c display\u8g2\csrc/u8x8_d_ist3020.c ****       u8x8_cad_SendCmd(u8x8, 0x000 | ((x&15)));
 181:..\..\..\..\..\..\Dev\Library embedded l2c display\u8g2\csrc/u8x8_d_ist3020.c ****       u8x8_cad_SendCmd(u8x8, 0x0b0 | (((u8x8_tile_t *)arg_ptr)->y_pos));
 182:..\..\..\..\..\..\Dev\Library embedded l2c display\u8g2\csrc/u8x8_d_ist3020.c ****     
 183:..\..\..\..\..\..\Dev\Library embedded l2c display\u8g2\csrc/u8x8_d_ist3020.c ****       c = ((u8x8_tile_t *)arg_ptr)->cnt;
 184:..\..\..\..\..\..\Dev\Library embedded l2c display\u8g2\csrc/u8x8_d_ist3020.c ****       c *= 8;
 185:..\..\..\..\..\..\Dev\Library embedded l2c display\u8g2\csrc/u8x8_d_ist3020.c ****       ptr = ((u8x8_tile_t *)arg_ptr)->tile_ptr;
 186:..\..\..\..\..\..\Dev\Library embedded l2c display\u8g2\csrc/u8x8_d_ist3020.c ****       do
 187:..\..\..\..\..\..\Dev\Library embedded l2c display\u8g2\csrc/u8x8_d_ist3020.c ****       {
 188:..\..\..\..\..\..\Dev\Library embedded l2c display\u8g2\csrc/u8x8_d_ist3020.c **** 	u8x8_cad_SendData(u8x8, c, ptr);	/* note: SendData can not handle more than 255 bytes */
 189:..\..\..\..\..\..\Dev\Library embedded l2c display\u8g2\csrc/u8x8_d_ist3020.c **** 	arg_int--;
 190:..\..\..\..\..\..\Dev\Library embedded l2c display\u8g2\csrc/u8x8_d_ist3020.c ****       } while( arg_int > 0 );
 191:..\..\..\..\..\..\Dev\Library embedded l2c display\u8g2\csrc/u8x8_d_ist3020.c ****       
 192:..\..\..\..\..\..\Dev\Library embedded l2c display\u8g2\csrc/u8x8_d_ist3020.c ****       u8x8_cad_EndTransfer(u8x8);
 193:..\..\..\..\..\..\Dev\Library embedded l2c display\u8g2\csrc/u8x8_d_ist3020.c ****       break;
 194:..\..\..\..\..\..\Dev\Library embedded l2c display\u8g2\csrc/u8x8_d_ist3020.c ****     default:
 195:..\..\..\..\..\..\Dev\Library embedded l2c display\u8g2\csrc/u8x8_d_ist3020.c ****       return 0;
 196:..\..\..\..\..\..\Dev\Library embedded l2c display\u8g2\csrc/u8x8_d_ist3020.c ****   }
 197:..\..\..\..\..\..\Dev\Library embedded l2c display\u8g2\csrc/u8x8_d_ist3020.c ****   return 1;
  65              		.loc 1 197 0
  66 0020 0120     		movs	r0, #1
 142:..\..\..\..\..\..\Dev\Library embedded l2c display\u8g2\csrc/u8x8_d_ist3020.c ****       break;
  67              		.loc 1 142 0
  68 0022 F8BD     		pop	{r3, r4, r5, r6, r7, pc}
  69              	.LVL4:
  70              	.L5:
 144:..\..\..\..\..\..\Dev\Library embedded l2c display\u8g2\csrc/u8x8_d_ist3020.c ****       u8x8_cad_SendSequence(u8x8, u8x8_d_ist3020_erc19264_init_seq);
  71              		.loc 1 144 0
  72 0024 FFF7FEFF 		bl	u8x8_d_helper_display_init
  73              	.LVL5:
 145:..\..\..\..\..\..\Dev\Library embedded l2c display\u8g2\csrc/u8x8_d_ist3020.c ****       break;
  74              		.loc 1 145 0
  75 0028 3149     		ldr	r1, .L15+4
  76 002a 2846     		mov	r0, r5
  77 002c FFF7FEFF 		bl	u8x8_cad_SendSequence
  78              	.LVL6:
  79              		.loc 1 197 0
  80 0030 0120     		movs	r0, #1
 146:..\..\..\..\..\..\Dev\Library embedded l2c display\u8g2\csrc/u8x8_d_ist3020.c ****     case U8X8_MSG_DISPLAY_SET_POWER_SAVE:
  81              		.loc 1 146 0
  82 0032 F8BD     		pop	{r3, r4, r5, r6, r7, pc}
  83              	.LVL7:
  84              	.L6:
ARM GAS  C:\Users\Abude\AppData\Local\Temp\cc1FYLLw.s 			page 6


 148:..\..\..\..\..\..\Dev\Library embedded l2c display\u8g2\csrc/u8x8_d_ist3020.c **** 	u8x8_cad_SendSequence(u8x8, u8x8_d_ist3020_erc19264_powersave0_seq);
  85              		.loc 1 148 0
  86 0034 22B9     		cbnz	r2, .L10
 149:..\..\..\..\..\..\Dev\Library embedded l2c display\u8g2\csrc/u8x8_d_ist3020.c ****       else
  87              		.loc 1 149 0
  88 0036 2F49     		ldr	r1, .L15+8
  89 0038 FFF7FEFF 		bl	u8x8_cad_SendSequence
  90              	.LVL8:
  91              		.loc 1 197 0
  92 003c 0120     		movs	r0, #1
  93 003e F8BD     		pop	{r3, r4, r5, r6, r7, pc}
  94              	.LVL9:
  95              	.L10:
 151:..\..\..\..\..\..\Dev\Library embedded l2c display\u8g2\csrc/u8x8_d_ist3020.c ****       break;
  96              		.loc 1 151 0
  97 0040 2D49     		ldr	r1, .L15+12
  98 0042 FFF7FEFF 		bl	u8x8_cad_SendSequence
  99              	.LVL10:
 100              		.loc 1 197 0
 101 0046 0120     		movs	r0, #1
 102 0048 F8BD     		pop	{r3, r4, r5, r6, r7, pc}
 103              	.LVL11:
 104              	.L7:
 154:..\..\..\..\..\..\Dev\Library embedded l2c display\u8g2\csrc/u8x8_d_ist3020.c ****       {
 105              		.loc 1 154 0
 106 004a 42B9     		cbnz	r2, .L11
 156:..\..\..\..\..\..\Dev\Library embedded l2c display\u8g2\csrc/u8x8_d_ist3020.c **** 	u8x8->x_offset = u8x8->display_info->default_x_offset;
 107              		.loc 1 156 0
 108 004c 2B49     		ldr	r1, .L15+16
 109 004e FFF7FEFF 		bl	u8x8_cad_SendSequence
 110              	.LVL12:
 157:..\..\..\..\..\..\Dev\Library embedded l2c display\u8g2\csrc/u8x8_d_ist3020.c ****       }
 111              		.loc 1 157 0
 112 0052 2B68     		ldr	r3, [r5]
 113 0054 9B7C     		ldrb	r3, [r3, #18]	@ zero_extendqisi2
 114 0056 85F82230 		strb	r3, [r5, #34]
 115              		.loc 1 197 0
 116 005a 0120     		movs	r0, #1
 117 005c F8BD     		pop	{r3, r4, r5, r6, r7, pc}
 118              	.LVL13:
 119              	.L11:
 161:..\..\..\..\..\..\Dev\Library embedded l2c display\u8g2\csrc/u8x8_d_ist3020.c **** 	u8x8->x_offset = u8x8->display_info->flipmode_x_offset;
 120              		.loc 1 161 0
 121 005e 2849     		ldr	r1, .L15+20
 122 0060 FFF7FEFF 		bl	u8x8_cad_SendSequence
 123              	.LVL14:
 162:..\..\..\..\..\..\Dev\Library embedded l2c display\u8g2\csrc/u8x8_d_ist3020.c ****       }	
 124              		.loc 1 162 0
 125 0064 2B68     		ldr	r3, [r5]
 126 0066 DB7C     		ldrb	r3, [r3, #19]	@ zero_extendqisi2
 127 0068 85F82230 		strb	r3, [r5, #34]
 128              		.loc 1 197 0
 129 006c 0120     		movs	r0, #1
 130 006e F8BD     		pop	{r3, r4, r5, r6, r7, pc}
 131              	.LVL15:
 132              	.L8:
 167:..\..\..\..\..\..\Dev\Library embedded l2c display\u8g2\csrc/u8x8_d_ist3020.c ****       u8x8_cad_SendCmd(u8x8, 0x081 );
ARM GAS  C:\Users\Abude\AppData\Local\Temp\cc1FYLLw.s 			page 7


 133              		.loc 1 167 0
 134 0070 FFF7FEFF 		bl	u8x8_cad_StartTransfer
 135              	.LVL16:
 168:..\..\..\..\..\..\Dev\Library embedded l2c display\u8g2\csrc/u8x8_d_ist3020.c ****       u8x8_cad_SendArg(u8x8, arg_int >> 2 );	/* st7567 has range from 0 to 63 */
 136              		.loc 1 168 0
 137 0074 8121     		movs	r1, #129
 138 0076 2846     		mov	r0, r5
 139 0078 FFF7FEFF 		bl	u8x8_cad_SendCmd
 140              	.LVL17:
 169:..\..\..\..\..\..\Dev\Library embedded l2c display\u8g2\csrc/u8x8_d_ist3020.c ****       u8x8_cad_EndTransfer(u8x8);
 141              		.loc 1 169 0
 142 007c A108     		lsrs	r1, r4, #2
 143 007e 2846     		mov	r0, r5
 144 0080 FFF7FEFF 		bl	u8x8_cad_SendArg
 145              	.LVL18:
 170:..\..\..\..\..\..\Dev\Library embedded l2c display\u8g2\csrc/u8x8_d_ist3020.c ****       break;
 146              		.loc 1 170 0
 147 0084 2846     		mov	r0, r5
 148 0086 FFF7FEFF 		bl	u8x8_cad_EndTransfer
 149              	.LVL19:
 150              		.loc 1 197 0
 151 008a 0120     		movs	r0, #1
 171:..\..\..\..\..\..\Dev\Library embedded l2c display\u8g2\csrc/u8x8_d_ist3020.c **** #endif
 152              		.loc 1 171 0
 153 008c F8BD     		pop	{r3, r4, r5, r6, r7, pc}
 154              	.LVL20:
 155              	.L9:
 174:..\..\..\..\..\..\Dev\Library embedded l2c display\u8g2\csrc/u8x8_d_ist3020.c ****     
 156              		.loc 1 174 0
 157 008e FFF7FEFF 		bl	u8x8_cad_StartTransfer
 158              	.LVL21:
 176:..\..\..\..\..\..\Dev\Library embedded l2c display\u8g2\csrc/u8x8_d_ist3020.c ****       x *= 8;
 159              		.loc 1 176 0
 160 0092 7E79     		ldrb	r6, [r7, #5]	@ zero_extendqisi2
 161              	.LVL22:
 177:..\..\..\..\..\..\Dev\Library embedded l2c display\u8g2\csrc/u8x8_d_ist3020.c ****       x += u8x8->x_offset;
 162              		.loc 1 177 0
 163 0094 F600     		lsls	r6, r6, #3
 164              	.LVL23:
 165 0096 F6B2     		uxtb	r6, r6
 166              	.LVL24:
 178:..\..\..\..\..\..\Dev\Library embedded l2c display\u8g2\csrc/u8x8_d_ist3020.c ****       u8x8_cad_SendCmd(u8x8, 0x010 | (x>>4) );
 167              		.loc 1 178 0
 168 0098 95F82230 		ldrb	r3, [r5, #34]	@ zero_extendqisi2
 169 009c 1E44     		add	r6, r6, r3
 170              	.LVL25:
 171 009e F6B2     		uxtb	r6, r6
 172              	.LVL26:
 179:..\..\..\..\..\..\Dev\Library embedded l2c display\u8g2\csrc/u8x8_d_ist3020.c ****       u8x8_cad_SendCmd(u8x8, 0x000 | ((x&15)));
 173              		.loc 1 179 0
 174 00a0 3109     		lsrs	r1, r6, #4
 175 00a2 41F01001 		orr	r1, r1, #16
 176 00a6 2846     		mov	r0, r5
 177 00a8 FFF7FEFF 		bl	u8x8_cad_SendCmd
 178              	.LVL27:
 180:..\..\..\..\..\..\Dev\Library embedded l2c display\u8g2\csrc/u8x8_d_ist3020.c ****       u8x8_cad_SendCmd(u8x8, 0x0b0 | (((u8x8_tile_t *)arg_ptr)->y_pos));
 179              		.loc 1 180 0
ARM GAS  C:\Users\Abude\AppData\Local\Temp\cc1FYLLw.s 			page 8


 180 00ac 06F00F01 		and	r1, r6, #15
 181 00b0 2846     		mov	r0, r5
 182 00b2 FFF7FEFF 		bl	u8x8_cad_SendCmd
 183              	.LVL28:
 181:..\..\..\..\..\..\Dev\Library embedded l2c display\u8g2\csrc/u8x8_d_ist3020.c ****     
 184              		.loc 1 181 0
 185 00b6 B979     		ldrb	r1, [r7, #6]	@ zero_extendqisi2
 186 00b8 41F0B001 		orr	r1, r1, #176
 187 00bc 2846     		mov	r0, r5
 188 00be FFF7FEFF 		bl	u8x8_cad_SendCmd
 189              	.LVL29:
 183:..\..\..\..\..\..\Dev\Library embedded l2c display\u8g2\csrc/u8x8_d_ist3020.c ****       c *= 8;
 190              		.loc 1 183 0
 191 00c2 3E79     		ldrb	r6, [r7, #4]	@ zero_extendqisi2
 192              	.LVL30:
 184:..\..\..\..\..\..\Dev\Library embedded l2c display\u8g2\csrc/u8x8_d_ist3020.c ****       ptr = ((u8x8_tile_t *)arg_ptr)->tile_ptr;
 193              		.loc 1 184 0
 194 00c4 F600     		lsls	r6, r6, #3
 195              	.LVL31:
 196 00c6 F6B2     		uxtb	r6, r6
 197              	.LVL32:
 185:..\..\..\..\..\..\Dev\Library embedded l2c display\u8g2\csrc/u8x8_d_ist3020.c ****       do
 198              		.loc 1 185 0
 199 00c8 3F68     		ldr	r7, [r7]
 200              	.LVL33:
 201              	.L12:
 188:..\..\..\..\..\..\Dev\Library embedded l2c display\u8g2\csrc/u8x8_d_ist3020.c **** 	arg_int--;
 202              		.loc 1 188 0 discriminator 1
 203 00ca 3A46     		mov	r2, r7
 204 00cc 3146     		mov	r1, r6
 205 00ce 2846     		mov	r0, r5
 206 00d0 FFF7FEFF 		bl	u8x8_cad_SendData
 207              	.LVL34:
 189:..\..\..\..\..\..\Dev\Library embedded l2c display\u8g2\csrc/u8x8_d_ist3020.c ****       } while( arg_int > 0 );
 208              		.loc 1 189 0 discriminator 1
 209 00d4 621E     		subs	r2, r4, #1
 210              	.LVL35:
 190:..\..\..\..\..\..\Dev\Library embedded l2c display\u8g2\csrc/u8x8_d_ist3020.c ****       
 211              		.loc 1 190 0 discriminator 1
 212 00d6 12F0FF04 		ands	r4, r2, #255
 213 00da F6D1     		bne	.L12
 192:..\..\..\..\..\..\Dev\Library embedded l2c display\u8g2\csrc/u8x8_d_ist3020.c ****       break;
 214              		.loc 1 192 0
 215 00dc 2846     		mov	r0, r5
 216 00de FFF7FEFF 		bl	u8x8_cad_EndTransfer
 217              	.LVL36:
 218              		.loc 1 197 0
 219 00e2 0120     		movs	r0, #1
 193:..\..\..\..\..\..\Dev\Library embedded l2c display\u8g2\csrc/u8x8_d_ist3020.c ****     default:
 220              		.loc 1 193 0
 221 00e4 F8BD     		pop	{r3, r4, r5, r6, r7, pc}
 222              	.LVL37:
 223              	.L13:
 195:..\..\..\..\..\..\Dev\Library embedded l2c display\u8g2\csrc/u8x8_d_ist3020.c ****   }
 224              		.loc 1 195 0
 225 00e6 0020     		movs	r0, #0
 226              	.LVL38:
ARM GAS  C:\Users\Abude\AppData\Local\Temp\cc1FYLLw.s 			page 9


 198:..\..\..\..\..\..\Dev\Library embedded l2c display\u8g2\csrc/u8x8_d_ist3020.c **** }
 227              		.loc 1 198 0
 228 00e8 F8BD     		pop	{r3, r4, r5, r6, r7, pc}
 229              	.LVL39:
 230              	.L16:
 231 00ea 00BF     		.align	2
 232              	.L15:
 233 00ec 00000000 		.word	.LANCHOR0
 234 00f0 18000000 		.word	.LANCHOR0+24
 235 00f4 44000000 		.word	.LANCHOR0+68
 236 00f8 4C000000 		.word	.LANCHOR0+76
 237 00fc 54000000 		.word	.LANCHOR0+84
 238 0100 5C000000 		.word	.LANCHOR0+92
 239              		.cfi_endproc
 240              	.LFE0:
 241              		.size	u8x8_d_ist3020_erc19264, .-u8x8_d_ist3020_erc19264
 242              		.section	.rodata
 243              		.align	2
 244              		.set	.LANCHOR0,. + 0
 245              		.type	u8x8_ist3020_erc19264_display_info, %object
 246              		.size	u8x8_ist3020_erc19264_display_info, 24
 247              	u8x8_ist3020_erc19264_display_info:
 248 0000 00       		.byte	0
 249 0001 01       		.byte	1
 250 0002 96       		.byte	-106
 251 0003 96       		.byte	-106
 252 0004 01       		.byte	1
 253 0005 01       		.byte	1
 254 0006 64       		.byte	100
 255 0007 64       		.byte	100
 256 0008 00093D00 		.word	4000000
 257 000c 00       		.byte	0
 258 000d 04       		.byte	4
 259 000e 28       		.byte	40
 260 000f 3C       		.byte	60
 261 0010 18       		.byte	24
 262 0011 08       		.byte	8
 263 0012 00       		.byte	0
 264 0013 40       		.byte	64
 265 0014 C000     		.short	192
 266 0016 4000     		.short	64
 267              		.type	u8x8_d_ist3020_erc19264_init_seq, %object
 268              		.size	u8x8_d_ist3020_erc19264_init_seq, 41
 269              	u8x8_d_ist3020_erc19264_init_seq:
 270 0018 18       		.byte	24
 271 0019 15       		.byte	21
 272 001a E2       		.byte	-30
 273 001b 15       		.byte	21
 274 001c AB       		.byte	-85
 275 001d 15       		.byte	21
 276 001e AE       		.byte	-82
 277 001f 15       		.byte	21
 278 0020 40       		.byte	64
 279 0021 15       		.byte	21
 280 0022 A0       		.byte	-96
 281 0023 15       		.byte	21
 282 0024 C8       		.byte	-56
ARM GAS  C:\Users\Abude\AppData\Local\Temp\cc1FYLLw.s 			page 10


 283 0025 15       		.byte	21
 284 0026 A6       		.byte	-90
 285 0027 15       		.byte	21
 286 0028 A3       		.byte	-93
 287 0029 15       		.byte	21
 288 002a 2C       		.byte	44
 289 002b FE       		.byte	-2
 290 002c 32       		.byte	50
 291 002d 15       		.byte	21
 292 002e 2E       		.byte	46
 293 002f FE       		.byte	-2
 294 0030 32       		.byte	50
 295 0031 15       		.byte	21
 296 0032 2F       		.byte	47
 297 0033 FE       		.byte	-2
 298 0034 32       		.byte	50
 299 0035 15       		.byte	21
 300 0036 20       		.byte	32
 301 0037 15       		.byte	21
 302 0038 81       		.byte	-127
 303 0039 16       		.byte	22
 304 003a 19       		.byte	25
 305 003b 15       		.byte	21
 306 003c AE       		.byte	-82
 307 003d 15       		.byte	21
 308 003e A5       		.byte	-91
 309 003f 19       		.byte	25
 310 0040 FF       		.byte	-1
 311 0041 000000   		.space	3
 312              		.type	u8x8_d_ist3020_erc19264_powersave0_seq, %object
 313              		.size	u8x8_d_ist3020_erc19264_powersave0_seq, 7
 314              	u8x8_d_ist3020_erc19264_powersave0_seq:
 315 0044 18       		.byte	24
 316 0045 15       		.byte	21
 317 0046 A4       		.byte	-92
 318 0047 15       		.byte	21
 319 0048 AF       		.byte	-81
 320 0049 19       		.byte	25
 321 004a FF       		.byte	-1
 322 004b 00       		.space	1
 323              		.type	u8x8_d_ist3020_erc19264_powersave1_seq, %object
 324              		.size	u8x8_d_ist3020_erc19264_powersave1_seq, 7
 325              	u8x8_d_ist3020_erc19264_powersave1_seq:
 326 004c 18       		.byte	24
 327 004d 15       		.byte	21
 328 004e AE       		.byte	-82
 329 004f 15       		.byte	21
 330 0050 A5       		.byte	-91
 331 0051 19       		.byte	25
 332 0052 FF       		.byte	-1
 333 0053 00       		.space	1
 334              		.type	u8x8_d_ist3020_erc19264_flip0_seq, %object
 335              		.size	u8x8_d_ist3020_erc19264_flip0_seq, 7
 336              	u8x8_d_ist3020_erc19264_flip0_seq:
 337 0054 18       		.byte	24
 338 0055 15       		.byte	21
 339 0056 A0       		.byte	-96
ARM GAS  C:\Users\Abude\AppData\Local\Temp\cc1FYLLw.s 			page 11


 340 0057 15       		.byte	21
 341 0058 C8       		.byte	-56
 342 0059 19       		.byte	25
 343 005a FF       		.byte	-1
 344 005b 00       		.space	1
 345              		.type	u8x8_d_ist3020_erc19264_flip1_seq, %object
 346              		.size	u8x8_d_ist3020_erc19264_flip1_seq, 7
 347              	u8x8_d_ist3020_erc19264_flip1_seq:
 348 005c 18       		.byte	24
 349 005d 15       		.byte	21
 350 005e A1       		.byte	-95
 351 005f 15       		.byte	21
 352 0060 C0       		.byte	-64
 353 0061 19       		.byte	25
 354 0062 FF       		.byte	-1
 355              		.text
 356              	.Letext0:
 357              		.file 2 "c:\\program files (x86)\\cypress\\psoc creator\\4.4\\psoc creator\\import\\gnu\\arm\\5.4.
 358              		.file 3 "c:\\program files (x86)\\cypress\\psoc creator\\4.4\\psoc creator\\import\\gnu\\arm\\5.4.
 359              		.file 4 "c:\\dev\\library embedded l2c display\\u8g2\\csrc\\u8x8.h"