ARM GAS  C:\Users\Abude\AppData\Local\Temp\ccjcMx1b.s 			page 1


   1              		.syntax unified
   2              		.cpu cortex-m3
   3              		.fpu softvfp
   4              		.eabi_attribute 20, 1
   5              		.eabi_attribute 21, 1
   6              		.eabi_attribute 23, 3
   7              		.eabi_attribute 24, 1
   8              		.eabi_attribute 25, 1
   9              		.eabi_attribute 26, 1
  10              		.eabi_attribute 30, 1
  11              		.eabi_attribute 34, 1
  12              		.eabi_attribute 18, 4
  13              		.thumb
  14              		.syntax unified
  15              		.file	"u8x8_display.c"
  16              		.text
  17              	.Ltext0:
  18              		.cfi_sections	.debug_frame
  19              		.section	.text.u8x8_d_helper_display_setup_memory,"ax",%progbits
  20              		.align	2
  21              		.global	u8x8_d_helper_display_setup_memory
  22              		.thumb
  23              		.thumb_func
  24              		.type	u8x8_d_helper_display_setup_memory, %function
  25              	u8x8_d_helper_display_setup_memory:
  26              	.LFB0:
  27              		.file 1 "..\\..\\..\\..\\..\\..\\Dev\\Library embedded l2c display\\u8g2\\csrc\\u8x8_display.c"
   1:..\..\..\..\..\..\Dev\Library embedded l2c display\u8g2\csrc/u8x8_display.c **** /*
   2:..\..\..\..\..\..\Dev\Library embedded l2c display\u8g2\csrc/u8x8_display.c ****   
   3:..\..\..\..\..\..\Dev\Library embedded l2c display\u8g2\csrc/u8x8_display.c ****   u8x8_display.c
   4:..\..\..\..\..\..\Dev\Library embedded l2c display\u8g2\csrc/u8x8_display.c ****   
   5:..\..\..\..\..\..\Dev\Library embedded l2c display\u8g2\csrc/u8x8_display.c ****   Universal 8bit Graphics Library (https://github.com/olikraus/u8g2/)
   6:..\..\..\..\..\..\Dev\Library embedded l2c display\u8g2\csrc/u8x8_display.c **** 
   7:..\..\..\..\..\..\Dev\Library embedded l2c display\u8g2\csrc/u8x8_display.c ****   Copyright (c) 2016, olikraus@gmail.com
   8:..\..\..\..\..\..\Dev\Library embedded l2c display\u8g2\csrc/u8x8_display.c ****   All rights reserved.
   9:..\..\..\..\..\..\Dev\Library embedded l2c display\u8g2\csrc/u8x8_display.c **** 
  10:..\..\..\..\..\..\Dev\Library embedded l2c display\u8g2\csrc/u8x8_display.c ****   Redistribution and use in source and binary forms, with or without modification, 
  11:..\..\..\..\..\..\Dev\Library embedded l2c display\u8g2\csrc/u8x8_display.c ****   are permitted provided that the following conditions are met:
  12:..\..\..\..\..\..\Dev\Library embedded l2c display\u8g2\csrc/u8x8_display.c **** 
  13:..\..\..\..\..\..\Dev\Library embedded l2c display\u8g2\csrc/u8x8_display.c ****   * Redistributions of source code must retain the above copyright notice, this list 
  14:..\..\..\..\..\..\Dev\Library embedded l2c display\u8g2\csrc/u8x8_display.c ****     of conditions and the following disclaimer.
  15:..\..\..\..\..\..\Dev\Library embedded l2c display\u8g2\csrc/u8x8_display.c ****     
  16:..\..\..\..\..\..\Dev\Library embedded l2c display\u8g2\csrc/u8x8_display.c ****   * Redistributions in binary form must reproduce the above copyright notice, this 
  17:..\..\..\..\..\..\Dev\Library embedded l2c display\u8g2\csrc/u8x8_display.c ****     list of conditions and the following disclaimer in the documentation and/or other 
  18:..\..\..\..\..\..\Dev\Library embedded l2c display\u8g2\csrc/u8x8_display.c ****     materials provided with the distribution.
  19:..\..\..\..\..\..\Dev\Library embedded l2c display\u8g2\csrc/u8x8_display.c **** 
  20:..\..\..\..\..\..\Dev\Library embedded l2c display\u8g2\csrc/u8x8_display.c ****   THIS SOFTWARE IS PROVIDED BY THE COPYRIGHT HOLDERS AND 
  21:..\..\..\..\..\..\Dev\Library embedded l2c display\u8g2\csrc/u8x8_display.c ****   CONTRIBUTORS "AS IS" AND ANY EXPRESS OR IMPLIED WARRANTIES, 
  22:..\..\..\..\..\..\Dev\Library embedded l2c display\u8g2\csrc/u8x8_display.c ****   INCLUDING, BUT NOT LIMITED TO, THE IMPLIED WARRANTIES OF 
  23:..\..\..\..\..\..\Dev\Library embedded l2c display\u8g2\csrc/u8x8_display.c ****   MERCHANTABILITY AND FITNESS FOR A PARTICULAR PURPOSE ARE 
  24:..\..\..\..\..\..\Dev\Library embedded l2c display\u8g2\csrc/u8x8_display.c ****   DISCLAIMED. IN NO EVENT SHALL THE COPYRIGHT HOLDER OR 
  25:..\..\..\..\..\..\Dev\Library embedded l2c display\u8g2\csrc/u8x8_display.c ****   CONTRIBUTORS BE LIABLE FOR ANY DIRECT, INDIRECT, INCIDENTAL, 
  26:..\..\..\..\..\..\Dev\Library embedded l2c display\u8g2\csrc/u8x8_display.c ****   SPECIAL, EXEMPLARY, OR CONSEQUENTIAL DAMAGES (INCLUDING, BUT 
  27:..\..\..\..\..\..\Dev\Library embedded l2c display\u8g2\csrc/u8x8_display.c ****   NOT LIMITED TO, PROCUREMENT OF SUBSTITUTE GOODS OR SERVICES; 
  28:..\..\..\..\..\..\Dev\Library embedded l2c display\u8g2\csrc/u8x8_display.c ****   LOSS OF USE, DATA, OR PROFITS; OR BUSINESS INTERRUPTION) HOWEVER 
  29:..\..\..\..\..\..\Dev\Library embedded l2c display\u8g2\csrc/u8x8_display.c ****   CAUSED AND ON ANY THEORY OF LIABILITY, WHETHER IN CONTRACT, 
  30:..\..\..\..\..\..\Dev\Library embedded l2c display\u8g2\csrc/u8x8_display.c ****   STRICT LIABILITY, OR TORT (INCLUDING NEGLIGENCE OR OTHERWISE) 
ARM GAS  C:\Users\Abude\AppData\Local\Temp\ccjcMx1b.s 			page 2


  31:..\..\..\..\..\..\Dev\Library embedded l2c display\u8g2\csrc/u8x8_display.c ****   ARISING IN ANY WAY OUT OF THE USE OF THIS SOFTWARE, EVEN IF 
  32:..\..\..\..\..\..\Dev\Library embedded l2c display\u8g2\csrc/u8x8_display.c ****   ADVISED OF THE POSSIBILITY OF SUCH DAMAGE.  
  33:..\..\..\..\..\..\Dev\Library embedded l2c display\u8g2\csrc/u8x8_display.c ****   
  34:..\..\..\..\..\..\Dev\Library embedded l2c display\u8g2\csrc/u8x8_display.c ****   
  35:..\..\..\..\..\..\Dev\Library embedded l2c display\u8g2\csrc/u8x8_display.c ****   Abstraction layer for the graphics controller.
  36:..\..\..\..\..\..\Dev\Library embedded l2c display\u8g2\csrc/u8x8_display.c ****   Main goal is the placement of a 8x8 pixel block (tile) on the display.
  37:..\..\..\..\..\..\Dev\Library embedded l2c display\u8g2\csrc/u8x8_display.c ****   
  38:..\..\..\..\..\..\Dev\Library embedded l2c display\u8g2\csrc/u8x8_display.c **** */
  39:..\..\..\..\..\..\Dev\Library embedded l2c display\u8g2\csrc/u8x8_display.c **** 
  40:..\..\..\..\..\..\Dev\Library embedded l2c display\u8g2\csrc/u8x8_display.c **** 
  41:..\..\..\..\..\..\Dev\Library embedded l2c display\u8g2\csrc/u8x8_display.c **** #include "u8x8.h"
  42:..\..\..\..\..\..\Dev\Library embedded l2c display\u8g2\csrc/u8x8_display.c **** 
  43:..\..\..\..\..\..\Dev\Library embedded l2c display\u8g2\csrc/u8x8_display.c **** 
  44:..\..\..\..\..\..\Dev\Library embedded l2c display\u8g2\csrc/u8x8_display.c **** /*==========================================*/
  45:..\..\..\..\..\..\Dev\Library embedded l2c display\u8g2\csrc/u8x8_display.c **** /* internal library function */
  46:..\..\..\..\..\..\Dev\Library embedded l2c display\u8g2\csrc/u8x8_display.c **** 
  47:..\..\..\..\..\..\Dev\Library embedded l2c display\u8g2\csrc/u8x8_display.c **** /*
  48:..\..\..\..\..\..\Dev\Library embedded l2c display\u8g2\csrc/u8x8_display.c ****   this is a helper function for the U8X8_MSG_DISPLAY_SETUP_MEMORY function.
  49:..\..\..\..\..\..\Dev\Library embedded l2c display\u8g2\csrc/u8x8_display.c ****   It can be called within the display callback function to carry out the usual standard tasks.
  50:..\..\..\..\..\..\Dev\Library embedded l2c display\u8g2\csrc/u8x8_display.c ****   
  51:..\..\..\..\..\..\Dev\Library embedded l2c display\u8g2\csrc/u8x8_display.c **** */
  52:..\..\..\..\..\..\Dev\Library embedded l2c display\u8g2\csrc/u8x8_display.c **** void u8x8_d_helper_display_setup_memory(u8x8_t *u8x8, const u8x8_display_info_t *display_info)
  53:..\..\..\..\..\..\Dev\Library embedded l2c display\u8g2\csrc/u8x8_display.c **** {
  28              		.loc 1 53 0
  29              		.cfi_startproc
  30              		@ args = 0, pretend = 0, frame = 0
  31              		@ frame_needed = 0, uses_anonymous_args = 0
  32              		@ link register save eliminated.
  33              	.LVL0:
  54:..\..\..\..\..\..\Dev\Library embedded l2c display\u8g2\csrc/u8x8_display.c ****       /* 1) set display info struct */
  55:..\..\..\..\..\..\Dev\Library embedded l2c display\u8g2\csrc/u8x8_display.c ****       u8x8->display_info = display_info;
  34              		.loc 1 55 0
  35 0000 0160     		str	r1, [r0]
  56:..\..\..\..\..\..\Dev\Library embedded l2c display\u8g2\csrc/u8x8_display.c ****       u8x8->x_offset = u8x8->display_info->default_x_offset;
  36              		.loc 1 56 0
  37 0002 8B7C     		ldrb	r3, [r1, #18]	@ zero_extendqisi2
  38 0004 80F82230 		strb	r3, [r0, #34]
  39 0008 7047     		bx	lr
  40              		.cfi_endproc
  41              	.LFE0:
  42              		.size	u8x8_d_helper_display_setup_memory, .-u8x8_d_helper_display_setup_memory
  43 000a 00BF     		.section	.text.u8x8_d_helper_display_init,"ax",%progbits
  44              		.align	2
  45              		.global	u8x8_d_helper_display_init
  46              		.thumb
  47              		.thumb_func
  48              		.type	u8x8_d_helper_display_init, %function
  49              	u8x8_d_helper_display_init:
  50              	.LFB1:
  57:..\..\..\..\..\..\Dev\Library embedded l2c display\u8g2\csrc/u8x8_display.c **** }
  58:..\..\..\..\..\..\Dev\Library embedded l2c display\u8g2\csrc/u8x8_display.c **** 
  59:..\..\..\..\..\..\Dev\Library embedded l2c display\u8g2\csrc/u8x8_display.c **** /*
  60:..\..\..\..\..\..\Dev\Library embedded l2c display\u8g2\csrc/u8x8_display.c ****   this is a helper function for the U8X8_MSG_DISPLAY_INIT function.
  61:..\..\..\..\..\..\Dev\Library embedded l2c display\u8g2\csrc/u8x8_display.c ****   It can be called within the display callback function to carry out the usual standard tasks.
  62:..\..\..\..\..\..\Dev\Library embedded l2c display\u8g2\csrc/u8x8_display.c ****   
  63:..\..\..\..\..\..\Dev\Library embedded l2c display\u8g2\csrc/u8x8_display.c **** */
  64:..\..\..\..\..\..\Dev\Library embedded l2c display\u8g2\csrc/u8x8_display.c **** void u8x8_d_helper_display_init(u8x8_t *u8x8)
ARM GAS  C:\Users\Abude\AppData\Local\Temp\ccjcMx1b.s 			page 3


  65:..\..\..\..\..\..\Dev\Library embedded l2c display\u8g2\csrc/u8x8_display.c **** {
  51              		.loc 1 65 0
  52              		.cfi_startproc
  53              		@ args = 0, pretend = 0, frame = 0
  54              		@ frame_needed = 0, uses_anonymous_args = 0
  55              	.LVL1:
  56 0000 38B5     		push	{r3, r4, r5, lr}
  57              		.cfi_def_cfa_offset 16
  58              		.cfi_offset 3, -16
  59              		.cfi_offset 4, -12
  60              		.cfi_offset 5, -8
  61              		.cfi_offset 14, -4
  62 0002 0446     		mov	r4, r0
  66:..\..\..\..\..\..\Dev\Library embedded l2c display\u8g2\csrc/u8x8_display.c ****       /* 2) apply port directions to the GPIO lines and apply default values for the IO lines*/
  67:..\..\..\..\..\..\Dev\Library embedded l2c display\u8g2\csrc/u8x8_display.c ****       u8x8_gpio_Init(u8x8);
  63              		.loc 1 67 0
  64 0004 4569     		ldr	r5, [r0, #20]
  65 0006 0023     		movs	r3, #0
  66 0008 1A46     		mov	r2, r3
  67 000a 2821     		movs	r1, #40
  68 000c A847     		blx	r5
  69              	.LVL2:
  68:..\..\..\..\..\..\Dev\Library embedded l2c display\u8g2\csrc/u8x8_display.c ****       u8x8_cad_Init(u8x8);              /* this will also call U8X8_MSG_BYTE_INIT, byte init will N
  70              		.loc 1 68 0
  71 000e E568     		ldr	r5, [r4, #12]
  72 0010 0023     		movs	r3, #0
  73 0012 1A46     		mov	r2, r3
  74 0014 1421     		movs	r1, #20
  75 0016 2046     		mov	r0, r4
  76 0018 A847     		blx	r5
  77              	.LVL3:
  69:..\..\..\..\..\..\Dev\Library embedded l2c display\u8g2\csrc/u8x8_display.c **** 
  70:..\..\..\..\..\..\Dev\Library embedded l2c display\u8g2\csrc/u8x8_display.c ****       /* 3) do reset */
  71:..\..\..\..\..\..\Dev\Library embedded l2c display\u8g2\csrc/u8x8_display.c ****       u8x8_gpio_SetReset(u8x8, 1);
  78              		.loc 1 71 0
  79 001a 0122     		movs	r2, #1
  80 001c 4B21     		movs	r1, #75
  81 001e 2046     		mov	r0, r4
  82 0020 FFF7FEFF 		bl	u8x8_gpio_call
  83              	.LVL4:
  72:..\..\..\..\..\..\Dev\Library embedded l2c display\u8g2\csrc/u8x8_display.c ****       u8x8_gpio_Delay(u8x8, U8X8_MSG_DELAY_MILLI, u8x8->display_info->reset_pulse_width_ms);
  84              		.loc 1 72 0
  85 0024 2368     		ldr	r3, [r4]
  86 0026 1A79     		ldrb	r2, [r3, #4]	@ zero_extendqisi2
  87 0028 2921     		movs	r1, #41
  88 002a 2046     		mov	r0, r4
  89 002c FFF7FEFF 		bl	u8x8_gpio_call
  90              	.LVL5:
  73:..\..\..\..\..\..\Dev\Library embedded l2c display\u8g2\csrc/u8x8_display.c ****       u8x8_gpio_SetReset(u8x8, 0);
  91              		.loc 1 73 0
  92 0030 0022     		movs	r2, #0
  93 0032 4B21     		movs	r1, #75
  94 0034 2046     		mov	r0, r4
  95 0036 FFF7FEFF 		bl	u8x8_gpio_call
  96              	.LVL6:
  74:..\..\..\..\..\..\Dev\Library embedded l2c display\u8g2\csrc/u8x8_display.c ****       u8x8_gpio_Delay(u8x8, U8X8_MSG_DELAY_MILLI, u8x8->display_info->reset_pulse_width_ms);
  97              		.loc 1 74 0
ARM GAS  C:\Users\Abude\AppData\Local\Temp\ccjcMx1b.s 			page 4


  98 003a 2368     		ldr	r3, [r4]
  99 003c 1A79     		ldrb	r2, [r3, #4]	@ zero_extendqisi2
 100 003e 2921     		movs	r1, #41
 101 0040 2046     		mov	r0, r4
 102 0042 FFF7FEFF 		bl	u8x8_gpio_call
 103              	.LVL7:
  75:..\..\..\..\..\..\Dev\Library embedded l2c display\u8g2\csrc/u8x8_display.c ****       u8x8_gpio_SetReset(u8x8, 1);
 104              		.loc 1 75 0
 105 0046 0122     		movs	r2, #1
 106 0048 4B21     		movs	r1, #75
 107 004a 2046     		mov	r0, r4
 108 004c FFF7FEFF 		bl	u8x8_gpio_call
 109              	.LVL8:
  76:..\..\..\..\..\..\Dev\Library embedded l2c display\u8g2\csrc/u8x8_display.c ****       u8x8_gpio_Delay(u8x8, U8X8_MSG_DELAY_MILLI, u8x8->display_info->post_reset_wait_ms);
 110              		.loc 1 76 0
 111 0050 2368     		ldr	r3, [r4]
 112 0052 5A79     		ldrb	r2, [r3, #5]	@ zero_extendqisi2
 113 0054 2921     		movs	r1, #41
 114 0056 2046     		mov	r0, r4
 115 0058 FFF7FEFF 		bl	u8x8_gpio_call
 116              	.LVL9:
 117 005c 38BD     		pop	{r3, r4, r5, pc}
 118              		.cfi_endproc
 119              	.LFE1:
 120              		.size	u8x8_d_helper_display_init, .-u8x8_d_helper_display_init
 121 005e 00BF     		.section	.text.u8x8_DrawTile,"ax",%progbits
 122              		.align	2
 123              		.global	u8x8_DrawTile
 124              		.thumb
 125              		.thumb_func
 126              		.type	u8x8_DrawTile, %function
 127              	u8x8_DrawTile:
 128              	.LFB2:
  77:..\..\..\..\..\..\Dev\Library embedded l2c display\u8g2\csrc/u8x8_display.c **** }    
  78:..\..\..\..\..\..\Dev\Library embedded l2c display\u8g2\csrc/u8x8_display.c **** 
  79:..\..\..\..\..\..\Dev\Library embedded l2c display\u8g2\csrc/u8x8_display.c **** /*==========================================*/
  80:..\..\..\..\..\..\Dev\Library embedded l2c display\u8g2\csrc/u8x8_display.c **** /* official functions */
  81:..\..\..\..\..\..\Dev\Library embedded l2c display\u8g2\csrc/u8x8_display.c **** 
  82:..\..\..\..\..\..\Dev\Library embedded l2c display\u8g2\csrc/u8x8_display.c **** uint8_t u8x8_DrawTile(u8x8_t *u8x8, uint8_t x, uint8_t y, uint8_t cnt, uint8_t *tile_ptr)
  83:..\..\..\..\..\..\Dev\Library embedded l2c display\u8g2\csrc/u8x8_display.c **** {
 129              		.loc 1 83 0
 130              		.cfi_startproc
 131              		@ args = 4, pretend = 0, frame = 8
 132              		@ frame_needed = 0, uses_anonymous_args = 0
 133              	.LVL10:
 134 0000 10B5     		push	{r4, lr}
 135              		.cfi_def_cfa_offset 8
 136              		.cfi_offset 4, -8
 137              		.cfi_offset 14, -4
 138 0002 82B0     		sub	sp, sp, #8
 139              		.cfi_def_cfa_offset 16
  84:..\..\..\..\..\..\Dev\Library embedded l2c display\u8g2\csrc/u8x8_display.c ****   u8x8_tile_t tile;
  85:..\..\..\..\..\..\Dev\Library embedded l2c display\u8g2\csrc/u8x8_display.c ****   tile.x_pos = x;
 140              		.loc 1 85 0
 141 0004 8DF80510 		strb	r1, [sp, #5]
  86:..\..\..\..\..\..\Dev\Library embedded l2c display\u8g2\csrc/u8x8_display.c ****   tile.y_pos = y;
 142              		.loc 1 86 0
ARM GAS  C:\Users\Abude\AppData\Local\Temp\ccjcMx1b.s 			page 5


 143 0008 8DF80620 		strb	r2, [sp, #6]
  87:..\..\..\..\..\..\Dev\Library embedded l2c display\u8g2\csrc/u8x8_display.c ****   tile.cnt = cnt;
 144              		.loc 1 87 0
 145 000c 8DF80430 		strb	r3, [sp, #4]
  88:..\..\..\..\..\..\Dev\Library embedded l2c display\u8g2\csrc/u8x8_display.c ****   tile.tile_ptr = tile_ptr;
 146              		.loc 1 88 0
 147 0010 02AB     		add	r3, sp, #8
 148              	.LVL11:
 149 0012 049A     		ldr	r2, [sp, #16]
 150              	.LVL12:
 151 0014 43F8082D 		str	r2, [r3, #-8]!
  89:..\..\..\..\..\..\Dev\Library embedded l2c display\u8g2\csrc/u8x8_display.c ****   return u8x8->display_cb(u8x8, U8X8_MSG_DISPLAY_DRAW_TILE, 1, (void *)&tile);
 152              		.loc 1 89 0
 153 0018 8468     		ldr	r4, [r0, #8]
 154 001a 0122     		movs	r2, #1
 155 001c 0F21     		movs	r1, #15
 156              	.LVL13:
 157 001e A047     		blx	r4
 158              	.LVL14:
  90:..\..\..\..\..\..\Dev\Library embedded l2c display\u8g2\csrc/u8x8_display.c **** }
 159              		.loc 1 90 0
 160 0020 02B0     		add	sp, sp, #8
 161              		.cfi_def_cfa_offset 8
 162              		@ sp needed
 163 0022 10BD     		pop	{r4, pc}
 164              		.cfi_endproc
 165              	.LFE2:
 166              		.size	u8x8_DrawTile, .-u8x8_DrawTile
 167              		.section	.text.u8x8_SetupMemory,"ax",%progbits
 168              		.align	2
 169              		.global	u8x8_SetupMemory
 170              		.thumb
 171              		.thumb_func
 172              		.type	u8x8_SetupMemory, %function
 173              	u8x8_SetupMemory:
 174              	.LFB3:
  91:..\..\..\..\..\..\Dev\Library embedded l2c display\u8g2\csrc/u8x8_display.c **** 
  92:..\..\..\..\..\..\Dev\Library embedded l2c display\u8g2\csrc/u8x8_display.c **** /* should be implemented as macro */
  93:..\..\..\..\..\..\Dev\Library embedded l2c display\u8g2\csrc/u8x8_display.c **** void u8x8_SetupMemory(u8x8_t *u8x8)
  94:..\..\..\..\..\..\Dev\Library embedded l2c display\u8g2\csrc/u8x8_display.c **** {
 175              		.loc 1 94 0
 176              		.cfi_startproc
 177              		@ args = 0, pretend = 0, frame = 0
 178              		@ frame_needed = 0, uses_anonymous_args = 0
 179              	.LVL15:
 180 0000 10B5     		push	{r4, lr}
 181              		.cfi_def_cfa_offset 8
 182              		.cfi_offset 4, -8
 183              		.cfi_offset 14, -4
  95:..\..\..\..\..\..\Dev\Library embedded l2c display\u8g2\csrc/u8x8_display.c ****   u8x8->display_cb(u8x8, U8X8_MSG_DISPLAY_SETUP_MEMORY, 0, NULL);  
 184              		.loc 1 95 0
 185 0002 8468     		ldr	r4, [r0, #8]
 186 0004 0023     		movs	r3, #0
 187 0006 1A46     		mov	r2, r3
 188 0008 0921     		movs	r1, #9
 189 000a A047     		blx	r4
 190              	.LVL16:
ARM GAS  C:\Users\Abude\AppData\Local\Temp\ccjcMx1b.s 			page 6


 191 000c 10BD     		pop	{r4, pc}
 192              		.cfi_endproc
 193              	.LFE3:
 194              		.size	u8x8_SetupMemory, .-u8x8_SetupMemory
 195 000e 00BF     		.section	.text.u8x8_InitInterface,"ax",%progbits
 196              		.align	2
 197              		.global	u8x8_InitInterface
 198              		.thumb
 199              		.thumb_func
 200              		.type	u8x8_InitInterface, %function
 201              	u8x8_InitInterface:
 202              	.LFB4:
  96:..\..\..\..\..\..\Dev\Library embedded l2c display\u8g2\csrc/u8x8_display.c **** }
  97:..\..\..\..\..\..\Dev\Library embedded l2c display\u8g2\csrc/u8x8_display.c **** 
  98:..\..\..\..\..\..\Dev\Library embedded l2c display\u8g2\csrc/u8x8_display.c **** /*
  99:..\..\..\..\..\..\Dev\Library embedded l2c display\u8g2\csrc/u8x8_display.c ****   This will just init the display interface, compared to InitDisplay, it will not issue a reset and
 100:..\..\..\..\..\..\Dev\Library embedded l2c display\u8g2\csrc/u8x8_display.c ****   Comparison:
 101:..\..\..\..\..\..\Dev\Library embedded l2c display\u8g2\csrc/u8x8_display.c ****   Call                                                  u8x8_InitInterface              u8x8_InitDi
 102:..\..\..\..\..\..\Dev\Library embedded l2c display\u8g2\csrc/u8x8_display.c ****   Init Interface                                                yes                                
 103:..\..\..\..\..\..\Dev\Library embedded l2c display\u8g2\csrc/u8x8_display.c ****   Reset Display                                                 no                                 
 104:..\..\..\..\..\..\Dev\Library embedded l2c display\u8g2\csrc/u8x8_display.c ****   Upload Display Init Code                              no                                      yes
 105:..\..\..\..\..\..\Dev\Library embedded l2c display\u8g2\csrc/u8x8_display.c **** 
 106:..\..\..\..\..\..\Dev\Library embedded l2c display\u8g2\csrc/u8x8_display.c ****   u8x8_InitInterface() is an alternative function to u8x8_InitDisplay(). Do not call both.
 107:..\..\..\..\..\..\Dev\Library embedded l2c display\u8g2\csrc/u8x8_display.c ****   
 108:..\..\..\..\..\..\Dev\Library embedded l2c display\u8g2\csrc/u8x8_display.c **** */
 109:..\..\..\..\..\..\Dev\Library embedded l2c display\u8g2\csrc/u8x8_display.c **** void u8x8_InitInterface(u8x8_t *u8x8)
 110:..\..\..\..\..\..\Dev\Library embedded l2c display\u8g2\csrc/u8x8_display.c **** {
 203              		.loc 1 110 0
 204              		.cfi_startproc
 205              		@ args = 0, pretend = 0, frame = 0
 206              		@ frame_needed = 0, uses_anonymous_args = 0
 207              	.LVL17:
 208 0000 38B5     		push	{r3, r4, r5, lr}
 209              		.cfi_def_cfa_offset 16
 210              		.cfi_offset 3, -16
 211              		.cfi_offset 4, -12
 212              		.cfi_offset 5, -8
 213              		.cfi_offset 14, -4
 214 0002 0446     		mov	r4, r0
 111:..\..\..\..\..\..\Dev\Library embedded l2c display\u8g2\csrc/u8x8_display.c ****   u8x8_gpio_Init(u8x8);
 215              		.loc 1 111 0
 216 0004 4569     		ldr	r5, [r0, #20]
 217 0006 0023     		movs	r3, #0
 218 0008 1A46     		mov	r2, r3
 219 000a 2821     		movs	r1, #40
 220 000c A847     		blx	r5
 221              	.LVL18:
 112:..\..\..\..\..\..\Dev\Library embedded l2c display\u8g2\csrc/u8x8_display.c ****   u8x8_cad_Init(u8x8);              /* this will also call U8X8_MSG_BYTE_INIT, byte init will NOT c
 222              		.loc 1 112 0
 223 000e E568     		ldr	r5, [r4, #12]
 224 0010 0023     		movs	r3, #0
 225 0012 1A46     		mov	r2, r3
 226 0014 1421     		movs	r1, #20
 227 0016 2046     		mov	r0, r4
 228 0018 A847     		blx	r5
 229              	.LVL19:
 230 001a 38BD     		pop	{r3, r4, r5, pc}
ARM GAS  C:\Users\Abude\AppData\Local\Temp\ccjcMx1b.s 			page 7


 231              		.cfi_endproc
 232              	.LFE4:
 233              		.size	u8x8_InitInterface, .-u8x8_InitInterface
 234              		.section	.text.u8x8_InitDisplay,"ax",%progbits
 235              		.align	2
 236              		.global	u8x8_InitDisplay
 237              		.thumb
 238              		.thumb_func
 239              		.type	u8x8_InitDisplay, %function
 240              	u8x8_InitDisplay:
 241              	.LFB5:
 113:..\..\..\..\..\..\Dev\Library embedded l2c display\u8g2\csrc/u8x8_display.c **** }
 114:..\..\..\..\..\..\Dev\Library embedded l2c display\u8g2\csrc/u8x8_display.c **** 
 115:..\..\..\..\..\..\Dev\Library embedded l2c display\u8g2\csrc/u8x8_display.c **** /*
 116:..\..\..\..\..\..\Dev\Library embedded l2c display\u8g2\csrc/u8x8_display.c ****   This will sent the display init message to the display.
 117:..\..\..\..\..\..\Dev\Library embedded l2c display\u8g2\csrc/u8x8_display.c ****   The display itself will then call u8x8_d_helper_display_init() from above. This includes:
 118:..\..\..\..\..\..\Dev\Library embedded l2c display\u8g2\csrc/u8x8_display.c ****     GPIO Init (set port directions)
 119:..\..\..\..\..\..\Dev\Library embedded l2c display\u8g2\csrc/u8x8_display.c ****     BYTE init (part of CAD init: which may set some levels)
 120:..\..\..\..\..\..\Dev\Library embedded l2c display\u8g2\csrc/u8x8_display.c ****     CAD init (which will set things like I2C default address)
 121:..\..\..\..\..\..\Dev\Library embedded l2c display\u8g2\csrc/u8x8_display.c ****     Issue a reset to the display: This will usually turn off the display
 122:..\..\..\..\..\..\Dev\Library embedded l2c display\u8g2\csrc/u8x8_display.c ****   Additonally each display will set the init code to the display, which will also turn of the displ
 123:..\..\..\..\..\..\Dev\Library embedded l2c display\u8g2\csrc/u8x8_display.c **** 
 124:..\..\..\..\..\..\Dev\Library embedded l2c display\u8g2\csrc/u8x8_display.c ****   Actually this procedure should be better called InitInterfaceAndDisplay, because it actually does
 125:..\..\..\..\..\..\Dev\Library embedded l2c display\u8g2\csrc/u8x8_display.c ****   (actually u8x8_InitInterface() is not called directly but only u8x8_gpio_Init and u8x8_cad_Init w
 126:..\..\..\..\..\..\Dev\Library embedded l2c display\u8g2\csrc/u8x8_display.c ****   in turn is called by u8x8_InitInterface())
 127:..\..\..\..\..\..\Dev\Library embedded l2c display\u8g2\csrc/u8x8_display.c **** 
 128:..\..\..\..\..\..\Dev\Library embedded l2c display\u8g2\csrc/u8x8_display.c **** 
 129:..\..\..\..\..\..\Dev\Library embedded l2c display\u8g2\csrc/u8x8_display.c ****   InitDisplay is called by the Arduino begin() function 
 130:..\..\..\..\..\..\Dev\Library embedded l2c display\u8g2\csrc/u8x8_display.c **** 
 131:..\..\..\..\..\..\Dev\Library embedded l2c display\u8g2\csrc/u8x8_display.c ****   In some cases it is not required to init the display (for example if the display is already runni
 132:..\..\..\..\..\..\Dev\Library embedded l2c display\u8g2\csrc/u8x8_display.c ****   Then InitDisplay can be skipped, but u8x8_InitInterface()  (== u8x8_gpio_Init() and u8x8_cad_Init
 133:..\..\..\..\..\..\Dev\Library embedded l2c display\u8g2\csrc/u8x8_display.c **** 
 134:..\..\..\..\..\..\Dev\Library embedded l2c display\u8g2\csrc/u8x8_display.c **** */
 135:..\..\..\..\..\..\Dev\Library embedded l2c display\u8g2\csrc/u8x8_display.c **** void u8x8_InitDisplay(u8x8_t *u8x8)
 136:..\..\..\..\..\..\Dev\Library embedded l2c display\u8g2\csrc/u8x8_display.c **** {
 242              		.loc 1 136 0
 243              		.cfi_startproc
 244              		@ args = 0, pretend = 0, frame = 0
 245              		@ frame_needed = 0, uses_anonymous_args = 0
 246              	.LVL20:
 247 0000 10B5     		push	{r4, lr}
 248              		.cfi_def_cfa_offset 8
 249              		.cfi_offset 4, -8
 250              		.cfi_offset 14, -4
 137:..\..\..\..\..\..\Dev\Library embedded l2c display\u8g2\csrc/u8x8_display.c ****   u8x8->display_cb(u8x8, U8X8_MSG_DISPLAY_INIT, 0, NULL);  
 251              		.loc 1 137 0
 252 0002 8468     		ldr	r4, [r0, #8]
 253 0004 0023     		movs	r3, #0
 254 0006 1A46     		mov	r2, r3
 255 0008 0A21     		movs	r1, #10
 256 000a A047     		blx	r4
 257              	.LVL21:
 258 000c 10BD     		pop	{r4, pc}
 259              		.cfi_endproc
 260              	.LFE5:
 261              		.size	u8x8_InitDisplay, .-u8x8_InitDisplay
 262 000e 00BF     		.section	.text.u8x8_SetPowerSave,"ax",%progbits
ARM GAS  C:\Users\Abude\AppData\Local\Temp\ccjcMx1b.s 			page 8


 263              		.align	2
 264              		.global	u8x8_SetPowerSave
 265              		.thumb
 266              		.thumb_func
 267              		.type	u8x8_SetPowerSave, %function
 268              	u8x8_SetPowerSave:
 269              	.LFB6:
 138:..\..\..\..\..\..\Dev\Library embedded l2c display\u8g2\csrc/u8x8_display.c **** }
 139:..\..\..\..\..\..\Dev\Library embedded l2c display\u8g2\csrc/u8x8_display.c **** 
 140:..\..\..\..\..\..\Dev\Library embedded l2c display\u8g2\csrc/u8x8_display.c **** void u8x8_SetPowerSave(u8x8_t *u8x8, uint8_t is_enable)
 141:..\..\..\..\..\..\Dev\Library embedded l2c display\u8g2\csrc/u8x8_display.c **** {
 270              		.loc 1 141 0
 271              		.cfi_startproc
 272              		@ args = 0, pretend = 0, frame = 0
 273              		@ frame_needed = 0, uses_anonymous_args = 0
 274              	.LVL22:
 275 0000 10B5     		push	{r4, lr}
 276              		.cfi_def_cfa_offset 8
 277              		.cfi_offset 4, -8
 278              		.cfi_offset 14, -4
 142:..\..\..\..\..\..\Dev\Library embedded l2c display\u8g2\csrc/u8x8_display.c ****   u8x8->display_cb(u8x8, U8X8_MSG_DISPLAY_SET_POWER_SAVE, is_enable, NULL);  
 279              		.loc 1 142 0
 280 0002 8468     		ldr	r4, [r0, #8]
 281 0004 0023     		movs	r3, #0
 282 0006 0A46     		mov	r2, r1
 283 0008 0B21     		movs	r1, #11
 284              	.LVL23:
 285 000a A047     		blx	r4
 286              	.LVL24:
 287 000c 10BD     		pop	{r4, pc}
 288              		.cfi_endproc
 289              	.LFE6:
 290              		.size	u8x8_SetPowerSave, .-u8x8_SetPowerSave
 291 000e 00BF     		.section	.text.u8x8_SetFlipMode,"ax",%progbits
 292              		.align	2
 293              		.global	u8x8_SetFlipMode
 294              		.thumb
 295              		.thumb_func
 296              		.type	u8x8_SetFlipMode, %function
 297              	u8x8_SetFlipMode:
 298              	.LFB7:
 143:..\..\..\..\..\..\Dev\Library embedded l2c display\u8g2\csrc/u8x8_display.c **** }
 144:..\..\..\..\..\..\Dev\Library embedded l2c display\u8g2\csrc/u8x8_display.c **** 
 145:..\..\..\..\..\..\Dev\Library embedded l2c display\u8g2\csrc/u8x8_display.c **** void u8x8_SetFlipMode(u8x8_t *u8x8, uint8_t mode)
 146:..\..\..\..\..\..\Dev\Library embedded l2c display\u8g2\csrc/u8x8_display.c **** {
 299              		.loc 1 146 0
 300              		.cfi_startproc
 301              		@ args = 0, pretend = 0, frame = 0
 302              		@ frame_needed = 0, uses_anonymous_args = 0
 303              	.LVL25:
 304 0000 10B5     		push	{r4, lr}
 305              		.cfi_def_cfa_offset 8
 306              		.cfi_offset 4, -8
 307              		.cfi_offset 14, -4
 147:..\..\..\..\..\..\Dev\Library embedded l2c display\u8g2\csrc/u8x8_display.c ****   u8x8->display_cb(u8x8, U8X8_MSG_DISPLAY_SET_FLIP_MODE, mode, NULL);  
 308              		.loc 1 147 0
 309 0002 8468     		ldr	r4, [r0, #8]
ARM GAS  C:\Users\Abude\AppData\Local\Temp\ccjcMx1b.s 			page 9


 310 0004 0023     		movs	r3, #0
 311 0006 0A46     		mov	r2, r1
 312 0008 0D21     		movs	r1, #13
 313              	.LVL26:
 314 000a A047     		blx	r4
 315              	.LVL27:
 316 000c 10BD     		pop	{r4, pc}
 317              		.cfi_endproc
 318              	.LFE7:
 319              		.size	u8x8_SetFlipMode, .-u8x8_SetFlipMode
 320 000e 00BF     		.section	.text.u8x8_SetContrast,"ax",%progbits
 321              		.align	2
 322              		.global	u8x8_SetContrast
 323              		.thumb
 324              		.thumb_func
 325              		.type	u8x8_SetContrast, %function
 326              	u8x8_SetContrast:
 327              	.LFB8:
 148:..\..\..\..\..\..\Dev\Library embedded l2c display\u8g2\csrc/u8x8_display.c **** }
 149:..\..\..\..\..\..\Dev\Library embedded l2c display\u8g2\csrc/u8x8_display.c **** 
 150:..\..\..\..\..\..\Dev\Library embedded l2c display\u8g2\csrc/u8x8_display.c **** void u8x8_SetContrast(u8x8_t *u8x8, uint8_t value)
 151:..\..\..\..\..\..\Dev\Library embedded l2c display\u8g2\csrc/u8x8_display.c **** {
 328              		.loc 1 151 0
 329              		.cfi_startproc
 330              		@ args = 0, pretend = 0, frame = 0
 331              		@ frame_needed = 0, uses_anonymous_args = 0
 332              	.LVL28:
 333 0000 10B5     		push	{r4, lr}
 334              		.cfi_def_cfa_offset 8
 335              		.cfi_offset 4, -8
 336              		.cfi_offset 14, -4
 152:..\..\..\..\..\..\Dev\Library embedded l2c display\u8g2\csrc/u8x8_display.c ****   u8x8->display_cb(u8x8, U8X8_MSG_DISPLAY_SET_CONTRAST, value, NULL);  
 337              		.loc 1 152 0
 338 0002 8468     		ldr	r4, [r0, #8]
 339 0004 0023     		movs	r3, #0
 340 0006 0A46     		mov	r2, r1
 341 0008 0E21     		movs	r1, #14
 342              	.LVL29:
 343 000a A047     		blx	r4
 344              	.LVL30:
 345 000c 10BD     		pop	{r4, pc}
 346              		.cfi_endproc
 347              	.LFE8:
 348              		.size	u8x8_SetContrast, .-u8x8_SetContrast
 349 000e 00BF     		.section	.text.u8x8_RefreshDisplay,"ax",%progbits
 350              		.align	2
 351              		.global	u8x8_RefreshDisplay
 352              		.thumb
 353              		.thumb_func
 354              		.type	u8x8_RefreshDisplay, %function
 355              	u8x8_RefreshDisplay:
 356              	.LFB9:
 153:..\..\..\..\..\..\Dev\Library embedded l2c display\u8g2\csrc/u8x8_display.c **** }
 154:..\..\..\..\..\..\Dev\Library embedded l2c display\u8g2\csrc/u8x8_display.c **** 
 155:..\..\..\..\..\..\Dev\Library embedded l2c display\u8g2\csrc/u8x8_display.c **** void u8x8_RefreshDisplay(u8x8_t *u8x8)
 156:..\..\..\..\..\..\Dev\Library embedded l2c display\u8g2\csrc/u8x8_display.c **** {
 357              		.loc 1 156 0
ARM GAS  C:\Users\Abude\AppData\Local\Temp\ccjcMx1b.s 			page 10


 358              		.cfi_startproc
 359              		@ args = 0, pretend = 0, frame = 0
 360              		@ frame_needed = 0, uses_anonymous_args = 0
 361              	.LVL31:
 362 0000 10B5     		push	{r4, lr}
 363              		.cfi_def_cfa_offset 8
 364              		.cfi_offset 4, -8
 365              		.cfi_offset 14, -4
 157:..\..\..\..\..\..\Dev\Library embedded l2c display\u8g2\csrc/u8x8_display.c ****   u8x8->display_cb(u8x8, U8X8_MSG_DISPLAY_REFRESH, 0, NULL);  
 366              		.loc 1 157 0
 367 0002 8468     		ldr	r4, [r0, #8]
 368 0004 0023     		movs	r3, #0
 369 0006 1A46     		mov	r2, r3
 370 0008 1021     		movs	r1, #16
 371 000a A047     		blx	r4
 372              	.LVL32:
 373 000c 10BD     		pop	{r4, pc}
 374              		.cfi_endproc
 375              	.LFE9:
 376              		.size	u8x8_RefreshDisplay, .-u8x8_RefreshDisplay
 377 000e 00BF     		.section	.text.u8x8_ClearDisplayWithTile,"ax",%progbits
 378              		.align	2
 379              		.global	u8x8_ClearDisplayWithTile
 380              		.thumb
 381              		.thumb_func
 382              		.type	u8x8_ClearDisplayWithTile, %function
 383              	u8x8_ClearDisplayWithTile:
 384              	.LFB10:
 158:..\..\..\..\..\..\Dev\Library embedded l2c display\u8g2\csrc/u8x8_display.c **** }
 159:..\..\..\..\..\..\Dev\Library embedded l2c display\u8g2\csrc/u8x8_display.c **** 
 160:..\..\..\..\..\..\Dev\Library embedded l2c display\u8g2\csrc/u8x8_display.c **** void u8x8_ClearDisplayWithTile(u8x8_t *u8x8, const uint8_t *buf)
 161:..\..\..\..\..\..\Dev\Library embedded l2c display\u8g2\csrc/u8x8_display.c **** {
 385              		.loc 1 161 0
 386              		.cfi_startproc
 387              		@ args = 0, pretend = 0, frame = 8
 388              		@ frame_needed = 0, uses_anonymous_args = 0
 389              	.LVL33:
 390 0000 70B5     		push	{r4, r5, r6, lr}
 391              		.cfi_def_cfa_offset 16
 392              		.cfi_offset 4, -16
 393              		.cfi_offset 5, -12
 394              		.cfi_offset 6, -8
 395              		.cfi_offset 14, -4
 396 0002 82B0     		sub	sp, sp, #8
 397              		.cfi_def_cfa_offset 24
 398 0004 0446     		mov	r4, r0
 162:..\..\..\..\..\..\Dev\Library embedded l2c display\u8g2\csrc/u8x8_display.c ****   u8x8_tile_t tile;
 163:..\..\..\..\..\..\Dev\Library embedded l2c display\u8g2\csrc/u8x8_display.c ****   uint8_t h;
 164:..\..\..\..\..\..\Dev\Library embedded l2c display\u8g2\csrc/u8x8_display.c **** 
 165:..\..\..\..\..\..\Dev\Library embedded l2c display\u8g2\csrc/u8x8_display.c ****   tile.x_pos = 0;
 399              		.loc 1 165 0
 400 0006 0023     		movs	r3, #0
 401 0008 8DF80530 		strb	r3, [sp, #5]
 166:..\..\..\..\..\..\Dev\Library embedded l2c display\u8g2\csrc/u8x8_display.c ****   tile.cnt = 1;
 402              		.loc 1 166 0
 403 000c 0122     		movs	r2, #1
 404 000e 8DF80420 		strb	r2, [sp, #4]
ARM GAS  C:\Users\Abude\AppData\Local\Temp\ccjcMx1b.s 			page 11


 167:..\..\..\..\..\..\Dev\Library embedded l2c display\u8g2\csrc/u8x8_display.c ****   tile.tile_ptr = (uint8_t *)buf;		/* tile_ptr should be const, but isn't */
 405              		.loc 1 167 0
 406 0012 0091     		str	r1, [sp]
 168:..\..\..\..\..\..\Dev\Library embedded l2c display\u8g2\csrc/u8x8_display.c ****   
 169:..\..\..\..\..\..\Dev\Library embedded l2c display\u8g2\csrc/u8x8_display.c ****   h = u8x8->display_info->tile_height;
 407              		.loc 1 169 0
 408 0014 0268     		ldr	r2, [r0]
 409 0016 567C     		ldrb	r6, [r2, #17]	@ zero_extendqisi2
 410              	.LVL34:
 170:..\..\..\..\..\..\Dev\Library embedded l2c display\u8g2\csrc/u8x8_display.c ****   tile.y_pos = 0;
 411              		.loc 1 170 0
 412 0018 8DF80630 		strb	r3, [sp, #6]
 413              	.LVL35:
 414              	.L21:
 171:..\..\..\..\..\..\Dev\Library embedded l2c display\u8g2\csrc/u8x8_display.c ****   do
 172:..\..\..\..\..\..\Dev\Library embedded l2c display\u8g2\csrc/u8x8_display.c ****   {
 173:..\..\..\..\..\..\Dev\Library embedded l2c display\u8g2\csrc/u8x8_display.c ****     u8x8->display_cb(u8x8, U8X8_MSG_DISPLAY_DRAW_TILE, u8x8->display_info->tile_width, (void *)&til
 415              		.loc 1 173 0 discriminator 1
 416 001c A568     		ldr	r5, [r4, #8]
 417 001e 2268     		ldr	r2, [r4]
 418 0020 6B46     		mov	r3, sp
 419 0022 127C     		ldrb	r2, [r2, #16]	@ zero_extendqisi2
 420 0024 0F21     		movs	r1, #15
 421 0026 2046     		mov	r0, r4
 422 0028 A847     		blx	r5
 423              	.LVL36:
 174:..\..\..\..\..\..\Dev\Library embedded l2c display\u8g2\csrc/u8x8_display.c ****     tile.y_pos++;
 424              		.loc 1 174 0 discriminator 1
 425 002a 9DF80630 		ldrb	r3, [sp, #6]	@ zero_extendqisi2
 426 002e 0133     		adds	r3, r3, #1
 427 0030 DBB2     		uxtb	r3, r3
 428 0032 8DF80630 		strb	r3, [sp, #6]
 175:..\..\..\..\..\..\Dev\Library embedded l2c display\u8g2\csrc/u8x8_display.c ****   } while( tile.y_pos < h );
 429              		.loc 1 175 0 discriminator 1
 430 0036 9E42     		cmp	r6, r3
 431 0038 F0D8     		bhi	.L21
 176:..\..\..\..\..\..\Dev\Library embedded l2c display\u8g2\csrc/u8x8_display.c **** }
 432              		.loc 1 176 0
 433 003a 02B0     		add	sp, sp, #8
 434              		.cfi_def_cfa_offset 16
 435              		@ sp needed
 436 003c 70BD     		pop	{r4, r5, r6, pc}
 437              		.cfi_endproc
 438              	.LFE10:
 439              		.size	u8x8_ClearDisplayWithTile, .-u8x8_ClearDisplayWithTile
 440 003e 00BF     		.section	.text.u8x8_ClearDisplay,"ax",%progbits
 441              		.align	2
 442              		.global	u8x8_ClearDisplay
 443              		.thumb
 444              		.thumb_func
 445              		.type	u8x8_ClearDisplay, %function
 446              	u8x8_ClearDisplay:
 447              	.LFB11:
 177:..\..\..\..\..\..\Dev\Library embedded l2c display\u8g2\csrc/u8x8_display.c **** 
 178:..\..\..\..\..\..\Dev\Library embedded l2c display\u8g2\csrc/u8x8_display.c **** void u8x8_ClearDisplay(u8x8_t *u8x8)
 179:..\..\..\..\..\..\Dev\Library embedded l2c display\u8g2\csrc/u8x8_display.c **** {
 448              		.loc 1 179 0
ARM GAS  C:\Users\Abude\AppData\Local\Temp\ccjcMx1b.s 			page 12


 449              		.cfi_startproc
 450              		@ args = 0, pretend = 0, frame = 8
 451              		@ frame_needed = 0, uses_anonymous_args = 0
 452              	.LVL37:
 453 0000 00B5     		push	{lr}
 454              		.cfi_def_cfa_offset 4
 455              		.cfi_offset 14, -4
 456 0002 83B0     		sub	sp, sp, #12
 457              		.cfi_def_cfa_offset 16
 180:..\..\..\..\..\..\Dev\Library embedded l2c display\u8g2\csrc/u8x8_display.c ****   uint8_t buf[8] = { 0, 0, 0, 0, 0, 0, 0, 0 };
 458              		.loc 1 180 0
 459 0004 0023     		movs	r3, #0
 460 0006 0093     		str	r3, [sp]
 461 0008 0193     		str	r3, [sp, #4]
 181:..\..\..\..\..\..\Dev\Library embedded l2c display\u8g2\csrc/u8x8_display.c ****   u8x8_ClearDisplayWithTile(u8x8, buf);
 462              		.loc 1 181 0
 463 000a 6946     		mov	r1, sp
 464 000c FFF7FEFF 		bl	u8x8_ClearDisplayWithTile
 465              	.LVL38:
 182:..\..\..\..\..\..\Dev\Library embedded l2c display\u8g2\csrc/u8x8_display.c **** }
 466              		.loc 1 182 0
 467 0010 03B0     		add	sp, sp, #12
 468              		.cfi_def_cfa_offset 4
 469              		@ sp needed
 470 0012 5DF804FB 		ldr	pc, [sp], #4
 471              		.cfi_endproc
 472              	.LFE11:
 473              		.size	u8x8_ClearDisplay, .-u8x8_ClearDisplay
 474 0016 00BF     		.section	.text.u8x8_FillDisplay,"ax",%progbits
 475              		.align	2
 476              		.global	u8x8_FillDisplay
 477              		.thumb
 478              		.thumb_func
 479              		.type	u8x8_FillDisplay, %function
 480              	u8x8_FillDisplay:
 481              	.LFB12:
 183:..\..\..\..\..\..\Dev\Library embedded l2c display\u8g2\csrc/u8x8_display.c **** 
 184:..\..\..\..\..\..\Dev\Library embedded l2c display\u8g2\csrc/u8x8_display.c **** void u8x8_FillDisplay(u8x8_t *u8x8)
 185:..\..\..\..\..\..\Dev\Library embedded l2c display\u8g2\csrc/u8x8_display.c **** {
 482              		.loc 1 185 0
 483              		.cfi_startproc
 484              		@ args = 0, pretend = 0, frame = 8
 485              		@ frame_needed = 0, uses_anonymous_args = 0
 486              	.LVL39:
 487 0000 10B5     		push	{r4, lr}
 488              		.cfi_def_cfa_offset 8
 489              		.cfi_offset 4, -8
 490              		.cfi_offset 14, -4
 491 0002 82B0     		sub	sp, sp, #8
 492              		.cfi_def_cfa_offset 16
 493 0004 0446     		mov	r4, r0
 186:..\..\..\..\..\..\Dev\Library embedded l2c display\u8g2\csrc/u8x8_display.c ****   uint8_t buf[8] = { 255, 255, 255, 255, 255, 255, 255, 255 };
 494              		.loc 1 186 0
 495 0006 054A     		ldr	r2, .L27
 496 0008 6B46     		mov	r3, sp
 497 000a 1068     		ldr	r0, [r2]	@ unaligned
 498              	.LVL40:
ARM GAS  C:\Users\Abude\AppData\Local\Temp\ccjcMx1b.s 			page 13


 499 000c 5168     		ldr	r1, [r2, #4]	@ unaligned
 500 000e 03C3     		stmia	r3!, {r0, r1}
 187:..\..\..\..\..\..\Dev\Library embedded l2c display\u8g2\csrc/u8x8_display.c ****   u8x8_ClearDisplayWithTile(u8x8, buf);
 501              		.loc 1 187 0
 502 0010 6946     		mov	r1, sp
 503 0012 2046     		mov	r0, r4
 504 0014 FFF7FEFF 		bl	u8x8_ClearDisplayWithTile
 505              	.LVL41:
 188:..\..\..\..\..\..\Dev\Library embedded l2c display\u8g2\csrc/u8x8_display.c **** }
 506              		.loc 1 188 0
 507 0018 02B0     		add	sp, sp, #8
 508              		.cfi_def_cfa_offset 8
 509              		@ sp needed
 510 001a 10BD     		pop	{r4, pc}
 511              	.LVL42:
 512              	.L28:
 513              		.align	2
 514              	.L27:
 515 001c 00000000 		.word	.LANCHOR0
 516              		.cfi_endproc
 517              	.LFE12:
 518              		.size	u8x8_FillDisplay, .-u8x8_FillDisplay
 519              		.section	.text.u8x8_ClearLine,"ax",%progbits
 520              		.align	2
 521              		.global	u8x8_ClearLine
 522              		.thumb
 523              		.thumb_func
 524              		.type	u8x8_ClearLine, %function
 525              	u8x8_ClearLine:
 526              	.LFB13:
 189:..\..\..\..\..\..\Dev\Library embedded l2c display\u8g2\csrc/u8x8_display.c **** 
 190:..\..\..\..\..\..\Dev\Library embedded l2c display\u8g2\csrc/u8x8_display.c **** void u8x8_ClearLine(u8x8_t *u8x8, uint8_t line)
 191:..\..\..\..\..\..\Dev\Library embedded l2c display\u8g2\csrc/u8x8_display.c **** {
 527              		.loc 1 191 0
 528              		.cfi_startproc
 529              		@ args = 0, pretend = 0, frame = 16
 530              		@ frame_needed = 0, uses_anonymous_args = 0
 531              	.LVL43:
 532 0000 10B5     		push	{r4, lr}
 533              		.cfi_def_cfa_offset 8
 534              		.cfi_offset 4, -8
 535              		.cfi_offset 14, -4
 536 0002 84B0     		sub	sp, sp, #16
 537              		.cfi_def_cfa_offset 24
 192:..\..\..\..\..\..\Dev\Library embedded l2c display\u8g2\csrc/u8x8_display.c ****   uint8_t buf[8] = { 0, 0, 0, 0, 0, 0, 0, 0 };
 538              		.loc 1 192 0
 539 0004 0023     		movs	r3, #0
 540 0006 0293     		str	r3, [sp, #8]
 541 0008 0393     		str	r3, [sp, #12]
 193:..\..\..\..\..\..\Dev\Library embedded l2c display\u8g2\csrc/u8x8_display.c ****   u8x8_tile_t tile;
 194:..\..\..\..\..\..\Dev\Library embedded l2c display\u8g2\csrc/u8x8_display.c ****   if ( line < u8x8->display_info->tile_height )
 542              		.loc 1 194 0
 543 000a 0368     		ldr	r3, [r0]
 544 000c 5B7C     		ldrb	r3, [r3, #17]	@ zero_extendqisi2
 545 000e 8B42     		cmp	r3, r1
 546 0010 10D9     		bls	.L29
 195:..\..\..\..\..\..\Dev\Library embedded l2c display\u8g2\csrc/u8x8_display.c ****   {
ARM GAS  C:\Users\Abude\AppData\Local\Temp\ccjcMx1b.s 			page 14


 196:..\..\..\..\..\..\Dev\Library embedded l2c display\u8g2\csrc/u8x8_display.c ****     tile.x_pos = 0;
 547              		.loc 1 196 0
 548 0012 0023     		movs	r3, #0
 549 0014 8DF80530 		strb	r3, [sp, #5]
 197:..\..\..\..\..\..\Dev\Library embedded l2c display\u8g2\csrc/u8x8_display.c ****     tile.y_pos = line;
 550              		.loc 1 197 0
 551 0018 8DF80610 		strb	r1, [sp, #6]
 198:..\..\..\..\..\..\Dev\Library embedded l2c display\u8g2\csrc/u8x8_display.c ****     tile.cnt = 1;
 552              		.loc 1 198 0
 553 001c 0123     		movs	r3, #1
 554 001e 8DF80430 		strb	r3, [sp, #4]
 199:..\..\..\..\..\..\Dev\Library embedded l2c display\u8g2\csrc/u8x8_display.c ****     tile.tile_ptr = (uint8_t *)buf;		/* tile_ptr should be const, but isn't */
 555              		.loc 1 199 0
 556 0022 04AB     		add	r3, sp, #16
 557 0024 02AA     		add	r2, sp, #8
 558 0026 43F8102D 		str	r2, [r3, #-16]!
 200:..\..\..\..\..\..\Dev\Library embedded l2c display\u8g2\csrc/u8x8_display.c ****     u8x8->display_cb(u8x8, U8X8_MSG_DISPLAY_DRAW_TILE, u8x8->display_info->tile_width, (void *)&til
 559              		.loc 1 200 0
 560 002a 8468     		ldr	r4, [r0, #8]
 561 002c 0268     		ldr	r2, [r0]
 562 002e 127C     		ldrb	r2, [r2, #16]	@ zero_extendqisi2
 563 0030 0F21     		movs	r1, #15
 564              	.LVL44:
 565 0032 A047     		blx	r4
 566              	.LVL45:
 567              	.L29:
 201:..\..\..\..\..\..\Dev\Library embedded l2c display\u8g2\csrc/u8x8_display.c ****   }  
 202:..\..\..\..\..\..\Dev\Library embedded l2c display\u8g2\csrc/u8x8_display.c **** }...
 568              		.loc 1 202 0
 569 0034 04B0     		add	sp, sp, #16
 570              		.cfi_def_cfa_offset 8
 571              		@ sp needed
 572 0036 10BD     		pop	{r4, pc}
 573              		.cfi_endproc
 574              	.LFE13:
 575              		.size	u8x8_ClearLine, .-u8x8_ClearLine
 576              		.section	.rodata
 577              		.align	2
 578              		.set	.LANCHOR0,. + 0
 579              	.LC0:
 580 0000 FF       		.byte	-1
 581 0001 FF       		.byte	-1
 582 0002 FF       		.byte	-1
 583 0003 FF       		.byte	-1
 584 0004 FF       		.byte	-1
 585 0005 FF       		.byte	-1
 586 0006 FF       		.byte	-1
 587 0007 FF       		.byte	-1
 588              		.text
 589              	.Letext0:
 590              		.file 2 "c:\\program files (x86)\\cypress\\psoc creator\\4.4\\psoc creator\\import\\gnu\\arm\\5.4.
 591              		.file 3 "c:\\program files (x86)\\cypress\\psoc creator\\4.4\\psoc creator\\import\\gnu\\arm\\5.4.
 592              		.file 4 "c:\\dev\\library embedded l2c display\\u8g2\\csrc\\u8x8.h"