ARM GAS  C:\Users\Abude\AppData\Local\Temp\ccPJMszQ.s 			page 1


   1              		.syntax unified
   2              		.cpu cortex-m3
   3              		.fpu softvfp
   4              		.eabi_attribute 20, 1
   5              		.eabi_attribute 21, 1
   6              		.eabi_attribute 23, 3
   7              		.eabi_attribute 24, 1
   8              		.eabi_attribute 25, 1
   9              		.eabi_attribute 26, 1
  10              		.eabi_attribute 30, 1
  11              		.eabi_attribute 34, 1
  12              		.eabi_attribute 18, 4
  13              		.thumb
  14              		.syntax unified
  15              		.file	"u8x8_d_a2printer.c"
  16              		.text
  17              	.Ltext0:
  18              		.cfi_sections	.debug_frame
  19              		.section	.text.get_delay_in_milliseconds,"ax",%progbits
  20              		.align	2
  21              		.global	get_delay_in_milliseconds
  22              		.thumb
  23              		.thumb_func
  24              		.type	get_delay_in_milliseconds, %function
  25              	get_delay_in_milliseconds:
  26              	.LFB0:
  27              		.file 1 "..\\..\\..\\..\\..\\..\\Dev\\Library embedded l2c display\\u8g2\\csrc\\u8x8_d_a2printer.c
   1:..\..\..\..\..\..\Dev\Library embedded l2c display\u8g2\csrc/u8x8_d_a2printer.c **** /*
   2:..\..\..\..\..\..\Dev\Library embedded l2c display\u8g2\csrc/u8x8_d_a2printer.c **** 
   3:..\..\..\..\..\..\Dev\Library embedded l2c display\u8g2\csrc/u8x8_d_a2printer.c ****   u8x8_d_a2printer.c
   4:..\..\..\..\..\..\Dev\Library embedded l2c display\u8g2\csrc/u8x8_d_a2printer.c ****   
   5:..\..\..\..\..\..\Dev\Library embedded l2c display\u8g2\csrc/u8x8_d_a2printer.c ****   Universal 8bit Graphics Library (https://github.com/olikraus/u8g2/)
   6:..\..\..\..\..\..\Dev\Library embedded l2c display\u8g2\csrc/u8x8_d_a2printer.c **** 
   7:..\..\..\..\..\..\Dev\Library embedded l2c display\u8g2\csrc/u8x8_d_a2printer.c ****   Copyright (c) 2016, olikraus@gmail.com
   8:..\..\..\..\..\..\Dev\Library embedded l2c display\u8g2\csrc/u8x8_d_a2printer.c ****   All rights reserved.
   9:..\..\..\..\..\..\Dev\Library embedded l2c display\u8g2\csrc/u8x8_d_a2printer.c **** 
  10:..\..\..\..\..\..\Dev\Library embedded l2c display\u8g2\csrc/u8x8_d_a2printer.c ****   Redistribution and use in source and binary forms, with or without modification, 
  11:..\..\..\..\..\..\Dev\Library embedded l2c display\u8g2\csrc/u8x8_d_a2printer.c ****   are permitted provided that the following conditions are met:
  12:..\..\..\..\..\..\Dev\Library embedded l2c display\u8g2\csrc/u8x8_d_a2printer.c **** 
  13:..\..\..\..\..\..\Dev\Library embedded l2c display\u8g2\csrc/u8x8_d_a2printer.c ****   * Redistributions of source code must retain the above copyright notice, this list 
  14:..\..\..\..\..\..\Dev\Library embedded l2c display\u8g2\csrc/u8x8_d_a2printer.c ****     of conditions and the following disclaimer.
  15:..\..\..\..\..\..\Dev\Library embedded l2c display\u8g2\csrc/u8x8_d_a2printer.c ****     
  16:..\..\..\..\..\..\Dev\Library embedded l2c display\u8g2\csrc/u8x8_d_a2printer.c ****   * Redistributions in binary form must reproduce the above copyright notice, this 
  17:..\..\..\..\..\..\Dev\Library embedded l2c display\u8g2\csrc/u8x8_d_a2printer.c ****     list of conditions and the following disclaimer in the documentation and/or other 
  18:..\..\..\..\..\..\Dev\Library embedded l2c display\u8g2\csrc/u8x8_d_a2printer.c ****     materials provided with the distribution.
  19:..\..\..\..\..\..\Dev\Library embedded l2c display\u8g2\csrc/u8x8_d_a2printer.c **** 
  20:..\..\..\..\..\..\Dev\Library embedded l2c display\u8g2\csrc/u8x8_d_a2printer.c ****   THIS SOFTWARE IS PROVIDED BY THE COPYRIGHT HOLDERS AND 
  21:..\..\..\..\..\..\Dev\Library embedded l2c display\u8g2\csrc/u8x8_d_a2printer.c ****   CONTRIBUTORS "AS IS" AND ANY EXPRESS OR IMPLIED WARRANTIES, 
  22:..\..\..\..\..\..\Dev\Library embedded l2c display\u8g2\csrc/u8x8_d_a2printer.c ****   INCLUDING, BUT NOT LIMITED TO, THE IMPLIED WARRANTIES OF 
  23:..\..\..\..\..\..\Dev\Library embedded l2c display\u8g2\csrc/u8x8_d_a2printer.c ****   MERCHANTABILITY AND FITNESS FOR A PARTICULAR PURPOSE ARE 
  24:..\..\..\..\..\..\Dev\Library embedded l2c display\u8g2\csrc/u8x8_d_a2printer.c ****   DISCLAIMED. IN NO EVENT SHALL THE COPYRIGHT HOLDER OR 
  25:..\..\..\..\..\..\Dev\Library embedded l2c display\u8g2\csrc/u8x8_d_a2printer.c ****   CONTRIBUTORS BE LIABLE FOR ANY DIRECT, INDIRECT, INCIDENTAL, 
  26:..\..\..\..\..\..\Dev\Library embedded l2c display\u8g2\csrc/u8x8_d_a2printer.c ****   SPECIAL, EXEMPLARY, OR CONSEQUENTIAL DAMAGES (INCLUDING, BUT 
  27:..\..\..\..\..\..\Dev\Library embedded l2c display\u8g2\csrc/u8x8_d_a2printer.c ****   NOT LIMITED TO, PROCUREMENT OF SUBSTITUTE GOODS OR SERVICES; 
  28:..\..\..\..\..\..\Dev\Library embedded l2c display\u8g2\csrc/u8x8_d_a2printer.c ****   LOSS OF USE, DATA, OR PROFITS; OR BUSINESS INTERRUPTION) HOWEVER 
  29:..\..\..\..\..\..\Dev\Library embedded l2c display\u8g2\csrc/u8x8_d_a2printer.c ****   CAUSED AND ON ANY THEORY OF LIABILITY, WHETHER IN CONTRACT, 
  30:..\..\..\..\..\..\Dev\Library embedded l2c display\u8g2\csrc/u8x8_d_a2printer.c ****   STRICT LIABILITY, OR TORT (INCLUDING NEGLIGENCE OR OTHERWISE) 
ARM GAS  C:\Users\Abude\AppData\Local\Temp\ccPJMszQ.s 			page 2


  31:..\..\..\..\..\..\Dev\Library embedded l2c display\u8g2\csrc/u8x8_d_a2printer.c ****   ARISING IN ANY WAY OUT OF THE USE OF THIS SOFTWARE, EVEN IF 
  32:..\..\..\..\..\..\Dev\Library embedded l2c display\u8g2\csrc/u8x8_d_a2printer.c ****   ADVISED OF THE POSSIBILITY OF SUCH DAMAGE.  
  33:..\..\..\..\..\..\Dev\Library embedded l2c display\u8g2\csrc/u8x8_d_a2printer.c **** 
  34:..\..\..\..\..\..\Dev\Library embedded l2c display\u8g2\csrc/u8x8_d_a2printer.c **** 
  35:..\..\..\..\..\..\Dev\Library embedded l2c display\u8g2\csrc/u8x8_d_a2printer.c ****   Use DC2 bitmap command of the A2 Micro panel termal printer
  36:..\..\..\..\..\..\Dev\Library embedded l2c display\u8g2\csrc/u8x8_d_a2printer.c ****   double stroke
  37:..\..\..\..\..\..\Dev\Library embedded l2c display\u8g2\csrc/u8x8_d_a2printer.c ****   
  38:..\..\..\..\..\..\Dev\Library embedded l2c display\u8g2\csrc/u8x8_d_a2printer.c ****   
  39:..\..\..\..\..\..\Dev\Library embedded l2c display\u8g2\csrc/u8x8_d_a2printer.c **** */
  40:..\..\..\..\..\..\Dev\Library embedded l2c display\u8g2\csrc/u8x8_d_a2printer.c **** 
  41:..\..\..\..\..\..\Dev\Library embedded l2c display\u8g2\csrc/u8x8_d_a2printer.c **** 
  42:..\..\..\..\..\..\Dev\Library embedded l2c display\u8g2\csrc/u8x8_d_a2printer.c **** #include "u8x8.h"
  43:..\..\..\..\..\..\Dev\Library embedded l2c display\u8g2\csrc/u8x8_d_a2printer.c **** 
  44:..\..\..\..\..\..\Dev\Library embedded l2c display\u8g2\csrc/u8x8_d_a2printer.c **** #define LINE_MIN_DELAY_MS 15
  45:..\..\..\..\..\..\Dev\Library embedded l2c display\u8g2\csrc/u8x8_d_a2printer.c **** /* higher values improve quality */
  46:..\..\..\..\..\..\Dev\Library embedded l2c display\u8g2\csrc/u8x8_d_a2printer.c **** /* however if the value is too high (>=5) then form feed does not work any more */
  47:..\..\..\..\..\..\Dev\Library embedded l2c display\u8g2\csrc/u8x8_d_a2printer.c **** #define LINE_EXTRA_8PIXEL_DELAY_MS 3
  48:..\..\..\..\..\..\Dev\Library embedded l2c display\u8g2\csrc/u8x8_d_a2printer.c **** /* this must be a power of two and between 1 and 8 */
  49:..\..\..\..\..\..\Dev\Library embedded l2c display\u8g2\csrc/u8x8_d_a2printer.c **** /* best quality only with 1 */
  50:..\..\..\..\..\..\Dev\Library embedded l2c display\u8g2\csrc/u8x8_d_a2printer.c **** #define NO_OF_LINES_TO_SEND_WITHOUT_DELAY 1
  51:..\..\..\..\..\..\Dev\Library embedded l2c display\u8g2\csrc/u8x8_d_a2printer.c **** 
  52:..\..\..\..\..\..\Dev\Library embedded l2c display\u8g2\csrc/u8x8_d_a2printer.c **** /* calculates the delay, based on the number of black pixel */
  53:..\..\..\..\..\..\Dev\Library embedded l2c display\u8g2\csrc/u8x8_d_a2printer.c **** /* actually only "none-zero" bytes are calculated which is, of course not so accurate, but should b
  54:..\..\..\..\..\..\Dev\Library embedded l2c display\u8g2\csrc/u8x8_d_a2printer.c **** uint16_t get_delay_in_milliseconds(uint8_t cnt, uint8_t *data)
  55:..\..\..\..\..\..\Dev\Library embedded l2c display\u8g2\csrc/u8x8_d_a2printer.c **** {
  28              		.loc 1 55 0
  29              		.cfi_startproc
  30              		@ args = 0, pretend = 0, frame = 0
  31              		@ frame_needed = 0, uses_anonymous_args = 0
  32              		@ link register save eliminated.
  33              	.LVL0:
  34 0000 10B4     		push	{r4}
  35              		.cfi_def_cfa_offset 4
  36              		.cfi_offset 4, -4
  37 0002 0446     		mov	r4, r0
  38              	.LVL1:
  56:..\..\..\..\..\..\Dev\Library embedded l2c display\u8g2\csrc/u8x8_d_a2printer.c ****   uint8_t i;
  57:..\..\..\..\..\..\Dev\Library embedded l2c display\u8g2\csrc/u8x8_d_a2printer.c ****   uint16_t time = LINE_MIN_DELAY_MS;
  39              		.loc 1 57 0
  40 0004 0F20     		movs	r0, #15
  41              	.LVL2:
  58:..\..\..\..\..\..\Dev\Library embedded l2c display\u8g2\csrc/u8x8_d_a2printer.c ****   for ( i = 0; i < cnt; i++ )
  42              		.loc 1 58 0
  43 0006 0023     		movs	r3, #0
  44 0008 05E0     		b	.L2
  45              	.LVL3:
  46              	.L4:
  59:..\..\..\..\..\..\Dev\Library embedded l2c display\u8g2\csrc/u8x8_d_a2printer.c ****     if ( data[i] != 0 )
  47              		.loc 1 59 0
  48 000a CA5C     		ldrb	r2, [r1, r3]	@ zero_extendqisi2
  49 000c 0AB1     		cbz	r2, .L3
  60:..\..\..\..\..\..\Dev\Library embedded l2c display\u8g2\csrc/u8x8_d_a2printer.c ****       time += LINE_EXTRA_8PIXEL_DELAY_MS;
  50              		.loc 1 60 0
  51 000e C21C     		adds	r2, r0, #3
  52 0010 90B2     		uxth	r0, r2
  53              	.LVL4:
  54              	.L3:
ARM GAS  C:\Users\Abude\AppData\Local\Temp\ccPJMszQ.s 			page 3


  58:..\..\..\..\..\..\Dev\Library embedded l2c display\u8g2\csrc/u8x8_d_a2printer.c ****   for ( i = 0; i < cnt; i++ )
  55              		.loc 1 58 0 discriminator 2
  56 0012 0133     		adds	r3, r3, #1
  57              	.LVL5:
  58 0014 DBB2     		uxtb	r3, r3
  59              	.LVL6:
  60              	.L2:
  58:..\..\..\..\..\..\Dev\Library embedded l2c display\u8g2\csrc/u8x8_d_a2printer.c ****   for ( i = 0; i < cnt; i++ )
  61              		.loc 1 58 0 is_stmt 0 discriminator 1
  62 0016 A342     		cmp	r3, r4
  63 0018 F7D3     		bcc	.L4
  61:..\..\..\..\..\..\Dev\Library embedded l2c display\u8g2\csrc/u8x8_d_a2printer.c ****   return time;
  62:..\..\..\..\..\..\Dev\Library embedded l2c display\u8g2\csrc/u8x8_d_a2printer.c **** }
  64              		.loc 1 62 0 is_stmt 1
  65 001a 10BC     		pop	{r4}
  66              		.cfi_restore 4
  67              		.cfi_def_cfa_offset 0
  68 001c 7047     		bx	lr
  69              		.cfi_endproc
  70              	.LFE0:
  71              		.size	get_delay_in_milliseconds, .-get_delay_in_milliseconds
  72 001e 00BF     		.section	.text.u8x8_d_a2printer_common,"ax",%progbits
  73              		.align	2
  74              		.global	u8x8_d_a2printer_common
  75              		.thumb
  76              		.thumb_func
  77              		.type	u8x8_d_a2printer_common, %function
  78              	u8x8_d_a2printer_common:
  79              	.LFB1:
  63:..\..\..\..\..\..\Dev\Library embedded l2c display\u8g2\csrc/u8x8_d_a2printer.c **** 
  64:..\..\..\..\..\..\Dev\Library embedded l2c display\u8g2\csrc/u8x8_d_a2printer.c **** uint8_t u8x8_d_a2printer_common(u8x8_t *u8x8, uint8_t msg, U8X8_UNUSED uint8_t arg_int, void *arg_p
  65:..\..\..\..\..\..\Dev\Library embedded l2c display\u8g2\csrc/u8x8_d_a2printer.c **** {
  80              		.loc 1 65 0
  81              		.cfi_startproc
  82              		@ args = 0, pretend = 0, frame = 0
  83              		@ frame_needed = 0, uses_anonymous_args = 0
  84              	.LVL7:
  66:..\..\..\..\..\..\Dev\Library embedded l2c display\u8g2\csrc/u8x8_d_a2printer.c ****   uint8_t c, i, j;
  67:..\..\..\..\..\..\Dev\Library embedded l2c display\u8g2\csrc/u8x8_d_a2printer.c ****   uint8_t *ptr;
  68:..\..\..\..\..\..\Dev\Library embedded l2c display\u8g2\csrc/u8x8_d_a2printer.c ****   uint16_t delay_in_milliseconds;
  69:..\..\..\..\..\..\Dev\Library embedded l2c display\u8g2\csrc/u8x8_d_a2printer.c ****   switch(msg)
  85              		.loc 1 69 0
  86 0000 0B29     		cmp	r1, #11
  87 0002 00F08280 		beq	.L16
  65:..\..\..\..\..\..\Dev\Library embedded l2c display\u8g2\csrc/u8x8_d_a2printer.c ****   uint8_t c, i, j;
  88              		.loc 1 65 0
  89 0006 2DE9F843 		push	{r3, r4, r5, r6, r7, r8, r9, lr}
  90              		.cfi_def_cfa_offset 32
  91              		.cfi_offset 3, -32
  92              		.cfi_offset 4, -28
  93              		.cfi_offset 5, -24
  94              		.cfi_offset 6, -20
  95              		.cfi_offset 7, -16
  96              		.cfi_offset 8, -12
  97              		.cfi_offset 9, -8
  98              		.cfi_offset 14, -4
  99 000a 1C46     		mov	r4, r3
ARM GAS  C:\Users\Abude\AppData\Local\Temp\ccPJMszQ.s 			page 4


 100 000c 0746     		mov	r7, r0
 101              		.loc 1 69 0
 102 000e 0F29     		cmp	r1, #15
 103 0010 09D0     		beq	.L9
 104 0012 0A29     		cmp	r1, #10
 105 0014 02D0     		beq	.L10
  70:..\..\..\..\..\..\Dev\Library embedded l2c display\u8g2\csrc/u8x8_d_a2printer.c ****   {
  71:..\..\..\..\..\..\Dev\Library embedded l2c display\u8g2\csrc/u8x8_d_a2printer.c ****     /* U8X8_MSG_DISPLAY_SETUP_MEMORY is handled by the calling function */
  72:..\..\..\..\..\..\Dev\Library embedded l2c display\u8g2\csrc/u8x8_d_a2printer.c ****     /*
  73:..\..\..\..\..\..\Dev\Library embedded l2c display\u8g2\csrc/u8x8_d_a2printer.c ****     case U8X8_MSG_DISPLAY_SETUP_MEMORY:
  74:..\..\..\..\..\..\Dev\Library embedded l2c display\u8g2\csrc/u8x8_d_a2printer.c ****       break;
  75:..\..\..\..\..\..\Dev\Library embedded l2c display\u8g2\csrc/u8x8_d_a2printer.c ****     */
  76:..\..\..\..\..\..\Dev\Library embedded l2c display\u8g2\csrc/u8x8_d_a2printer.c ****     case U8X8_MSG_DISPLAY_INIT:
  77:..\..\..\..\..\..\Dev\Library embedded l2c display\u8g2\csrc/u8x8_d_a2printer.c ****       u8x8_d_helper_display_init(u8x8);
  78:..\..\..\..\..\..\Dev\Library embedded l2c display\u8g2\csrc/u8x8_d_a2printer.c ****       // no setup required
  79:..\..\..\..\..\..\Dev\Library embedded l2c display\u8g2\csrc/u8x8_d_a2printer.c ****       // u8x8_cad_SendSequence(u8x8, u8x8_d_a2printer_init_seq);
  80:..\..\..\..\..\..\Dev\Library embedded l2c display\u8g2\csrc/u8x8_d_a2printer.c ****       break;
  81:..\..\..\..\..\..\Dev\Library embedded l2c display\u8g2\csrc/u8x8_d_a2printer.c ****     case U8X8_MSG_DISPLAY_SET_POWER_SAVE:
  82:..\..\..\..\..\..\Dev\Library embedded l2c display\u8g2\csrc/u8x8_d_a2printer.c ****       // no powersave 
  83:..\..\..\..\..\..\Dev\Library embedded l2c display\u8g2\csrc/u8x8_d_a2printer.c ****       break;
  84:..\..\..\..\..\..\Dev\Library embedded l2c display\u8g2\csrc/u8x8_d_a2printer.c ****     case U8X8_MSG_DISPLAY_DRAW_TILE:
  85:..\..\..\..\..\..\Dev\Library embedded l2c display\u8g2\csrc/u8x8_d_a2printer.c ****       u8x8_cad_StartTransfer(u8x8);
  86:..\..\..\..\..\..\Dev\Library embedded l2c display\u8g2\csrc/u8x8_d_a2printer.c ****       
  87:..\..\..\..\..\..\Dev\Library embedded l2c display\u8g2\csrc/u8x8_d_a2printer.c ****       u8x8_cad_SendCmd(u8x8, 27);      /* ESC */
  88:..\..\..\..\..\..\Dev\Library embedded l2c display\u8g2\csrc/u8x8_d_a2printer.c ****       u8x8_cad_SendCmd(u8x8, 55 );      /* parameter command */
  89:..\..\..\..\..\..\Dev\Library embedded l2c display\u8g2\csrc/u8x8_d_a2printer.c ****       /* increasing the "max printing dots" requires a good power supply, but LINE_EXTRA_8PIXEL_DEL
  90:..\..\..\..\..\..\Dev\Library embedded l2c display\u8g2\csrc/u8x8_d_a2printer.c ****       u8x8_cad_SendCmd(u8x8, 0);      /* Max printing dots,Unit(8dots),Default:7(64 dots) 8*(x+1) .
  91:..\..\..\..\..\..\Dev\Library embedded l2c display\u8g2\csrc/u8x8_d_a2printer.c ****       u8x8_cad_SendCmd(u8x8, 200);      /* 3-255 Heating time,Unit(10us),Default:80(800us) */
  92:..\..\..\..\..\..\Dev\Library embedded l2c display\u8g2\csrc/u8x8_d_a2printer.c ****       u8x8_cad_SendCmd(u8x8, 2);      /* 0-255 Heating interval,Unit(10us),Default:2(20us) ... does
  93:..\..\..\..\..\..\Dev\Library embedded l2c display\u8g2\csrc/u8x8_d_a2printer.c ****       
  94:..\..\..\..\..\..\Dev\Library embedded l2c display\u8g2\csrc/u8x8_d_a2printer.c ****       //c = ((u8x8_tile_t *)arg_ptr)->cnt;	/* number of tiles */
  95:..\..\..\..\..\..\Dev\Library embedded l2c display\u8g2\csrc/u8x8_d_a2printer.c ****       c = u8x8->display_info->tile_width;
  96:..\..\..\..\..\..\Dev\Library embedded l2c display\u8g2\csrc/u8x8_d_a2printer.c ****       ptr = ((u8x8_tile_t *)arg_ptr)->tile_ptr;	/* data ptr to the tiles */
  97:..\..\..\..\..\..\Dev\Library embedded l2c display\u8g2\csrc/u8x8_d_a2printer.c ****     
  98:..\..\..\..\..\..\Dev\Library embedded l2c display\u8g2\csrc/u8x8_d_a2printer.c ****       u8x8_cad_SendCmd(u8x8, 18);      /* DC2 */
  99:..\..\..\..\..\..\Dev\Library embedded l2c display\u8g2\csrc/u8x8_d_a2printer.c ****       u8x8_cad_SendCmd(u8x8, 42 );      /* *  */
 100:..\..\..\..\..\..\Dev\Library embedded l2c display\u8g2\csrc/u8x8_d_a2printer.c ****       u8x8_cad_SendCmd(u8x8, 8 ); 	/* height */
 101:..\..\..\..\..\..\Dev\Library embedded l2c display\u8g2\csrc/u8x8_d_a2printer.c ****       u8x8_cad_SendCmd(u8x8, c ); 	/* c, u8x8->display_info->tile_width */
 102:..\..\..\..\..\..\Dev\Library embedded l2c display\u8g2\csrc/u8x8_d_a2printer.c ****       
 103:..\..\..\..\..\..\Dev\Library embedded l2c display\u8g2\csrc/u8x8_d_a2printer.c ****       for( j = 0; j < 8 / NO_OF_LINES_TO_SEND_WITHOUT_DELAY; j ++ )
 104:..\..\..\..\..\..\Dev\Library embedded l2c display\u8g2\csrc/u8x8_d_a2printer.c ****       {
 105:..\..\..\..\..\..\Dev\Library embedded l2c display\u8g2\csrc/u8x8_d_a2printer.c **** 
 106:..\..\..\..\..\..\Dev\Library embedded l2c display\u8g2\csrc/u8x8_d_a2printer.c **** 	delay_in_milliseconds = 0;
 107:..\..\..\..\..\..\Dev\Library embedded l2c display\u8g2\csrc/u8x8_d_a2printer.c **** 	for( i = 0; i < NO_OF_LINES_TO_SEND_WITHOUT_DELAY; i++ )
 108:..\..\..\..\..\..\Dev\Library embedded l2c display\u8g2\csrc/u8x8_d_a2printer.c **** 	{
 109:..\..\..\..\..\..\Dev\Library embedded l2c display\u8g2\csrc/u8x8_d_a2printer.c **** 	  u8x8_cad_SendData(u8x8, c, ptr);	/* c, note: SendData can not handle more than 255 bytes, send o
 110:..\..\..\..\..\..\Dev\Library embedded l2c display\u8g2\csrc/u8x8_d_a2printer.c **** 	  delay_in_milliseconds += get_delay_in_milliseconds(c, ptr);
 111:..\..\..\..\..\..\Dev\Library embedded l2c display\u8g2\csrc/u8x8_d_a2printer.c **** 	  ptr += c;
 112:..\..\..\..\..\..\Dev\Library embedded l2c display\u8g2\csrc/u8x8_d_a2printer.c **** 	}
 113:..\..\..\..\..\..\Dev\Library embedded l2c display\u8g2\csrc/u8x8_d_a2printer.c **** 	
 114:..\..\..\..\..\..\Dev\Library embedded l2c display\u8g2\csrc/u8x8_d_a2printer.c **** 	while( delay_in_milliseconds > 200 )
 115:..\..\..\..\..\..\Dev\Library embedded l2c display\u8g2\csrc/u8x8_d_a2printer.c **** 	{
 116:..\..\..\..\..\..\Dev\Library embedded l2c display\u8g2\csrc/u8x8_d_a2printer.c **** 	  u8x8->gpio_and_delay_cb(u8x8, U8X8_MSG_DELAY_MILLI, 200, NULL);	
 117:..\..\..\..\..\..\Dev\Library embedded l2c display\u8g2\csrc/u8x8_d_a2printer.c **** 	  delay_in_milliseconds -= 200;
 118:..\..\..\..\..\..\Dev\Library embedded l2c display\u8g2\csrc/u8x8_d_a2printer.c **** 	}
 119:..\..\..\..\..\..\Dev\Library embedded l2c display\u8g2\csrc/u8x8_d_a2printer.c **** 	u8x8->gpio_and_delay_cb(u8x8, U8X8_MSG_DELAY_MILLI, delay_in_milliseconds, NULL);	
 120:..\..\..\..\..\..\Dev\Library embedded l2c display\u8g2\csrc/u8x8_d_a2printer.c ****       }
ARM GAS  C:\Users\Abude\AppData\Local\Temp\ccPJMszQ.s 			page 5


 121:..\..\..\..\..\..\Dev\Library embedded l2c display\u8g2\csrc/u8x8_d_a2printer.c **** 
 122:..\..\..\..\..\..\Dev\Library embedded l2c display\u8g2\csrc/u8x8_d_a2printer.c ****       /* set parameters back to their default values */
 123:..\..\..\..\..\..\Dev\Library embedded l2c display\u8g2\csrc/u8x8_d_a2printer.c ****       u8x8_cad_SendCmd(u8x8, 27);      /* ESC */
 124:..\..\..\..\..\..\Dev\Library embedded l2c display\u8g2\csrc/u8x8_d_a2printer.c ****       u8x8_cad_SendCmd(u8x8, 55 );      /* parameter command */
 125:..\..\..\..\..\..\Dev\Library embedded l2c display\u8g2\csrc/u8x8_d_a2printer.c ****       u8x8_cad_SendCmd(u8x8, 7);      /* Max printing dots,Unit(8dots),Default:7(64 dots) 8*(x+1)*/
 126:..\..\..\..\..\..\Dev\Library embedded l2c display\u8g2\csrc/u8x8_d_a2printer.c ****       u8x8_cad_SendCmd(u8x8, 80);      /* 3-255 Heating time,Unit(10us),Default:80(800us) */
 127:..\..\..\..\..\..\Dev\Library embedded l2c display\u8g2\csrc/u8x8_d_a2printer.c ****       u8x8_cad_SendCmd(u8x8, 2);      /* 0-255 Heating interval,Unit(10us),Default:2(20us)*/
 128:..\..\..\..\..\..\Dev\Library embedded l2c display\u8g2\csrc/u8x8_d_a2printer.c **** 
 129:..\..\..\..\..\..\Dev\Library embedded l2c display\u8g2\csrc/u8x8_d_a2printer.c ****       u8x8_cad_EndTransfer(u8x8);
 130:..\..\..\..\..\..\Dev\Library embedded l2c display\u8g2\csrc/u8x8_d_a2printer.c **** 
 131:..\..\..\..\..\..\Dev\Library embedded l2c display\u8g2\csrc/u8x8_d_a2printer.c ****       break;
 132:..\..\..\..\..\..\Dev\Library embedded l2c display\u8g2\csrc/u8x8_d_a2printer.c ****     default:
 133:..\..\..\..\..\..\Dev\Library embedded l2c display\u8g2\csrc/u8x8_d_a2printer.c ****       return 0;
 106              		.loc 1 133 0
 107 0016 0020     		movs	r0, #0
 108              	.LVL8:
 109 0018 BDE8F883 		pop	{r3, r4, r5, r6, r7, r8, r9, pc}
 110              	.LVL9:
 111              	.L10:
  77:..\..\..\..\..\..\Dev\Library embedded l2c display\u8g2\csrc/u8x8_d_a2printer.c ****       // no setup required
 112              		.loc 1 77 0
 113 001c FFF7FEFF 		bl	u8x8_d_helper_display_init
 114              	.LVL10:
 134:..\..\..\..\..\..\Dev\Library embedded l2c display\u8g2\csrc/u8x8_d_a2printer.c ****   }
 135:..\..\..\..\..\..\Dev\Library embedded l2c display\u8g2\csrc/u8x8_d_a2printer.c ****   return 1;
 115              		.loc 1 135 0
 116 0020 0120     		movs	r0, #1
  80:..\..\..\..\..\..\Dev\Library embedded l2c display\u8g2\csrc/u8x8_d_a2printer.c ****     case U8X8_MSG_DISPLAY_SET_POWER_SAVE:
 117              		.loc 1 80 0
 118 0022 BDE8F883 		pop	{r3, r4, r5, r6, r7, r8, r9, pc}
 119              	.LVL11:
 120              	.L9:
  85:..\..\..\..\..\..\Dev\Library embedded l2c display\u8g2\csrc/u8x8_d_a2printer.c ****       
 121              		.loc 1 85 0
 122 0026 FFF7FEFF 		bl	u8x8_cad_StartTransfer
 123              	.LVL12:
  87:..\..\..\..\..\..\Dev\Library embedded l2c display\u8g2\csrc/u8x8_d_a2printer.c ****       u8x8_cad_SendCmd(u8x8, 55 );      /* parameter command */
 124              		.loc 1 87 0
 125 002a 1B21     		movs	r1, #27
 126 002c 3846     		mov	r0, r7
 127 002e FFF7FEFF 		bl	u8x8_cad_SendCmd
 128              	.LVL13:
  88:..\..\..\..\..\..\Dev\Library embedded l2c display\u8g2\csrc/u8x8_d_a2printer.c ****       /* increasing the "max printing dots" requires a good power supply, but LINE_EXTRA_8PIXEL_DEL
 129              		.loc 1 88 0
 130 0032 3721     		movs	r1, #55
 131 0034 3846     		mov	r0, r7
 132 0036 FFF7FEFF 		bl	u8x8_cad_SendCmd
 133              	.LVL14:
  90:..\..\..\..\..\..\Dev\Library embedded l2c display\u8g2\csrc/u8x8_d_a2printer.c ****       u8x8_cad_SendCmd(u8x8, 200);      /* 3-255 Heating time,Unit(10us),Default:80(800us) */
 134              		.loc 1 90 0
 135 003a 0021     		movs	r1, #0
 136 003c 3846     		mov	r0, r7
 137 003e FFF7FEFF 		bl	u8x8_cad_SendCmd
 138              	.LVL15:
  91:..\..\..\..\..\..\Dev\Library embedded l2c display\u8g2\csrc/u8x8_d_a2printer.c ****       u8x8_cad_SendCmd(u8x8, 2);      /* 0-255 Heating interval,Unit(10us),Default:2(20us) ... does
 139              		.loc 1 91 0
 140 0042 C821     		movs	r1, #200
ARM GAS  C:\Users\Abude\AppData\Local\Temp\ccPJMszQ.s 			page 6


 141 0044 3846     		mov	r0, r7
 142 0046 FFF7FEFF 		bl	u8x8_cad_SendCmd
 143              	.LVL16:
  92:..\..\..\..\..\..\Dev\Library embedded l2c display\u8g2\csrc/u8x8_d_a2printer.c ****       
 144              		.loc 1 92 0
 145 004a 0221     		movs	r1, #2
 146 004c 3846     		mov	r0, r7
 147 004e FFF7FEFF 		bl	u8x8_cad_SendCmd
 148              	.LVL17:
  95:..\..\..\..\..\..\Dev\Library embedded l2c display\u8g2\csrc/u8x8_d_a2printer.c ****       ptr = ((u8x8_tile_t *)arg_ptr)->tile_ptr;	/* data ptr to the tiles */
 149              		.loc 1 95 0
 150 0052 3B68     		ldr	r3, [r7]
 151 0054 93F81080 		ldrb	r8, [r3, #16]	@ zero_extendqisi2
 152              	.LVL18:
  96:..\..\..\..\..\..\Dev\Library embedded l2c display\u8g2\csrc/u8x8_d_a2printer.c ****     
 153              		.loc 1 96 0
 154 0058 2668     		ldr	r6, [r4]
 155              	.LVL19:
  98:..\..\..\..\..\..\Dev\Library embedded l2c display\u8g2\csrc/u8x8_d_a2printer.c ****       u8x8_cad_SendCmd(u8x8, 42 );      /* *  */
 156              		.loc 1 98 0
 157 005a 1221     		movs	r1, #18
 158 005c 3846     		mov	r0, r7
 159 005e FFF7FEFF 		bl	u8x8_cad_SendCmd
 160              	.LVL20:
  99:..\..\..\..\..\..\Dev\Library embedded l2c display\u8g2\csrc/u8x8_d_a2printer.c ****       u8x8_cad_SendCmd(u8x8, 8 ); 	/* height */
 161              		.loc 1 99 0
 162 0062 2A21     		movs	r1, #42
 163 0064 3846     		mov	r0, r7
 164 0066 FFF7FEFF 		bl	u8x8_cad_SendCmd
 165              	.LVL21:
 100:..\..\..\..\..\..\Dev\Library embedded l2c display\u8g2\csrc/u8x8_d_a2printer.c ****       u8x8_cad_SendCmd(u8x8, c ); 	/* c, u8x8->display_info->tile_width */
 166              		.loc 1 100 0
 167 006a 0821     		movs	r1, #8
 168 006c 3846     		mov	r0, r7
 169 006e FFF7FEFF 		bl	u8x8_cad_SendCmd
 170              	.LVL22:
 101:..\..\..\..\..\..\Dev\Library embedded l2c display\u8g2\csrc/u8x8_d_a2printer.c ****       
 171              		.loc 1 101 0
 172 0072 4146     		mov	r1, r8
 173 0074 3846     		mov	r0, r7
 174 0076 FFF7FEFF 		bl	u8x8_cad_SendCmd
 175              	.LVL23:
 103:..\..\..\..\..\..\Dev\Library embedded l2c display\u8g2\csrc/u8x8_d_a2printer.c ****       {
 176              		.loc 1 103 0
 177 007a 4FF00009 		mov	r9, #0
 178 007e 27E0     		b	.L11
 179              	.LVL24:
 180              	.L12:
 109:..\..\..\..\..\..\Dev\Library embedded l2c display\u8g2\csrc/u8x8_d_a2printer.c **** 	  delay_in_milliseconds += get_delay_in_milliseconds(c, ptr);
 181              		.loc 1 109 0 discriminator 3
 182 0080 3246     		mov	r2, r6
 183 0082 4146     		mov	r1, r8
 184 0084 3846     		mov	r0, r7
 185 0086 FFF7FEFF 		bl	u8x8_cad_SendData
 186              	.LVL25:
 110:..\..\..\..\..\..\Dev\Library embedded l2c display\u8g2\csrc/u8x8_d_a2printer.c **** 	  ptr += c;
 187              		.loc 1 110 0 discriminator 3
ARM GAS  C:\Users\Abude\AppData\Local\Temp\ccPJMszQ.s 			page 7


 188 008a 3146     		mov	r1, r6
 189 008c 4046     		mov	r0, r8
 190 008e FFF7FEFF 		bl	get_delay_in_milliseconds
 191              	.LVL26:
 192 0092 2044     		add	r0, r0, r4
 193 0094 84B2     		uxth	r4, r0
 194              	.LVL27:
 111:..\..\..\..\..\..\Dev\Library embedded l2c display\u8g2\csrc/u8x8_d_a2printer.c **** 	}
 195              		.loc 1 111 0 discriminator 3
 196 0096 4644     		add	r6, r6, r8
 197              	.LVL28:
 107:..\..\..\..\..\..\Dev\Library embedded l2c display\u8g2\csrc/u8x8_d_a2printer.c **** 	{
 198              		.loc 1 107 0 discriminator 3
 199 0098 0135     		adds	r5, r5, #1
 200              	.LVL29:
 201 009a EDB2     		uxtb	r5, r5
 202              	.LVL30:
 203 009c 01E0     		b	.L15
 204              	.LVL31:
 205              	.L17:
 206 009e 0024     		movs	r4, #0
 207 00a0 2546     		mov	r5, r4
 208              	.L15:
 209              	.LVL32:
 107:..\..\..\..\..\..\Dev\Library embedded l2c display\u8g2\csrc/u8x8_d_a2printer.c **** 	{
 210              		.loc 1 107 0 is_stmt 0 discriminator 1
 211 00a2 002D     		cmp	r5, #0
 212 00a4 ECD0     		beq	.L12
 213 00a6 07E0     		b	.L13
 214              	.LVL33:
 215              	.L14:
 116:..\..\..\..\..\..\Dev\Library embedded l2c display\u8g2\csrc/u8x8_d_a2printer.c **** 	  delay_in_milliseconds -= 200;
 216              		.loc 1 116 0 is_stmt 1
 217 00a8 7D69     		ldr	r5, [r7, #20]
 218 00aa 0023     		movs	r3, #0
 219 00ac C822     		movs	r2, #200
 220 00ae 2921     		movs	r1, #41
 221 00b0 3846     		mov	r0, r7
 222 00b2 A847     		blx	r5
 223              	.LVL34:
 117:..\..\..\..\..\..\Dev\Library embedded l2c display\u8g2\csrc/u8x8_d_a2printer.c **** 	}
 224              		.loc 1 117 0
 225 00b4 C83C     		subs	r4, r4, #200
 226              	.LVL35:
 227 00b6 A4B2     		uxth	r4, r4
 228              	.LVL36:
 229              	.L13:
 114:..\..\..\..\..\..\Dev\Library embedded l2c display\u8g2\csrc/u8x8_d_a2printer.c **** 	{
 230              		.loc 1 114 0
 231 00b8 C82C     		cmp	r4, #200
 232 00ba F5D8     		bhi	.L14
 119:..\..\..\..\..\..\Dev\Library embedded l2c display\u8g2\csrc/u8x8_d_a2printer.c ****       }
 233              		.loc 1 119 0 discriminator 2
 234 00bc 7D69     		ldr	r5, [r7, #20]
 235 00be 0023     		movs	r3, #0
 236 00c0 E2B2     		uxtb	r2, r4
 237 00c2 2921     		movs	r1, #41
ARM GAS  C:\Users\Abude\AppData\Local\Temp\ccPJMszQ.s 			page 8


 238 00c4 3846     		mov	r0, r7
 239 00c6 A847     		blx	r5
 240              	.LVL37:
 103:..\..\..\..\..\..\Dev\Library embedded l2c display\u8g2\csrc/u8x8_d_a2printer.c ****       {
 241              		.loc 1 103 0 discriminator 2
 242 00c8 09F10109 		add	r9, r9, #1
 243              	.LVL38:
 244 00cc 5FFA89F9 		uxtb	r9, r9
 245              	.LVL39:
 246              	.L11:
 103:..\..\..\..\..\..\Dev\Library embedded l2c display\u8g2\csrc/u8x8_d_a2printer.c ****       {
 247              		.loc 1 103 0 is_stmt 0 discriminator 1
 248 00d0 B9F1070F 		cmp	r9, #7
 249 00d4 E3D9     		bls	.L17
 123:..\..\..\..\..\..\Dev\Library embedded l2c display\u8g2\csrc/u8x8_d_a2printer.c ****       u8x8_cad_SendCmd(u8x8, 55 );      /* parameter command */
 250              		.loc 1 123 0 is_stmt 1
 251 00d6 1B21     		movs	r1, #27
 252 00d8 3846     		mov	r0, r7
 253 00da FFF7FEFF 		bl	u8x8_cad_SendCmd
 254              	.LVL40:
 124:..\..\..\..\..\..\Dev\Library embedded l2c display\u8g2\csrc/u8x8_d_a2printer.c ****       u8x8_cad_SendCmd(u8x8, 7);      /* Max printing dots,Unit(8dots),Default:7(64 dots) 8*(x+1)*/
 255              		.loc 1 124 0
 256 00de 3721     		movs	r1, #55
 257 00e0 3846     		mov	r0, r7
 258 00e2 FFF7FEFF 		bl	u8x8_cad_SendCmd
 259              	.LVL41:
 125:..\..\..\..\..\..\Dev\Library embedded l2c display\u8g2\csrc/u8x8_d_a2printer.c ****       u8x8_cad_SendCmd(u8x8, 80);      /* 3-255 Heating time,Unit(10us),Default:80(800us) */
 260              		.loc 1 125 0
 261 00e6 0721     		movs	r1, #7
 262 00e8 3846     		mov	r0, r7
 263 00ea FFF7FEFF 		bl	u8x8_cad_SendCmd
 264              	.LVL42:
 126:..\..\..\..\..\..\Dev\Library embedded l2c display\u8g2\csrc/u8x8_d_a2printer.c ****       u8x8_cad_SendCmd(u8x8, 2);      /* 0-255 Heating interval,Unit(10us),Default:2(20us)*/
 265              		.loc 1 126 0
 266 00ee 5021     		movs	r1, #80
 267 00f0 3846     		mov	r0, r7
 268 00f2 FFF7FEFF 		bl	u8x8_cad_SendCmd
 269              	.LVL43:
 127:..\..\..\..\..\..\Dev\Library embedded l2c display\u8g2\csrc/u8x8_d_a2printer.c **** 
 270              		.loc 1 127 0
 271 00f6 0221     		movs	r1, #2
 272 00f8 3846     		mov	r0, r7
 273 00fa FFF7FEFF 		bl	u8x8_cad_SendCmd
 274              	.LVL44:
 129:..\..\..\..\..\..\Dev\Library embedded l2c display\u8g2\csrc/u8x8_d_a2printer.c **** 
 275              		.loc 1 129 0
 276 00fe 3846     		mov	r0, r7
 277 0100 FFF7FEFF 		bl	u8x8_cad_EndTransfer
 278              	.LVL45:
 279              		.loc 1 135 0
 280 0104 0120     		movs	r0, #1
 131:..\..\..\..\..\..\Dev\Library embedded l2c display\u8g2\csrc/u8x8_d_a2printer.c ****     default:
 281              		.loc 1 131 0
 282 0106 BDE8F883 		pop	{r3, r4, r5, r6, r7, r8, r9, pc}
 283              	.LVL46:
 284              	.L16:
 285              		.cfi_def_cfa_offset 0
ARM GAS  C:\Users\Abude\AppData\Local\Temp\ccPJMszQ.s 			page 9


 286              		.cfi_restore 3
 287              		.cfi_restore 4
 288              		.cfi_restore 5
 289              		.cfi_restore 6
 290              		.cfi_restore 7
 291              		.cfi_restore 8
 292              		.cfi_restore 9
 293              		.cfi_restore 14
 294              		.loc 1 135 0
 295 010a 0120     		movs	r0, #1
 296              	.LVL47:
 297 010c 7047     		bx	lr
 298              		.cfi_endproc
 299              	.LFE1:
 300              		.size	u8x8_d_a2printer_common, .-u8x8_d_a2printer_common
 301 010e 00BF     		.section	.text.u8x8_d_a2printer_384x240,"ax",%progbits
 302              		.align	2
 303              		.global	u8x8_d_a2printer_384x240
 304              		.thumb
 305              		.thumb_func
 306              		.type	u8x8_d_a2printer_384x240, %function
 307              	u8x8_d_a2printer_384x240:
 308              	.LFB2:
 136:..\..\..\..\..\..\Dev\Library embedded l2c display\u8g2\csrc/u8x8_d_a2printer.c **** }
 137:..\..\..\..\..\..\Dev\Library embedded l2c display\u8g2\csrc/u8x8_d_a2printer.c **** 
 138:..\..\..\..\..\..\Dev\Library embedded l2c display\u8g2\csrc/u8x8_d_a2printer.c **** 
 139:..\..\..\..\..\..\Dev\Library embedded l2c display\u8g2\csrc/u8x8_d_a2printer.c **** static const u8x8_display_info_t u8x8_a2printer_384x240_display_info =
 140:..\..\..\..\..\..\Dev\Library embedded l2c display\u8g2\csrc/u8x8_d_a2printer.c **** {
 141:..\..\..\..\..\..\Dev\Library embedded l2c display\u8g2\csrc/u8x8_d_a2printer.c ****   /* most of the settings are not required, because this is a serial RS232 printer */
 142:..\..\..\..\..\..\Dev\Library embedded l2c display\u8g2\csrc/u8x8_d_a2printer.c ****   
 143:..\..\..\..\..\..\Dev\Library embedded l2c display\u8g2\csrc/u8x8_d_a2printer.c ****   /* chip_enable_level = */ 1,
 144:..\..\..\..\..\..\Dev\Library embedded l2c display\u8g2\csrc/u8x8_d_a2printer.c ****   /* chip_disable_level = */ 0,
 145:..\..\..\..\..\..\Dev\Library embedded l2c display\u8g2\csrc/u8x8_d_a2printer.c ****   
 146:..\..\..\..\..\..\Dev\Library embedded l2c display\u8g2\csrc/u8x8_d_a2printer.c ****   /* post_chip_enable_wait_ns = */ 5,
 147:..\..\..\..\..\..\Dev\Library embedded l2c display\u8g2\csrc/u8x8_d_a2printer.c ****   /* pre_chip_disable_wait_ns = */ 5,
 148:..\..\..\..\..\..\Dev\Library embedded l2c display\u8g2\csrc/u8x8_d_a2printer.c ****   /* reset_pulse_width_ms = */ 1, 
 149:..\..\..\..\..\..\Dev\Library embedded l2c display\u8g2\csrc/u8x8_d_a2printer.c ****   /* post_reset_wait_ms = */ 6, 
 150:..\..\..\..\..\..\Dev\Library embedded l2c display\u8g2\csrc/u8x8_d_a2printer.c ****   /* sda_setup_time_ns = */ 20,		
 151:..\..\..\..\..\..\Dev\Library embedded l2c display\u8g2\csrc/u8x8_d_a2printer.c ****   /* sck_pulse_width_ns = */  140,	
 152:..\..\..\..\..\..\Dev\Library embedded l2c display\u8g2\csrc/u8x8_d_a2printer.c ****   /* sck_clock_hz = */ 1000000UL,	/* since Arduino 1.6.0, the SPI bus speed in Hz. Should be  10000
 153:..\..\..\..\..\..\Dev\Library embedded l2c display\u8g2\csrc/u8x8_d_a2printer.c ****   /* spi_mode = */ 0,		/* old: sck_takeover_edge, new: active high (bit 1), rising edge (bit 0) */
 154:..\..\..\..\..\..\Dev\Library embedded l2c display\u8g2\csrc/u8x8_d_a2printer.c ****   /* i2c_bus_clock_100kHz = */ 4,
 155:..\..\..\..\..\..\Dev\Library embedded l2c display\u8g2\csrc/u8x8_d_a2printer.c ****   /* data_setup_time_ns = */ 30,
 156:..\..\..\..\..\..\Dev\Library embedded l2c display\u8g2\csrc/u8x8_d_a2printer.c ****   /* write_pulse_width_ns = */ 40,
 157:..\..\..\..\..\..\Dev\Library embedded l2c display\u8g2\csrc/u8x8_d_a2printer.c ****   /* tile_width = */ 48,
 158:..\..\..\..\..\..\Dev\Library embedded l2c display\u8g2\csrc/u8x8_d_a2printer.c ****   /* tile_hight = */ 30,
 159:..\..\..\..\..\..\Dev\Library embedded l2c display\u8g2\csrc/u8x8_d_a2printer.c ****   /* default_x_offset = */ 0,
 160:..\..\..\..\..\..\Dev\Library embedded l2c display\u8g2\csrc/u8x8_d_a2printer.c ****   /* flipmode_x_offset = */ 0,
 161:..\..\..\..\..\..\Dev\Library embedded l2c display\u8g2\csrc/u8x8_d_a2printer.c ****   /* pixel_width = */ 384,
 162:..\..\..\..\..\..\Dev\Library embedded l2c display\u8g2\csrc/u8x8_d_a2printer.c ****   /* pixel_height = */ 240
 163:..\..\..\..\..\..\Dev\Library embedded l2c display\u8g2\csrc/u8x8_d_a2printer.c **** };
 164:..\..\..\..\..\..\Dev\Library embedded l2c display\u8g2\csrc/u8x8_d_a2printer.c **** 
 165:..\..\..\..\..\..\Dev\Library embedded l2c display\u8g2\csrc/u8x8_d_a2printer.c **** uint8_t u8x8_d_a2printer_384x240(u8x8_t *u8x8, uint8_t msg, uint8_t arg_int, void *arg_ptr)
 166:..\..\..\..\..\..\Dev\Library embedded l2c display\u8g2\csrc/u8x8_d_a2printer.c **** {
 309              		.loc 1 166 0
 310              		.cfi_startproc
 311              		@ args = 0, pretend = 0, frame = 0
ARM GAS  C:\Users\Abude\AppData\Local\Temp\ccPJMszQ.s 			page 10


 312              		@ frame_needed = 0, uses_anonymous_args = 0
 313              	.LVL48:
 314 0000 08B5     		push	{r3, lr}
 315              		.cfi_def_cfa_offset 8
 316              		.cfi_offset 3, -8
 317              		.cfi_offset 14, -4
 167:..\..\..\..\..\..\Dev\Library embedded l2c display\u8g2\csrc/u8x8_d_a2printer.c ****   switch(msg)
 318              		.loc 1 167 0
 319 0002 0929     		cmp	r1, #9
 320 0004 04D1     		bne	.L24
 168:..\..\..\..\..\..\Dev\Library embedded l2c display\u8g2\csrc/u8x8_d_a2printer.c ****   {
 169:..\..\..\..\..\..\Dev\Library embedded l2c display\u8g2\csrc/u8x8_d_a2printer.c ****     case U8X8_MSG_DISPLAY_SETUP_MEMORY:
 170:..\..\..\..\..\..\Dev\Library embedded l2c display\u8g2\csrc/u8x8_d_a2printer.c ****       u8x8_d_helper_display_setup_memory(u8x8, &u8x8_a2printer_384x240_display_info);
 321              		.loc 1 170 0
 322 0006 0449     		ldr	r1, .L26
 323              	.LVL49:
 324 0008 FFF7FEFF 		bl	u8x8_d_helper_display_setup_memory
 325              	.LVL50:
 171:..\..\..\..\..\..\Dev\Library embedded l2c display\u8g2\csrc/u8x8_d_a2printer.c ****       break;
 172:..\..\..\..\..\..\Dev\Library embedded l2c display\u8g2\csrc/u8x8_d_a2printer.c ****     default:
 173:..\..\..\..\..\..\Dev\Library embedded l2c display\u8g2\csrc/u8x8_d_a2printer.c ****       return u8x8_d_a2printer_common(u8x8, msg, arg_int, arg_ptr);
 174:..\..\..\..\..\..\Dev\Library embedded l2c display\u8g2\csrc/u8x8_d_a2printer.c ****   }
 175:..\..\..\..\..\..\Dev\Library embedded l2c display\u8g2\csrc/u8x8_d_a2printer.c ****   return 1;
 326              		.loc 1 175 0
 327 000c 0120     		movs	r0, #1
 328 000e 08BD     		pop	{r3, pc}
 329              	.LVL51:
 330              	.L24:
 173:..\..\..\..\..\..\Dev\Library embedded l2c display\u8g2\csrc/u8x8_d_a2printer.c ****   }
 331              		.loc 1 173 0
 332 0010 FFF7FEFF 		bl	u8x8_d_a2printer_common
 333              	.LVL52:
 176:..\..\..\..\..\..\Dev\Library embedded l2c display\u8g2\csrc/u8x8_d_a2printer.c **** }
 334              		.loc 1 176 0
 335 0014 08BD     		pop	{r3, pc}
 336              	.L27:
 337 0016 00BF     		.align	2
 338              	.L26:
 339 0018 00000000 		.word	.LANCHOR0
 340              		.cfi_endproc
 341              	.LFE2:
 342              		.size	u8x8_d_a2printer_384x240, .-u8x8_d_a2printer_384x240
 343              		.section	.rodata
 344              		.align	2
 345              		.set	.LANCHOR0,. + 0
 346              		.type	u8x8_a2printer_384x240_display_info, %object
 347              		.size	u8x8_a2printer_384x240_display_info, 24
 348              	u8x8_a2printer_384x240_display_info:
 349 0000 01       		.byte	1
 350 0001 00       		.byte	0
 351 0002 05       		.byte	5
 352 0003 05       		.byte	5
 353 0004 01       		.byte	1
 354 0005 06       		.byte	6
 355 0006 14       		.byte	20
 356 0007 8C       		.byte	-116
 357 0008 40420F00 		.word	1000000
ARM GAS  C:\Users\Abude\AppData\Local\Temp\ccPJMszQ.s 			page 11


 358 000c 00       		.byte	0
 359 000d 04       		.byte	4
 360 000e 1E       		.byte	30
 361 000f 28       		.byte	40
 362 0010 30       		.byte	48
 363 0011 1E       		.byte	30
 364 0012 00       		.byte	0
 365 0013 00       		.byte	0
 366 0014 8001     		.short	384
 367 0016 F000     		.short	240
 368              		.text
 369              	.Letext0:
 370              		.file 2 "c:\\program files (x86)\\cypress\\psoc creator\\4.4\\psoc creator\\import\\gnu\\arm\\5.4.
 371              		.file 3 "c:\\program files (x86)\\cypress\\psoc creator\\4.4\\psoc creator\\import\\gnu\\arm\\5.4.
 372              		.file 4 "c:\\dev\\library embedded l2c display\\u8g2\\csrc\\u8x8.h"