ARM GAS  C:\Users\Abude\AppData\Local\Temp\cc1G1yp3.s 			page 1


   1              		.syntax unified
   2              		.cpu cortex-m3
   3              		.fpu softvfp
   4              		.eabi_attribute 20, 1
   5              		.eabi_attribute 21, 1
   6              		.eabi_attribute 23, 3
   7              		.eabi_attribute 24, 1
   8              		.eabi_attribute 25, 1
   9              		.eabi_attribute 26, 1
  10              		.eabi_attribute 30, 1
  11              		.eabi_attribute 34, 1
  12              		.eabi_attribute 18, 4
  13              		.thumb
  14              		.syntax unified
  15              		.file	"u8x8_d_ssd1306_48x64.c"
  16              		.text
  17              	.Ltext0:
  18              		.cfi_sections	.debug_frame
  19              		.section	.text.u8x8_d_ssd1306_48x64_generic,"ax",%progbits
  20              		.align	2
  21              		.thumb
  22              		.thumb_func
  23              		.type	u8x8_d_ssd1306_48x64_generic, %function
  24              	u8x8_d_ssd1306_48x64_generic:
  25              	.LFB0:
  26              		.file 1 "..\\..\\..\\..\\..\\..\\Dev\\Library embedded l2c display\\u8g2\\csrc\\u8x8_d_ssd1306_48x
   1:..\..\..\..\..\..\Dev\Library embedded l2c display\u8g2\csrc/u8x8_d_ssd1306_48x64.c **** /*
   2:..\..\..\..\..\..\Dev\Library embedded l2c display\u8g2\csrc/u8x8_d_ssd1306_48x64.c **** 
   3:..\..\..\..\..\..\Dev\Library embedded l2c display\u8g2\csrc/u8x8_d_ssd1306_48x64.c ****  u8x8_d_ssd1306_48x64_winstar.c
   4:..\..\..\..\..\..\Dev\Library embedded l2c display\u8g2\csrc/u8x8_d_ssd1306_48x64.c **** 
   5:..\..\..\..\..\..\Dev\Library embedded l2c display\u8g2\csrc/u8x8_d_ssd1306_48x64.c ****  Universal 8bit Graphics Library (https://github.com/olikraus/u8g2/)
   6:..\..\..\..\..\..\Dev\Library embedded l2c display\u8g2\csrc/u8x8_d_ssd1306_48x64.c **** 
   7:..\..\..\..\..\..\Dev\Library embedded l2c display\u8g2\csrc/u8x8_d_ssd1306_48x64.c ****  Copyright (c) 2016, olikraus@gmail.com
   8:..\..\..\..\..\..\Dev\Library embedded l2c display\u8g2\csrc/u8x8_d_ssd1306_48x64.c ****  All rights reserved.
   9:..\..\..\..\..\..\Dev\Library embedded l2c display\u8g2\csrc/u8x8_d_ssd1306_48x64.c **** 
  10:..\..\..\..\..\..\Dev\Library embedded l2c display\u8g2\csrc/u8x8_d_ssd1306_48x64.c ****  Redistribution and use in source and binary forms, with or without modification,
  11:..\..\..\..\..\..\Dev\Library embedded l2c display\u8g2\csrc/u8x8_d_ssd1306_48x64.c ****  are permitted provided that the following conditions are met:
  12:..\..\..\..\..\..\Dev\Library embedded l2c display\u8g2\csrc/u8x8_d_ssd1306_48x64.c **** 
  13:..\..\..\..\..\..\Dev\Library embedded l2c display\u8g2\csrc/u8x8_d_ssd1306_48x64.c ****  * Redistributions of source code must retain the above copyright notice, this list
  14:..\..\..\..\..\..\Dev\Library embedded l2c display\u8g2\csrc/u8x8_d_ssd1306_48x64.c ****  of conditions and the following disclaimer.
  15:..\..\..\..\..\..\Dev\Library embedded l2c display\u8g2\csrc/u8x8_d_ssd1306_48x64.c **** 
  16:..\..\..\..\..\..\Dev\Library embedded l2c display\u8g2\csrc/u8x8_d_ssd1306_48x64.c ****  * Redistributions in binary form must reproduce the above copyright notice, this
  17:..\..\..\..\..\..\Dev\Library embedded l2c display\u8g2\csrc/u8x8_d_ssd1306_48x64.c ****  list of conditions and the following disclaimer in the documentation and/or other
  18:..\..\..\..\..\..\Dev\Library embedded l2c display\u8g2\csrc/u8x8_d_ssd1306_48x64.c ****  materials provided with the distribution.
  19:..\..\..\..\..\..\Dev\Library embedded l2c display\u8g2\csrc/u8x8_d_ssd1306_48x64.c **** 
  20:..\..\..\..\..\..\Dev\Library embedded l2c display\u8g2\csrc/u8x8_d_ssd1306_48x64.c ****  THIS SOFTWARE IS PROVIDED BY THE COPYRIGHT HOLDERS AND
  21:..\..\..\..\..\..\Dev\Library embedded l2c display\u8g2\csrc/u8x8_d_ssd1306_48x64.c ****  CONTRIBUTORS "AS IS" AND ANY EXPRESS OR IMPLIED WARRANTIES,
  22:..\..\..\..\..\..\Dev\Library embedded l2c display\u8g2\csrc/u8x8_d_ssd1306_48x64.c ****  INCLUDING, BUT NOT LIMITED TO, THE IMPLIED WARRANTIES OF
  23:..\..\..\..\..\..\Dev\Library embedded l2c display\u8g2\csrc/u8x8_d_ssd1306_48x64.c ****  MERCHANTABILITY AND FITNESS FOR A PARTICULAR PURPOSE ARE
  24:..\..\..\..\..\..\Dev\Library embedded l2c display\u8g2\csrc/u8x8_d_ssd1306_48x64.c ****  DISCLAIMED. IN NO EVENT SHALL THE COPYRIGHT HOLDER OR
  25:..\..\..\..\..\..\Dev\Library embedded l2c display\u8g2\csrc/u8x8_d_ssd1306_48x64.c ****  CONTRIBUTORS BE LIABLE FOR ANY DIRECT, INDIRECT, INCIDENTAL,
  26:..\..\..\..\..\..\Dev\Library embedded l2c display\u8g2\csrc/u8x8_d_ssd1306_48x64.c ****  SPECIAL, EXEMPLARY, OR CONSEQUENTIAL DAMAGES (INCLUDING, BUT
  27:..\..\..\..\..\..\Dev\Library embedded l2c display\u8g2\csrc/u8x8_d_ssd1306_48x64.c ****  NOT LIMITED TO, PROCUREMENT OF SUBSTITUTE GOODS OR SERVICES;
  28:..\..\..\..\..\..\Dev\Library embedded l2c display\u8g2\csrc/u8x8_d_ssd1306_48x64.c ****  LOSS OF USE, DATA, OR PROFITS; OR BUSINESS INTERRUPTION) HOWEVER
  29:..\..\..\..\..\..\Dev\Library embedded l2c display\u8g2\csrc/u8x8_d_ssd1306_48x64.c ****  CAUSED AND ON ANY THEORY OF LIABILITY, WHETHER IN CONTRACT,
  30:..\..\..\..\..\..\Dev\Library embedded l2c display\u8g2\csrc/u8x8_d_ssd1306_48x64.c ****  STRICT LIABILITY, OR TORT (INCLUDING NEGLIGENCE OR OTHERWISE)
  31:..\..\..\..\..\..\Dev\Library embedded l2c display\u8g2\csrc/u8x8_d_ssd1306_48x64.c ****  ARISING IN ANY WAY OUT OF THE USE OF THIS SOFTWARE, EVEN IF
ARM GAS  C:\Users\Abude\AppData\Local\Temp\cc1G1yp3.s 			page 2


  32:..\..\..\..\..\..\Dev\Library embedded l2c display\u8g2\csrc/u8x8_d_ssd1306_48x64.c ****  ADVISED OF THE POSSIBILITY OF SUCH DAMAGE.
  33:..\..\..\..\..\..\Dev\Library embedded l2c display\u8g2\csrc/u8x8_d_ssd1306_48x64.c **** 
  34:..\..\..\..\..\..\Dev\Library embedded l2c display\u8g2\csrc/u8x8_d_ssd1306_48x64.c ****  */
  35:..\..\..\..\..\..\Dev\Library embedded l2c display\u8g2\csrc/u8x8_d_ssd1306_48x64.c **** #include "u8x8.h"
  36:..\..\..\..\..\..\Dev\Library embedded l2c display\u8g2\csrc/u8x8_d_ssd1306_48x64.c **** 
  37:..\..\..\..\..\..\Dev\Library embedded l2c display\u8g2\csrc/u8x8_d_ssd1306_48x64.c **** /* Winstar 0.71 OLED */
  38:..\..\..\..\..\..\Dev\Library embedded l2c display\u8g2\csrc/u8x8_d_ssd1306_48x64.c **** static const uint8_t u8x8_d_ssd1306_48x64_winstar_init_seq[] =
  39:..\..\..\..\..\..\Dev\Library embedded l2c display\u8g2\csrc/u8x8_d_ssd1306_48x64.c **** {
  40:..\..\..\..\..\..\Dev\Library embedded l2c display\u8g2\csrc/u8x8_d_ssd1306_48x64.c **** 
  41:..\..\..\..\..\..\Dev\Library embedded l2c display\u8g2\csrc/u8x8_d_ssd1306_48x64.c **** U8X8_START_TRANSFER(), /* enable chip, delay is part of the transfer start */
  42:..\..\..\..\..\..\Dev\Library embedded l2c display\u8g2\csrc/u8x8_d_ssd1306_48x64.c **** 
  43:..\..\..\..\..\..\Dev\Library embedded l2c display\u8g2\csrc/u8x8_d_ssd1306_48x64.c ****     U8X8_C(0x0ae), /* display off */
  44:..\..\..\..\..\..\Dev\Library embedded l2c display\u8g2\csrc/u8x8_d_ssd1306_48x64.c ****     U8X8_CA(0x0d5, 0x080), /* clock divide ratio (0x00=1) and oscillator frequency (0x8) */
  45:..\..\..\..\..\..\Dev\Library embedded l2c display\u8g2\csrc/u8x8_d_ssd1306_48x64.c ****     U8X8_CA(0x0a8, 0x03f), /* multiplex ratio, 0.71 OLED: changed from 0x2f to 0x3f */
  46:..\..\..\..\..\..\Dev\Library embedded l2c display\u8g2\csrc/u8x8_d_ssd1306_48x64.c ****     U8X8_CA(0x0d3, 0x000), /* display offset, 0.71 OLED  */
  47:..\..\..\..\..\..\Dev\Library embedded l2c display\u8g2\csrc/u8x8_d_ssd1306_48x64.c ****     U8X8_C(0x040), /* set display start line to 0, 0.71 OLED */
  48:..\..\..\..\..\..\Dev\Library embedded l2c display\u8g2\csrc/u8x8_d_ssd1306_48x64.c ****     U8X8_CA(0x08d, 0x014), /* [2] charge pump setting (p62): 0x014 enable, 0x010 disable, 0.71 OLED
  49:..\..\..\..\..\..\Dev\Library embedded l2c display\u8g2\csrc/u8x8_d_ssd1306_48x64.c **** 
  50:..\..\..\..\..\..\Dev\Library embedded l2c display\u8g2\csrc/u8x8_d_ssd1306_48x64.c ****     /// according to the datasheet, 0x00 is NOT page addressing mode, but horizontal addressing mod
  51:..\..\..\..\..\..\Dev\Library embedded l2c display\u8g2\csrc/u8x8_d_ssd1306_48x64.c ****     /// so it looks like u8g2 expects horizontal addressing (and the inline comment is wrong) while
  52:..\..\..\..\..\..\Dev\Library embedded l2c display\u8g2\csrc/u8x8_d_ssd1306_48x64.c ****     /// actually uses page addressing (which is the reset default)
  53:..\..\..\..\..\..\Dev\Library embedded l2c display\u8g2\csrc/u8x8_d_ssd1306_48x64.c ****     U8X8_CA(0x020, 0x000), /* horizontal addressing mode */
  54:..\..\..\..\..\..\Dev\Library embedded l2c display\u8g2\csrc/u8x8_d_ssd1306_48x64.c **** 
  55:..\..\..\..\..\..\Dev\Library embedded l2c display\u8g2\csrc/u8x8_d_ssd1306_48x64.c ****     U8X8_C(0x0a1), /* segment remap a0/a1, 0.71 OLED  */
  56:..\..\..\..\..\..\Dev\Library embedded l2c display\u8g2\csrc/u8x8_d_ssd1306_48x64.c ****     U8X8_C(0x0c8), /* c0: scan dir normal, c8: reverse, 0.71 OLED  */
  57:..\..\..\..\..\..\Dev\Library embedded l2c display\u8g2\csrc/u8x8_d_ssd1306_48x64.c ****     // Flipmode
  58:..\..\..\..\..\..\Dev\Library embedded l2c display\u8g2\csrc/u8x8_d_ssd1306_48x64.c ****     // U8X8_C(0x0a0),       /* segment remap a0/a1*/
  59:..\..\..\..\..\..\Dev\Library embedded l2c display\u8g2\csrc/u8x8_d_ssd1306_48x64.c ****     // U8X8_C(0x0c0),       /* c0: scan dir normal, c8: reverse */
  60:..\..\..\..\..\..\Dev\Library embedded l2c display\u8g2\csrc/u8x8_d_ssd1306_48x64.c **** 
  61:..\..\..\..\..\..\Dev\Library embedded l2c display\u8g2\csrc/u8x8_d_ssd1306_48x64.c ****     U8X8_CA(0x0da, 0x012), /* com pin HW config, sequential com pin config (bit 4), disable left/ri
  62:..\..\..\..\..\..\Dev\Library embedded l2c display\u8g2\csrc/u8x8_d_ssd1306_48x64.c ****     U8X8_CA(0x081, 0x07f), /* [2] set contrast control, 0.71 OLED datasheet: 0x7f */
  63:..\..\..\..\..\..\Dev\Library embedded l2c display\u8g2\csrc/u8x8_d_ssd1306_48x64.c ****     U8X8_CA(0x0d9, 0x022), /* [2] pre-charge period 0x022/f1, 0.71 OLED datasheet: 0x22 */
  64:..\..\..\..\..\..\Dev\Library embedded l2c display\u8g2\csrc/u8x8_d_ssd1306_48x64.c ****     U8X8_CA(0x0db, 0x040), /* vcomh deselect level, 0.71 OLED datasheet: 0x40 */
  65:..\..\..\..\..\..\Dev\Library embedded l2c display\u8g2\csrc/u8x8_d_ssd1306_48x64.c **** 
  66:..\..\..\..\..\..\Dev\Library embedded l2c display\u8g2\csrc/u8x8_d_ssd1306_48x64.c ****     // U8X8_C(0x02e),        /* Deactivate scroll */
  67:..\..\..\..\..\..\Dev\Library embedded l2c display\u8g2\csrc/u8x8_d_ssd1306_48x64.c ****     U8X8_C(0x0a4), /* output ram to display */
  68:..\..\..\..\..\..\Dev\Library embedded l2c display\u8g2\csrc/u8x8_d_ssd1306_48x64.c ****     U8X8_C(0x0a6), /* none inverted normal display mode */
  69:..\..\..\..\..\..\Dev\Library embedded l2c display\u8g2\csrc/u8x8_d_ssd1306_48x64.c **** 
  70:..\..\..\..\..\..\Dev\Library embedded l2c display\u8g2\csrc/u8x8_d_ssd1306_48x64.c ****     U8X8_END_TRANSFER(), /* disable chip */
  71:..\..\..\..\..\..\Dev\Library embedded l2c display\u8g2\csrc/u8x8_d_ssd1306_48x64.c ****     U8X8_END() /* end of sequence */
  72:..\..\..\..\..\..\Dev\Library embedded l2c display\u8g2\csrc/u8x8_d_ssd1306_48x64.c **** };
  73:..\..\..\..\..\..\Dev\Library embedded l2c display\u8g2\csrc/u8x8_d_ssd1306_48x64.c **** 
  74:..\..\..\..\..\..\Dev\Library embedded l2c display\u8g2\csrc/u8x8_d_ssd1306_48x64.c **** static const uint8_t u8x8_d_ssd1306_48x64_powersave0_seq[] =
  75:..\..\..\..\..\..\Dev\Library embedded l2c display\u8g2\csrc/u8x8_d_ssd1306_48x64.c **** {
  76:..\..\..\..\..\..\Dev\Library embedded l2c display\u8g2\csrc/u8x8_d_ssd1306_48x64.c **** U8X8_START_TRANSFER(), /* enable chip, delay is part of the transfer start */
  77:..\..\..\..\..\..\Dev\Library embedded l2c display\u8g2\csrc/u8x8_d_ssd1306_48x64.c **** U8X8_C(0x0af), /* display on */
  78:..\..\..\..\..\..\Dev\Library embedded l2c display\u8g2\csrc/u8x8_d_ssd1306_48x64.c **** U8X8_END_TRANSFER(), /* disable chip */
  79:..\..\..\..\..\..\Dev\Library embedded l2c display\u8g2\csrc/u8x8_d_ssd1306_48x64.c **** U8X8_END() /* end of sequence */
  80:..\..\..\..\..\..\Dev\Library embedded l2c display\u8g2\csrc/u8x8_d_ssd1306_48x64.c **** };
  81:..\..\..\..\..\..\Dev\Library embedded l2c display\u8g2\csrc/u8x8_d_ssd1306_48x64.c **** 
  82:..\..\..\..\..\..\Dev\Library embedded l2c display\u8g2\csrc/u8x8_d_ssd1306_48x64.c **** static const uint8_t u8x8_d_ssd1306_48x64_powersave1_seq[] =
  83:..\..\..\..\..\..\Dev\Library embedded l2c display\u8g2\csrc/u8x8_d_ssd1306_48x64.c **** {
  84:..\..\..\..\..\..\Dev\Library embedded l2c display\u8g2\csrc/u8x8_d_ssd1306_48x64.c **** U8X8_START_TRANSFER(), /* enable chip, delay is part of the transfer start */
  85:..\..\..\..\..\..\Dev\Library embedded l2c display\u8g2\csrc/u8x8_d_ssd1306_48x64.c **** U8X8_C(0x0ae), /* display off */
  86:..\..\..\..\..\..\Dev\Library embedded l2c display\u8g2\csrc/u8x8_d_ssd1306_48x64.c **** U8X8_END_TRANSFER(), /* disable chip */
  87:..\..\..\..\..\..\Dev\Library embedded l2c display\u8g2\csrc/u8x8_d_ssd1306_48x64.c **** U8X8_END() /* end of sequence */
  88:..\..\..\..\..\..\Dev\Library embedded l2c display\u8g2\csrc/u8x8_d_ssd1306_48x64.c **** };
ARM GAS  C:\Users\Abude\AppData\Local\Temp\cc1G1yp3.s 			page 3


  89:..\..\..\..\..\..\Dev\Library embedded l2c display\u8g2\csrc/u8x8_d_ssd1306_48x64.c **** 
  90:..\..\..\..\..\..\Dev\Library embedded l2c display\u8g2\csrc/u8x8_d_ssd1306_48x64.c **** static const uint8_t u8x8_d_ssd1306_48x64_flip0_seq[] =
  91:..\..\..\..\..\..\Dev\Library embedded l2c display\u8g2\csrc/u8x8_d_ssd1306_48x64.c **** {
  92:..\..\..\..\..\..\Dev\Library embedded l2c display\u8g2\csrc/u8x8_d_ssd1306_48x64.c **** U8X8_START_TRANSFER(), /* enable chip, delay is part of the transfer start */
  93:..\..\..\..\..\..\Dev\Library embedded l2c display\u8g2\csrc/u8x8_d_ssd1306_48x64.c **** U8X8_C(0x0a1), /* segment remap a0/a1*/
  94:..\..\..\..\..\..\Dev\Library embedded l2c display\u8g2\csrc/u8x8_d_ssd1306_48x64.c **** U8X8_C(0x0c8), /* c0: scan dir normal, c8: reverse */
  95:..\..\..\..\..\..\Dev\Library embedded l2c display\u8g2\csrc/u8x8_d_ssd1306_48x64.c **** U8X8_END_TRANSFER(), /* disable chip */
  96:..\..\..\..\..\..\Dev\Library embedded l2c display\u8g2\csrc/u8x8_d_ssd1306_48x64.c **** U8X8_END() /* end of sequence */
  97:..\..\..\..\..\..\Dev\Library embedded l2c display\u8g2\csrc/u8x8_d_ssd1306_48x64.c **** };
  98:..\..\..\..\..\..\Dev\Library embedded l2c display\u8g2\csrc/u8x8_d_ssd1306_48x64.c **** 
  99:..\..\..\..\..\..\Dev\Library embedded l2c display\u8g2\csrc/u8x8_d_ssd1306_48x64.c **** static const uint8_t u8x8_d_ssd1306_48x64_flip1_seq[] =
 100:..\..\..\..\..\..\Dev\Library embedded l2c display\u8g2\csrc/u8x8_d_ssd1306_48x64.c **** {
 101:..\..\..\..\..\..\Dev\Library embedded l2c display\u8g2\csrc/u8x8_d_ssd1306_48x64.c **** U8X8_START_TRANSFER(), /* enable chip, delay is part of the transfer start */
 102:..\..\..\..\..\..\Dev\Library embedded l2c display\u8g2\csrc/u8x8_d_ssd1306_48x64.c **** U8X8_C(0x0a0), /* segment remap a0/a1*/
 103:..\..\..\..\..\..\Dev\Library embedded l2c display\u8g2\csrc/u8x8_d_ssd1306_48x64.c **** U8X8_C(0x0c0), /* c0: scan dir normal, c8: reverse */
 104:..\..\..\..\..\..\Dev\Library embedded l2c display\u8g2\csrc/u8x8_d_ssd1306_48x64.c **** U8X8_END_TRANSFER(), /* disable chip */
 105:..\..\..\..\..\..\Dev\Library embedded l2c display\u8g2\csrc/u8x8_d_ssd1306_48x64.c **** U8X8_END() /* end of sequence */
 106:..\..\..\..\..\..\Dev\Library embedded l2c display\u8g2\csrc/u8x8_d_ssd1306_48x64.c **** };
 107:..\..\..\..\..\..\Dev\Library embedded l2c display\u8g2\csrc/u8x8_d_ssd1306_48x64.c **** 
 108:..\..\..\..\..\..\Dev\Library embedded l2c display\u8g2\csrc/u8x8_d_ssd1306_48x64.c **** static uint8_t u8x8_d_ssd1306_48x64_generic(u8x8_t *u8x8, uint8_t msg,
 109:..\..\..\..\..\..\Dev\Library embedded l2c display\u8g2\csrc/u8x8_d_ssd1306_48x64.c ****     uint8_t arg_int, void *arg_ptr)
 110:..\..\..\..\..\..\Dev\Library embedded l2c display\u8g2\csrc/u8x8_d_ssd1306_48x64.c **** {
  27              		.loc 1 110 0
  28              		.cfi_startproc
  29              		@ args = 0, pretend = 0, frame = 0
  30              		@ frame_needed = 0, uses_anonymous_args = 0
  31              	.LVL0:
  32 0000 F8B5     		push	{r3, r4, r5, r6, r7, lr}
  33              		.cfi_def_cfa_offset 24
  34              		.cfi_offset 3, -24
  35              		.cfi_offset 4, -20
  36              		.cfi_offset 5, -16
  37              		.cfi_offset 6, -12
  38              		.cfi_offset 7, -8
  39              		.cfi_offset 14, -4
  40 0002 0546     		mov	r5, r0
  41 0004 1446     		mov	r4, r2
  42 0006 1E46     		mov	r6, r3
 111:..\..\..\..\..\..\Dev\Library embedded l2c display\u8g2\csrc/u8x8_d_ssd1306_48x64.c ****   uint8_t x, c;
 112:..\..\..\..\..\..\Dev\Library embedded l2c display\u8g2\csrc/u8x8_d_ssd1306_48x64.c ****   uint8_t *ptr;
 113:..\..\..\..\..\..\Dev\Library embedded l2c display\u8g2\csrc/u8x8_d_ssd1306_48x64.c ****   switch (msg)
  43              		.loc 1 113 0
  44 0008 0B39     		subs	r1, r1, #11
  45              	.LVL1:
  46 000a 0429     		cmp	r1, #4
  47 000c 5CD8     		bhi	.L11
  48 000e DFE801F0 		tbb	[pc, r1]
  49              	.LVL2:
  50              	.L4:
  51 0012 03       		.byte	(.L3-.L4)/2
  52 0013 5B       		.byte	(.L11-.L4)/2
  53 0014 0E       		.byte	(.L5-.L4)/2
  54 0015 21       		.byte	(.L6-.L4)/2
  55 0016 30       		.byte	(.L7-.L4)/2
  56 0017 00       		.p2align 1
  57              	.L3:
 114:..\..\..\..\..\..\Dev\Library embedded l2c display\u8g2\csrc/u8x8_d_ssd1306_48x64.c ****   {
ARM GAS  C:\Users\Abude\AppData\Local\Temp\cc1G1yp3.s 			page 4


 115:..\..\..\..\..\..\Dev\Library embedded l2c display\u8g2\csrc/u8x8_d_ssd1306_48x64.c ****     /* handled by the calling function
 116:..\..\..\..\..\..\Dev\Library embedded l2c display\u8g2\csrc/u8x8_d_ssd1306_48x64.c ****      case U8X8_MSG_DISPLAY_SETUP_MEMORY:
 117:..\..\..\..\..\..\Dev\Library embedded l2c display\u8g2\csrc/u8x8_d_ssd1306_48x64.c ****      u8x8_d_helper_display_setup_memory(u8x8, &u8x8_ssd1306_48x64_display_info);
 118:..\..\..\..\..\..\Dev\Library embedded l2c display\u8g2\csrc/u8x8_d_ssd1306_48x64.c ****      break;
 119:..\..\..\..\..\..\Dev\Library embedded l2c display\u8g2\csrc/u8x8_d_ssd1306_48x64.c ****      case U8X8_MSG_DISPLAY_INIT:
 120:..\..\..\..\..\..\Dev\Library embedded l2c display\u8g2\csrc/u8x8_d_ssd1306_48x64.c ****      u8x8_d_helper_display_init(u8x8);
 121:..\..\..\..\..\..\Dev\Library embedded l2c display\u8g2\csrc/u8x8_d_ssd1306_48x64.c ****      u8x8_cad_SendSequence(u8x8, u8x8_d_ssd1306_48x64_winstar_init_seq);
 122:..\..\..\..\..\..\Dev\Library embedded l2c display\u8g2\csrc/u8x8_d_ssd1306_48x64.c ****      break;
 123:..\..\..\..\..\..\Dev\Library embedded l2c display\u8g2\csrc/u8x8_d_ssd1306_48x64.c ****      */
 124:..\..\..\..\..\..\Dev\Library embedded l2c display\u8g2\csrc/u8x8_d_ssd1306_48x64.c ****     case U8X8_MSG_DISPLAY_SET_POWER_SAVE:
 125:..\..\..\..\..\..\Dev\Library embedded l2c display\u8g2\csrc/u8x8_d_ssd1306_48x64.c ****       if (arg_int == 0)
  58              		.loc 1 125 0
  59 0018 22B9     		cbnz	r2, .L8
 126:..\..\..\..\..\..\Dev\Library embedded l2c display\u8g2\csrc/u8x8_d_ssd1306_48x64.c ****         u8x8_cad_SendSequence(u8x8, u8x8_d_ssd1306_48x64_powersave0_seq);
  60              		.loc 1 126 0
  61 001a 2C49     		ldr	r1, .L13
  62 001c FFF7FEFF 		bl	u8x8_cad_SendSequence
  63              	.LVL3:
 127:..\..\..\..\..\..\Dev\Library embedded l2c display\u8g2\csrc/u8x8_d_ssd1306_48x64.c ****       else
 128:..\..\..\..\..\..\Dev\Library embedded l2c display\u8g2\csrc/u8x8_d_ssd1306_48x64.c ****         u8x8_cad_SendSequence(u8x8, u8x8_d_ssd1306_48x64_powersave1_seq);
 129:..\..\..\..\..\..\Dev\Library embedded l2c display\u8g2\csrc/u8x8_d_ssd1306_48x64.c ****       break;
 130:..\..\..\..\..\..\Dev\Library embedded l2c display\u8g2\csrc/u8x8_d_ssd1306_48x64.c ****     case U8X8_MSG_DISPLAY_SET_FLIP_MODE:
 131:..\..\..\..\..\..\Dev\Library embedded l2c display\u8g2\csrc/u8x8_d_ssd1306_48x64.c ****       if (arg_int == 0)
 132:..\..\..\..\..\..\Dev\Library embedded l2c display\u8g2\csrc/u8x8_d_ssd1306_48x64.c ****       {
 133:..\..\..\..\..\..\Dev\Library embedded l2c display\u8g2\csrc/u8x8_d_ssd1306_48x64.c ****         u8x8_cad_SendSequence(u8x8, u8x8_d_ssd1306_48x64_flip0_seq);
 134:..\..\..\..\..\..\Dev\Library embedded l2c display\u8g2\csrc/u8x8_d_ssd1306_48x64.c ****         u8x8->x_offset = u8x8->display_info->default_x_offset;
 135:..\..\..\..\..\..\Dev\Library embedded l2c display\u8g2\csrc/u8x8_d_ssd1306_48x64.c ****       }
 136:..\..\..\..\..\..\Dev\Library embedded l2c display\u8g2\csrc/u8x8_d_ssd1306_48x64.c ****       else
 137:..\..\..\..\..\..\Dev\Library embedded l2c display\u8g2\csrc/u8x8_d_ssd1306_48x64.c ****       {
 138:..\..\..\..\..\..\Dev\Library embedded l2c display\u8g2\csrc/u8x8_d_ssd1306_48x64.c ****         u8x8_cad_SendSequence(u8x8, u8x8_d_ssd1306_48x64_flip1_seq);
 139:..\..\..\..\..\..\Dev\Library embedded l2c display\u8g2\csrc/u8x8_d_ssd1306_48x64.c ****         u8x8->x_offset = u8x8->display_info->flipmode_x_offset;
 140:..\..\..\..\..\..\Dev\Library embedded l2c display\u8g2\csrc/u8x8_d_ssd1306_48x64.c ****       }
 141:..\..\..\..\..\..\Dev\Library embedded l2c display\u8g2\csrc/u8x8_d_ssd1306_48x64.c ****       break;
 142:..\..\..\..\..\..\Dev\Library embedded l2c display\u8g2\csrc/u8x8_d_ssd1306_48x64.c **** #ifdef U8X8_WITH_SET_CONTRAST
 143:..\..\..\..\..\..\Dev\Library embedded l2c display\u8g2\csrc/u8x8_d_ssd1306_48x64.c ****     case U8X8_MSG_DISPLAY_SET_CONTRAST:
 144:..\..\..\..\..\..\Dev\Library embedded l2c display\u8g2\csrc/u8x8_d_ssd1306_48x64.c ****       u8x8_cad_StartTransfer(u8x8);
 145:..\..\..\..\..\..\Dev\Library embedded l2c display\u8g2\csrc/u8x8_d_ssd1306_48x64.c ****       u8x8_cad_SendCmd(u8x8, 0x081);
 146:..\..\..\..\..\..\Dev\Library embedded l2c display\u8g2\csrc/u8x8_d_ssd1306_48x64.c ****       u8x8_cad_SendArg(u8x8, arg_int); /* ssd1306 has range from 0 to 255 */
 147:..\..\..\..\..\..\Dev\Library embedded l2c display\u8g2\csrc/u8x8_d_ssd1306_48x64.c ****       u8x8_cad_EndTransfer(u8x8);
 148:..\..\..\..\..\..\Dev\Library embedded l2c display\u8g2\csrc/u8x8_d_ssd1306_48x64.c ****       break;
 149:..\..\..\..\..\..\Dev\Library embedded l2c display\u8g2\csrc/u8x8_d_ssd1306_48x64.c **** #endif
 150:..\..\..\..\..\..\Dev\Library embedded l2c display\u8g2\csrc/u8x8_d_ssd1306_48x64.c ****     case U8X8_MSG_DISPLAY_DRAW_TILE:
 151:..\..\..\..\..\..\Dev\Library embedded l2c display\u8g2\csrc/u8x8_d_ssd1306_48x64.c ****       u8x8_cad_StartTransfer(u8x8);
 152:..\..\..\..\..\..\Dev\Library embedded l2c display\u8g2\csrc/u8x8_d_ssd1306_48x64.c ****       x = ((u8x8_tile_t *) arg_ptr)->x_pos;
 153:..\..\..\..\..\..\Dev\Library embedded l2c display\u8g2\csrc/u8x8_d_ssd1306_48x64.c ****       x *= 8;
 154:..\..\..\..\..\..\Dev\Library embedded l2c display\u8g2\csrc/u8x8_d_ssd1306_48x64.c ****       x += u8x8->x_offset;
 155:..\..\..\..\..\..\Dev\Library embedded l2c display\u8g2\csrc/u8x8_d_ssd1306_48x64.c ****       u8x8_cad_SendCmd(u8x8, 0x010 | (x >> 4));
 156:..\..\..\..\..\..\Dev\Library embedded l2c display\u8g2\csrc/u8x8_d_ssd1306_48x64.c ****       u8x8_cad_SendCmd(u8x8, 0x000 | ((x & 15)));
 157:..\..\..\..\..\..\Dev\Library embedded l2c display\u8g2\csrc/u8x8_d_ssd1306_48x64.c ****       u8x8_cad_SendCmd(u8x8, 0x0b0 | (((u8x8_tile_t *) arg_ptr)->y_pos));
 158:..\..\..\..\..\..\Dev\Library embedded l2c display\u8g2\csrc/u8x8_d_ssd1306_48x64.c **** 
 159:..\..\..\..\..\..\Dev\Library embedded l2c display\u8g2\csrc/u8x8_d_ssd1306_48x64.c ****       do
 160:..\..\..\..\..\..\Dev\Library embedded l2c display\u8g2\csrc/u8x8_d_ssd1306_48x64.c ****       {
 161:..\..\..\..\..\..\Dev\Library embedded l2c display\u8g2\csrc/u8x8_d_ssd1306_48x64.c ****         c = ((u8x8_tile_t *) arg_ptr)->cnt;
 162:..\..\..\..\..\..\Dev\Library embedded l2c display\u8g2\csrc/u8x8_d_ssd1306_48x64.c ****         ptr = ((u8x8_tile_t *) arg_ptr)->tile_ptr;
 163:..\..\..\..\..\..\Dev\Library embedded l2c display\u8g2\csrc/u8x8_d_ssd1306_48x64.c ****         u8x8_cad_SendData(u8x8, c * 8, ptr); /* note: SendData can not handle more than 255 bytes *
 164:..\..\..\..\..\..\Dev\Library embedded l2c display\u8g2\csrc/u8x8_d_ssd1306_48x64.c ****         arg_int--;
 165:..\..\..\..\..\..\Dev\Library embedded l2c display\u8g2\csrc/u8x8_d_ssd1306_48x64.c ****       } while (arg_int > 0);
ARM GAS  C:\Users\Abude\AppData\Local\Temp\cc1G1yp3.s 			page 5


 166:..\..\..\..\..\..\Dev\Library embedded l2c display\u8g2\csrc/u8x8_d_ssd1306_48x64.c **** 
 167:..\..\..\..\..\..\Dev\Library embedded l2c display\u8g2\csrc/u8x8_d_ssd1306_48x64.c ****       u8x8_cad_EndTransfer(u8x8);
 168:..\..\..\..\..\..\Dev\Library embedded l2c display\u8g2\csrc/u8x8_d_ssd1306_48x64.c ****       break;
 169:..\..\..\..\..\..\Dev\Library embedded l2c display\u8g2\csrc/u8x8_d_ssd1306_48x64.c ****     default:
 170:..\..\..\..\..\..\Dev\Library embedded l2c display\u8g2\csrc/u8x8_d_ssd1306_48x64.c ****       return 0;
 171:..\..\..\..\..\..\Dev\Library embedded l2c display\u8g2\csrc/u8x8_d_ssd1306_48x64.c ****   }
 172:..\..\..\..\..\..\Dev\Library embedded l2c display\u8g2\csrc/u8x8_d_ssd1306_48x64.c ****   return 1;
  64              		.loc 1 172 0
  65 0020 0120     		movs	r0, #1
  66 0022 F8BD     		pop	{r3, r4, r5, r6, r7, pc}
  67              	.LVL4:
  68              	.L8:
 128:..\..\..\..\..\..\Dev\Library embedded l2c display\u8g2\csrc/u8x8_d_ssd1306_48x64.c ****       break;
  69              		.loc 1 128 0
  70 0024 2A49     		ldr	r1, .L13+4
  71 0026 FFF7FEFF 		bl	u8x8_cad_SendSequence
  72              	.LVL5:
  73              		.loc 1 172 0
  74 002a 0120     		movs	r0, #1
  75 002c F8BD     		pop	{r3, r4, r5, r6, r7, pc}
  76              	.LVL6:
  77              	.L5:
 131:..\..\..\..\..\..\Dev\Library embedded l2c display\u8g2\csrc/u8x8_d_ssd1306_48x64.c ****       {
  78              		.loc 1 131 0
  79 002e 42B9     		cbnz	r2, .L9
 133:..\..\..\..\..\..\Dev\Library embedded l2c display\u8g2\csrc/u8x8_d_ssd1306_48x64.c ****         u8x8->x_offset = u8x8->display_info->default_x_offset;
  80              		.loc 1 133 0
  81 0030 2849     		ldr	r1, .L13+8
  82 0032 FFF7FEFF 		bl	u8x8_cad_SendSequence
  83              	.LVL7:
 134:..\..\..\..\..\..\Dev\Library embedded l2c display\u8g2\csrc/u8x8_d_ssd1306_48x64.c ****       }
  84              		.loc 1 134 0
  85 0036 2B68     		ldr	r3, [r5]
  86 0038 9B7C     		ldrb	r3, [r3, #18]	@ zero_extendqisi2
  87 003a 85F82230 		strb	r3, [r5, #34]
  88              		.loc 1 172 0
  89 003e 0120     		movs	r0, #1
  90 0040 F8BD     		pop	{r3, r4, r5, r6, r7, pc}
  91              	.LVL8:
  92              	.L9:
 138:..\..\..\..\..\..\Dev\Library embedded l2c display\u8g2\csrc/u8x8_d_ssd1306_48x64.c ****         u8x8->x_offset = u8x8->display_info->flipmode_x_offset;
  93              		.loc 1 138 0
  94 0042 2549     		ldr	r1, .L13+12
  95 0044 FFF7FEFF 		bl	u8x8_cad_SendSequence
  96              	.LVL9:
 139:..\..\..\..\..\..\Dev\Library embedded l2c display\u8g2\csrc/u8x8_d_ssd1306_48x64.c ****       }
  97              		.loc 1 139 0
  98 0048 2B68     		ldr	r3, [r5]
  99 004a DB7C     		ldrb	r3, [r3, #19]	@ zero_extendqisi2
 100 004c 85F82230 		strb	r3, [r5, #34]
 101              		.loc 1 172 0
 102 0050 0120     		movs	r0, #1
 103 0052 F8BD     		pop	{r3, r4, r5, r6, r7, pc}
 104              	.LVL10:
 105              	.L6:
 144:..\..\..\..\..\..\Dev\Library embedded l2c display\u8g2\csrc/u8x8_d_ssd1306_48x64.c ****       u8x8_cad_SendCmd(u8x8, 0x081);
 106              		.loc 1 144 0
ARM GAS  C:\Users\Abude\AppData\Local\Temp\cc1G1yp3.s 			page 6


 107 0054 FFF7FEFF 		bl	u8x8_cad_StartTransfer
 108              	.LVL11:
 145:..\..\..\..\..\..\Dev\Library embedded l2c display\u8g2\csrc/u8x8_d_ssd1306_48x64.c ****       u8x8_cad_SendArg(u8x8, arg_int); /* ssd1306 has range from 0 to 255 */
 109              		.loc 1 145 0
 110 0058 8121     		movs	r1, #129
 111 005a 2846     		mov	r0, r5
 112 005c FFF7FEFF 		bl	u8x8_cad_SendCmd
 113              	.LVL12:
 146:..\..\..\..\..\..\Dev\Library embedded l2c display\u8g2\csrc/u8x8_d_ssd1306_48x64.c ****       u8x8_cad_EndTransfer(u8x8);
 114              		.loc 1 146 0
 115 0060 2146     		mov	r1, r4
 116 0062 2846     		mov	r0, r5
 117 0064 FFF7FEFF 		bl	u8x8_cad_SendArg
 118              	.LVL13:
 147:..\..\..\..\..\..\Dev\Library embedded l2c display\u8g2\csrc/u8x8_d_ssd1306_48x64.c ****       break;
 119              		.loc 1 147 0
 120 0068 2846     		mov	r0, r5
 121 006a FFF7FEFF 		bl	u8x8_cad_EndTransfer
 122              	.LVL14:
 123              		.loc 1 172 0
 124 006e 0120     		movs	r0, #1
 148:..\..\..\..\..\..\Dev\Library embedded l2c display\u8g2\csrc/u8x8_d_ssd1306_48x64.c **** #endif
 125              		.loc 1 148 0
 126 0070 F8BD     		pop	{r3, r4, r5, r6, r7, pc}
 127              	.LVL15:
 128              	.L7:
 151:..\..\..\..\..\..\Dev\Library embedded l2c display\u8g2\csrc/u8x8_d_ssd1306_48x64.c ****       x = ((u8x8_tile_t *) arg_ptr)->x_pos;
 129              		.loc 1 151 0
 130 0072 FFF7FEFF 		bl	u8x8_cad_StartTransfer
 131              	.LVL16:
 152:..\..\..\..\..\..\Dev\Library embedded l2c display\u8g2\csrc/u8x8_d_ssd1306_48x64.c ****       x *= 8;
 132              		.loc 1 152 0
 133 0076 7779     		ldrb	r7, [r6, #5]	@ zero_extendqisi2
 134              	.LVL17:
 153:..\..\..\..\..\..\Dev\Library embedded l2c display\u8g2\csrc/u8x8_d_ssd1306_48x64.c ****       x += u8x8->x_offset;
 135              		.loc 1 153 0
 136 0078 FF00     		lsls	r7, r7, #3
 137              	.LVL18:
 138 007a FFB2     		uxtb	r7, r7
 139              	.LVL19:
 154:..\..\..\..\..\..\Dev\Library embedded l2c display\u8g2\csrc/u8x8_d_ssd1306_48x64.c ****       u8x8_cad_SendCmd(u8x8, 0x010 | (x >> 4));
 140              		.loc 1 154 0
 141 007c 95F82230 		ldrb	r3, [r5, #34]	@ zero_extendqisi2
 142 0080 1F44     		add	r7, r7, r3
 143              	.LVL20:
 144 0082 FFB2     		uxtb	r7, r7
 145              	.LVL21:
 155:..\..\..\..\..\..\Dev\Library embedded l2c display\u8g2\csrc/u8x8_d_ssd1306_48x64.c ****       u8x8_cad_SendCmd(u8x8, 0x000 | ((x & 15)));
 146              		.loc 1 155 0
 147 0084 3909     		lsrs	r1, r7, #4
 148 0086 41F01001 		orr	r1, r1, #16
 149 008a 2846     		mov	r0, r5
 150 008c FFF7FEFF 		bl	u8x8_cad_SendCmd
 151              	.LVL22:
 156:..\..\..\..\..\..\Dev\Library embedded l2c display\u8g2\csrc/u8x8_d_ssd1306_48x64.c ****       u8x8_cad_SendCmd(u8x8, 0x0b0 | (((u8x8_tile_t *) arg_ptr)->y_pos));
 152              		.loc 1 156 0
 153 0090 07F00F01 		and	r1, r7, #15
ARM GAS  C:\Users\Abude\AppData\Local\Temp\cc1G1yp3.s 			page 7


 154 0094 2846     		mov	r0, r5
 155 0096 FFF7FEFF 		bl	u8x8_cad_SendCmd
 156              	.LVL23:
 157:..\..\..\..\..\..\Dev\Library embedded l2c display\u8g2\csrc/u8x8_d_ssd1306_48x64.c **** 
 157              		.loc 1 157 0
 158 009a B179     		ldrb	r1, [r6, #6]	@ zero_extendqisi2
 159 009c 41F0B001 		orr	r1, r1, #176
 160 00a0 2846     		mov	r0, r5
 161 00a2 FFF7FEFF 		bl	u8x8_cad_SendCmd
 162              	.LVL24:
 163              	.L10:
 161:..\..\..\..\..\..\Dev\Library embedded l2c display\u8g2\csrc/u8x8_d_ssd1306_48x64.c ****         ptr = ((u8x8_tile_t *) arg_ptr)->tile_ptr;
 164              		.loc 1 161 0 discriminator 1
 165 00a6 3179     		ldrb	r1, [r6, #4]	@ zero_extendqisi2
 166              	.LVL25:
 163:..\..\..\..\..\..\Dev\Library embedded l2c display\u8g2\csrc/u8x8_d_ssd1306_48x64.c ****         arg_int--;
 167              		.loc 1 163 0 discriminator 1
 168 00a8 C900     		lsls	r1, r1, #3
 169              	.LVL26:
 170 00aa 3268     		ldr	r2, [r6]
 171 00ac 01F0F801 		and	r1, r1, #248
 172 00b0 2846     		mov	r0, r5
 173 00b2 FFF7FEFF 		bl	u8x8_cad_SendData
 174              	.LVL27:
 164:..\..\..\..\..\..\Dev\Library embedded l2c display\u8g2\csrc/u8x8_d_ssd1306_48x64.c ****       } while (arg_int > 0);
 175              		.loc 1 164 0 discriminator 1
 176 00b6 621E     		subs	r2, r4, #1
 177              	.LVL28:
 165:..\..\..\..\..\..\Dev\Library embedded l2c display\u8g2\csrc/u8x8_d_ssd1306_48x64.c **** 
 178              		.loc 1 165 0 discriminator 1
 179 00b8 12F0FF04 		ands	r4, r2, #255
 180 00bc F3D1     		bne	.L10
 167:..\..\..\..\..\..\Dev\Library embedded l2c display\u8g2\csrc/u8x8_d_ssd1306_48x64.c ****       break;
 181              		.loc 1 167 0
 182 00be 2846     		mov	r0, r5
 183 00c0 FFF7FEFF 		bl	u8x8_cad_EndTransfer
 184              	.LVL29:
 185              		.loc 1 172 0
 186 00c4 0120     		movs	r0, #1
 168:..\..\..\..\..\..\Dev\Library embedded l2c display\u8g2\csrc/u8x8_d_ssd1306_48x64.c ****     default:
 187              		.loc 1 168 0
 188 00c6 F8BD     		pop	{r3, r4, r5, r6, r7, pc}
 189              	.LVL30:
 190              	.L11:
 170:..\..\..\..\..\..\Dev\Library embedded l2c display\u8g2\csrc/u8x8_d_ssd1306_48x64.c ****   }
 191              		.loc 1 170 0
 192 00c8 0020     		movs	r0, #0
 193              	.LVL31:
 173:..\..\..\..\..\..\Dev\Library embedded l2c display\u8g2\csrc/u8x8_d_ssd1306_48x64.c **** }
 194              		.loc 1 173 0
 195 00ca F8BD     		pop	{r3, r4, r5, r6, r7, pc}
 196              	.LVL32:
 197              	.L14:
 198              		.align	2
 199              	.L13:
 200 00cc 00000000 		.word	.LANCHOR0
 201 00d0 08000000 		.word	.LANCHOR0+8
ARM GAS  C:\Users\Abude\AppData\Local\Temp\cc1G1yp3.s 			page 8


 202 00d4 10000000 		.word	.LANCHOR0+16
 203 00d8 18000000 		.word	.LANCHOR0+24
 204              		.cfi_endproc
 205              	.LFE0:
 206              		.size	u8x8_d_ssd1306_48x64_generic, .-u8x8_d_ssd1306_48x64_generic
 207              		.section	.text.u8x8_d_ssd1306_48x64_winstar,"ax",%progbits
 208              		.align	2
 209              		.global	u8x8_d_ssd1306_48x64_winstar
 210              		.thumb
 211              		.thumb_func
 212              		.type	u8x8_d_ssd1306_48x64_winstar, %function
 213              	u8x8_d_ssd1306_48x64_winstar:
 214              	.LFB1:
 174:..\..\..\..\..\..\Dev\Library embedded l2c display\u8g2\csrc/u8x8_d_ssd1306_48x64.c **** 
 175:..\..\..\..\..\..\Dev\Library embedded l2c display\u8g2\csrc/u8x8_d_ssd1306_48x64.c **** static const u8x8_display_info_t u8x8_ssd1306_48x64_display_info =
 176:..\..\..\..\..\..\Dev\Library embedded l2c display\u8g2\csrc/u8x8_d_ssd1306_48x64.c **** {
 177:..\..\..\..\..\..\Dev\Library embedded l2c display\u8g2\csrc/u8x8_d_ssd1306_48x64.c **** /* chip_enable_level = */0,
 178:..\..\..\..\..\..\Dev\Library embedded l2c display\u8g2\csrc/u8x8_d_ssd1306_48x64.c **** /* chip_disable_level = */1,
 179:..\..\..\..\..\..\Dev\Library embedded l2c display\u8g2\csrc/u8x8_d_ssd1306_48x64.c **** 
 180:..\..\..\..\..\..\Dev\Library embedded l2c display\u8g2\csrc/u8x8_d_ssd1306_48x64.c **** /* post_chip_enable_wait_ns = */20,
 181:..\..\..\..\..\..\Dev\Library embedded l2c display\u8g2\csrc/u8x8_d_ssd1306_48x64.c **** /* pre_chip_disable_wait_ns = */10,
 182:..\..\..\..\..\..\Dev\Library embedded l2c display\u8g2\csrc/u8x8_d_ssd1306_48x64.c **** /* reset_pulse_width_ms = */100, /* SSD1306: 3 us */
 183:..\..\..\..\..\..\Dev\Library embedded l2c display\u8g2\csrc/u8x8_d_ssd1306_48x64.c **** /* post_reset_wait_ms = */100, /* far east OLEDs need much longer setup time */
 184:..\..\..\..\..\..\Dev\Library embedded l2c display\u8g2\csrc/u8x8_d_ssd1306_48x64.c **** /* sda_setup_time_ns = */50, /* SSD1306: 15ns, but cycle time is 100ns, so use 100/2 */
 185:..\..\..\..\..\..\Dev\Library embedded l2c display\u8g2\csrc/u8x8_d_ssd1306_48x64.c **** /* sck_pulse_width_ns = */50, /* SSD1306: 20ns, but cycle time is 100ns, so use 100/2, AVR: below 7
 186:..\..\..\..\..\..\Dev\Library embedded l2c display\u8g2\csrc/u8x8_d_ssd1306_48x64.c **** /* sck_clock_hz = */8000000UL, /* since Arduino 1.6.0, the SPI bus speed in Hz. Should be  10000000
 187:..\..\..\..\..\..\Dev\Library embedded l2c display\u8g2\csrc/u8x8_d_ssd1306_48x64.c **** /* spi_mode = */0, /* active high, rising edge */
 188:..\..\..\..\..\..\Dev\Library embedded l2c display\u8g2\csrc/u8x8_d_ssd1306_48x64.c **** /* i2c_bus_clock_100kHz = */4,
 189:..\..\..\..\..\..\Dev\Library embedded l2c display\u8g2\csrc/u8x8_d_ssd1306_48x64.c **** /* data_setup_time_ns = */40,
 190:..\..\..\..\..\..\Dev\Library embedded l2c display\u8g2\csrc/u8x8_d_ssd1306_48x64.c **** /* write_pulse_width_ns = */150, /* SSD1306: cycle time is 300ns, so use 300/2 = 150 */
 191:..\..\..\..\..\..\Dev\Library embedded l2c display\u8g2\csrc/u8x8_d_ssd1306_48x64.c **** /* tile_width = */6,
 192:..\..\..\..\..\..\Dev\Library embedded l2c display\u8g2\csrc/u8x8_d_ssd1306_48x64.c **** /* tile_height = */8,
 193:..\..\..\..\..\..\Dev\Library embedded l2c display\u8g2\csrc/u8x8_d_ssd1306_48x64.c **** /* default_x_offset = */40,
 194:..\..\..\..\..\..\Dev\Library embedded l2c display\u8g2\csrc/u8x8_d_ssd1306_48x64.c **** /* flipmode_x_offset = */40,
 195:..\..\..\..\..\..\Dev\Library embedded l2c display\u8g2\csrc/u8x8_d_ssd1306_48x64.c **** /* pixel_width = */48,
 196:..\..\..\..\..\..\Dev\Library embedded l2c display\u8g2\csrc/u8x8_d_ssd1306_48x64.c **** /* pixel_height = */64 };
 197:..\..\..\..\..\..\Dev\Library embedded l2c display\u8g2\csrc/u8x8_d_ssd1306_48x64.c **** 
 198:..\..\..\..\..\..\Dev\Library embedded l2c display\u8g2\csrc/u8x8_d_ssd1306_48x64.c **** /* Winstar 0.71" OLED */
 199:..\..\..\..\..\..\Dev\Library embedded l2c display\u8g2\csrc/u8x8_d_ssd1306_48x64.c **** uint8_t u8x8_d_ssd1306_48x64_winstar(u8x8_t *u8x8, uint8_t msg, uint8_t arg_int,
 200:..\..\..\..\..\..\Dev\Library embedded l2c display\u8g2\csrc/u8x8_d_ssd1306_48x64.c ****     void *arg_ptr)
 201:..\..\..\..\..\..\Dev\Library embedded l2c display\u8g2\csrc/u8x8_d_ssd1306_48x64.c **** {
 215              		.loc 1 201 0
 216              		.cfi_startproc
 217              		@ args = 0, pretend = 0, frame = 0
 218              		@ frame_needed = 0, uses_anonymous_args = 0
 219              	.LVL33:
 220 0000 10B5     		push	{r4, lr}
 221              		.cfi_def_cfa_offset 8
 222              		.cfi_offset 4, -8
 223              		.cfi_offset 14, -4
 224 0002 0446     		mov	r4, r0
 202:..\..\..\..\..\..\Dev\Library embedded l2c display\u8g2\csrc/u8x8_d_ssd1306_48x64.c ****   if (msg == U8X8_MSG_DISPLAY_SETUP_MEMORY)
 225              		.loc 1 202 0
 226 0004 0929     		cmp	r1, #9
 227 0006 04D1     		bne	.L16
 203:..\..\..\..\..\..\Dev\Library embedded l2c display\u8g2\csrc/u8x8_d_ssd1306_48x64.c ****   {
 204:..\..\..\..\..\..\Dev\Library embedded l2c display\u8g2\csrc/u8x8_d_ssd1306_48x64.c ****     u8x8_d_helper_display_setup_memory(u8x8, &u8x8_ssd1306_48x64_display_info);
ARM GAS  C:\Users\Abude\AppData\Local\Temp\cc1G1yp3.s 			page 9


 228              		.loc 1 204 0
 229 0008 0849     		ldr	r1, .L20
 230              	.LVL34:
 231 000a FFF7FEFF 		bl	u8x8_d_helper_display_setup_memory
 232              	.LVL35:
 205:..\..\..\..\..\..\Dev\Library embedded l2c display\u8g2\csrc/u8x8_d_ssd1306_48x64.c ****     return 1;
 233              		.loc 1 205 0
 234 000e 0120     		movs	r0, #1
 235 0010 10BD     		pop	{r4, pc}
 236              	.LVL36:
 237              	.L16:
 206:..\..\..\..\..\..\Dev\Library embedded l2c display\u8g2\csrc/u8x8_d_ssd1306_48x64.c ****   }
 207:..\..\..\..\..\..\Dev\Library embedded l2c display\u8g2\csrc/u8x8_d_ssd1306_48x64.c ****   else if (msg == U8X8_MSG_DISPLAY_INIT)
 238              		.loc 1 207 0
 239 0012 0A29     		cmp	r1, #10
 240 0014 07D1     		bne	.L18
 208:..\..\..\..\..\..\Dev\Library embedded l2c display\u8g2\csrc/u8x8_d_ssd1306_48x64.c ****   {
 209:..\..\..\..\..\..\Dev\Library embedded l2c display\u8g2\csrc/u8x8_d_ssd1306_48x64.c ****     u8x8_d_helper_display_init(u8x8);
 241              		.loc 1 209 0
 242 0016 FFF7FEFF 		bl	u8x8_d_helper_display_init
 243              	.LVL37:
 210:..\..\..\..\..\..\Dev\Library embedded l2c display\u8g2\csrc/u8x8_d_ssd1306_48x64.c ****     u8x8_cad_SendSequence(u8x8, u8x8_d_ssd1306_48x64_winstar_init_seq);
 244              		.loc 1 210 0
 245 001a 0549     		ldr	r1, .L20+4
 246 001c 2046     		mov	r0, r4
 247 001e FFF7FEFF 		bl	u8x8_cad_SendSequence
 248              	.LVL38:
 211:..\..\..\..\..\..\Dev\Library embedded l2c display\u8g2\csrc/u8x8_d_ssd1306_48x64.c ****     return 1;
 249              		.loc 1 211 0
 250 0022 0120     		movs	r0, #1
 251 0024 10BD     		pop	{r4, pc}
 252              	.LVL39:
 253              	.L18:
 212:..\..\..\..\..\..\Dev\Library embedded l2c display\u8g2\csrc/u8x8_d_ssd1306_48x64.c ****   }
 213:..\..\..\..\..\..\Dev\Library embedded l2c display\u8g2\csrc/u8x8_d_ssd1306_48x64.c ****   return u8x8_d_ssd1306_48x64_generic(u8x8, msg, arg_int, arg_ptr);
 254              		.loc 1 213 0
 255 0026 FFF7FEFF 		bl	u8x8_d_ssd1306_48x64_generic
 256              	.LVL40:
 214:..\..\..\..\..\..\Dev\Library embedded l2c display\u8g2\csrc/u8x8_d_ssd1306_48x64.c **** }
 257              		.loc 1 214 0
 258 002a 10BD     		pop	{r4, pc}
 259              	.LVL41:
 260              	.L21:
 261              		.align	2
 262              	.L20:
 263 002c 20000000 		.word	.LANCHOR0+32
 264 0030 38000000 		.word	.LANCHOR0+56
 265              		.cfi_endproc
 266              	.LFE1:
 267              		.size	u8x8_d_ssd1306_48x64_winstar, .-u8x8_d_ssd1306_48x64_winstar
 268              		.section	.rodata
 269              		.align	2
 270              		.set	.LANCHOR0,. + 0
 271              		.type	u8x8_d_ssd1306_48x64_powersave0_seq, %object
 272              		.size	u8x8_d_ssd1306_48x64_powersave0_seq, 5
 273              	u8x8_d_ssd1306_48x64_powersave0_seq:
 274 0000 18       		.byte	24
ARM GAS  C:\Users\Abude\AppData\Local\Temp\cc1G1yp3.s 			page 10


 275 0001 15       		.byte	21
 276 0002 AF       		.byte	-81
 277 0003 19       		.byte	25
 278 0004 FF       		.byte	-1
 279 0005 000000   		.space	3
 280              		.type	u8x8_d_ssd1306_48x64_powersave1_seq, %object
 281              		.size	u8x8_d_ssd1306_48x64_powersave1_seq, 5
 282              	u8x8_d_ssd1306_48x64_powersave1_seq:
 283 0008 18       		.byte	24
 284 0009 15       		.byte	21
 285 000a AE       		.byte	-82
 286 000b 19       		.byte	25
 287 000c FF       		.byte	-1
 288 000d 000000   		.space	3
 289              		.type	u8x8_d_ssd1306_48x64_flip0_seq, %object
 290              		.size	u8x8_d_ssd1306_48x64_flip0_seq, 7
 291              	u8x8_d_ssd1306_48x64_flip0_seq:
 292 0010 18       		.byte	24
 293 0011 15       		.byte	21
 294 0012 A1       		.byte	-95
 295 0013 15       		.byte	21
 296 0014 C8       		.byte	-56
 297 0015 19       		.byte	25
 298 0016 FF       		.byte	-1
 299 0017 00       		.space	1
 300              		.type	u8x8_d_ssd1306_48x64_flip1_seq, %object
 301              		.size	u8x8_d_ssd1306_48x64_flip1_seq, 7
 302              	u8x8_d_ssd1306_48x64_flip1_seq:
 303 0018 18       		.byte	24
 304 0019 15       		.byte	21
 305 001a A0       		.byte	-96
 306 001b 15       		.byte	21
 307 001c C0       		.byte	-64
 308 001d 19       		.byte	25
 309 001e FF       		.byte	-1
 310 001f 00       		.space	1
 311              		.type	u8x8_ssd1306_48x64_display_info, %object
 312              		.size	u8x8_ssd1306_48x64_display_info, 24
 313              	u8x8_ssd1306_48x64_display_info:
 314 0020 00       		.byte	0
 315 0021 01       		.byte	1
 316 0022 14       		.byte	20
 317 0023 0A       		.byte	10
 318 0024 64       		.byte	100
 319 0025 64       		.byte	100
 320 0026 32       		.byte	50
 321 0027 32       		.byte	50
 322 0028 00127A00 		.word	8000000
 323 002c 00       		.byte	0
 324 002d 04       		.byte	4
 325 002e 28       		.byte	40
 326 002f 96       		.byte	-106
 327 0030 06       		.byte	6
 328 0031 08       		.byte	8
 329 0032 28       		.byte	40
 330 0033 28       		.byte	40
 331 0034 3000     		.short	48
ARM GAS  C:\Users\Abude\AppData\Local\Temp\cc1G1yp3.s 			page 11


 332 0036 4000     		.short	64
 333              		.type	u8x8_d_ssd1306_48x64_winstar_init_seq, %object
 334              		.size	u8x8_d_ssd1306_48x64_winstar_init_seq, 51
 335              	u8x8_d_ssd1306_48x64_winstar_init_seq:
 336 0038 18       		.byte	24
 337 0039 15       		.byte	21
 338 003a AE       		.byte	-82
 339 003b 15       		.byte	21
 340 003c D5       		.byte	-43
 341 003d 16       		.byte	22
 342 003e 80       		.byte	-128
 343 003f 15       		.byte	21
 344 0040 A8       		.byte	-88
 345 0041 16       		.byte	22
 346 0042 3F       		.byte	63
 347 0043 15       		.byte	21
 348 0044 D3       		.byte	-45
 349 0045 16       		.byte	22
 350 0046 00       		.byte	0
 351 0047 15       		.byte	21
 352 0048 40       		.byte	64
 353 0049 15       		.byte	21
 354 004a 8D       		.byte	-115
 355 004b 16       		.byte	22
 356 004c 14       		.byte	20
 357 004d 15       		.byte	21
 358 004e 20       		.byte	32
 359 004f 16       		.byte	22
 360 0050 00       		.byte	0
 361 0051 15       		.byte	21
 362 0052 A1       		.byte	-95
 363 0053 15       		.byte	21
 364 0054 C8       		.byte	-56
 365 0055 15       		.byte	21
 366 0056 DA       		.byte	-38
 367 0057 16       		.byte	22
 368 0058 12       		.byte	18
 369 0059 15       		.byte	21
 370 005a 81       		.byte	-127
 371 005b 16       		.byte	22
 372 005c 7F       		.byte	127
 373 005d 15       		.byte	21
 374 005e D9       		.byte	-39
 375 005f 16       		.byte	22
 376 0060 22       		.byte	34
 377 0061 15       		.byte	21
 378 0062 DB       		.byte	-37
 379 0063 16       		.byte	22
 380 0064 40       		.byte	64
 381 0065 15       		.byte	21
 382 0066 A4       		.byte	-92
 383 0067 15       		.byte	21
 384 0068 A6       		.byte	-90
 385 0069 19       		.byte	25
 386 006a FF       		.byte	-1
 387              		.text
 388              	.Letext0:
ARM GAS  C:\Users\Abude\AppData\Local\Temp\cc1G1yp3.s 			page 12


 389              		.file 2 "c:\\program files (x86)\\cypress\\psoc creator\\4.4\\psoc creator\\import\\gnu\\arm\\5.4.
 390              		.file 3 "c:\\program files (x86)\\cypress\\psoc creator\\4.4\\psoc creator\\import\\gnu\\arm\\5.4.
 391              		.file 4 "c:\\dev\\library embedded l2c display\\u8g2\\csrc\\u8x8.h"