ARM GAS  C:\Users\Abude\AppData\Local\Temp\cchitasa.s 			page 1


   1              		.syntax unified
   2              		.cpu cortex-m3
   3              		.fpu softvfp
   4              		.eabi_attribute 20, 1
   5              		.eabi_attribute 21, 1
   6              		.eabi_attribute 23, 3
   7              		.eabi_attribute 24, 1
   8              		.eabi_attribute 25, 1
   9              		.eabi_attribute 26, 1
  10              		.eabi_attribute 30, 1
  11              		.eabi_attribute 34, 1
  12              		.eabi_attribute 18, 4
  13              		.thumb
  14              		.syntax unified
  15              		.file	"u8x8_d_st75320.c"
  16              		.text
  17              	.Ltext0:
  18              		.cfi_sections	.debug_frame
  19              		.section	.text.u8x8_d_st75320_generic,"ax",%progbits
  20              		.align	2
  21              		.thumb
  22              		.thumb_func
  23              		.type	u8x8_d_st75320_generic, %function
  24              	u8x8_d_st75320_generic:
  25              	.LFB0:
  26              		.file 1 "..\\..\\..\\..\\..\\..\\Dev\\Library embedded l2c display\\u8g2\\csrc\\u8x8_d_st75320.c"
   1:..\..\..\..\..\..\Dev\Library embedded l2c display\u8g2\csrc/u8x8_d_st75320.c **** /*
   2:..\..\..\..\..\..\Dev\Library embedded l2c display\u8g2\csrc/u8x8_d_st75320.c **** 
   3:..\..\..\..\..\..\Dev\Library embedded l2c display\u8g2\csrc/u8x8_d_st75320.c ****   u8x8_d_st75320.c
   4:..\..\..\..\..\..\Dev\Library embedded l2c display\u8g2\csrc/u8x8_d_st75320.c **** 
   5:..\..\..\..\..\..\Dev\Library embedded l2c display\u8g2\csrc/u8x8_d_st75320.c ****   Universal 8bit Graphics Library (https://github.com/olikraus/u8g2/)
   6:..\..\..\..\..\..\Dev\Library embedded l2c display\u8g2\csrc/u8x8_d_st75320.c **** 
   7:..\..\..\..\..\..\Dev\Library embedded l2c display\u8g2\csrc/u8x8_d_st75320.c ****   Copyright (c) 2019, olikraus@gmail.com
   8:..\..\..\..\..\..\Dev\Library embedded l2c display\u8g2\csrc/u8x8_d_st75320.c ****   All rights reserved.
   9:..\..\..\..\..\..\Dev\Library embedded l2c display\u8g2\csrc/u8x8_d_st75320.c **** 
  10:..\..\..\..\..\..\Dev\Library embedded l2c display\u8g2\csrc/u8x8_d_st75320.c ****   Redistribution and use in source and binary forms, with or without modification, 
  11:..\..\..\..\..\..\Dev\Library embedded l2c display\u8g2\csrc/u8x8_d_st75320.c ****   are permitted provided that the following conditions are met:
  12:..\..\..\..\..\..\Dev\Library embedded l2c display\u8g2\csrc/u8x8_d_st75320.c **** 
  13:..\..\..\..\..\..\Dev\Library embedded l2c display\u8g2\csrc/u8x8_d_st75320.c ****   * Redistributions of source code must retain the above copyright notice, this list 
  14:..\..\..\..\..\..\Dev\Library embedded l2c display\u8g2\csrc/u8x8_d_st75320.c ****     of conditions and the following disclaimer.
  15:..\..\..\..\..\..\Dev\Library embedded l2c display\u8g2\csrc/u8x8_d_st75320.c ****     
  16:..\..\..\..\..\..\Dev\Library embedded l2c display\u8g2\csrc/u8x8_d_st75320.c ****   * Redistributions in binary form must reproduce the above copyright notice, this 
  17:..\..\..\..\..\..\Dev\Library embedded l2c display\u8g2\csrc/u8x8_d_st75320.c ****     list of conditions and the following disclaimer in the documentation and/or other 
  18:..\..\..\..\..\..\Dev\Library embedded l2c display\u8g2\csrc/u8x8_d_st75320.c ****     materials provided with the distribution.
  19:..\..\..\..\..\..\Dev\Library embedded l2c display\u8g2\csrc/u8x8_d_st75320.c **** 
  20:..\..\..\..\..\..\Dev\Library embedded l2c display\u8g2\csrc/u8x8_d_st75320.c ****   THIS SOFTWARE IS PROVIDED BY THE COPYRIGHT HOLDERS AND 
  21:..\..\..\..\..\..\Dev\Library embedded l2c display\u8g2\csrc/u8x8_d_st75320.c ****   CONTRIBUTORS "AS IS" AND ANY EXPRESS OR IMPLIED WARRANTIES, 
  22:..\..\..\..\..\..\Dev\Library embedded l2c display\u8g2\csrc/u8x8_d_st75320.c ****   INCLUDING, BUT NOT LIMITED TO, THE IMPLIED WARRANTIES OF 
  23:..\..\..\..\..\..\Dev\Library embedded l2c display\u8g2\csrc/u8x8_d_st75320.c ****   MERCHANTABILITY AND FITNESS FOR A PARTICULAR PURPOSE ARE 
  24:..\..\..\..\..\..\Dev\Library embedded l2c display\u8g2\csrc/u8x8_d_st75320.c ****   DISCLAIMED. IN NO EVENT SHALL THE COPYRIGHT HOLDER OR 
  25:..\..\..\..\..\..\Dev\Library embedded l2c display\u8g2\csrc/u8x8_d_st75320.c ****   CONTRIBUTORS BE LIABLE FOR ANY DIRECT, INDIRECT, INCIDENTAL, 
  26:..\..\..\..\..\..\Dev\Library embedded l2c display\u8g2\csrc/u8x8_d_st75320.c ****   SPECIAL, EXEMPLARY, OR CONSEQUENTIAL DAMAGES (INCLUDING, BUT 
  27:..\..\..\..\..\..\Dev\Library embedded l2c display\u8g2\csrc/u8x8_d_st75320.c ****   NOT LIMITED TO, PROCUREMENT OF SUBSTITUTE GOODS OR SERVICES; 
  28:..\..\..\..\..\..\Dev\Library embedded l2c display\u8g2\csrc/u8x8_d_st75320.c ****   LOSS OF USE, DATA, OR PROFITS; OR BUSINESS INTERRUPTION) HOWEVER 
  29:..\..\..\..\..\..\Dev\Library embedded l2c display\u8g2\csrc/u8x8_d_st75320.c ****   CAUSED AND ON ANY THEORY OF LIABILITY, WHETHER IN CONTRACT, 
  30:..\..\..\..\..\..\Dev\Library embedded l2c display\u8g2\csrc/u8x8_d_st75320.c ****   STRICT LIABILITY, OR TORT (INCLUDING NEGLIGENCE OR OTHERWISE) 
  31:..\..\..\..\..\..\Dev\Library embedded l2c display\u8g2\csrc/u8x8_d_st75320.c ****   ARISING IN ANY WAY OUT OF THE USE OF THIS SOFTWARE, EVEN IF 
ARM GAS  C:\Users\Abude\AppData\Local\Temp\cchitasa.s 			page 2


  32:..\..\..\..\..\..\Dev\Library embedded l2c display\u8g2\csrc/u8x8_d_st75320.c ****   ADVISED OF THE POSSIBILITY OF SUCH DAMAGE.  
  33:..\..\..\..\..\..\Dev\Library embedded l2c display\u8g2\csrc/u8x8_d_st75320.c **** 
  34:..\..\..\..\..\..\Dev\Library embedded l2c display\u8g2\csrc/u8x8_d_st75320.c **** 
  35:..\..\..\..\..\..\Dev\Library embedded l2c display\u8g2\csrc/u8x8_d_st75320.c ****   ST75320: 320x240 monochrome LCD
  36:..\..\..\..\..\..\Dev\Library embedded l2c display\u8g2\csrc/u8x8_d_st75320.c ****   
  37:..\..\..\..\..\..\Dev\Library embedded l2c display\u8g2\csrc/u8x8_d_st75320.c ****   https://github.com/olikraus/u8g2/issues/921
  38:..\..\..\..\..\..\Dev\Library embedded l2c display\u8g2\csrc/u8x8_d_st75320.c **** 
  39:..\..\..\..\..\..\Dev\Library embedded l2c display\u8g2\csrc/u8x8_d_st75320.c **** */
  40:..\..\..\..\..\..\Dev\Library embedded l2c display\u8g2\csrc/u8x8_d_st75320.c **** 
  41:..\..\..\..\..\..\Dev\Library embedded l2c display\u8g2\csrc/u8x8_d_st75320.c **** 
  42:..\..\..\..\..\..\Dev\Library embedded l2c display\u8g2\csrc/u8x8_d_st75320.c **** #include "u8x8.h"
  43:..\..\..\..\..\..\Dev\Library embedded l2c display\u8g2\csrc/u8x8_d_st75320.c **** 
  44:..\..\..\..\..\..\Dev\Library embedded l2c display\u8g2\csrc/u8x8_d_st75320.c **** static const uint8_t u8x8_d_st75320_jlx320240_powersave0_seq[] = {
  45:..\..\..\..\..\..\Dev\Library embedded l2c display\u8g2\csrc/u8x8_d_st75320.c ****   U8X8_START_TRANSFER(),             	/* enable chip, delay is part of the transfer start */
  46:..\..\..\..\..\..\Dev\Library embedded l2c display\u8g2\csrc/u8x8_d_st75320.c ****   U8X8_C(0x0af),		                /* display on */
  47:..\..\..\..\..\..\Dev\Library embedded l2c display\u8g2\csrc/u8x8_d_st75320.c ****   U8X8_END_TRANSFER(),             	/* disable chip */
  48:..\..\..\..\..\..\Dev\Library embedded l2c display\u8g2\csrc/u8x8_d_st75320.c ****   U8X8_END()             			/* end of sequence */
  49:..\..\..\..\..\..\Dev\Library embedded l2c display\u8g2\csrc/u8x8_d_st75320.c **** };
  50:..\..\..\..\..\..\Dev\Library embedded l2c display\u8g2\csrc/u8x8_d_st75320.c **** 
  51:..\..\..\..\..\..\Dev\Library embedded l2c display\u8g2\csrc/u8x8_d_st75320.c **** static const uint8_t u8x8_d_st75320_jlx320240_powersave1_seq[] = {
  52:..\..\..\..\..\..\Dev\Library embedded l2c display\u8g2\csrc/u8x8_d_st75320.c ****   U8X8_START_TRANSFER(),             	/* enable chip, delay is part of the transfer start */
  53:..\..\..\..\..\..\Dev\Library embedded l2c display\u8g2\csrc/u8x8_d_st75320.c ****   U8X8_C(0x0ae),		                /* display off */
  54:..\..\..\..\..\..\Dev\Library embedded l2c display\u8g2\csrc/u8x8_d_st75320.c ****   U8X8_END_TRANSFER(),             	/* disable chip */
  55:..\..\..\..\..\..\Dev\Library embedded l2c display\u8g2\csrc/u8x8_d_st75320.c ****   U8X8_END()             			/* end of sequence */
  56:..\..\..\..\..\..\Dev\Library embedded l2c display\u8g2\csrc/u8x8_d_st75320.c **** };
  57:..\..\..\..\..\..\Dev\Library embedded l2c display\u8g2\csrc/u8x8_d_st75320.c **** 
  58:..\..\..\..\..\..\Dev\Library embedded l2c display\u8g2\csrc/u8x8_d_st75320.c **** static const uint8_t u8x8_d_st75320_jlx320240_flip0_seq[] = {
  59:..\..\..\..\..\..\Dev\Library embedded l2c display\u8g2\csrc/u8x8_d_st75320.c ****   U8X8_START_TRANSFER(),             	/* enable chip, delay is part of the transfer start */
  60:..\..\..\..\..\..\Dev\Library embedded l2c display\u8g2\csrc/u8x8_d_st75320.c ****   U8X8_CA(0xC4, 0x02), 			/* COM Output Status, Bits 0 & 1 */
  61:..\..\..\..\..\..\Dev\Library embedded l2c display\u8g2\csrc/u8x8_d_st75320.c ****   U8X8_C(0xA1), 				/* Column Address Direction: Bit 0 */
  62:..\..\..\..\..\..\Dev\Library embedded l2c display\u8g2\csrc/u8x8_d_st75320.c ****   //U8X8_C(0x0a1),				/* segment remap a0/a1*/
  63:..\..\..\..\..\..\Dev\Library embedded l2c display\u8g2\csrc/u8x8_d_st75320.c ****   //U8X8_C(0x0c8),				/* c0: scan dir normal, c8: reverse */
  64:..\..\..\..\..\..\Dev\Library embedded l2c display\u8g2\csrc/u8x8_d_st75320.c ****   U8X8_END_TRANSFER(),             	/* disable chip */
  65:..\..\..\..\..\..\Dev\Library embedded l2c display\u8g2\csrc/u8x8_d_st75320.c ****   U8X8_END()             			/* end of sequence */
  66:..\..\..\..\..\..\Dev\Library embedded l2c display\u8g2\csrc/u8x8_d_st75320.c **** };
  67:..\..\..\..\..\..\Dev\Library embedded l2c display\u8g2\csrc/u8x8_d_st75320.c **** 
  68:..\..\..\..\..\..\Dev\Library embedded l2c display\u8g2\csrc/u8x8_d_st75320.c **** static const uint8_t u8x8_d_st75320_jlx320240_flip1_seq[] = {
  69:..\..\..\..\..\..\Dev\Library embedded l2c display\u8g2\csrc/u8x8_d_st75320.c ****   U8X8_START_TRANSFER(),             	/* enable chip, delay is part of the transfer start */
  70:..\..\..\..\..\..\Dev\Library embedded l2c display\u8g2\csrc/u8x8_d_st75320.c ****   //U8X8_C(0x0a0),				/* segment remap a0/a1*/
  71:..\..\..\..\..\..\Dev\Library embedded l2c display\u8g2\csrc/u8x8_d_st75320.c ****   //U8X8_C(0x0c0),				/* c0: scan dir normal, c8: reverse */
  72:..\..\..\..\..\..\Dev\Library embedded l2c display\u8g2\csrc/u8x8_d_st75320.c ****   U8X8_CA(0xC4, 0x03), 			/* COM Output Status, Bits 0 & 1 */
  73:..\..\..\..\..\..\Dev\Library embedded l2c display\u8g2\csrc/u8x8_d_st75320.c ****   U8X8_C(0xA0), 				/* Column Address Direction: Bit 0 */
  74:..\..\..\..\..\..\Dev\Library embedded l2c display\u8g2\csrc/u8x8_d_st75320.c ****   U8X8_END_TRANSFER(),             	/* disable chip */
  75:..\..\..\..\..\..\Dev\Library embedded l2c display\u8g2\csrc/u8x8_d_st75320.c ****   U8X8_END()             			/* end of sequence */
  76:..\..\..\..\..\..\Dev\Library embedded l2c display\u8g2\csrc/u8x8_d_st75320.c **** };
  77:..\..\..\..\..\..\Dev\Library embedded l2c display\u8g2\csrc/u8x8_d_st75320.c **** 
  78:..\..\..\..\..\..\Dev\Library embedded l2c display\u8g2\csrc/u8x8_d_st75320.c **** 
  79:..\..\..\..\..\..\Dev\Library embedded l2c display\u8g2\csrc/u8x8_d_st75320.c **** 
  80:..\..\..\..\..\..\Dev\Library embedded l2c display\u8g2\csrc/u8x8_d_st75320.c **** 
  81:..\..\..\..\..\..\Dev\Library embedded l2c display\u8g2\csrc/u8x8_d_st75320.c **** /*===================================================*/
  82:..\..\..\..\..\..\Dev\Library embedded l2c display\u8g2\csrc/u8x8_d_st75320.c **** 
  83:..\..\..\..\..\..\Dev\Library embedded l2c display\u8g2\csrc/u8x8_d_st75320.c **** static uint8_t u8x8_d_st75320_generic(u8x8_t *u8x8, uint8_t msg, uint8_t arg_int, void *arg_ptr)
  84:..\..\..\..\..\..\Dev\Library embedded l2c display\u8g2\csrc/u8x8_d_st75320.c **** {
  27              		.loc 1 84 0
  28              		.cfi_startproc
  29              		@ args = 0, pretend = 0, frame = 0
  30              		@ frame_needed = 0, uses_anonymous_args = 0
ARM GAS  C:\Users\Abude\AppData\Local\Temp\cchitasa.s 			page 3


  31              	.LVL0:
  32 0000 2DE9F041 		push	{r4, r5, r6, r7, r8, lr}
  33              		.cfi_def_cfa_offset 24
  34              		.cfi_offset 4, -24
  35              		.cfi_offset 5, -20
  36              		.cfi_offset 6, -16
  37              		.cfi_offset 7, -12
  38              		.cfi_offset 8, -8
  39              		.cfi_offset 14, -4
  40 0004 0646     		mov	r6, r0
  41 0006 1546     		mov	r5, r2
  42 0008 9846     		mov	r8, r3
  85:..\..\..\..\..\..\Dev\Library embedded l2c display\u8g2\csrc/u8x8_d_st75320.c ****   uint16_t x;
  86:..\..\..\..\..\..\Dev\Library embedded l2c display\u8g2\csrc/u8x8_d_st75320.c ****   uint8_t c;
  87:..\..\..\..\..\..\Dev\Library embedded l2c display\u8g2\csrc/u8x8_d_st75320.c ****   uint8_t *ptr;
  88:..\..\..\..\..\..\Dev\Library embedded l2c display\u8g2\csrc/u8x8_d_st75320.c ****   switch(msg)
  43              		.loc 1 88 0
  44 000a 0B39     		subs	r1, r1, #11
  45              	.LVL1:
  46 000c 0429     		cmp	r1, #4
  47 000e 7DD8     		bhi	.L12
  48 0010 DFE801F0 		tbb	[pc, r1]
  49              	.LVL2:
  50              	.L4:
  51 0014 03       		.byte	(.L3-.L4)/2
  52 0015 7C       		.byte	(.L12-.L4)/2
  53 0016 10       		.byte	(.L5-.L4)/2
  54 0017 25       		.byte	(.L6-.L4)/2
  55 0018 3B       		.byte	(.L7-.L4)/2
  56 0019 00       		.p2align 1
  57              	.L3:
  89:..\..\..\..\..\..\Dev\Library embedded l2c display\u8g2\csrc/u8x8_d_st75320.c ****   {
  90:..\..\..\..\..\..\Dev\Library embedded l2c display\u8g2\csrc/u8x8_d_st75320.c ****     /* handled by the calling function
  91:..\..\..\..\..\..\Dev\Library embedded l2c display\u8g2\csrc/u8x8_d_st75320.c ****     case U8X8_MSG_DISPLAY_SETUP_MEMORY:
  92:..\..\..\..\..\..\Dev\Library embedded l2c display\u8g2\csrc/u8x8_d_st75320.c ****       u8x8_d_helper_display_setup_memory(u8x8, &u8x8_st75320_jlx320240_display_info);
  93:..\..\..\..\..\..\Dev\Library embedded l2c display\u8g2\csrc/u8x8_d_st75320.c ****       break;
  94:..\..\..\..\..\..\Dev\Library embedded l2c display\u8g2\csrc/u8x8_d_st75320.c ****     */
  95:..\..\..\..\..\..\Dev\Library embedded l2c display\u8g2\csrc/u8x8_d_st75320.c ****     /* handled by the calling function
  96:..\..\..\..\..\..\Dev\Library embedded l2c display\u8g2\csrc/u8x8_d_st75320.c ****     case U8X8_MSG_DISPLAY_INIT:
  97:..\..\..\..\..\..\Dev\Library embedded l2c display\u8g2\csrc/u8x8_d_st75320.c ****       u8x8_d_helper_display_init(u8x8);
  98:..\..\..\..\..\..\Dev\Library embedded l2c display\u8g2\csrc/u8x8_d_st75320.c ****       u8x8_cad_SendSequence(u8x8, u8x8_d_st75320_jlx320240_init_seq);    
  99:..\..\..\..\..\..\Dev\Library embedded l2c display\u8g2\csrc/u8x8_d_st75320.c ****       break;
 100:..\..\..\..\..\..\Dev\Library embedded l2c display\u8g2\csrc/u8x8_d_st75320.c ****     */
 101:..\..\..\..\..\..\Dev\Library embedded l2c display\u8g2\csrc/u8x8_d_st75320.c ****     case U8X8_MSG_DISPLAY_SET_POWER_SAVE:
 102:..\..\..\..\..\..\Dev\Library embedded l2c display\u8g2\csrc/u8x8_d_st75320.c ****       if ( arg_int == 0 )
  58              		.loc 1 102 0
  59 001a 2AB9     		cbnz	r2, .L8
 103:..\..\..\..\..\..\Dev\Library embedded l2c display\u8g2\csrc/u8x8_d_st75320.c **** 	u8x8_cad_SendSequence(u8x8, u8x8_d_st75320_jlx320240_powersave0_seq);
  60              		.loc 1 103 0
  61 001c 3D49     		ldr	r1, .L14
  62 001e FFF7FEFF 		bl	u8x8_cad_SendSequence
  63              	.LVL3:
 104:..\..\..\..\..\..\Dev\Library embedded l2c display\u8g2\csrc/u8x8_d_st75320.c ****       else
 105:..\..\..\..\..\..\Dev\Library embedded l2c display\u8g2\csrc/u8x8_d_st75320.c **** 	u8x8_cad_SendSequence(u8x8, u8x8_d_st75320_jlx320240_powersave1_seq);
 106:..\..\..\..\..\..\Dev\Library embedded l2c display\u8g2\csrc/u8x8_d_st75320.c ****       break;
 107:..\..\..\..\..\..\Dev\Library embedded l2c display\u8g2\csrc/u8x8_d_st75320.c ****     case U8X8_MSG_DISPLAY_SET_FLIP_MODE:
 108:..\..\..\..\..\..\Dev\Library embedded l2c display\u8g2\csrc/u8x8_d_st75320.c ****       if ( arg_int == 0 )
ARM GAS  C:\Users\Abude\AppData\Local\Temp\cchitasa.s 			page 4


 109:..\..\..\..\..\..\Dev\Library embedded l2c display\u8g2\csrc/u8x8_d_st75320.c ****       {
 110:..\..\..\..\..\..\Dev\Library embedded l2c display\u8g2\csrc/u8x8_d_st75320.c **** 	u8x8_cad_SendSequence(u8x8, u8x8_d_st75320_jlx320240_flip0_seq);
 111:..\..\..\..\..\..\Dev\Library embedded l2c display\u8g2\csrc/u8x8_d_st75320.c **** 	u8x8->x_offset = u8x8->display_info->default_x_offset;
 112:..\..\..\..\..\..\Dev\Library embedded l2c display\u8g2\csrc/u8x8_d_st75320.c ****       }
 113:..\..\..\..\..\..\Dev\Library embedded l2c display\u8g2\csrc/u8x8_d_st75320.c ****       else
 114:..\..\..\..\..\..\Dev\Library embedded l2c display\u8g2\csrc/u8x8_d_st75320.c ****       {
 115:..\..\..\..\..\..\Dev\Library embedded l2c display\u8g2\csrc/u8x8_d_st75320.c **** 	u8x8_cad_SendSequence(u8x8, u8x8_d_st75320_jlx320240_flip1_seq);
 116:..\..\..\..\..\..\Dev\Library embedded l2c display\u8g2\csrc/u8x8_d_st75320.c **** 	u8x8->x_offset = u8x8->display_info->flipmode_x_offset;
 117:..\..\..\..\..\..\Dev\Library embedded l2c display\u8g2\csrc/u8x8_d_st75320.c ****       }
 118:..\..\..\..\..\..\Dev\Library embedded l2c display\u8g2\csrc/u8x8_d_st75320.c ****       break;
 119:..\..\..\..\..\..\Dev\Library embedded l2c display\u8g2\csrc/u8x8_d_st75320.c **** #ifdef U8X8_WITH_SET_CONTRAST
 120:..\..\..\..\..\..\Dev\Library embedded l2c display\u8g2\csrc/u8x8_d_st75320.c ****     case U8X8_MSG_DISPLAY_SET_CONTRAST:
 121:..\..\..\..\..\..\Dev\Library embedded l2c display\u8g2\csrc/u8x8_d_st75320.c ****       u8x8_cad_StartTransfer(u8x8);
 122:..\..\..\..\..\..\Dev\Library embedded l2c display\u8g2\csrc/u8x8_d_st75320.c ****       u8x8_cad_SendCmd(u8x8, 0x081 );
 123:..\..\..\..\..\..\Dev\Library embedded l2c display\u8g2\csrc/u8x8_d_st75320.c ****       u8x8_cad_SendArg(u8x8, arg_int<<2 );	
 124:..\..\..\..\..\..\Dev\Library embedded l2c display\u8g2\csrc/u8x8_d_st75320.c ****       u8x8_cad_SendArg(u8x8, arg_int>>6 );	
 125:..\..\..\..\..\..\Dev\Library embedded l2c display\u8g2\csrc/u8x8_d_st75320.c ****       u8x8_cad_EndTransfer(u8x8);
 126:..\..\..\..\..\..\Dev\Library embedded l2c display\u8g2\csrc/u8x8_d_st75320.c ****       break;
 127:..\..\..\..\..\..\Dev\Library embedded l2c display\u8g2\csrc/u8x8_d_st75320.c **** #endif
 128:..\..\..\..\..\..\Dev\Library embedded l2c display\u8g2\csrc/u8x8_d_st75320.c ****     case U8X8_MSG_DISPLAY_DRAW_TILE:
 129:..\..\..\..\..\..\Dev\Library embedded l2c display\u8g2\csrc/u8x8_d_st75320.c ****       x = ((u8x8_tile_t *)arg_ptr)->x_pos;    
 130:..\..\..\..\..\..\Dev\Library embedded l2c display\u8g2\csrc/u8x8_d_st75320.c ****       x *= 8;
 131:..\..\..\..\..\..\Dev\Library embedded l2c display\u8g2\csrc/u8x8_d_st75320.c ****       x += u8x8->x_offset;
 132:..\..\..\..\..\..\Dev\Library embedded l2c display\u8g2\csrc/u8x8_d_st75320.c **** 
 133:..\..\..\..\..\..\Dev\Library embedded l2c display\u8g2\csrc/u8x8_d_st75320.c ****       u8x8_cad_StartTransfer(u8x8);
 134:..\..\..\..\..\..\Dev\Library embedded l2c display\u8g2\csrc/u8x8_d_st75320.c ****     
 135:..\..\..\..\..\..\Dev\Library embedded l2c display\u8g2\csrc/u8x8_d_st75320.c ****       u8x8_cad_SendCmd(u8x8, 0x013);
 136:..\..\..\..\..\..\Dev\Library embedded l2c display\u8g2\csrc/u8x8_d_st75320.c ****       u8x8_cad_SendArg(u8x8, (x>>8) );
 137:..\..\..\..\..\..\Dev\Library embedded l2c display\u8g2\csrc/u8x8_d_st75320.c ****       u8x8_cad_SendArg(u8x8, (x&255) );
 138:..\..\..\..\..\..\Dev\Library embedded l2c display\u8g2\csrc/u8x8_d_st75320.c ****       u8x8_cad_SendCmd(u8x8, 0x0b1 ); 
 139:..\..\..\..\..\..\Dev\Library embedded l2c display\u8g2\csrc/u8x8_d_st75320.c ****       u8x8_cad_SendArg(u8x8, (((u8x8_tile_t *)arg_ptr)->y_pos)); 
 140:..\..\..\..\..\..\Dev\Library embedded l2c display\u8g2\csrc/u8x8_d_st75320.c **** 
 141:..\..\..\..\..\..\Dev\Library embedded l2c display\u8g2\csrc/u8x8_d_st75320.c **** 
 142:..\..\..\..\..\..\Dev\Library embedded l2c display\u8g2\csrc/u8x8_d_st75320.c ****       u8x8_cad_SendCmd(u8x8, 0x01d );		// write data 
 143:..\..\..\..\..\..\Dev\Library embedded l2c display\u8g2\csrc/u8x8_d_st75320.c ****     
 144:..\..\..\..\..\..\Dev\Library embedded l2c display\u8g2\csrc/u8x8_d_st75320.c ****       do
 145:..\..\..\..\..\..\Dev\Library embedded l2c display\u8g2\csrc/u8x8_d_st75320.c ****       {
 146:..\..\..\..\..\..\Dev\Library embedded l2c display\u8g2\csrc/u8x8_d_st75320.c ****         c = ((u8x8_tile_t *)arg_ptr)->cnt;
 147:..\..\..\..\..\..\Dev\Library embedded l2c display\u8g2\csrc/u8x8_d_st75320.c ****         ptr = ((u8x8_tile_t *)arg_ptr)->tile_ptr;
 148:..\..\..\..\..\..\Dev\Library embedded l2c display\u8g2\csrc/u8x8_d_st75320.c ****         /* SendData can not handle more than 255 bytes */
 149:..\..\..\..\..\..\Dev\Library embedded l2c display\u8g2\csrc/u8x8_d_st75320.c ****         if ( c > 31 )
 150:..\..\..\..\..\..\Dev\Library embedded l2c display\u8g2\csrc/u8x8_d_st75320.c ****         {
 151:..\..\..\..\..\..\Dev\Library embedded l2c display\u8g2\csrc/u8x8_d_st75320.c ****           u8x8_cad_SendData(u8x8, 248, ptr); 	/* 31*8=248 */
 152:..\..\..\..\..\..\Dev\Library embedded l2c display\u8g2\csrc/u8x8_d_st75320.c ****           ptr+=248;
 153:..\..\..\..\..\..\Dev\Library embedded l2c display\u8g2\csrc/u8x8_d_st75320.c ****           c -= 31;
 154:..\..\..\..\..\..\Dev\Library embedded l2c display\u8g2\csrc/u8x8_d_st75320.c ****         }
 155:..\..\..\..\..\..\Dev\Library embedded l2c display\u8g2\csrc/u8x8_d_st75320.c ****         
 156:..\..\..\..\..\..\Dev\Library embedded l2c display\u8g2\csrc/u8x8_d_st75320.c ****         u8x8_cad_SendData(u8x8, c*8, ptr); 	
 157:..\..\..\..\..\..\Dev\Library embedded l2c display\u8g2\csrc/u8x8_d_st75320.c ****         arg_int--;
 158:..\..\..\..\..\..\Dev\Library embedded l2c display\u8g2\csrc/u8x8_d_st75320.c ****       } while( arg_int > 0 );
 159:..\..\..\..\..\..\Dev\Library embedded l2c display\u8g2\csrc/u8x8_d_st75320.c **** 
 160:..\..\..\..\..\..\Dev\Library embedded l2c display\u8g2\csrc/u8x8_d_st75320.c ****       
 161:..\..\..\..\..\..\Dev\Library embedded l2c display\u8g2\csrc/u8x8_d_st75320.c ****       u8x8_cad_EndTransfer(u8x8);
 162:..\..\..\..\..\..\Dev\Library embedded l2c display\u8g2\csrc/u8x8_d_st75320.c ****       break;
 163:..\..\..\..\..\..\Dev\Library embedded l2c display\u8g2\csrc/u8x8_d_st75320.c ****     default:
 164:..\..\..\..\..\..\Dev\Library embedded l2c display\u8g2\csrc/u8x8_d_st75320.c ****       return 0;
 165:..\..\..\..\..\..\Dev\Library embedded l2c display\u8g2\csrc/u8x8_d_st75320.c ****   }
ARM GAS  C:\Users\Abude\AppData\Local\Temp\cchitasa.s 			page 5


 166:..\..\..\..\..\..\Dev\Library embedded l2c display\u8g2\csrc/u8x8_d_st75320.c ****   return 1;
  64              		.loc 1 166 0
  65 0022 0120     		movs	r0, #1
  66 0024 BDE8F081 		pop	{r4, r5, r6, r7, r8, pc}
  67              	.LVL4:
  68              	.L8:
 105:..\..\..\..\..\..\Dev\Library embedded l2c display\u8g2\csrc/u8x8_d_st75320.c ****       break;
  69              		.loc 1 105 0
  70 0028 3B49     		ldr	r1, .L14+4
  71 002a FFF7FEFF 		bl	u8x8_cad_SendSequence
  72              	.LVL5:
  73              		.loc 1 166 0
  74 002e 0120     		movs	r0, #1
  75 0030 BDE8F081 		pop	{r4, r5, r6, r7, r8, pc}
  76              	.LVL6:
  77              	.L5:
 108:..\..\..\..\..\..\Dev\Library embedded l2c display\u8g2\csrc/u8x8_d_st75320.c ****       {
  78              		.loc 1 108 0
  79 0034 4AB9     		cbnz	r2, .L9
 110:..\..\..\..\..\..\Dev\Library embedded l2c display\u8g2\csrc/u8x8_d_st75320.c **** 	u8x8->x_offset = u8x8->display_info->default_x_offset;
  80              		.loc 1 110 0
  81 0036 3949     		ldr	r1, .L14+8
  82 0038 FFF7FEFF 		bl	u8x8_cad_SendSequence
  83              	.LVL7:
 111:..\..\..\..\..\..\Dev\Library embedded l2c display\u8g2\csrc/u8x8_d_st75320.c ****       }
  84              		.loc 1 111 0
  85 003c 3368     		ldr	r3, [r6]
  86 003e 9B7C     		ldrb	r3, [r3, #18]	@ zero_extendqisi2
  87 0040 86F82230 		strb	r3, [r6, #34]
  88              		.loc 1 166 0
  89 0044 0120     		movs	r0, #1
  90 0046 BDE8F081 		pop	{r4, r5, r6, r7, r8, pc}
  91              	.LVL8:
  92              	.L9:
 115:..\..\..\..\..\..\Dev\Library embedded l2c display\u8g2\csrc/u8x8_d_st75320.c **** 	u8x8->x_offset = u8x8->display_info->flipmode_x_offset;
  93              		.loc 1 115 0
  94 004a 3549     		ldr	r1, .L14+12
  95 004c FFF7FEFF 		bl	u8x8_cad_SendSequence
  96              	.LVL9:
 116:..\..\..\..\..\..\Dev\Library embedded l2c display\u8g2\csrc/u8x8_d_st75320.c ****       }
  97              		.loc 1 116 0
  98 0050 3368     		ldr	r3, [r6]
  99 0052 DB7C     		ldrb	r3, [r3, #19]	@ zero_extendqisi2
 100 0054 86F82230 		strb	r3, [r6, #34]
 101              		.loc 1 166 0
 102 0058 0120     		movs	r0, #1
 103 005a BDE8F081 		pop	{r4, r5, r6, r7, r8, pc}
 104              	.LVL10:
 105              	.L6:
 121:..\..\..\..\..\..\Dev\Library embedded l2c display\u8g2\csrc/u8x8_d_st75320.c ****       u8x8_cad_SendCmd(u8x8, 0x081 );
 106              		.loc 1 121 0
 107 005e FFF7FEFF 		bl	u8x8_cad_StartTransfer
 108              	.LVL11:
 122:..\..\..\..\..\..\Dev\Library embedded l2c display\u8g2\csrc/u8x8_d_st75320.c ****       u8x8_cad_SendArg(u8x8, arg_int<<2 );	
 109              		.loc 1 122 0
 110 0062 8121     		movs	r1, #129
 111 0064 3046     		mov	r0, r6
ARM GAS  C:\Users\Abude\AppData\Local\Temp\cchitasa.s 			page 6


 112 0066 FFF7FEFF 		bl	u8x8_cad_SendCmd
 113              	.LVL12:
 123:..\..\..\..\..\..\Dev\Library embedded l2c display\u8g2\csrc/u8x8_d_st75320.c ****       u8x8_cad_SendArg(u8x8, arg_int>>6 );	
 114              		.loc 1 123 0
 115 006a A900     		lsls	r1, r5, #2
 116 006c 01F0FC01 		and	r1, r1, #252
 117 0070 3046     		mov	r0, r6
 118 0072 FFF7FEFF 		bl	u8x8_cad_SendArg
 119              	.LVL13:
 124:..\..\..\..\..\..\Dev\Library embedded l2c display\u8g2\csrc/u8x8_d_st75320.c ****       u8x8_cad_EndTransfer(u8x8);
 120              		.loc 1 124 0
 121 0076 A909     		lsrs	r1, r5, #6
 122 0078 3046     		mov	r0, r6
 123 007a FFF7FEFF 		bl	u8x8_cad_SendArg
 124              	.LVL14:
 125:..\..\..\..\..\..\Dev\Library embedded l2c display\u8g2\csrc/u8x8_d_st75320.c ****       break;
 125              		.loc 1 125 0
 126 007e 3046     		mov	r0, r6
 127 0080 FFF7FEFF 		bl	u8x8_cad_EndTransfer
 128              	.LVL15:
 129              		.loc 1 166 0
 130 0084 0120     		movs	r0, #1
 126:..\..\..\..\..\..\Dev\Library embedded l2c display\u8g2\csrc/u8x8_d_st75320.c **** #endif
 131              		.loc 1 126 0
 132 0086 BDE8F081 		pop	{r4, r5, r6, r7, r8, pc}
 133              	.LVL16:
 134              	.L7:
 129:..\..\..\..\..\..\Dev\Library embedded l2c display\u8g2\csrc/u8x8_d_st75320.c ****       x *= 8;
 135              		.loc 1 129 0
 136 008a 98F80540 		ldrb	r4, [r8, #5]	@ zero_extendqisi2
 137              	.LVL17:
 131:..\..\..\..\..\..\Dev\Library embedded l2c display\u8g2\csrc/u8x8_d_st75320.c **** 
 138              		.loc 1 131 0
 139 008e 90F82230 		ldrb	r3, [r0, #34]	@ zero_extendqisi2
 140 0092 03EBC404 		add	r4, r3, r4, lsl #3
 141              	.LVL18:
 133:..\..\..\..\..\..\Dev\Library embedded l2c display\u8g2\csrc/u8x8_d_st75320.c ****     
 142              		.loc 1 133 0
 143 0096 FFF7FEFF 		bl	u8x8_cad_StartTransfer
 144              	.LVL19:
 135:..\..\..\..\..\..\Dev\Library embedded l2c display\u8g2\csrc/u8x8_d_st75320.c ****       u8x8_cad_SendArg(u8x8, (x>>8) );
 145              		.loc 1 135 0
 146 009a 1321     		movs	r1, #19
 147 009c 3046     		mov	r0, r6
 148 009e FFF7FEFF 		bl	u8x8_cad_SendCmd
 149              	.LVL20:
 136:..\..\..\..\..\..\Dev\Library embedded l2c display\u8g2\csrc/u8x8_d_st75320.c ****       u8x8_cad_SendArg(u8x8, (x&255) );
 150              		.loc 1 136 0
 151 00a2 C4F30721 		ubfx	r1, r4, #8, #8
 152 00a6 3046     		mov	r0, r6
 153 00a8 FFF7FEFF 		bl	u8x8_cad_SendArg
 154              	.LVL21:
 137:..\..\..\..\..\..\Dev\Library embedded l2c display\u8g2\csrc/u8x8_d_st75320.c ****       u8x8_cad_SendCmd(u8x8, 0x0b1 ); 
 155              		.loc 1 137 0
 156 00ac E1B2     		uxtb	r1, r4
 157 00ae 3046     		mov	r0, r6
 158 00b0 FFF7FEFF 		bl	u8x8_cad_SendArg
ARM GAS  C:\Users\Abude\AppData\Local\Temp\cchitasa.s 			page 7


 159              	.LVL22:
 138:..\..\..\..\..\..\Dev\Library embedded l2c display\u8g2\csrc/u8x8_d_st75320.c ****       u8x8_cad_SendArg(u8x8, (((u8x8_tile_t *)arg_ptr)->y_pos)); 
 160              		.loc 1 138 0
 161 00b4 B121     		movs	r1, #177
 162 00b6 3046     		mov	r0, r6
 163 00b8 FFF7FEFF 		bl	u8x8_cad_SendCmd
 164              	.LVL23:
 139:..\..\..\..\..\..\Dev\Library embedded l2c display\u8g2\csrc/u8x8_d_st75320.c **** 
 165              		.loc 1 139 0
 166 00bc 98F80610 		ldrb	r1, [r8, #6]	@ zero_extendqisi2
 167 00c0 3046     		mov	r0, r6
 168 00c2 FFF7FEFF 		bl	u8x8_cad_SendArg
 169              	.LVL24:
 142:..\..\..\..\..\..\Dev\Library embedded l2c display\u8g2\csrc/u8x8_d_st75320.c ****     
 170              		.loc 1 142 0
 171 00c6 1D21     		movs	r1, #29
 172 00c8 3046     		mov	r0, r6
 173 00ca FFF7FEFF 		bl	u8x8_cad_SendCmd
 174              	.LVL25:
 175              	.L11:
 146:..\..\..\..\..\..\Dev\Library embedded l2c display\u8g2\csrc/u8x8_d_st75320.c ****         ptr = ((u8x8_tile_t *)arg_ptr)->tile_ptr;
 176              		.loc 1 146 0
 177 00ce 98F80440 		ldrb	r4, [r8, #4]	@ zero_extendqisi2
 178              	.LVL26:
 147:..\..\..\..\..\..\Dev\Library embedded l2c display\u8g2\csrc/u8x8_d_st75320.c ****         /* SendData can not handle more than 255 bytes */
 179              		.loc 1 147 0
 180 00d2 D8F80070 		ldr	r7, [r8]
 181              	.LVL27:
 149:..\..\..\..\..\..\Dev\Library embedded l2c display\u8g2\csrc/u8x8_d_st75320.c ****         {
 182              		.loc 1 149 0
 183 00d6 1F2C     		cmp	r4, #31
 184 00d8 07D9     		bls	.L10
 151:..\..\..\..\..\..\Dev\Library embedded l2c display\u8g2\csrc/u8x8_d_st75320.c ****           ptr+=248;
 185              		.loc 1 151 0
 186 00da 3A46     		mov	r2, r7
 187 00dc F821     		movs	r1, #248
 188 00de 3046     		mov	r0, r6
 189 00e0 FFF7FEFF 		bl	u8x8_cad_SendData
 190              	.LVL28:
 152:..\..\..\..\..\..\Dev\Library embedded l2c display\u8g2\csrc/u8x8_d_st75320.c ****           c -= 31;
 191              		.loc 1 152 0
 192 00e4 F837     		adds	r7, r7, #248
 193              	.LVL29:
 153:..\..\..\..\..\..\Dev\Library embedded l2c display\u8g2\csrc/u8x8_d_st75320.c ****         }
 194              		.loc 1 153 0
 195 00e6 1F3C     		subs	r4, r4, #31
 196              	.LVL30:
 197 00e8 E4B2     		uxtb	r4, r4
 198              	.LVL31:
 199              	.L10:
 156:..\..\..\..\..\..\Dev\Library embedded l2c display\u8g2\csrc/u8x8_d_st75320.c ****         arg_int--;
 200              		.loc 1 156 0
 201 00ea E100     		lsls	r1, r4, #3
 202 00ec 3A46     		mov	r2, r7
 203 00ee 01F0F801 		and	r1, r1, #248
 204 00f2 3046     		mov	r0, r6
 205 00f4 FFF7FEFF 		bl	u8x8_cad_SendData
ARM GAS  C:\Users\Abude\AppData\Local\Temp\cchitasa.s 			page 8


 206              	.LVL32:
 157:..\..\..\..\..\..\Dev\Library embedded l2c display\u8g2\csrc/u8x8_d_st75320.c ****       } while( arg_int > 0 );
 207              		.loc 1 157 0
 208 00f8 6A1E     		subs	r2, r5, #1
 209              	.LVL33:
 158:..\..\..\..\..\..\Dev\Library embedded l2c display\u8g2\csrc/u8x8_d_st75320.c **** 
 210              		.loc 1 158 0
 211 00fa 12F0FF05 		ands	r5, r2, #255
 212 00fe E6D1     		bne	.L11
 161:..\..\..\..\..\..\Dev\Library embedded l2c display\u8g2\csrc/u8x8_d_st75320.c ****       break;
 213              		.loc 1 161 0
 214 0100 3046     		mov	r0, r6
 215 0102 FFF7FEFF 		bl	u8x8_cad_EndTransfer
 216              	.LVL34:
 217              		.loc 1 166 0
 218 0106 0120     		movs	r0, #1
 162:..\..\..\..\..\..\Dev\Library embedded l2c display\u8g2\csrc/u8x8_d_st75320.c ****     default:
 219              		.loc 1 162 0
 220 0108 BDE8F081 		pop	{r4, r5, r6, r7, r8, pc}
 221              	.LVL35:
 222              	.L12:
 164:..\..\..\..\..\..\Dev\Library embedded l2c display\u8g2\csrc/u8x8_d_st75320.c ****   }
 223              		.loc 1 164 0
 224 010c 0020     		movs	r0, #0
 225              	.LVL36:
 167:..\..\..\..\..\..\Dev\Library embedded l2c display\u8g2\csrc/u8x8_d_st75320.c **** }
 226              		.loc 1 167 0
 227 010e BDE8F081 		pop	{r4, r5, r6, r7, r8, pc}
 228              	.LVL37:
 229              	.L15:
 230 0112 00BF     		.align	2
 231              	.L14:
 232 0114 00000000 		.word	.LANCHOR0
 233 0118 08000000 		.word	.LANCHOR0+8
 234 011c 10000000 		.word	.LANCHOR0+16
 235 0120 1C000000 		.word	.LANCHOR0+28
 236              		.cfi_endproc
 237              	.LFE0:
 238              		.size	u8x8_d_st75320_generic, .-u8x8_d_st75320_generic
 239              		.section	.text.u8x8_d_st75320_jlx320240,"ax",%progbits
 240              		.align	2
 241              		.global	u8x8_d_st75320_jlx320240
 242              		.thumb
 243              		.thumb_func
 244              		.type	u8x8_d_st75320_jlx320240, %function
 245              	u8x8_d_st75320_jlx320240:
 246              	.LFB1:
 168:..\..\..\..\..\..\Dev\Library embedded l2c display\u8g2\csrc/u8x8_d_st75320.c **** 
 169:..\..\..\..\..\..\Dev\Library embedded l2c display\u8g2\csrc/u8x8_d_st75320.c **** /*===================================================*/
 170:..\..\..\..\..\..\Dev\Library embedded l2c display\u8g2\csrc/u8x8_d_st75320.c **** 
 171:..\..\..\..\..\..\Dev\Library embedded l2c display\u8g2\csrc/u8x8_d_st75320.c **** 
 172:..\..\..\..\..\..\Dev\Library embedded l2c display\u8g2\csrc/u8x8_d_st75320.c **** /* QT-2832TSWUG02/ZJY-2832TSWZG02 */
 173:..\..\..\..\..\..\Dev\Library embedded l2c display\u8g2\csrc/u8x8_d_st75320.c **** static const uint8_t u8x8_d_st75320_jlx320240_init_seq[] = {
 174:..\..\..\..\..\..\Dev\Library embedded l2c display\u8g2\csrc/u8x8_d_st75320.c ****     
 175:..\..\..\..\..\..\Dev\Library embedded l2c display\u8g2\csrc/u8x8_d_st75320.c ****   U8X8_START_TRANSFER(),             	/* enable chip, delay is part of the transfer start */
 176:..\..\..\..\..\..\Dev\Library embedded l2c display\u8g2\csrc/u8x8_d_st75320.c ****   
 177:..\..\..\..\..\..\Dev\Library embedded l2c display\u8g2\csrc/u8x8_d_st75320.c ****   U8X8_C(0xAE), 				// Display OFF
ARM GAS  C:\Users\Abude\AppData\Local\Temp\cchitasa.s 			page 9


 178:..\..\..\..\..\..\Dev\Library embedded l2c display\u8g2\csrc/u8x8_d_st75320.c ****   U8X8_CA(0xEA, 0x00), 			// Power Discharge Control, Discharge OFF
 179:..\..\..\..\..\..\Dev\Library embedded l2c display\u8g2\csrc/u8x8_d_st75320.c ****   U8X8_C(0xA8), 				// sleep out
 180:..\..\..\..\..\..\Dev\Library embedded l2c display\u8g2\csrc/u8x8_d_st75320.c ****   U8X8_C(0xAB), 				// OSC ON
 181:..\..\..\..\..\..\Dev\Library embedded l2c display\u8g2\csrc/u8x8_d_st75320.c ****   U8X8_C(0x69), 				// Temperature Detection ON
 182:..\..\..\..\..\..\Dev\Library embedded l2c display\u8g2\csrc/u8x8_d_st75320.c ****   U8X8_C(0x4E), 				// TC Setting
 183:..\..\..\..\..\..\Dev\Library embedded l2c display\u8g2\csrc/u8x8_d_st75320.c ****   U8X8_A8(0xff, 0x44, 0x12, 0x11,  0x11, 0x11, 0x22, 0x23),
 184:..\..\..\..\..\..\Dev\Library embedded l2c display\u8g2\csrc/u8x8_d_st75320.c ****   U8X8_CAA(0x39, 0x00, 0x00), 	//TC Flag
 185:..\..\..\..\..\..\Dev\Library embedded l2c display\u8g2\csrc/u8x8_d_st75320.c ****   
 186:..\..\..\..\..\..\Dev\Library embedded l2c display\u8g2\csrc/u8x8_d_st75320.c ****   
 187:..\..\..\..\..\..\Dev\Library embedded l2c display\u8g2\csrc/u8x8_d_st75320.c ****   U8X8_CA(0x2B, 0x00), 			// Frame Rate Level
 188:..\..\..\..\..\..\Dev\Library embedded l2c display\u8g2\csrc/u8x8_d_st75320.c ****   U8X8_CAA(0x5F, 0x66, 0x66), 	// Set Frame Frequency, fFR=80Hz in all temperature range
 189:..\..\..\..\..\..\Dev\Library embedded l2c display\u8g2\csrc/u8x8_d_st75320.c ****   U8X8_CAAA(0xEC, 0x19, 0x64, 0x6e), // FR Compensation Temp. Range, TA = -15 degree, TB = 60 degre
 190:..\..\..\..\..\..\Dev\Library embedded l2c display\u8g2\csrc/u8x8_d_st75320.c ****   U8X8_CAA(0xED, 0x04, 0x04), 	// Temp. Hysteresis Value (thermal sensitivity)
 191:..\..\..\..\..\..\Dev\Library embedded l2c display\u8g2\csrc/u8x8_d_st75320.c ****   U8X8_C(0xA6), 				// Display Inverse OFF
 192:..\..\..\..\..\..\Dev\Library embedded l2c display\u8g2\csrc/u8x8_d_st75320.c ****   U8X8_C(0xA4), 				// Disable Display All Pixel ON
 193:..\..\..\..\..\..\Dev\Library embedded l2c display\u8g2\csrc/u8x8_d_st75320.c **** 
 194:..\..\..\..\..\..\Dev\Library embedded l2c display\u8g2\csrc/u8x8_d_st75320.c ****   U8X8_CA(0xC4, 0x02), 			// COM Output Status  
 195:..\..\..\..\..\..\Dev\Library embedded l2c display\u8g2\csrc/u8x8_d_st75320.c ****   U8X8_C(0xA1), 				// Column Address Direction: MX=0
 196:..\..\..\..\..\..\Dev\Library embedded l2c display\u8g2\csrc/u8x8_d_st75320.c ****   
 197:..\..\..\..\..\..\Dev\Library embedded l2c display\u8g2\csrc/u8x8_d_st75320.c ****   U8X8_CAA(0x6D, 0x07, 0x00), 	// Display Area, Duty = 1/240 duty, Start Group = 1
 198:..\..\..\..\..\..\Dev\Library embedded l2c display\u8g2\csrc/u8x8_d_st75320.c ****   U8X8_C(0x84), 				// Display Data Input Direction: Column
 199:..\..\..\..\..\..\Dev\Library embedded l2c display\u8g2\csrc/u8x8_d_st75320.c ****   U8X8_CA(0x36, 0x1e), 			// Set N-Line
 200:..\..\..\..\..\..\Dev\Library embedded l2c display\u8g2\csrc/u8x8_d_st75320.c ****   U8X8_C(0xE4), 				// N-Line On
 201:..\..\..\..\..\..\Dev\Library embedded l2c display\u8g2\csrc/u8x8_d_st75320.c ****   U8X8_CA(0xE7, 0x19), 			// LCD Drive Method //NLFR=1//
 202:..\..\..\..\..\..\Dev\Library embedded l2c display\u8g2\csrc/u8x8_d_st75320.c **** 
 203:..\..\..\..\..\..\Dev\Library embedded l2c display\u8g2\csrc/u8x8_d_st75320.c ****   U8X8_CAA(0x81, 0x4f, 0x01), 	// OX81: Set EV=64h, 0..255, 0..3
 204:..\..\..\..\..\..\Dev\Library embedded l2c display\u8g2\csrc/u8x8_d_st75320.c ****   U8X8_CA(0xA2, 0x0a), 			// BIAS //1/16 BIAS
 205:..\..\..\..\..\..\Dev\Library embedded l2c display\u8g2\csrc/u8x8_d_st75320.c ****   U8X8_CA(0x25, 0x020), 		// Power Control //AVDD ON
 206:..\..\..\..\..\..\Dev\Library embedded l2c display\u8g2\csrc/u8x8_d_st75320.c ****   U8X8_DLY(10),
 207:..\..\..\..\..\..\Dev\Library embedded l2c display\u8g2\csrc/u8x8_d_st75320.c ****   U8X8_CA(0x25, 0x60), 			// Power Control//AVDD, MV3 & NAVDD ON
 208:..\..\..\..\..\..\Dev\Library embedded l2c display\u8g2\csrc/u8x8_d_st75320.c ****   U8X8_DLY(10),
 209:..\..\..\..\..\..\Dev\Library embedded l2c display\u8g2\csrc/u8x8_d_st75320.c ****   U8X8_CA(0x25, 0x70), 			// Power Control //AVDD, MV3, NAVDD & V3 ON
 210:..\..\..\..\..\..\Dev\Library embedded l2c display\u8g2\csrc/u8x8_d_st75320.c ****   U8X8_DLY(10),
 211:..\..\..\..\..\..\Dev\Library embedded l2c display\u8g2\csrc/u8x8_d_st75320.c ****   U8X8_CA(0x25, 0x78), 			// Power Control//AVDD, MV3, NAVDD, V3 & VPF ON
 212:..\..\..\..\..\..\Dev\Library embedded l2c display\u8g2\csrc/u8x8_d_st75320.c ****   U8X8_DLY(10),
 213:..\..\..\..\..\..\Dev\Library embedded l2c display\u8g2\csrc/u8x8_d_st75320.c ****   U8X8_CA(0x25, 0x7c), 			// Power Control//AVDD, MV3, NAVDD, V3, VPF & VNF ON
 214:..\..\..\..\..\..\Dev\Library embedded l2c display\u8g2\csrc/u8x8_d_st75320.c ****   U8X8_DLY(10),
 215:..\..\..\..\..\..\Dev\Library embedded l2c display\u8g2\csrc/u8x8_d_st75320.c ****   U8X8_CA(0x25, 0x7e), 			// Power Control//VOUT, AVDD, MV3, NAVDD, V3, VPF & VNF ON
 216:..\..\..\..\..\..\Dev\Library embedded l2c display\u8g2\csrc/u8x8_d_st75320.c ****   U8X8_DLY(10),
 217:..\..\..\..\..\..\Dev\Library embedded l2c display\u8g2\csrc/u8x8_d_st75320.c ****   U8X8_CA(0x25, 0x7f), 			// Power Control/VOUT, AVDD, MV3, NAVDD, V3, VPF & VNF ON
 218:..\..\..\..\..\..\Dev\Library embedded l2c display\u8g2\csrc/u8x8_d_st75320.c ****   U8X8_DLY(10),
 219:..\..\..\..\..\..\Dev\Library embedded l2c display\u8g2\csrc/u8x8_d_st75320.c ****   //U8X8_C(0xaf); //Display ON  
 220:..\..\..\..\..\..\Dev\Library embedded l2c display\u8g2\csrc/u8x8_d_st75320.c ****     
 221:..\..\..\..\..\..\Dev\Library embedded l2c display\u8g2\csrc/u8x8_d_st75320.c ****   U8X8_END_TRANSFER(),             	/* disable chip */
 222:..\..\..\..\..\..\Dev\Library embedded l2c display\u8g2\csrc/u8x8_d_st75320.c ****   U8X8_END()           			/* end of sequence */
 223:..\..\..\..\..\..\Dev\Library embedded l2c display\u8g2\csrc/u8x8_d_st75320.c **** };
 224:..\..\..\..\..\..\Dev\Library embedded l2c display\u8g2\csrc/u8x8_d_st75320.c **** 
 225:..\..\..\..\..\..\Dev\Library embedded l2c display\u8g2\csrc/u8x8_d_st75320.c **** 
 226:..\..\..\..\..\..\Dev\Library embedded l2c display\u8g2\csrc/u8x8_d_st75320.c **** 
 227:..\..\..\..\..\..\Dev\Library embedded l2c display\u8g2\csrc/u8x8_d_st75320.c **** 
 228:..\..\..\..\..\..\Dev\Library embedded l2c display\u8g2\csrc/u8x8_d_st75320.c **** static const u8x8_display_info_t u8x8_st75320_jlx320240_display_info =
 229:..\..\..\..\..\..\Dev\Library embedded l2c display\u8g2\csrc/u8x8_d_st75320.c **** {
 230:..\..\..\..\..\..\Dev\Library embedded l2c display\u8g2\csrc/u8x8_d_st75320.c ****   /* chip_enable_level = */ 0,
 231:..\..\..\..\..\..\Dev\Library embedded l2c display\u8g2\csrc/u8x8_d_st75320.c ****   /* chip_disable_level = */ 1,
 232:..\..\..\..\..\..\Dev\Library embedded l2c display\u8g2\csrc/u8x8_d_st75320.c ****   
 233:..\..\..\..\..\..\Dev\Library embedded l2c display\u8g2\csrc/u8x8_d_st75320.c ****   /* post_chip_enable_wait_ns = */ 20,
 234:..\..\..\..\..\..\Dev\Library embedded l2c display\u8g2\csrc/u8x8_d_st75320.c ****   /* pre_chip_disable_wait_ns = */ 20,
ARM GAS  C:\Users\Abude\AppData\Local\Temp\cchitasa.s 			page 10


 235:..\..\..\..\..\..\Dev\Library embedded l2c display\u8g2\csrc/u8x8_d_st75320.c ****   /* reset_pulse_width_ms = */ 5, 	
 236:..\..\..\..\..\..\Dev\Library embedded l2c display\u8g2\csrc/u8x8_d_st75320.c ****   /* post_reset_wait_ms = */ 5, 		/**/
 237:..\..\..\..\..\..\Dev\Library embedded l2c display\u8g2\csrc/u8x8_d_st75320.c ****   /* sda_setup_time_ns = */ 20,		/* */
 238:..\..\..\..\..\..\Dev\Library embedded l2c display\u8g2\csrc/u8x8_d_st75320.c ****   /* sck_pulse_width_ns = */ 40,	/*  */
 239:..\..\..\..\..\..\Dev\Library embedded l2c display\u8g2\csrc/u8x8_d_st75320.c ****   /* sck_clock_hz = */ 4000000UL,	/* since Arduino 1.6.0, the SPI bus speed in Hz. Should be  10000
 240:..\..\..\..\..\..\Dev\Library embedded l2c display\u8g2\csrc/u8x8_d_st75320.c ****   /* spi_mode = */ 0,		/* active high, rising edge */
 241:..\..\..\..\..\..\Dev\Library embedded l2c display\u8g2\csrc/u8x8_d_st75320.c ****   /* i2c_bus_clock_100kHz = */ 4,	/* 400KHz */
 242:..\..\..\..\..\..\Dev\Library embedded l2c display\u8g2\csrc/u8x8_d_st75320.c ****   /* data_setup_time_ns = */ 15,
 243:..\..\..\..\..\..\Dev\Library embedded l2c display\u8g2\csrc/u8x8_d_st75320.c ****   /* write_pulse_width_ns = */ 70,	
 244:..\..\..\..\..\..\Dev\Library embedded l2c display\u8g2\csrc/u8x8_d_st75320.c ****   /* tile_width = */ 40,
 245:..\..\..\..\..\..\Dev\Library embedded l2c display\u8g2\csrc/u8x8_d_st75320.c ****   /* tile_hight = */ 30,
 246:..\..\..\..\..\..\Dev\Library embedded l2c display\u8g2\csrc/u8x8_d_st75320.c ****   /* default_x_offset = */ 0,
 247:..\..\..\..\..\..\Dev\Library embedded l2c display\u8g2\csrc/u8x8_d_st75320.c ****   /* flipmode_x_offset = */ 0,
 248:..\..\..\..\..\..\Dev\Library embedded l2c display\u8g2\csrc/u8x8_d_st75320.c ****   /* pixel_width = */ 320,
 249:..\..\..\..\..\..\Dev\Library embedded l2c display\u8g2\csrc/u8x8_d_st75320.c ****   /* pixel_height = */ 240
 250:..\..\..\..\..\..\Dev\Library embedded l2c display\u8g2\csrc/u8x8_d_st75320.c **** };
 251:..\..\..\..\..\..\Dev\Library embedded l2c display\u8g2\csrc/u8x8_d_st75320.c **** 
 252:..\..\..\..\..\..\Dev\Library embedded l2c display\u8g2\csrc/u8x8_d_st75320.c **** uint8_t u8x8_d_st75320_jlx320240(u8x8_t *u8x8, uint8_t msg, uint8_t arg_int, void *arg_ptr)
 253:..\..\..\..\..\..\Dev\Library embedded l2c display\u8g2\csrc/u8x8_d_st75320.c **** {
 247              		.loc 1 253 0
 248              		.cfi_startproc
 249              		@ args = 0, pretend = 0, frame = 0
 250              		@ frame_needed = 0, uses_anonymous_args = 0
 251              	.LVL38:
 252 0000 38B5     		push	{r3, r4, r5, lr}
 253              		.cfi_def_cfa_offset 16
 254              		.cfi_offset 3, -16
 255              		.cfi_offset 4, -12
 256              		.cfi_offset 5, -8
 257              		.cfi_offset 14, -4
 258 0002 0546     		mov	r5, r0
 259 0004 0C46     		mov	r4, r1
 254:..\..\..\..\..\..\Dev\Library embedded l2c display\u8g2\csrc/u8x8_d_st75320.c ****     
 255:..\..\..\..\..\..\Dev\Library embedded l2c display\u8g2\csrc/u8x8_d_st75320.c ****   if ( u8x8_d_st75320_generic(u8x8, msg, arg_int, arg_ptr) != 0 )
 260              		.loc 1 255 0
 261 0006 FFF7FEFF 		bl	u8x8_d_st75320_generic
 262              	.LVL39:
 263 000a 98B9     		cbnz	r0, .L20
 264 000c 0346     		mov	r3, r0
 256:..\..\..\..\..\..\Dev\Library embedded l2c display\u8g2\csrc/u8x8_d_st75320.c ****     return 1;
 257:..\..\..\..\..\..\Dev\Library embedded l2c display\u8g2\csrc/u8x8_d_st75320.c ****   
 258:..\..\..\..\..\..\Dev\Library embedded l2c display\u8g2\csrc/u8x8_d_st75320.c ****   switch(msg)
 265              		.loc 1 258 0
 266 000e 092C     		cmp	r4, #9
 267 0010 0AD0     		beq	.L18
 268 0012 0A2C     		cmp	r4, #10
 269 0014 0FD1     		bne	.L17
 259:..\..\..\..\..\..\Dev\Library embedded l2c display\u8g2\csrc/u8x8_d_st75320.c ****   {
 260:..\..\..\..\..\..\Dev\Library embedded l2c display\u8g2\csrc/u8x8_d_st75320.c ****     case U8X8_MSG_DISPLAY_INIT:
 261:..\..\..\..\..\..\Dev\Library embedded l2c display\u8g2\csrc/u8x8_d_st75320.c ****       u8x8_d_helper_display_init(u8x8);
 270              		.loc 1 261 0
 271 0016 2846     		mov	r0, r5
 272 0018 FFF7FEFF 		bl	u8x8_d_helper_display_init
 273              	.LVL40:
 262:..\..\..\..\..\..\Dev\Library embedded l2c display\u8g2\csrc/u8x8_d_st75320.c ****       u8x8_cad_SendSequence(u8x8, u8x8_d_st75320_jlx320240_init_seq);    
 274              		.loc 1 262 0
 275 001c 0749     		ldr	r1, .L22
ARM GAS  C:\Users\Abude\AppData\Local\Temp\cchitasa.s 			page 11


 276 001e 2846     		mov	r0, r5
 277 0020 FFF7FEFF 		bl	u8x8_cad_SendSequence
 278              	.LVL41:
 263:..\..\..\..\..\..\Dev\Library embedded l2c display\u8g2\csrc/u8x8_d_st75320.c ****       break;
 264:..\..\..\..\..\..\Dev\Library embedded l2c display\u8g2\csrc/u8x8_d_st75320.c ****     case U8X8_MSG_DISPLAY_SETUP_MEMORY:
 265:..\..\..\..\..\..\Dev\Library embedded l2c display\u8g2\csrc/u8x8_d_st75320.c ****       u8x8_d_helper_display_setup_memory(u8x8, &u8x8_st75320_jlx320240_display_info);
 266:..\..\..\..\..\..\Dev\Library embedded l2c display\u8g2\csrc/u8x8_d_st75320.c ****       break;
 267:..\..\..\..\..\..\Dev\Library embedded l2c display\u8g2\csrc/u8x8_d_st75320.c ****     default:
 268:..\..\..\..\..\..\Dev\Library embedded l2c display\u8g2\csrc/u8x8_d_st75320.c ****       return 0;
 269:..\..\..\..\..\..\Dev\Library embedded l2c display\u8g2\csrc/u8x8_d_st75320.c ****   }
 270:..\..\..\..\..\..\Dev\Library embedded l2c display\u8g2\csrc/u8x8_d_st75320.c ****   return 1;
 279              		.loc 1 270 0
 280 0024 0123     		movs	r3, #1
 263:..\..\..\..\..\..\Dev\Library embedded l2c display\u8g2\csrc/u8x8_d_st75320.c ****       break;
 281              		.loc 1 263 0
 282 0026 06E0     		b	.L17
 283              	.L18:
 265:..\..\..\..\..\..\Dev\Library embedded l2c display\u8g2\csrc/u8x8_d_st75320.c ****       break;
 284              		.loc 1 265 0
 285 0028 0549     		ldr	r1, .L22+4
 286 002a 2846     		mov	r0, r5
 287 002c FFF7FEFF 		bl	u8x8_d_helper_display_setup_memory
 288              	.LVL42:
 289              		.loc 1 270 0
 290 0030 0123     		movs	r3, #1
 266:..\..\..\..\..\..\Dev\Library embedded l2c display\u8g2\csrc/u8x8_d_st75320.c ****     default:
 291              		.loc 1 266 0
 292 0032 00E0     		b	.L17
 293              	.L20:
 256:..\..\..\..\..\..\Dev\Library embedded l2c display\u8g2\csrc/u8x8_d_st75320.c ****   
 294              		.loc 1 256 0
 295 0034 0123     		movs	r3, #1
 296              	.L17:
 271:..\..\..\..\..\..\Dev\Library embedded l2c display\u8g2\csrc/u8x8_d_st75320.c **** }
 297              		.loc 1 271 0
 298 0036 1846     		mov	r0, r3
 299 0038 38BD     		pop	{r3, r4, r5, pc}
 300              	.LVL43:
 301              	.L23:
 302 003a 00BF     		.align	2
 303              	.L22:
 304 003c 28000000 		.word	.LANCHOR0+40
 305 0040 B8000000 		.word	.LANCHOR0+184
 306              		.cfi_endproc
 307              	.LFE1:
 308              		.size	u8x8_d_st75320_jlx320240, .-u8x8_d_st75320_jlx320240
 309              		.section	.rodata
 310              		.align	2
 311              		.set	.LANCHOR0,. + 0
 312              		.type	u8x8_d_st75320_jlx320240_powersave0_seq, %object
 313              		.size	u8x8_d_st75320_jlx320240_powersave0_seq, 5
 314              	u8x8_d_st75320_jlx320240_powersave0_seq:
 315 0000 18       		.byte	24
 316 0001 15       		.byte	21
 317 0002 AF       		.byte	-81
 318 0003 19       		.byte	25
 319 0004 FF       		.byte	-1
ARM GAS  C:\Users\Abude\AppData\Local\Temp\cchitasa.s 			page 12


 320 0005 000000   		.space	3
 321              		.type	u8x8_d_st75320_jlx320240_powersave1_seq, %object
 322              		.size	u8x8_d_st75320_jlx320240_powersave1_seq, 5
 323              	u8x8_d_st75320_jlx320240_powersave1_seq:
 324 0008 18       		.byte	24
 325 0009 15       		.byte	21
 326 000a AE       		.byte	-82
 327 000b 19       		.byte	25
 328 000c FF       		.byte	-1
 329 000d 000000   		.space	3
 330              		.type	u8x8_d_st75320_jlx320240_flip0_seq, %object
 331              		.size	u8x8_d_st75320_jlx320240_flip0_seq, 9
 332              	u8x8_d_st75320_jlx320240_flip0_seq:
 333 0010 18       		.byte	24
 334 0011 15       		.byte	21
 335 0012 C4       		.byte	-60
 336 0013 16       		.byte	22
 337 0014 02       		.byte	2
 338 0015 15       		.byte	21
 339 0016 A1       		.byte	-95
 340 0017 19       		.byte	25
 341 0018 FF       		.byte	-1
 342 0019 000000   		.space	3
 343              		.type	u8x8_d_st75320_jlx320240_flip1_seq, %object
 344              		.size	u8x8_d_st75320_jlx320240_flip1_seq, 9
 345              	u8x8_d_st75320_jlx320240_flip1_seq:
 346 001c 18       		.byte	24
 347 001d 15       		.byte	21
 348 001e C4       		.byte	-60
 349 001f 16       		.byte	22
 350 0020 03       		.byte	3
 351 0021 15       		.byte	21
 352 0022 A0       		.byte	-96
 353 0023 19       		.byte	25
 354 0024 FF       		.byte	-1
 355 0025 000000   		.space	3
 356              		.type	u8x8_d_st75320_jlx320240_init_seq, %object
 357              		.size	u8x8_d_st75320_jlx320240_init_seq, 143
 358              	u8x8_d_st75320_jlx320240_init_seq:
 359 0028 18       		.byte	24
 360 0029 15       		.byte	21
 361 002a AE       		.byte	-82
 362 002b 15       		.byte	21
 363 002c EA       		.byte	-22
 364 002d 16       		.byte	22
 365 002e 00       		.byte	0
 366 002f 15       		.byte	21
 367 0030 A8       		.byte	-88
 368 0031 15       		.byte	21
 369 0032 AB       		.byte	-85
 370 0033 15       		.byte	21
 371 0034 69       		.byte	105
 372 0035 15       		.byte	21
 373 0036 4E       		.byte	78
 374 0037 16       		.byte	22
 375 0038 FF       		.byte	-1
 376 0039 16       		.byte	22
ARM GAS  C:\Users\Abude\AppData\Local\Temp\cchitasa.s 			page 13


 377 003a 44       		.byte	68
 378 003b 16       		.byte	22
 379 003c 12       		.byte	18
 380 003d 16       		.byte	22
 381 003e 11       		.byte	17
 382 003f 16       		.byte	22
 383 0040 11       		.byte	17
 384 0041 16       		.byte	22
 385 0042 11       		.byte	17
 386 0043 16       		.byte	22
 387 0044 22       		.byte	34
 388 0045 16       		.byte	22
 389 0046 23       		.byte	35
 390 0047 15       		.byte	21
 391 0048 39       		.byte	57
 392 0049 16       		.byte	22
 393 004a 00       		.byte	0
 394 004b 16       		.byte	22
 395 004c 00       		.byte	0
 396 004d 15       		.byte	21
 397 004e 2B       		.byte	43
 398 004f 16       		.byte	22
 399 0050 00       		.byte	0
 400 0051 15       		.byte	21
 401 0052 5F       		.byte	95
 402 0053 16       		.byte	22
 403 0054 66       		.byte	102
 404 0055 16       		.byte	22
 405 0056 66       		.byte	102
 406 0057 15       		.byte	21
 407 0058 EC       		.byte	-20
 408 0059 16       		.byte	22
 409 005a 19       		.byte	25
 410 005b 16       		.byte	22
 411 005c 64       		.byte	100
 412 005d 16       		.byte	22
 413 005e 6E       		.byte	110
 414 005f 15       		.byte	21
 415 0060 ED       		.byte	-19
 416 0061 16       		.byte	22
 417 0062 04       		.byte	4
 418 0063 16       		.byte	22
 419 0064 04       		.byte	4
 420 0065 15       		.byte	21
 421 0066 A6       		.byte	-90
 422 0067 15       		.byte	21
 423 0068 A4       		.byte	-92
 424 0069 15       		.byte	21
 425 006a C4       		.byte	-60
 426 006b 16       		.byte	22
 427 006c 02       		.byte	2
 428 006d 15       		.byte	21
 429 006e A1       		.byte	-95
 430 006f 15       		.byte	21
 431 0070 6D       		.byte	109
 432 0071 16       		.byte	22
 433 0072 07       		.byte	7
ARM GAS  C:\Users\Abude\AppData\Local\Temp\cchitasa.s 			page 14


 434 0073 16       		.byte	22
 435 0074 00       		.byte	0
 436 0075 15       		.byte	21
 437 0076 84       		.byte	-124
 438 0077 15       		.byte	21
 439 0078 36       		.byte	54
 440 0079 16       		.byte	22
 441 007a 1E       		.byte	30
 442 007b 15       		.byte	21
 443 007c E4       		.byte	-28
 444 007d 15       		.byte	21
 445 007e E7       		.byte	-25
 446 007f 16       		.byte	22
 447 0080 19       		.byte	25
 448 0081 15       		.byte	21
 449 0082 81       		.byte	-127
 450 0083 16       		.byte	22
 451 0084 4F       		.byte	79
 452 0085 16       		.byte	22
 453 0086 01       		.byte	1
 454 0087 15       		.byte	21
 455 0088 A2       		.byte	-94
 456 0089 16       		.byte	22
 457 008a 0A       		.byte	10
 458 008b 15       		.byte	21
 459 008c 25       		.byte	37
 460 008d 16       		.byte	22
 461 008e 20       		.byte	32
 462 008f FE       		.byte	-2
 463 0090 0A       		.byte	10
 464 0091 15       		.byte	21
 465 0092 25       		.byte	37
 466 0093 16       		.byte	22
 467 0094 60       		.byte	96
 468 0095 FE       		.byte	-2
 469 0096 0A       		.byte	10
 470 0097 15       		.byte	21
 471 0098 25       		.byte	37
 472 0099 16       		.byte	22
 473 009a 70       		.byte	112
 474 009b FE       		.byte	-2
 475 009c 0A       		.byte	10
 476 009d 15       		.byte	21
 477 009e 25       		.byte	37
 478 009f 16       		.byte	22
 479 00a0 78       		.byte	120
 480 00a1 FE       		.byte	-2
 481 00a2 0A       		.byte	10
 482 00a3 15       		.byte	21
 483 00a4 25       		.byte	37
 484 00a5 16       		.byte	22
 485 00a6 7C       		.byte	124
 486 00a7 FE       		.byte	-2
 487 00a8 0A       		.byte	10
 488 00a9 15       		.byte	21
 489 00aa 25       		.byte	37
 490 00ab 16       		.byte	22
ARM GAS  C:\Users\Abude\AppData\Local\Temp\cchitasa.s 			page 15


 491 00ac 7E       		.byte	126
 492 00ad FE       		.byte	-2
 493 00ae 0A       		.byte	10
 494 00af 15       		.byte	21
 495 00b0 25       		.byte	37
 496 00b1 16       		.byte	22
 497 00b2 7F       		.byte	127
 498 00b3 FE       		.byte	-2
 499 00b4 0A       		.byte	10
 500 00b5 19       		.byte	25
 501 00b6 FF       		.byte	-1
 502 00b7 00       		.space	1
 503              		.type	u8x8_st75320_jlx320240_display_info, %object
 504              		.size	u8x8_st75320_jlx320240_display_info, 24
 505              	u8x8_st75320_jlx320240_display_info:
 506 00b8 00       		.byte	0
 507 00b9 01       		.byte	1
 508 00ba 14       		.byte	20
 509 00bb 14       		.byte	20
 510 00bc 05       		.byte	5
 511 00bd 05       		.byte	5
 512 00be 14       		.byte	20
 513 00bf 28       		.byte	40
 514 00c0 00093D00 		.word	4000000
 515 00c4 00       		.byte	0
 516 00c5 04       		.byte	4
 517 00c6 0F       		.byte	15
 518 00c7 46       		.byte	70
 519 00c8 28       		.byte	40
 520 00c9 1E       		.byte	30
 521 00ca 00       		.byte	0
 522 00cb 00       		.byte	0
 523 00cc 4001     		.short	320
 524 00ce F000     		.short	240
 525              		.text
 526              	.Letext0:
 527              		.file 2 "c:\\program files (x86)\\cypress\\psoc creator\\4.4\\psoc creator\\import\\gnu\\arm\\5.4.
 528              		.file 3 "c:\\program files (x86)\\cypress\\psoc creator\\4.4\\psoc creator\\import\\gnu\\arm\\5.4.
 529              		.file 4 "c:\\dev\\library embedded l2c display\\u8g2\\csrc\\u8x8.h"