ARM GAS  C:\Users\Abude\AppData\Local\Temp\ccKI6lpd.s 			page 1


   1              		.syntax unified
   2              		.cpu cortex-m3
   3              		.fpu softvfp
   4              		.eabi_attribute 20, 1
   5              		.eabi_attribute 21, 1
   6              		.eabi_attribute 23, 3
   7              		.eabi_attribute 24, 1
   8              		.eabi_attribute 25, 1
   9              		.eabi_attribute 26, 1
  10              		.eabi_attribute 30, 1
  11              		.eabi_attribute 34, 1
  12              		.eabi_attribute 18, 4
  13              		.thumb
  14              		.syntax unified
  15              		.file	"u8x8_d_st7528.c"
  16              		.text
  17              	.Ltext0:
  18              		.cfi_sections	.debug_frame
  19              		.section	.text.u8x8_st7528_8to32,"ax",%progbits
  20              		.align	2
  21              		.thumb
  22              		.thumb_func
  23              		.type	u8x8_st7528_8to32, %function
  24              	u8x8_st7528_8to32:
  25              	.LFB0:
  26              		.file 1 "..\\..\\..\\..\\..\\..\\Dev\\Library embedded l2c display\\u8g2\\csrc\\u8x8_d_st7528.c"
   1:..\..\..\..\..\..\Dev\Library embedded l2c display\u8g2\csrc/u8x8_d_st7528.c **** /*
   2:..\..\..\..\..\..\Dev\Library embedded l2c display\u8g2\csrc/u8x8_d_st7528.c **** 
   3:..\..\..\..\..\..\Dev\Library embedded l2c display\u8g2\csrc/u8x8_d_st7528.c ****   u8x8_d_st7528.c
   4:..\..\..\..\..\..\Dev\Library embedded l2c display\u8g2\csrc/u8x8_d_st7528.c **** 
   5:..\..\..\..\..\..\Dev\Library embedded l2c display\u8g2\csrc/u8x8_d_st7528.c ****   Universal 8bit Graphics Library (https://github.com/olikraus/u8g2/)
   6:..\..\..\..\..\..\Dev\Library embedded l2c display\u8g2\csrc/u8x8_d_st7528.c **** 
   7:..\..\..\..\..\..\Dev\Library embedded l2c display\u8g2\csrc/u8x8_d_st7528.c ****   Copyright (c) 2019, olikraus@gmail.com
   8:..\..\..\..\..\..\Dev\Library embedded l2c display\u8g2\csrc/u8x8_d_st7528.c ****   All rights reserved.
   9:..\..\..\..\..\..\Dev\Library embedded l2c display\u8g2\csrc/u8x8_d_st7528.c **** 
  10:..\..\..\..\..\..\Dev\Library embedded l2c display\u8g2\csrc/u8x8_d_st7528.c ****   Redistribution and use in source and binary forms, with or without modification, 
  11:..\..\..\..\..\..\Dev\Library embedded l2c display\u8g2\csrc/u8x8_d_st7528.c ****   are permitted provided that the following conditions are met:
  12:..\..\..\..\..\..\Dev\Library embedded l2c display\u8g2\csrc/u8x8_d_st7528.c **** 
  13:..\..\..\..\..\..\Dev\Library embedded l2c display\u8g2\csrc/u8x8_d_st7528.c ****   * Redistributions of source code must retain the above copyright notice, this list 
  14:..\..\..\..\..\..\Dev\Library embedded l2c display\u8g2\csrc/u8x8_d_st7528.c ****     of conditions and the following disclaimer.
  15:..\..\..\..\..\..\Dev\Library embedded l2c display\u8g2\csrc/u8x8_d_st7528.c ****     
  16:..\..\..\..\..\..\Dev\Library embedded l2c display\u8g2\csrc/u8x8_d_st7528.c ****   * Redistributions in binary form must reproduce the above copyright notice, this 
  17:..\..\..\..\..\..\Dev\Library embedded l2c display\u8g2\csrc/u8x8_d_st7528.c ****     list of conditions and the following disclaimer in the documentation and/or other 
  18:..\..\..\..\..\..\Dev\Library embedded l2c display\u8g2\csrc/u8x8_d_st7528.c ****     materials provided with the distribution.
  19:..\..\..\..\..\..\Dev\Library embedded l2c display\u8g2\csrc/u8x8_d_st7528.c **** 
  20:..\..\..\..\..\..\Dev\Library embedded l2c display\u8g2\csrc/u8x8_d_st7528.c ****   THIS SOFTWARE IS PROVIDED BY THE COPYRIGHT HOLDERS AND 
  21:..\..\..\..\..\..\Dev\Library embedded l2c display\u8g2\csrc/u8x8_d_st7528.c ****   CONTRIBUTORS "AS IS" AND ANY EXPRESS OR IMPLIED WARRANTIES, 
  22:..\..\..\..\..\..\Dev\Library embedded l2c display\u8g2\csrc/u8x8_d_st7528.c ****   INCLUDING, BUT NOT LIMITED TO, THE IMPLIED WARRANTIES OF 
  23:..\..\..\..\..\..\Dev\Library embedded l2c display\u8g2\csrc/u8x8_d_st7528.c ****   MERCHANTABILITY AND FITNESS FOR A PARTICULAR PURPOSE ARE 
  24:..\..\..\..\..\..\Dev\Library embedded l2c display\u8g2\csrc/u8x8_d_st7528.c ****   DISCLAIMED. IN NO EVENT SHALL THE COPYRIGHT HOLDER OR 
  25:..\..\..\..\..\..\Dev\Library embedded l2c display\u8g2\csrc/u8x8_d_st7528.c ****   CONTRIBUTORS BE LIABLE FOR ANY DIRECT, INDIRECT, INCIDENTAL, 
  26:..\..\..\..\..\..\Dev\Library embedded l2c display\u8g2\csrc/u8x8_d_st7528.c ****   SPECIAL, EXEMPLARY, OR CONSEQUENTIAL DAMAGES (INCLUDING, BUT 
  27:..\..\..\..\..\..\Dev\Library embedded l2c display\u8g2\csrc/u8x8_d_st7528.c ****   NOT LIMITED TO, PROCUREMENT OF SUBSTITUTE GOODS OR SERVICES; 
  28:..\..\..\..\..\..\Dev\Library embedded l2c display\u8g2\csrc/u8x8_d_st7528.c ****   LOSS OF USE, DATA, OR PROFITS; OR BUSINESS INTERRUPTION) HOWEVER 
  29:..\..\..\..\..\..\Dev\Library embedded l2c display\u8g2\csrc/u8x8_d_st7528.c ****   CAUSED AND ON ANY THEORY OF LIABILITY, WHETHER IN CONTRACT, 
  30:..\..\..\..\..\..\Dev\Library embedded l2c display\u8g2\csrc/u8x8_d_st7528.c ****   STRICT LIABILITY, OR TORT (INCLUDING NEGLIGENCE OR OTHERWISE) 
  31:..\..\..\..\..\..\Dev\Library embedded l2c display\u8g2\csrc/u8x8_d_st7528.c ****   ARISING IN ANY WAY OUT OF THE USE OF THIS SOFTWARE, EVEN IF 
ARM GAS  C:\Users\Abude\AppData\Local\Temp\ccKI6lpd.s 			page 2


  32:..\..\..\..\..\..\Dev\Library embedded l2c display\u8g2\csrc/u8x8_d_st7528.c ****   ADVISED OF THE POSSIBILITY OF SUCH DAMAGE.  
  33:..\..\..\..\..\..\Dev\Library embedded l2c display\u8g2\csrc/u8x8_d_st7528.c ****   
  34:..\..\..\..\..\..\Dev\Library embedded l2c display\u8g2\csrc/u8x8_d_st7528.c ****   ST7528: 16 Graylevel Controller
  35:..\..\..\..\..\..\Dev\Library embedded l2c display\u8g2\csrc/u8x8_d_st7528.c ****   https://github.com/olikraus/u8g2/issues/986
  36:..\..\..\..\..\..\Dev\Library embedded l2c display\u8g2\csrc/u8x8_d_st7528.c ****   I2C Address: 0x03f (0x7e)
  37:..\..\..\..\..\..\Dev\Library embedded l2c display\u8g2\csrc/u8x8_d_st7528.c ****   
  38:..\..\..\..\..\..\Dev\Library embedded l2c display\u8g2\csrc/u8x8_d_st7528.c ****   
  39:..\..\..\..\..\..\Dev\Library embedded l2c display\u8g2\csrc/u8x8_d_st7528.c ****   ERC16004
  40:..\..\..\..\..\..\Dev\Library embedded l2c display\u8g2\csrc/u8x8_d_st7528.c ****   https://www.buydisplay.com/default/2-inch-lcd-160x64-graphic-module-serial-spi-display-st7528-bla
  41:..\..\..\..\..\..\Dev\Library embedded l2c display\u8g2\csrc/u8x8_d_st7528.c ****   
  42:..\..\..\..\..\..\Dev\Library embedded l2c display\u8g2\csrc/u8x8_d_st7528.c **** */
  43:..\..\..\..\..\..\Dev\Library embedded l2c display\u8g2\csrc/u8x8_d_st7528.c **** 
  44:..\..\..\..\..\..\Dev\Library embedded l2c display\u8g2\csrc/u8x8_d_st7528.c **** 
  45:..\..\..\..\..\..\Dev\Library embedded l2c display\u8g2\csrc/u8x8_d_st7528.c **** #include "u8x8.h"
  46:..\..\..\..\..\..\Dev\Library embedded l2c display\u8g2\csrc/u8x8_d_st7528.c **** 
  47:..\..\..\..\..\..\Dev\Library embedded l2c display\u8g2\csrc/u8x8_d_st7528.c **** 
  48:..\..\..\..\..\..\Dev\Library embedded l2c display\u8g2\csrc/u8x8_d_st7528.c **** static const uint8_t u8x8_d_st7528_powersave0_seq[] = {
  49:..\..\..\..\..\..\Dev\Library embedded l2c display\u8g2\csrc/u8x8_d_st7528.c ****   U8X8_START_TRANSFER(),             	/* enable chip, delay is part of the transfer start */
  50:..\..\..\..\..\..\Dev\Library embedded l2c display\u8g2\csrc/u8x8_d_st7528.c ****   U8X8_CA(0x038, 0x074),		/* ext mode 0*/
  51:..\..\..\..\..\..\Dev\Library embedded l2c display\u8g2\csrc/u8x8_d_st7528.c ****   U8X8_C(0x0af),		                /* display on */
  52:..\..\..\..\..\..\Dev\Library embedded l2c display\u8g2\csrc/u8x8_d_st7528.c ****   U8X8_END_TRANSFER(),             	/* disable chip */
  53:..\..\..\..\..\..\Dev\Library embedded l2c display\u8g2\csrc/u8x8_d_st7528.c ****   U8X8_END()             			/* end of sequence */
  54:..\..\..\..\..\..\Dev\Library embedded l2c display\u8g2\csrc/u8x8_d_st7528.c **** };
  55:..\..\..\..\..\..\Dev\Library embedded l2c display\u8g2\csrc/u8x8_d_st7528.c **** 
  56:..\..\..\..\..\..\Dev\Library embedded l2c display\u8g2\csrc/u8x8_d_st7528.c **** static const uint8_t u8x8_d_st7528_powersave1_seq[] = {
  57:..\..\..\..\..\..\Dev\Library embedded l2c display\u8g2\csrc/u8x8_d_st7528.c ****   U8X8_START_TRANSFER(),             	/* enable chip, delay is part of the transfer start */
  58:..\..\..\..\..\..\Dev\Library embedded l2c display\u8g2\csrc/u8x8_d_st7528.c ****   U8X8_CA(0x038, 0x074),		/* ext mode 0*/
  59:..\..\..\..\..\..\Dev\Library embedded l2c display\u8g2\csrc/u8x8_d_st7528.c ****   U8X8_C(0x0ae),		                /* display off */
  60:..\..\..\..\..\..\Dev\Library embedded l2c display\u8g2\csrc/u8x8_d_st7528.c ****   U8X8_END_TRANSFER(),             	/* disable chip */
  61:..\..\..\..\..\..\Dev\Library embedded l2c display\u8g2\csrc/u8x8_d_st7528.c ****   U8X8_END()             			/* end of sequence */
  62:..\..\..\..\..\..\Dev\Library embedded l2c display\u8g2\csrc/u8x8_d_st7528.c **** };
  63:..\..\..\..\..\..\Dev\Library embedded l2c display\u8g2\csrc/u8x8_d_st7528.c **** 
  64:..\..\..\..\..\..\Dev\Library embedded l2c display\u8g2\csrc/u8x8_d_st7528.c **** static const uint8_t u8x8_d_st7528_flip0_seq[] = {
  65:..\..\..\..\..\..\Dev\Library embedded l2c display\u8g2\csrc/u8x8_d_st7528.c ****   U8X8_START_TRANSFER(),             	/* enable chip, delay is part of the transfer start */
  66:..\..\..\..\..\..\Dev\Library embedded l2c display\u8g2\csrc/u8x8_d_st7528.c ****   U8X8_C(0x0a0),		                /* ADC */
  67:..\..\..\..\..\..\Dev\Library embedded l2c display\u8g2\csrc/u8x8_d_st7528.c ****   U8X8_C(0x0c8),		                /* SHL */  
  68:..\..\..\..\..\..\Dev\Library embedded l2c display\u8g2\csrc/u8x8_d_st7528.c ****   U8X8_END_TRANSFER(),             	/* disable chip */
  69:..\..\..\..\..\..\Dev\Library embedded l2c display\u8g2\csrc/u8x8_d_st7528.c ****   U8X8_END()             			/* end of sequence */
  70:..\..\..\..\..\..\Dev\Library embedded l2c display\u8g2\csrc/u8x8_d_st7528.c **** };
  71:..\..\..\..\..\..\Dev\Library embedded l2c display\u8g2\csrc/u8x8_d_st7528.c **** 
  72:..\..\..\..\..\..\Dev\Library embedded l2c display\u8g2\csrc/u8x8_d_st7528.c **** static const uint8_t u8x8_d_st7528_flip1_seq[] = {
  73:..\..\..\..\..\..\Dev\Library embedded l2c display\u8g2\csrc/u8x8_d_st7528.c ****   U8X8_START_TRANSFER(),             	/* enable chip, delay is part of the transfer start */
  74:..\..\..\..\..\..\Dev\Library embedded l2c display\u8g2\csrc/u8x8_d_st7528.c ****   U8X8_C(0x0a1),		                /* ADC */
  75:..\..\..\..\..\..\Dev\Library embedded l2c display\u8g2\csrc/u8x8_d_st7528.c ****   U8X8_C(0x0c0),		                /* SHL */  
  76:..\..\..\..\..\..\Dev\Library embedded l2c display\u8g2\csrc/u8x8_d_st7528.c ****   U8X8_END_TRANSFER(),             	/* disable chip */
  77:..\..\..\..\..\..\Dev\Library embedded l2c display\u8g2\csrc/u8x8_d_st7528.c ****   U8X8_END()             			/* end of sequence */
  78:..\..\..\..\..\..\Dev\Library embedded l2c display\u8g2\csrc/u8x8_d_st7528.c **** };
  79:..\..\..\..\..\..\Dev\Library embedded l2c display\u8g2\csrc/u8x8_d_st7528.c **** 
  80:..\..\..\..\..\..\Dev\Library embedded l2c display\u8g2\csrc/u8x8_d_st7528.c **** 
  81:..\..\..\..\..\..\Dev\Library embedded l2c display\u8g2\csrc/u8x8_d_st7528.c **** /*
  82:..\..\..\..\..\..\Dev\Library embedded l2c display\u8g2\csrc/u8x8_d_st7528.c ****   input:
  83:..\..\..\..\..\..\Dev\Library embedded l2c display\u8g2\csrc/u8x8_d_st7528.c ****     one tile (8 Bytes)
  84:..\..\..\..\..\..\Dev\Library embedded l2c display\u8g2\csrc/u8x8_d_st7528.c ****   output:
  85:..\..\..\..\..\..\Dev\Library embedded l2c display\u8g2\csrc/u8x8_d_st7528.c ****     Tile for st7528 (32 Bytes)
  86:..\..\..\..\..\..\Dev\Library embedded l2c display\u8g2\csrc/u8x8_d_st7528.c **** */
  87:..\..\..\..\..\..\Dev\Library embedded l2c display\u8g2\csrc/u8x8_d_st7528.c **** 
  88:..\..\..\..\..\..\Dev\Library embedded l2c display\u8g2\csrc/u8x8_d_st7528.c **** static uint8_t u8x8_st7528_8to32_dest_buf[32];
ARM GAS  C:\Users\Abude\AppData\Local\Temp\ccKI6lpd.s 			page 3


  89:..\..\..\..\..\..\Dev\Library embedded l2c display\u8g2\csrc/u8x8_d_st7528.c **** 
  90:..\..\..\..\..\..\Dev\Library embedded l2c display\u8g2\csrc/u8x8_d_st7528.c **** static uint8_t *u8x8_st7528_8to32(U8X8_UNUSED u8x8_t *u8x8, uint8_t *ptr)
  91:..\..\..\..\..\..\Dev\Library embedded l2c display\u8g2\csrc/u8x8_d_st7528.c **** {
  27              		.loc 1 91 0
  28              		.cfi_startproc
  29              		@ args = 0, pretend = 0, frame = 0
  30              		@ frame_needed = 0, uses_anonymous_args = 0
  31              		@ link register save eliminated.
  32              	.LVL0:
  92:..\..\..\..\..\..\Dev\Library embedded l2c display\u8g2\csrc/u8x8_d_st7528.c ****   uint8_t j;
  93:..\..\..\..\..\..\Dev\Library embedded l2c display\u8g2\csrc/u8x8_d_st7528.c ****   uint8_t *dest;
  94:..\..\..\..\..\..\Dev\Library embedded l2c display\u8g2\csrc/u8x8_d_st7528.c ****   
  95:..\..\..\..\..\..\Dev\Library embedded l2c display\u8g2\csrc/u8x8_d_st7528.c ****   dest = u8x8_st7528_8to32_dest_buf;
  33              		.loc 1 95 0
  34 0000 094B     		ldr	r3, .L4
  96:..\..\..\..\..\..\Dev\Library embedded l2c display\u8g2\csrc/u8x8_d_st7528.c ****   for( j = 0; j < 8; j++ )
  35              		.loc 1 96 0
  36 0002 0022     		movs	r2, #0
  37 0004 0BE0     		b	.L2
  38              	.LVL1:
  39              	.L3:
  97:..\..\..\..\..\..\Dev\Library embedded l2c display\u8g2\csrc/u8x8_d_st7528.c ****   {
  98:..\..\..\..\..\..\Dev\Library embedded l2c display\u8g2\csrc/u8x8_d_st7528.c ****     *dest++ =*ptr;
  40              		.loc 1 98 0 discriminator 3
  41 0006 0878     		ldrb	r0, [r1]	@ zero_extendqisi2
  42 0008 1870     		strb	r0, [r3]
  43              	.LVL2:
  99:..\..\..\..\..\..\Dev\Library embedded l2c display\u8g2\csrc/u8x8_d_st7528.c ****     *dest++ =*ptr;
  44              		.loc 1 99 0 discriminator 3
  45 000a 0878     		ldrb	r0, [r1]	@ zero_extendqisi2
  46 000c 5870     		strb	r0, [r3, #1]
  47              	.LVL3:
 100:..\..\..\..\..\..\Dev\Library embedded l2c display\u8g2\csrc/u8x8_d_st7528.c ****     *dest++ =*ptr;
  48              		.loc 1 100 0 discriminator 3
  49 000e 0878     		ldrb	r0, [r1]	@ zero_extendqisi2
  50 0010 9870     		strb	r0, [r3, #2]
  51              	.LVL4:
 101:..\..\..\..\..\..\Dev\Library embedded l2c display\u8g2\csrc/u8x8_d_st7528.c ****     *dest++ =*ptr;
  52              		.loc 1 101 0 discriminator 3
  53 0012 11F8010B 		ldrb	r0, [r1], #1	@ zero_extendqisi2
  54              	.LVL5:
  55 0016 D870     		strb	r0, [r3, #3]
  56              	.LVL6:
  96:..\..\..\..\..\..\Dev\Library embedded l2c display\u8g2\csrc/u8x8_d_st7528.c ****   {
  57              		.loc 1 96 0 discriminator 3
  58 0018 0132     		adds	r2, r2, #1
  59              	.LVL7:
  60 001a D2B2     		uxtb	r2, r2
  61              	.LVL8:
  62              		.loc 1 101 0 discriminator 3
  63 001c 0433     		adds	r3, r3, #4
  64              	.LVL9:
  65              	.L2:
  96:..\..\..\..\..\..\Dev\Library embedded l2c display\u8g2\csrc/u8x8_d_st7528.c ****   {
  66              		.loc 1 96 0 discriminator 1
  67 001e 072A     		cmp	r2, #7
  68 0020 F1D9     		bls	.L3
ARM GAS  C:\Users\Abude\AppData\Local\Temp\ccKI6lpd.s 			page 4


 102:..\..\..\..\..\..\Dev\Library embedded l2c display\u8g2\csrc/u8x8_d_st7528.c ****     ptr++;
 103:..\..\..\..\..\..\Dev\Library embedded l2c display\u8g2\csrc/u8x8_d_st7528.c ****   }
 104:..\..\..\..\..\..\Dev\Library embedded l2c display\u8g2\csrc/u8x8_d_st7528.c ****   return u8x8_st7528_8to32_dest_buf;
 105:..\..\..\..\..\..\Dev\Library embedded l2c display\u8g2\csrc/u8x8_d_st7528.c **** }
  69              		.loc 1 105 0
  70 0022 0148     		ldr	r0, .L4
  71 0024 7047     		bx	lr
  72              	.L5:
  73 0026 00BF     		.align	2
  74              	.L4:
  75 0028 00000000 		.word	.LANCHOR0
  76              		.cfi_endproc
  77              	.LFE0:
  78              		.size	u8x8_st7528_8to32, .-u8x8_st7528_8to32
  79              		.section	.text.u8x8_d_st7528_graylevel_init,"ax",%progbits
  80              		.align	2
  81              		.thumb
  82              		.thumb_func
  83              		.type	u8x8_d_st7528_graylevel_init, %function
  84              	u8x8_d_st7528_graylevel_init:
  85              	.LFB2:
 106:..\..\..\..\..\..\Dev\Library embedded l2c display\u8g2\csrc/u8x8_d_st7528.c **** 
 107:..\..\..\..\..\..\Dev\Library embedded l2c display\u8g2\csrc/u8x8_d_st7528.c **** 
 108:..\..\..\..\..\..\Dev\Library embedded l2c display\u8g2\csrc/u8x8_d_st7528.c **** 
 109:..\..\..\..\..\..\Dev\Library embedded l2c display\u8g2\csrc/u8x8_d_st7528.c **** static uint8_t u8x8_d_st7528_generic(u8x8_t *u8x8, uint8_t msg, uint8_t arg_int, void *arg_ptr)
 110:..\..\..\..\..\..\Dev\Library embedded l2c display\u8g2\csrc/u8x8_d_st7528.c **** {
 111:..\..\..\..\..\..\Dev\Library embedded l2c display\u8g2\csrc/u8x8_d_st7528.c ****   uint8_t x;
 112:..\..\..\..\..\..\Dev\Library embedded l2c display\u8g2\csrc/u8x8_d_st7528.c ****   uint8_t y, c;
 113:..\..\..\..\..\..\Dev\Library embedded l2c display\u8g2\csrc/u8x8_d_st7528.c ****   uint8_t *ptr;
 114:..\..\..\..\..\..\Dev\Library embedded l2c display\u8g2\csrc/u8x8_d_st7528.c ****   switch(msg)
 115:..\..\..\..\..\..\Dev\Library embedded l2c display\u8g2\csrc/u8x8_d_st7528.c ****   {
 116:..\..\..\..\..\..\Dev\Library embedded l2c display\u8g2\csrc/u8x8_d_st7528.c ****     /* handled by the calling function
 117:..\..\..\..\..\..\Dev\Library embedded l2c display\u8g2\csrc/u8x8_d_st7528.c ****     case U8X8_MSG_DISPLAY_SETUP_MEMORY:
 118:..\..\..\..\..\..\Dev\Library embedded l2c display\u8g2\csrc/u8x8_d_st7528.c ****       u8x8_d_helper_display_setup_memory(u8x8, &u8x8_st7528_display_info);
 119:..\..\..\..\..\..\Dev\Library embedded l2c display\u8g2\csrc/u8x8_d_st7528.c ****       break;
 120:..\..\..\..\..\..\Dev\Library embedded l2c display\u8g2\csrc/u8x8_d_st7528.c ****     case U8X8_MSG_DISPLAY_INIT:
 121:..\..\..\..\..\..\Dev\Library embedded l2c display\u8g2\csrc/u8x8_d_st7528.c ****       u8x8_d_helper_display_init(u8x8);
 122:..\..\..\..\..\..\Dev\Library embedded l2c display\u8g2\csrc/u8x8_d_st7528.c ****       u8x8_cad_SendSequence(u8x8, u8x8_d_st7528_nhd_c160100_init_seq);    
 123:..\..\..\..\..\..\Dev\Library embedded l2c display\u8g2\csrc/u8x8_d_st7528.c ****     */
 124:..\..\..\..\..\..\Dev\Library embedded l2c display\u8g2\csrc/u8x8_d_st7528.c ****       break;
 125:..\..\..\..\..\..\Dev\Library embedded l2c display\u8g2\csrc/u8x8_d_st7528.c ****     case U8X8_MSG_DISPLAY_SET_POWER_SAVE:
 126:..\..\..\..\..\..\Dev\Library embedded l2c display\u8g2\csrc/u8x8_d_st7528.c ****       if ( arg_int == 0 )
 127:..\..\..\..\..\..\Dev\Library embedded l2c display\u8g2\csrc/u8x8_d_st7528.c **** 	u8x8_cad_SendSequence(u8x8, u8x8_d_st7528_powersave0_seq);
 128:..\..\..\..\..\..\Dev\Library embedded l2c display\u8g2\csrc/u8x8_d_st7528.c ****       else
 129:..\..\..\..\..\..\Dev\Library embedded l2c display\u8g2\csrc/u8x8_d_st7528.c **** 	u8x8_cad_SendSequence(u8x8, u8x8_d_st7528_powersave1_seq);
 130:..\..\..\..\..\..\Dev\Library embedded l2c display\u8g2\csrc/u8x8_d_st7528.c ****       break;
 131:..\..\..\..\..\..\Dev\Library embedded l2c display\u8g2\csrc/u8x8_d_st7528.c ****     case U8X8_MSG_DISPLAY_SET_FLIP_MODE:
 132:..\..\..\..\..\..\Dev\Library embedded l2c display\u8g2\csrc/u8x8_d_st7528.c ****       if ( arg_int == 0 )
 133:..\..\..\..\..\..\Dev\Library embedded l2c display\u8g2\csrc/u8x8_d_st7528.c ****       {
 134:..\..\..\..\..\..\Dev\Library embedded l2c display\u8g2\csrc/u8x8_d_st7528.c **** 	u8x8_cad_SendSequence(u8x8, u8x8_d_st7528_flip0_seq);
 135:..\..\..\..\..\..\Dev\Library embedded l2c display\u8g2\csrc/u8x8_d_st7528.c **** 	u8x8->x_offset = u8x8->display_info->default_x_offset;
 136:..\..\..\..\..\..\Dev\Library embedded l2c display\u8g2\csrc/u8x8_d_st7528.c ****       }
 137:..\..\..\..\..\..\Dev\Library embedded l2c display\u8g2\csrc/u8x8_d_st7528.c ****       else
 138:..\..\..\..\..\..\Dev\Library embedded l2c display\u8g2\csrc/u8x8_d_st7528.c ****       {
 139:..\..\..\..\..\..\Dev\Library embedded l2c display\u8g2\csrc/u8x8_d_st7528.c **** 	u8x8_cad_SendSequence(u8x8, u8x8_d_st7528_flip1_seq);
 140:..\..\..\..\..\..\Dev\Library embedded l2c display\u8g2\csrc/u8x8_d_st7528.c **** 	u8x8->x_offset = u8x8->display_info->flipmode_x_offset;
 141:..\..\..\..\..\..\Dev\Library embedded l2c display\u8g2\csrc/u8x8_d_st7528.c ****       }
ARM GAS  C:\Users\Abude\AppData\Local\Temp\ccKI6lpd.s 			page 5


 142:..\..\..\..\..\..\Dev\Library embedded l2c display\u8g2\csrc/u8x8_d_st7528.c ****       break;
 143:..\..\..\..\..\..\Dev\Library embedded l2c display\u8g2\csrc/u8x8_d_st7528.c **** #ifdef U8X8_WITH_SET_CONTRAST
 144:..\..\..\..\..\..\Dev\Library embedded l2c display\u8g2\csrc/u8x8_d_st7528.c ****     case U8X8_MSG_DISPLAY_SET_CONTRAST:
 145:..\..\..\..\..\..\Dev\Library embedded l2c display\u8g2\csrc/u8x8_d_st7528.c ****       u8x8_cad_StartTransfer(u8x8);
 146:..\..\..\..\..\..\Dev\Library embedded l2c display\u8g2\csrc/u8x8_d_st7528.c ****       u8x8_cad_SendCmd(u8x8, 0x081 );
 147:..\..\..\..\..\..\Dev\Library embedded l2c display\u8g2\csrc/u8x8_d_st7528.c ****       u8x8_cad_SendArg(u8x8, arg_int );	/* ssd1326 has range from 0 to 255 */
 148:..\..\..\..\..\..\Dev\Library embedded l2c display\u8g2\csrc/u8x8_d_st7528.c ****       u8x8_cad_EndTransfer(u8x8);
 149:..\..\..\..\..\..\Dev\Library embedded l2c display\u8g2\csrc/u8x8_d_st7528.c ****       break;
 150:..\..\..\..\..\..\Dev\Library embedded l2c display\u8g2\csrc/u8x8_d_st7528.c **** #endif
 151:..\..\..\..\..\..\Dev\Library embedded l2c display\u8g2\csrc/u8x8_d_st7528.c ****     case U8X8_MSG_DISPLAY_DRAW_TILE:
 152:..\..\..\..\..\..\Dev\Library embedded l2c display\u8g2\csrc/u8x8_d_st7528.c ****       u8x8_cad_StartTransfer(u8x8);
 153:..\..\..\..\..\..\Dev\Library embedded l2c display\u8g2\csrc/u8x8_d_st7528.c ****       x = ((u8x8_tile_t *)arg_ptr)->x_pos;
 154:..\..\..\..\..\..\Dev\Library embedded l2c display\u8g2\csrc/u8x8_d_st7528.c ****       x *= 8;  // not clear
 155:..\..\..\..\..\..\Dev\Library embedded l2c display\u8g2\csrc/u8x8_d_st7528.c ****       
 156:..\..\..\..\..\..\Dev\Library embedded l2c display\u8g2\csrc/u8x8_d_st7528.c ****       y = (((u8x8_tile_t *)arg_ptr)->y_pos);
 157:..\..\..\..\..\..\Dev\Library embedded l2c display\u8g2\csrc/u8x8_d_st7528.c ****       
 158:..\..\..\..\..\..\Dev\Library embedded l2c display\u8g2\csrc/u8x8_d_st7528.c ****     
 159:..\..\..\..\..\..\Dev\Library embedded l2c display\u8g2\csrc/u8x8_d_st7528.c ****       
 160:..\..\..\..\..\..\Dev\Library embedded l2c display\u8g2\csrc/u8x8_d_st7528.c ****       do
 161:..\..\..\..\..\..\Dev\Library embedded l2c display\u8g2\csrc/u8x8_d_st7528.c ****       {
 162:..\..\..\..\..\..\Dev\Library embedded l2c display\u8g2\csrc/u8x8_d_st7528.c **** 	c = ((u8x8_tile_t *)arg_ptr)->cnt;
 163:..\..\..\..\..\..\Dev\Library embedded l2c display\u8g2\csrc/u8x8_d_st7528.c **** 	ptr = ((u8x8_tile_t *)arg_ptr)->tile_ptr;
 164:..\..\..\..\..\..\Dev\Library embedded l2c display\u8g2\csrc/u8x8_d_st7528.c **** 
 165:..\..\..\..\..\..\Dev\Library embedded l2c display\u8g2\csrc/u8x8_d_st7528.c **** 	do
 166:..\..\..\..\..\..\Dev\Library embedded l2c display\u8g2\csrc/u8x8_d_st7528.c **** 	{
 167:..\..\..\..\..\..\Dev\Library embedded l2c display\u8g2\csrc/u8x8_d_st7528.c ****           u8x8_cad_SendCmd(u8x8, 0xb0 | y );	/* set page address */
 168:..\..\..\..\..\..\Dev\Library embedded l2c display\u8g2\csrc/u8x8_d_st7528.c ****           u8x8_cad_SendCmd(u8x8, 0x10| (x>>4) );	/* set col msb*/
 169:..\..\..\..\..\..\Dev\Library embedded l2c display\u8g2\csrc/u8x8_d_st7528.c ****           u8x8_cad_SendCmd(u8x8, 0x00| (x&15) );	/* set col lsb*/
 170:..\..\..\..\..\..\Dev\Library embedded l2c display\u8g2\csrc/u8x8_d_st7528.c ****           
 171:..\..\..\..\..\..\Dev\Library embedded l2c display\u8g2\csrc/u8x8_d_st7528.c ****           u8x8_cad_SendData(u8x8, 32, u8x8_st7528_8to32(u8x8, ptr));
 172:..\..\..\..\..\..\Dev\Library embedded l2c display\u8g2\csrc/u8x8_d_st7528.c ****           
 173:..\..\..\..\..\..\Dev\Library embedded l2c display\u8g2\csrc/u8x8_d_st7528.c **** 	  ptr += 8;
 174:..\..\..\..\..\..\Dev\Library embedded l2c display\u8g2\csrc/u8x8_d_st7528.c **** 	  x += 8;
 175:..\..\..\..\..\..\Dev\Library embedded l2c display\u8g2\csrc/u8x8_d_st7528.c **** 	  c--;
 176:..\..\..\..\..\..\Dev\Library embedded l2c display\u8g2\csrc/u8x8_d_st7528.c **** 	} while( c > 0 );	
 177:..\..\..\..\..\..\Dev\Library embedded l2c display\u8g2\csrc/u8x8_d_st7528.c **** 	arg_int--;
 178:..\..\..\..\..\..\Dev\Library embedded l2c display\u8g2\csrc/u8x8_d_st7528.c ****       } while( arg_int > 0 );
 179:..\..\..\..\..\..\Dev\Library embedded l2c display\u8g2\csrc/u8x8_d_st7528.c ****       
 180:..\..\..\..\..\..\Dev\Library embedded l2c display\u8g2\csrc/u8x8_d_st7528.c ****       u8x8_cad_EndTransfer(u8x8);
 181:..\..\..\..\..\..\Dev\Library embedded l2c display\u8g2\csrc/u8x8_d_st7528.c ****       break;
 182:..\..\..\..\..\..\Dev\Library embedded l2c display\u8g2\csrc/u8x8_d_st7528.c ****     default:
 183:..\..\..\..\..\..\Dev\Library embedded l2c display\u8g2\csrc/u8x8_d_st7528.c ****       return 0;
 184:..\..\..\..\..\..\Dev\Library embedded l2c display\u8g2\csrc/u8x8_d_st7528.c ****   }
 185:..\..\..\..\..\..\Dev\Library embedded l2c display\u8g2\csrc/u8x8_d_st7528.c ****   return 1;
 186:..\..\..\..\..\..\Dev\Library embedded l2c display\u8g2\csrc/u8x8_d_st7528.c **** }
 187:..\..\..\..\..\..\Dev\Library embedded l2c display\u8g2\csrc/u8x8_d_st7528.c **** 
 188:..\..\..\..\..\..\Dev\Library embedded l2c display\u8g2\csrc/u8x8_d_st7528.c **** 
 189:..\..\..\..\..\..\Dev\Library embedded l2c display\u8g2\csrc/u8x8_d_st7528.c **** static void u8x8_d_st7528_graylevel_init(u8x8_t *u8x8, uint8_t mode0)
 190:..\..\..\..\..\..\Dev\Library embedded l2c display\u8g2\csrc/u8x8_d_st7528.c **** {
  86              		.loc 1 190 0
  87              		.cfi_startproc
  88              		@ args = 0, pretend = 0, frame = 0
  89              		@ frame_needed = 0, uses_anonymous_args = 0
  90              	.LVL10:
  91 0000 70B5     		push	{r4, r5, r6, lr}
  92              		.cfi_def_cfa_offset 16
  93              		.cfi_offset 4, -16
ARM GAS  C:\Users\Abude\AppData\Local\Temp\ccKI6lpd.s 			page 6


  94              		.cfi_offset 5, -12
  95              		.cfi_offset 6, -8
  96              		.cfi_offset 14, -4
  97 0002 0546     		mov	r5, r0
  98 0004 0E46     		mov	r6, r1
 191:..\..\..\..\..\..\Dev\Library embedded l2c display\u8g2\csrc/u8x8_d_st7528.c ****   uint8_t i;
 192:..\..\..\..\..\..\Dev\Library embedded l2c display\u8g2\csrc/u8x8_d_st7528.c ****   
 193:..\..\..\..\..\..\Dev\Library embedded l2c display\u8g2\csrc/u8x8_d_st7528.c ****   u8x8_cad_StartTransfer(u8x8);
  99              		.loc 1 193 0
 100 0006 FFF7FEFF 		bl	u8x8_cad_StartTransfer
 101              	.LVL11:
 194:..\..\..\..\..\..\Dev\Library embedded l2c display\u8g2\csrc/u8x8_d_st7528.c ****   u8x8_cad_SendCmd(u8x8, 0x38 );
 102              		.loc 1 194 0
 103 000a 3821     		movs	r1, #56
 104 000c 2846     		mov	r0, r5
 105 000e FFF7FEFF 		bl	u8x8_cad_SendCmd
 106              	.LVL12:
 195:..\..\..\..\..\..\Dev\Library embedded l2c display\u8g2\csrc/u8x8_d_st7528.c ****   u8x8_cad_SendArg(u8x8, mode0+1 );
 107              		.loc 1 195 0
 108 0012 711C     		adds	r1, r6, #1
 109 0014 C9B2     		uxtb	r1, r1
 110 0016 2846     		mov	r0, r5
 111 0018 FFF7FEFF 		bl	u8x8_cad_SendArg
 112              	.LVL13:
 196:..\..\..\..\..\..\Dev\Library embedded l2c display\u8g2\csrc/u8x8_d_st7528.c ****   for( i = 0; i < 64; i++ )
 113              		.loc 1 196 0
 114 001c 0024     		movs	r4, #0
 115 001e 0BE0     		b	.L7
 116              	.LVL14:
 117              	.L8:
 197:..\..\..\..\..\..\Dev\Library embedded l2c display\u8g2\csrc/u8x8_d_st7528.c ****   {
 198:..\..\..\..\..\..\Dev\Library embedded l2c display\u8g2\csrc/u8x8_d_st7528.c ****           u8x8_cad_SendCmd(u8x8, i+0x080 );
 118              		.loc 1 198 0 discriminator 3
 119 0020 84F08001 		eor	r1, r4, #128
 120 0024 2846     		mov	r0, r5
 121 0026 FFF7FEFF 		bl	u8x8_cad_SendCmd
 122              	.LVL15:
 199:..\..\..\..\..\..\Dev\Library embedded l2c display\u8g2\csrc/u8x8_d_st7528.c ****           u8x8_cad_SendArg(u8x8, i & 0xfc);
 123              		.loc 1 199 0 discriminator 3
 124 002a 04F0FC01 		and	r1, r4, #252
 125 002e 2846     		mov	r0, r5
 126 0030 FFF7FEFF 		bl	u8x8_cad_SendArg
 127              	.LVL16:
 196:..\..\..\..\..\..\Dev\Library embedded l2c display\u8g2\csrc/u8x8_d_st7528.c ****   for( i = 0; i < 64; i++ )
 128              		.loc 1 196 0 discriminator 3
 129 0034 0134     		adds	r4, r4, #1
 130              	.LVL17:
 131 0036 E4B2     		uxtb	r4, r4
 132              	.LVL18:
 133              	.L7:
 196:..\..\..\..\..\..\Dev\Library embedded l2c display\u8g2\csrc/u8x8_d_st7528.c ****   for( i = 0; i < 64; i++ )
 134              		.loc 1 196 0 is_stmt 0 discriminator 1
 135 0038 3F2C     		cmp	r4, #63
 136 003a F1D9     		bls	.L8
 200:..\..\..\..\..\..\Dev\Library embedded l2c display\u8g2\csrc/u8x8_d_st7528.c ****   }
 201:..\..\..\..\..\..\Dev\Library embedded l2c display\u8g2\csrc/u8x8_d_st7528.c ****   u8x8_cad_SendCmd(u8x8, 0x38 );
 137              		.loc 1 201 0 is_stmt 1
ARM GAS  C:\Users\Abude\AppData\Local\Temp\ccKI6lpd.s 			page 7


 138 003c 3821     		movs	r1, #56
 139 003e 2846     		mov	r0, r5
 140 0040 FFF7FEFF 		bl	u8x8_cad_SendCmd
 141              	.LVL19:
 202:..\..\..\..\..\..\Dev\Library embedded l2c display\u8g2\csrc/u8x8_d_st7528.c ****   u8x8_cad_SendArg(u8x8, mode0 );
 142              		.loc 1 202 0
 143 0044 3146     		mov	r1, r6
 144 0046 2846     		mov	r0, r5
 145 0048 FFF7FEFF 		bl	u8x8_cad_SendArg
 146              	.LVL20:
 203:..\..\..\..\..\..\Dev\Library embedded l2c display\u8g2\csrc/u8x8_d_st7528.c ****   u8x8_cad_EndTransfer(u8x8);
 147              		.loc 1 203 0
 148 004c 2846     		mov	r0, r5
 149 004e FFF7FEFF 		bl	u8x8_cad_EndTransfer
 150              	.LVL21:
 151 0052 70BD     		pop	{r4, r5, r6, pc}
 152              		.cfi_endproc
 153              	.LFE2:
 154              		.size	u8x8_d_st7528_graylevel_init, .-u8x8_d_st7528_graylevel_init
 155              		.section	.text.u8x8_d_st7528_generic,"ax",%progbits
 156              		.align	2
 157              		.thumb
 158              		.thumb_func
 159              		.type	u8x8_d_st7528_generic, %function
 160              	u8x8_d_st7528_generic:
 161              	.LFB1:
 110:..\..\..\..\..\..\Dev\Library embedded l2c display\u8g2\csrc/u8x8_d_st7528.c ****   uint8_t x;
 162              		.loc 1 110 0
 163              		.cfi_startproc
 164              		@ args = 0, pretend = 0, frame = 0
 165              		@ frame_needed = 0, uses_anonymous_args = 0
 166              	.LVL22:
 167 0000 2DE9F047 		push	{r4, r5, r6, r7, r8, r9, r10, lr}
 168              		.cfi_def_cfa_offset 32
 169              		.cfi_offset 4, -32
 170              		.cfi_offset 5, -28
 171              		.cfi_offset 6, -24
 172              		.cfi_offset 7, -20
 173              		.cfi_offset 8, -16
 174              		.cfi_offset 9, -12
 175              		.cfi_offset 10, -8
 176              		.cfi_offset 14, -4
 177 0004 0546     		mov	r5, r0
 178 0006 9046     		mov	r8, r2
 179 0008 9946     		mov	r9, r3
 114:..\..\..\..\..\..\Dev\Library embedded l2c display\u8g2\csrc/u8x8_d_st7528.c ****   {
 180              		.loc 1 114 0
 181 000a 0B39     		subs	r1, r1, #11
 182              	.LVL23:
 183 000c 0429     		cmp	r1, #4
 184 000e 6ED8     		bhi	.L21
 185 0010 DFE801F0 		tbb	[pc, r1]
 186              	.LVL24:
 187              	.L13:
 188 0014 03       		.byte	(.L12-.L13)/2
 189 0015 6D       		.byte	(.L21-.L13)/2
 190 0016 10       		.byte	(.L14-.L13)/2
ARM GAS  C:\Users\Abude\AppData\Local\Temp\ccKI6lpd.s 			page 8


 191 0017 25       		.byte	(.L15-.L13)/2
 192 0018 35       		.byte	(.L16-.L13)/2
 193 0019 00       		.p2align 1
 194              	.L12:
 126:..\..\..\..\..\..\Dev\Library embedded l2c display\u8g2\csrc/u8x8_d_st7528.c **** 	u8x8_cad_SendSequence(u8x8, u8x8_d_st7528_powersave0_seq);
 195              		.loc 1 126 0
 196 001a 2AB9     		cbnz	r2, .L17
 127:..\..\..\..\..\..\Dev\Library embedded l2c display\u8g2\csrc/u8x8_d_st7528.c ****       else
 197              		.loc 1 127 0
 198 001c 3549     		ldr	r1, .L23
 199 001e FFF7FEFF 		bl	u8x8_cad_SendSequence
 200              	.LVL25:
 185:..\..\..\..\..\..\Dev\Library embedded l2c display\u8g2\csrc/u8x8_d_st7528.c **** }
 201              		.loc 1 185 0
 202 0022 0120     		movs	r0, #1
 203 0024 BDE8F087 		pop	{r4, r5, r6, r7, r8, r9, r10, pc}
 204              	.LVL26:
 205              	.L17:
 129:..\..\..\..\..\..\Dev\Library embedded l2c display\u8g2\csrc/u8x8_d_st7528.c ****       break;
 206              		.loc 1 129 0
 207 0028 3349     		ldr	r1, .L23+4
 208 002a FFF7FEFF 		bl	u8x8_cad_SendSequence
 209              	.LVL27:
 185:..\..\..\..\..\..\Dev\Library embedded l2c display\u8g2\csrc/u8x8_d_st7528.c **** }
 210              		.loc 1 185 0
 211 002e 0120     		movs	r0, #1
 212 0030 BDE8F087 		pop	{r4, r5, r6, r7, r8, r9, r10, pc}
 213              	.LVL28:
 214              	.L14:
 132:..\..\..\..\..\..\Dev\Library embedded l2c display\u8g2\csrc/u8x8_d_st7528.c ****       {
 215              		.loc 1 132 0
 216 0034 4AB9     		cbnz	r2, .L18
 134:..\..\..\..\..\..\Dev\Library embedded l2c display\u8g2\csrc/u8x8_d_st7528.c **** 	u8x8->x_offset = u8x8->display_info->default_x_offset;
 217              		.loc 1 134 0
 218 0036 3149     		ldr	r1, .L23+8
 219 0038 FFF7FEFF 		bl	u8x8_cad_SendSequence
 220              	.LVL29:
 135:..\..\..\..\..\..\Dev\Library embedded l2c display\u8g2\csrc/u8x8_d_st7528.c ****       }
 221              		.loc 1 135 0
 222 003c 2B68     		ldr	r3, [r5]
 223 003e 9B7C     		ldrb	r3, [r3, #18]	@ zero_extendqisi2
 224 0040 85F82230 		strb	r3, [r5, #34]
 185:..\..\..\..\..\..\Dev\Library embedded l2c display\u8g2\csrc/u8x8_d_st7528.c **** }
 225              		.loc 1 185 0
 226 0044 0120     		movs	r0, #1
 227 0046 BDE8F087 		pop	{r4, r5, r6, r7, r8, r9, r10, pc}
 228              	.LVL30:
 229              	.L18:
 139:..\..\..\..\..\..\Dev\Library embedded l2c display\u8g2\csrc/u8x8_d_st7528.c **** 	u8x8->x_offset = u8x8->display_info->flipmode_x_offset;
 230              		.loc 1 139 0
 231 004a 2D49     		ldr	r1, .L23+12
 232 004c FFF7FEFF 		bl	u8x8_cad_SendSequence
 233              	.LVL31:
 140:..\..\..\..\..\..\Dev\Library embedded l2c display\u8g2\csrc/u8x8_d_st7528.c ****       }
 234              		.loc 1 140 0
 235 0050 2B68     		ldr	r3, [r5]
 236 0052 DB7C     		ldrb	r3, [r3, #19]	@ zero_extendqisi2
ARM GAS  C:\Users\Abude\AppData\Local\Temp\ccKI6lpd.s 			page 9


 237 0054 85F82230 		strb	r3, [r5, #34]
 185:..\..\..\..\..\..\Dev\Library embedded l2c display\u8g2\csrc/u8x8_d_st7528.c **** }
 238              		.loc 1 185 0
 239 0058 0120     		movs	r0, #1
 240 005a BDE8F087 		pop	{r4, r5, r6, r7, r8, r9, r10, pc}
 241              	.LVL32:
 242              	.L15:
 145:..\..\..\..\..\..\Dev\Library embedded l2c display\u8g2\csrc/u8x8_d_st7528.c ****       u8x8_cad_SendCmd(u8x8, 0x081 );
 243              		.loc 1 145 0
 244 005e FFF7FEFF 		bl	u8x8_cad_StartTransfer
 245              	.LVL33:
 146:..\..\..\..\..\..\Dev\Library embedded l2c display\u8g2\csrc/u8x8_d_st7528.c ****       u8x8_cad_SendArg(u8x8, arg_int );	/* ssd1326 has range from 0 to 255 */
 246              		.loc 1 146 0
 247 0062 8121     		movs	r1, #129
 248 0064 2846     		mov	r0, r5
 249 0066 FFF7FEFF 		bl	u8x8_cad_SendCmd
 250              	.LVL34:
 147:..\..\..\..\..\..\Dev\Library embedded l2c display\u8g2\csrc/u8x8_d_st7528.c ****       u8x8_cad_EndTransfer(u8x8);
 251              		.loc 1 147 0
 252 006a 4146     		mov	r1, r8
 253 006c 2846     		mov	r0, r5
 254 006e FFF7FEFF 		bl	u8x8_cad_SendArg
 255              	.LVL35:
 148:..\..\..\..\..\..\Dev\Library embedded l2c display\u8g2\csrc/u8x8_d_st7528.c ****       break;
 256              		.loc 1 148 0
 257 0072 2846     		mov	r0, r5
 258 0074 FFF7FEFF 		bl	u8x8_cad_EndTransfer
 259              	.LVL36:
 185:..\..\..\..\..\..\Dev\Library embedded l2c display\u8g2\csrc/u8x8_d_st7528.c **** }
 260              		.loc 1 185 0
 261 0078 0120     		movs	r0, #1
 149:..\..\..\..\..\..\Dev\Library embedded l2c display\u8g2\csrc/u8x8_d_st7528.c **** #endif
 262              		.loc 1 149 0
 263 007a BDE8F087 		pop	{r4, r5, r6, r7, r8, r9, r10, pc}
 264              	.LVL37:
 265              	.L16:
 152:..\..\..\..\..\..\Dev\Library embedded l2c display\u8g2\csrc/u8x8_d_st7528.c ****       x = ((u8x8_tile_t *)arg_ptr)->x_pos;
 266              		.loc 1 152 0
 267 007e FFF7FEFF 		bl	u8x8_cad_StartTransfer
 268              	.LVL38:
 153:..\..\..\..\..\..\Dev\Library embedded l2c display\u8g2\csrc/u8x8_d_st7528.c ****       x *= 8;  // not clear
 269              		.loc 1 153 0
 270 0082 99F80540 		ldrb	r4, [r9, #5]	@ zero_extendqisi2
 271              	.LVL39:
 154:..\..\..\..\..\..\Dev\Library embedded l2c display\u8g2\csrc/u8x8_d_st7528.c ****       
 272              		.loc 1 154 0
 273 0086 E400     		lsls	r4, r4, #3
 274              	.LVL40:
 275 0088 E4B2     		uxtb	r4, r4
 276              	.LVL41:
 156:..\..\..\..\..\..\Dev\Library embedded l2c display\u8g2\csrc/u8x8_d_st7528.c ****       
 277              		.loc 1 156 0
 278 008a 99F80670 		ldrb	r7, [r9, #6]	@ zero_extendqisi2
 279              	.LVL42:
 280              	.L20:
 162:..\..\..\..\..\..\Dev\Library embedded l2c display\u8g2\csrc/u8x8_d_st7528.c **** 	ptr = ((u8x8_tile_t *)arg_ptr)->tile_ptr;
 281              		.loc 1 162 0
ARM GAS  C:\Users\Abude\AppData\Local\Temp\ccKI6lpd.s 			page 10


 282 008e 99F804A0 		ldrb	r10, [r9, #4]	@ zero_extendqisi2
 283              	.LVL43:
 163:..\..\..\..\..\..\Dev\Library embedded l2c display\u8g2\csrc/u8x8_d_st7528.c **** 
 284              		.loc 1 163 0
 285 0092 D9F80060 		ldr	r6, [r9]
 286              	.LVL44:
 287              	.L19:
 167:..\..\..\..\..\..\Dev\Library embedded l2c display\u8g2\csrc/u8x8_d_st7528.c ****           u8x8_cad_SendCmd(u8x8, 0x10| (x>>4) );	/* set col msb*/
 288              		.loc 1 167 0 discriminator 1
 289 0096 47F0B001 		orr	r1, r7, #176
 290 009a 2846     		mov	r0, r5
 291 009c FFF7FEFF 		bl	u8x8_cad_SendCmd
 292              	.LVL45:
 168:..\..\..\..\..\..\Dev\Library embedded l2c display\u8g2\csrc/u8x8_d_st7528.c ****           u8x8_cad_SendCmd(u8x8, 0x00| (x&15) );	/* set col lsb*/
 293              		.loc 1 168 0 discriminator 1
 294 00a0 2109     		lsrs	r1, r4, #4
 295 00a2 41F01001 		orr	r1, r1, #16
 296 00a6 2846     		mov	r0, r5
 297 00a8 FFF7FEFF 		bl	u8x8_cad_SendCmd
 298              	.LVL46:
 169:..\..\..\..\..\..\Dev\Library embedded l2c display\u8g2\csrc/u8x8_d_st7528.c ****           
 299              		.loc 1 169 0 discriminator 1
 300 00ac 04F00F01 		and	r1, r4, #15
 301 00b0 2846     		mov	r0, r5
 302 00b2 FFF7FEFF 		bl	u8x8_cad_SendCmd
 303              	.LVL47:
 171:..\..\..\..\..\..\Dev\Library embedded l2c display\u8g2\csrc/u8x8_d_st7528.c ****           
 304              		.loc 1 171 0 discriminator 1
 305 00b6 3146     		mov	r1, r6
 306 00b8 2846     		mov	r0, r5
 307 00ba FFF7FEFF 		bl	u8x8_st7528_8to32
 308              	.LVL48:
 309 00be 0246     		mov	r2, r0
 310 00c0 2021     		movs	r1, #32
 311 00c2 2846     		mov	r0, r5
 312 00c4 FFF7FEFF 		bl	u8x8_cad_SendData
 313              	.LVL49:
 173:..\..\..\..\..\..\Dev\Library embedded l2c display\u8g2\csrc/u8x8_d_st7528.c **** 	  x += 8;
 314              		.loc 1 173 0 discriminator 1
 315 00c8 0836     		adds	r6, r6, #8
 316              	.LVL50:
 174:..\..\..\..\..\..\Dev\Library embedded l2c display\u8g2\csrc/u8x8_d_st7528.c **** 	  c--;
 317              		.loc 1 174 0 discriminator 1
 318 00ca 0834     		adds	r4, r4, #8
 319              	.LVL51:
 320 00cc E4B2     		uxtb	r4, r4
 321              	.LVL52:
 175:..\..\..\..\..\..\Dev\Library embedded l2c display\u8g2\csrc/u8x8_d_st7528.c **** 	} while( c > 0 );	
 322              		.loc 1 175 0 discriminator 1
 323 00ce 0AF1FF33 		add	r3, r10, #-1
 324              	.LVL53:
 176:..\..\..\..\..\..\Dev\Library embedded l2c display\u8g2\csrc/u8x8_d_st7528.c **** 	arg_int--;
 325              		.loc 1 176 0 discriminator 1
 326 00d2 13F0FF0A 		ands	r10, r3, #255
 327 00d6 DED1     		bne	.L19
 177:..\..\..\..\..\..\Dev\Library embedded l2c display\u8g2\csrc/u8x8_d_st7528.c ****       } while( arg_int > 0 );
 328              		.loc 1 177 0
ARM GAS  C:\Users\Abude\AppData\Local\Temp\ccKI6lpd.s 			page 11


 329 00d8 08F1FF38 		add	r8, r8, #-1
 330              	.LVL54:
 178:..\..\..\..\..\..\Dev\Library embedded l2c display\u8g2\csrc/u8x8_d_st7528.c ****       
 331              		.loc 1 178 0
 332 00dc 18F0FF08 		ands	r8, r8, #255
 333              	.LVL55:
 334 00e0 D5D1     		bne	.L20
 180:..\..\..\..\..\..\Dev\Library embedded l2c display\u8g2\csrc/u8x8_d_st7528.c ****       break;
 335              		.loc 1 180 0
 336 00e2 2846     		mov	r0, r5
 337 00e4 FFF7FEFF 		bl	u8x8_cad_EndTransfer
 338              	.LVL56:
 185:..\..\..\..\..\..\Dev\Library embedded l2c display\u8g2\csrc/u8x8_d_st7528.c **** }
 339              		.loc 1 185 0
 340 00e8 0120     		movs	r0, #1
 181:..\..\..\..\..\..\Dev\Library embedded l2c display\u8g2\csrc/u8x8_d_st7528.c ****     default:
 341              		.loc 1 181 0
 342 00ea BDE8F087 		pop	{r4, r5, r6, r7, r8, r9, r10, pc}
 343              	.LVL57:
 344              	.L21:
 183:..\..\..\..\..\..\Dev\Library embedded l2c display\u8g2\csrc/u8x8_d_st7528.c ****   }
 345              		.loc 1 183 0
 346 00ee 0020     		movs	r0, #0
 347              	.LVL58:
 186:..\..\..\..\..\..\Dev\Library embedded l2c display\u8g2\csrc/u8x8_d_st7528.c **** 
 348              		.loc 1 186 0
 349 00f0 BDE8F087 		pop	{r4, r5, r6, r7, r8, r9, r10, pc}
 350              	.LVL59:
 351              	.L24:
 352              		.align	2
 353              	.L23:
 354 00f4 00000000 		.word	.LANCHOR1
 355 00f8 0C000000 		.word	.LANCHOR1+12
 356 00fc 18000000 		.word	.LANCHOR1+24
 357 0100 20000000 		.word	.LANCHOR1+32
 358              		.cfi_endproc
 359              	.LFE1:
 360              		.size	u8x8_d_st7528_generic, .-u8x8_d_st7528_generic
 361              		.section	.text.u8x8_d_st7528_nhd_c160100,"ax",%progbits
 362              		.align	2
 363              		.global	u8x8_d_st7528_nhd_c160100
 364              		.thumb
 365              		.thumb_func
 366              		.type	u8x8_d_st7528_nhd_c160100, %function
 367              	u8x8_d_st7528_nhd_c160100:
 368              	.LFB3:
 204:..\..\..\..\..\..\Dev\Library embedded l2c display\u8g2\csrc/u8x8_d_st7528.c **** }
 205:..\..\..\..\..\..\Dev\Library embedded l2c display\u8g2\csrc/u8x8_d_st7528.c **** 
 206:..\..\..\..\..\..\Dev\Library embedded l2c display\u8g2\csrc/u8x8_d_st7528.c **** /*===============================================================*/
 207:..\..\..\..\..\..\Dev\Library embedded l2c display\u8g2\csrc/u8x8_d_st7528.c **** /* NHD C160100 */
 208:..\..\..\..\..\..\Dev\Library embedded l2c display\u8g2\csrc/u8x8_d_st7528.c **** static const uint8_t u8x8_d_st7528_nhd_c160100_init_seq[] = {
 209:..\..\..\..\..\..\Dev\Library embedded l2c display\u8g2\csrc/u8x8_d_st7528.c ****     
 210:..\..\..\..\..\..\Dev\Library embedded l2c display\u8g2\csrc/u8x8_d_st7528.c ****   U8X8_START_TRANSFER(),             	/* enable chip, delay is part of the transfer start */
 211:..\..\..\..\..\..\Dev\Library embedded l2c display\u8g2\csrc/u8x8_d_st7528.c **** 
 212:..\..\..\..\..\..\Dev\Library embedded l2c display\u8g2\csrc/u8x8_d_st7528.c ****   
 213:..\..\..\..\..\..\Dev\Library embedded l2c display\u8g2\csrc/u8x8_d_st7528.c **** /*
 214:..\..\..\..\..\..\Dev\Library embedded l2c display\u8g2\csrc/u8x8_d_st7528.c ****     I2C_out(0x48);//partial display duty ratio
ARM GAS  C:\Users\Abude\AppData\Local\Temp\ccKI6lpd.s 			page 12


 215:..\..\..\..\..\..\Dev\Library embedded l2c display\u8g2\csrc/u8x8_d_st7528.c ****     I2C_out(0x64);// 1/100 duty
 216:..\..\..\..\..\..\Dev\Library embedded l2c display\u8g2\csrc/u8x8_d_st7528.c ****     I2C_out(0xA0);//ADC select
 217:..\..\..\..\..\..\Dev\Library embedded l2c display\u8g2\csrc/u8x8_d_st7528.c ****     I2C_out(0xC8);//SHL select
 218:..\..\..\..\..\..\Dev\Library embedded l2c display\u8g2\csrc/u8x8_d_st7528.c ****     I2C_out(0x44);//initial Com0 register
 219:..\..\..\..\..\..\Dev\Library embedded l2c display\u8g2\csrc/u8x8_d_st7528.c ****     I2C_out(0x00);//scan from Com0
 220:..\..\..\..\..\..\Dev\Library embedded l2c display\u8g2\csrc/u8x8_d_st7528.c ****     I2C_out(0xAB);//OSC on
 221:..\..\..\..\..\..\Dev\Library embedded l2c display\u8g2\csrc/u8x8_d_st7528.c ****     I2C_out(0x26);//
 222:..\..\..\..\..\..\Dev\Library embedded l2c display\u8g2\csrc/u8x8_d_st7528.c ****     I2C_out(0x81);	//set electronic volume
 223:..\..\..\..\..\..\Dev\Library embedded l2c display\u8g2\csrc/u8x8_d_st7528.c ****     I2C_out(0x15);//vopcode=0x1C
 224:..\..\..\..\..\..\Dev\Library embedded l2c display\u8g2\csrc/u8x8_d_st7528.c ****     I2C_out(0x56);//set 1/11 bias
 225:..\..\..\..\..\..\Dev\Library embedded l2c display\u8g2\csrc/u8x8_d_st7528.c ****     I2C_out(0x64);//3x
 226:..\..\..\..\..\..\Dev\Library embedded l2c display\u8g2\csrc/u8x8_d_st7528.c ****     delay(2);
 227:..\..\..\..\..\..\Dev\Library embedded l2c display\u8g2\csrc/u8x8_d_st7528.c ****     I2C_out(0x2C);//
 228:..\..\..\..\..\..\Dev\Library embedded l2c display\u8g2\csrc/u8x8_d_st7528.c ****     I2C_out(0x66);//5x
 229:..\..\..\..\..\..\Dev\Library embedded l2c display\u8g2\csrc/u8x8_d_st7528.c ****     delay(2);
 230:..\..\..\..\..\..\Dev\Library embedded l2c display\u8g2\csrc/u8x8_d_st7528.c ****     I2C_out(0x2E);//
 231:..\..\..\..\..\..\Dev\Library embedded l2c display\u8g2\csrc/u8x8_d_st7528.c ****     delay(2);
 232:..\..\..\..\..\..\Dev\Library embedded l2c display\u8g2\csrc/u8x8_d_st7528.c ****     I2C_out(0x2F);//power control
 233:..\..\..\..\..\..\Dev\Library embedded l2c display\u8g2\csrc/u8x8_d_st7528.c ****     I2C_out(0xF3);//bias save circuit
 234:..\..\..\..\..\..\Dev\Library embedded l2c display\u8g2\csrc/u8x8_d_st7528.c ****     I2C_out(0x00);//
 235:..\..\..\..\..\..\Dev\Library embedded l2c display\u8g2\csrc/u8x8_d_st7528.c ****     I2C_out(0x96);//frc and pwm
 236:..\..\..\..\..\..\Dev\Library embedded l2c display\u8g2\csrc/u8x8_d_st7528.c ****     I2C_out(0x38);//external mode
 237:..\..\..\..\..\..\Dev\Library embedded l2c display\u8g2\csrc/u8x8_d_st7528.c ****     I2C_out(0x75);//
 238:..\..\..\..\..\..\Dev\Library embedded l2c display\u8g2\csrc/u8x8_d_st7528.c ****     I2C_out(0x97);//3frc, 45 pwm			THIS IS A MODE0 CMD, IT IS USELESS HERE
 239:..\..\..\..\..\..\Dev\Library embedded l2c display\u8g2\csrc/u8x8_d_st7528.c ****     I2C_out(0x80);//start 16-level grayscale settings
 240:..\..\..\..\..\..\Dev\Library embedded l2c display\u8g2\csrc/u8x8_d_st7528.c **** */
 241:..\..\..\..\..\..\Dev\Library embedded l2c display\u8g2\csrc/u8x8_d_st7528.c ****   U8X8_CA(0x038, 0x064),		/* ext mode 0*/
 242:..\..\..\..\..\..\Dev\Library embedded l2c display\u8g2\csrc/u8x8_d_st7528.c ****   U8X8_CA(0x048, 0x064),		/* partial display duty ratio, 1/100 duty*/
 243:..\..\..\..\..\..\Dev\Library embedded l2c display\u8g2\csrc/u8x8_d_st7528.c ****   U8X8_C(0x0a0),		                /* ADC */
 244:..\..\..\..\..\..\Dev\Library embedded l2c display\u8g2\csrc/u8x8_d_st7528.c ****   U8X8_C(0x0c8),		                /* SHL */
 245:..\..\..\..\..\..\Dev\Library embedded l2c display\u8g2\csrc/u8x8_d_st7528.c ****   U8X8_CA(0x044, 0x000),		/* initial Com0 */
 246:..\..\..\..\..\..\Dev\Library embedded l2c display\u8g2\csrc/u8x8_d_st7528.c ****   U8X8_C(0x0ab),		                /* start oscillator */
 247:..\..\..\..\..\..\Dev\Library embedded l2c display\u8g2\csrc/u8x8_d_st7528.c ****   U8X8_C(0x026),		                /* Select the internal resistance ratio of the regulator resistor
 248:..\..\..\..\..\..\Dev\Library embedded l2c display\u8g2\csrc/u8x8_d_st7528.c ****   U8X8_CA(0x081, 0x015),		/* volumn */
 249:..\..\..\..\..\..\Dev\Library embedded l2c display\u8g2\csrc/u8x8_d_st7528.c ****   U8X8_C(0x056),		                /* LCD Bias */
 250:..\..\..\..\..\..\Dev\Library embedded l2c display\u8g2\csrc/u8x8_d_st7528.c ****   U8X8_C(0x064),		                /* DC DC step up */
 251:..\..\..\..\..\..\Dev\Library embedded l2c display\u8g2\csrc/u8x8_d_st7528.c ****   U8X8_DLY(2),
 252:..\..\..\..\..\..\Dev\Library embedded l2c display\u8g2\csrc/u8x8_d_st7528.c ****   U8X8_C(0x02c),		                /* Power Control */
 253:..\..\..\..\..\..\Dev\Library embedded l2c display\u8g2\csrc/u8x8_d_st7528.c ****   U8X8_C(0x066),		                /* DC DC step up */
 254:..\..\..\..\..\..\Dev\Library embedded l2c display\u8g2\csrc/u8x8_d_st7528.c ****   U8X8_DLY(2),
 255:..\..\..\..\..\..\Dev\Library embedded l2c display\u8g2\csrc/u8x8_d_st7528.c ****   U8X8_C(0x02e),		                /* Power Control */
 256:..\..\..\..\..\..\Dev\Library embedded l2c display\u8g2\csrc/u8x8_d_st7528.c ****   U8X8_DLY(2),
 257:..\..\..\..\..\..\Dev\Library embedded l2c display\u8g2\csrc/u8x8_d_st7528.c ****   U8X8_C(0x02f),		                /* Power Control */
 258:..\..\..\..\..\..\Dev\Library embedded l2c display\u8g2\csrc/u8x8_d_st7528.c ****   U8X8_CA(0x0f3, 0x000),		/* bias power save */
 259:..\..\..\..\..\..\Dev\Library embedded l2c display\u8g2\csrc/u8x8_d_st7528.c ****   U8X8_C(0x096),		                /* frc and pwm */
 260:..\..\..\..\..\..\Dev\Library embedded l2c display\u8g2\csrc/u8x8_d_st7528.c **** 
 261:..\..\..\..\..\..\Dev\Library embedded l2c display\u8g2\csrc/u8x8_d_st7528.c ****   U8X8_END_TRANSFER(),             	/* disable chip */
 262:..\..\..\..\..\..\Dev\Library embedded l2c display\u8g2\csrc/u8x8_d_st7528.c ****   U8X8_END()             			/* end of sequence */
 263:..\..\..\..\..\..\Dev\Library embedded l2c display\u8g2\csrc/u8x8_d_st7528.c **** };
 264:..\..\..\..\..\..\Dev\Library embedded l2c display\u8g2\csrc/u8x8_d_st7528.c **** 
 265:..\..\..\..\..\..\Dev\Library embedded l2c display\u8g2\csrc/u8x8_d_st7528.c **** 
 266:..\..\..\..\..\..\Dev\Library embedded l2c display\u8g2\csrc/u8x8_d_st7528.c **** 
 267:..\..\..\..\..\..\Dev\Library embedded l2c display\u8g2\csrc/u8x8_d_st7528.c **** static const u8x8_display_info_t u8x8_st7528_160x100_display_info =
 268:..\..\..\..\..\..\Dev\Library embedded l2c display\u8g2\csrc/u8x8_d_st7528.c **** {
 269:..\..\..\..\..\..\Dev\Library embedded l2c display\u8g2\csrc/u8x8_d_st7528.c ****   /* chip_enable_level = */ 0,
 270:..\..\..\..\..\..\Dev\Library embedded l2c display\u8g2\csrc/u8x8_d_st7528.c ****   /* chip_disable_level = */ 1,
 271:..\..\..\..\..\..\Dev\Library embedded l2c display\u8g2\csrc/u8x8_d_st7528.c ****   
ARM GAS  C:\Users\Abude\AppData\Local\Temp\ccKI6lpd.s 			page 13


 272:..\..\..\..\..\..\Dev\Library embedded l2c display\u8g2\csrc/u8x8_d_st7528.c ****   /* post_chip_enable_wait_ns = */ 20,
 273:..\..\..\..\..\..\Dev\Library embedded l2c display\u8g2\csrc/u8x8_d_st7528.c ****   /* pre_chip_disable_wait_ns = */ 20,
 274:..\..\..\..\..\..\Dev\Library embedded l2c display\u8g2\csrc/u8x8_d_st7528.c ****   /* reset_pulse_width_ms = */ 5, 	
 275:..\..\..\..\..\..\Dev\Library embedded l2c display\u8g2\csrc/u8x8_d_st7528.c ****   /* post_reset_wait_ms = */ 5, 		/**/
 276:..\..\..\..\..\..\Dev\Library embedded l2c display\u8g2\csrc/u8x8_d_st7528.c ****   /* sda_setup_time_ns = */ 20,		/* st7528  */
 277:..\..\..\..\..\..\Dev\Library embedded l2c display\u8g2\csrc/u8x8_d_st7528.c ****   /* sck_pulse_width_ns = */ 25,	/* st7528 */
 278:..\..\..\..\..\..\Dev\Library embedded l2c display\u8g2\csrc/u8x8_d_st7528.c ****   /* sck_clock_hz = */ 8000000UL,	/* since Arduino 1.6.0, the SPI bus speed in Hz. Should be  10000
 279:..\..\..\..\..\..\Dev\Library embedded l2c display\u8g2\csrc/u8x8_d_st7528.c ****       /* st7528 actually allows 20MHz according to the datasheet */
 280:..\..\..\..\..\..\Dev\Library embedded l2c display\u8g2\csrc/u8x8_d_st7528.c ****   /* spi_mode = */ 0,		/* active high, rising edge */
 281:..\..\..\..\..\..\Dev\Library embedded l2c display\u8g2\csrc/u8x8_d_st7528.c ****   /* i2c_bus_clock_100kHz = */ 4,
 282:..\..\..\..\..\..\Dev\Library embedded l2c display\u8g2\csrc/u8x8_d_st7528.c ****   /* data_setup_time_ns = */ 40,
 283:..\..\..\..\..\..\Dev\Library embedded l2c display\u8g2\csrc/u8x8_d_st7528.c ****   /* write_pulse_width_ns = */ 80,	/* st7528 */
 284:..\..\..\..\..\..\Dev\Library embedded l2c display\u8g2\csrc/u8x8_d_st7528.c ****   /* tile_width = */ 20,
 285:..\..\..\..\..\..\Dev\Library embedded l2c display\u8g2\csrc/u8x8_d_st7528.c ****   /* tile_hight = */ 13,
 286:..\..\..\..\..\..\Dev\Library embedded l2c display\u8g2\csrc/u8x8_d_st7528.c ****   /* default_x_offset = */ 0,		/* x_offset is used as y offset for the ssd1326 */
 287:..\..\..\..\..\..\Dev\Library embedded l2c display\u8g2\csrc/u8x8_d_st7528.c ****   /* flipmode_x_offset = */ 0,		/* x_offset is used as y offset for the ssd1326 */
 288:..\..\..\..\..\..\Dev\Library embedded l2c display\u8g2\csrc/u8x8_d_st7528.c ****   /* pixel_width = */ 160,
 289:..\..\..\..\..\..\Dev\Library embedded l2c display\u8g2\csrc/u8x8_d_st7528.c ****   /* pixel_height = */ 100
 290:..\..\..\..\..\..\Dev\Library embedded l2c display\u8g2\csrc/u8x8_d_st7528.c **** };
 291:..\..\..\..\..\..\Dev\Library embedded l2c display\u8g2\csrc/u8x8_d_st7528.c **** 
 292:..\..\..\..\..\..\Dev\Library embedded l2c display\u8g2\csrc/u8x8_d_st7528.c **** uint8_t u8x8_d_st7528_nhd_c160100(u8x8_t *u8x8, uint8_t msg, uint8_t arg_int, void *arg_ptr)
 293:..\..\..\..\..\..\Dev\Library embedded l2c display\u8g2\csrc/u8x8_d_st7528.c **** {
 369              		.loc 1 293 0
 370              		.cfi_startproc
 371              		@ args = 0, pretend = 0, frame = 0
 372              		@ frame_needed = 0, uses_anonymous_args = 0
 373              	.LVL60:
 374 0000 10B5     		push	{r4, lr}
 375              		.cfi_def_cfa_offset 8
 376              		.cfi_offset 4, -8
 377              		.cfi_offset 14, -4
 378 0002 0446     		mov	r4, r0
 294:..\..\..\..\..\..\Dev\Library embedded l2c display\u8g2\csrc/u8x8_d_st7528.c ****     if ( msg == U8X8_MSG_DISPLAY_SETUP_MEMORY )
 379              		.loc 1 294 0
 380 0004 0929     		cmp	r1, #9
 381 0006 04D1     		bne	.L26
 295:..\..\..\..\..\..\Dev\Library embedded l2c display\u8g2\csrc/u8x8_d_st7528.c ****     {
 296:..\..\..\..\..\..\Dev\Library embedded l2c display\u8g2\csrc/u8x8_d_st7528.c ****       u8x8_d_helper_display_setup_memory(u8x8, &u8x8_st7528_160x100_display_info);
 382              		.loc 1 296 0
 383 0008 0A49     		ldr	r1, .L30
 384              	.LVL61:
 385 000a FFF7FEFF 		bl	u8x8_d_helper_display_setup_memory
 386              	.LVL62:
 297:..\..\..\..\..\..\Dev\Library embedded l2c display\u8g2\csrc/u8x8_d_st7528.c ****       return 1;
 387              		.loc 1 297 0
 388 000e 0120     		movs	r0, #1
 389 0010 10BD     		pop	{r4, pc}
 390              	.LVL63:
 391              	.L26:
 298:..\..\..\..\..\..\Dev\Library embedded l2c display\u8g2\csrc/u8x8_d_st7528.c ****     }
 299:..\..\..\..\..\..\Dev\Library embedded l2c display\u8g2\csrc/u8x8_d_st7528.c ****     if ( msg == U8X8_MSG_DISPLAY_INIT )
 392              		.loc 1 299 0
 393 0012 0A29     		cmp	r1, #10
 394 0014 0BD1     		bne	.L28
 300:..\..\..\..\..\..\Dev\Library embedded l2c display\u8g2\csrc/u8x8_d_st7528.c ****     {
 301:..\..\..\..\..\..\Dev\Library embedded l2c display\u8g2\csrc/u8x8_d_st7528.c ****       u8x8_d_helper_display_init(u8x8);
 395              		.loc 1 301 0
ARM GAS  C:\Users\Abude\AppData\Local\Temp\ccKI6lpd.s 			page 14


 396 0016 FFF7FEFF 		bl	u8x8_d_helper_display_init
 397              	.LVL64:
 302:..\..\..\..\..\..\Dev\Library embedded l2c display\u8g2\csrc/u8x8_d_st7528.c ****       u8x8_cad_SendSequence(u8x8, u8x8_d_st7528_nhd_c160100_init_seq);    
 398              		.loc 1 302 0
 399 001a 0749     		ldr	r1, .L30+4
 400 001c 2046     		mov	r0, r4
 401 001e FFF7FEFF 		bl	u8x8_cad_SendSequence
 402              	.LVL65:
 303:..\..\..\..\..\..\Dev\Library embedded l2c display\u8g2\csrc/u8x8_d_st7528.c ****       u8x8_d_st7528_graylevel_init(u8x8, 0x074);
 403              		.loc 1 303 0
 404 0022 7421     		movs	r1, #116
 405 0024 2046     		mov	r0, r4
 406 0026 FFF7FEFF 		bl	u8x8_d_st7528_graylevel_init
 407              	.LVL66:
 304:..\..\..\..\..\..\Dev\Library embedded l2c display\u8g2\csrc/u8x8_d_st7528.c ****       return 1;
 408              		.loc 1 304 0
 409 002a 0120     		movs	r0, #1
 410 002c 10BD     		pop	{r4, pc}
 411              	.LVL67:
 412              	.L28:
 305:..\..\..\..\..\..\Dev\Library embedded l2c display\u8g2\csrc/u8x8_d_st7528.c ****     }    
 306:..\..\..\..\..\..\Dev\Library embedded l2c display\u8g2\csrc/u8x8_d_st7528.c ****     return u8x8_d_st7528_generic(u8x8, msg, arg_int, arg_ptr);
 413              		.loc 1 306 0
 414 002e FFF7FEFF 		bl	u8x8_d_st7528_generic
 415              	.LVL68:
 307:..\..\..\..\..\..\Dev\Library embedded l2c display\u8g2\csrc/u8x8_d_st7528.c **** }
 416              		.loc 1 307 0
 417 0032 10BD     		pop	{r4, pc}
 418              	.LVL69:
 419              	.L31:
 420              		.align	2
 421              	.L30:
 422 0034 28000000 		.word	.LANCHOR1+40
 423 0038 40000000 		.word	.LANCHOR1+64
 424              		.cfi_endproc
 425              	.LFE3:
 426              		.size	u8x8_d_st7528_nhd_c160100, .-u8x8_d_st7528_nhd_c160100
 427              		.section	.text.u8x8_d_st7528_erc16064,"ax",%progbits
 428              		.align	2
 429              		.global	u8x8_d_st7528_erc16064
 430              		.thumb
 431              		.thumb_func
 432              		.type	u8x8_d_st7528_erc16064, %function
 433              	u8x8_d_st7528_erc16064:
 434              	.LFB4:
 308:..\..\..\..\..\..\Dev\Library embedded l2c display\u8g2\csrc/u8x8_d_st7528.c **** 
 309:..\..\..\..\..\..\Dev\Library embedded l2c display\u8g2\csrc/u8x8_d_st7528.c **** /*===============================================================*/
 310:..\..\..\..\..\..\Dev\Library embedded l2c display\u8g2\csrc/u8x8_d_st7528.c **** /* ERC16064, https://www.buydisplay.com/2-inch-lcd-160x64-graphic-module-serial-spi-display-st7528-
 311:..\..\..\..\..\..\Dev\Library embedded l2c display\u8g2\csrc/u8x8_d_st7528.c **** 
 312:..\..\..\..\..\..\Dev\Library embedded l2c display\u8g2\csrc/u8x8_d_st7528.c **** /*
 313:..\..\..\..\..\..\Dev\Library embedded l2c display\u8g2\csrc/u8x8_d_st7528.c **** 
 314:..\..\..\..\..\..\Dev\Library embedded l2c display\u8g2\csrc/u8x8_d_st7528.c **** #define	ModeSet				0x38
 315:..\..\..\..\..\..\Dev\Library embedded l2c display\u8g2\csrc/u8x8_d_st7528.c **** #define	ModeSetP1			0x64	//EXT=0
 316:..\..\..\..\..\..\Dev\Library embedded l2c display\u8g2\csrc/u8x8_d_st7528.c **** #define	ModeSetP2			0x65	//EXT=1
 317:..\..\..\..\..\..\Dev\Library embedded l2c display\u8g2\csrc/u8x8_d_st7528.c **** 
 318:..\..\..\..\..\..\Dev\Library embedded l2c display\u8g2\csrc/u8x8_d_st7528.c **** #define Display_on 			0xaf
 319:..\..\..\..\..\..\Dev\Library embedded l2c display\u8g2\csrc/u8x8_d_st7528.c **** #define Display_off 		0xae
ARM GAS  C:\Users\Abude\AppData\Local\Temp\ccKI6lpd.s 			page 15


 320:..\..\..\..\..\..\Dev\Library embedded l2c display\u8g2\csrc/u8x8_d_st7528.c **** 
 321:..\..\..\..\..\..\Dev\Library embedded l2c display\u8g2\csrc/u8x8_d_st7528.c **** #define Regulator			0x26
 322:..\..\..\..\..\..\Dev\Library embedded l2c display\u8g2\csrc/u8x8_d_st7528.c **** #define Contrast_level		0x81
 323:..\..\..\..\..\..\Dev\Library embedded l2c display\u8g2\csrc/u8x8_d_st7528.c **** #define PowerControll_on1	0x2c
 324:..\..\..\..\..\..\Dev\Library embedded l2c display\u8g2\csrc/u8x8_d_st7528.c **** #define PowerControll_on2	0x2e
 325:..\..\..\..\..\..\Dev\Library embedded l2c display\u8g2\csrc/u8x8_d_st7528.c **** #define PowerControll_on3	0x2f
 326:..\..\..\..\..\..\Dev\Library embedded l2c display\u8g2\csrc/u8x8_d_st7528.c **** 
 327:..\..\..\..\..\..\Dev\Library embedded l2c display\u8g2\csrc/u8x8_d_st7528.c **** #define	LcdBias_9			0x54
 328:..\..\..\..\..\..\Dev\Library embedded l2c display\u8g2\csrc/u8x8_d_st7528.c **** #define	InterOsc_on			0xab
 329:..\..\..\..\..\..\Dev\Library embedded l2c display\u8g2\csrc/u8x8_d_st7528.c **** #define	EntireDisp_on		0xa5
 330:..\..\..\..\..\..\Dev\Library embedded l2c display\u8g2\csrc/u8x8_d_st7528.c **** #define	EntireDisp_off		0xa4
 331:..\..\..\..\..\..\Dev\Library embedded l2c display\u8g2\csrc/u8x8_d_st7528.c **** #define BoostLevel_5		0x66
 332:..\..\..\..\..\..\Dev\Library embedded l2c display\u8g2\csrc/u8x8_d_st7528.c **** #define	Duty_set			0x48
 333:..\..\..\..\..\..\Dev\Library embedded l2c display\u8g2\csrc/u8x8_d_st7528.c **** #define	Duty_setP			0x40
 334:..\..\..\..\..\..\Dev\Library embedded l2c display\u8g2\csrc/u8x8_d_st7528.c **** #define Start_columnlsb		0x00
 335:..\..\..\..\..\..\Dev\Library embedded l2c display\u8g2\csrc/u8x8_d_st7528.c **** #define Start_columnmsb		0x10
 336:..\..\..\..\..\..\Dev\Library embedded l2c display\u8g2\csrc/u8x8_d_st7528.c **** #define Start_page			0xb0
 337:..\..\..\..\..\..\Dev\Library embedded l2c display\u8g2\csrc/u8x8_d_st7528.c **** #define	StartLine_set		0x40
 338:..\..\..\..\..\..\Dev\Library embedded l2c display\u8g2\csrc/u8x8_d_st7528.c **** //#define	StartLine_setP		0x00
 339:..\..\..\..\..\..\Dev\Library embedded l2c display\u8g2\csrc/u8x8_d_st7528.c **** #define Set_Initial_COM0	0x44
 340:..\..\..\..\..\..\Dev\Library embedded l2c display\u8g2\csrc/u8x8_d_st7528.c **** #define Set_Initial_COM0P	0x12
 341:..\..\..\..\..\..\Dev\Library embedded l2c display\u8g2\csrc/u8x8_d_st7528.c **** 
 342:..\..\..\..\..\..\Dev\Library embedded l2c display\u8g2\csrc/u8x8_d_st7528.c **** 
 343:..\..\..\..\..\..\Dev\Library embedded l2c display\u8g2\csrc/u8x8_d_st7528.c **** #define Entire_Displa_ON	0xA5
 344:..\..\..\..\..\..\Dev\Library embedded l2c display\u8g2\csrc/u8x8_d_st7528.c **** #define Entire_Displa_OFF	0xA4
 345:..\..\..\..\..\..\Dev\Library embedded l2c display\u8g2\csrc/u8x8_d_st7528.c **** 
 346:..\..\..\..\..\..\Dev\Library embedded l2c display\u8g2\csrc/u8x8_d_st7528.c **** #define FrcPwm_set			0x92
 347:..\..\..\..\..\..\Dev\Library embedded l2c display\u8g2\csrc/u8x8_d_st7528.c **** #define NLineInversion_on	0x4c
 348:..\..\..\..\..\..\Dev\Library embedded l2c display\u8g2\csrc/u8x8_d_st7528.c **** #define NLineInversion_onP	0x1f
 349:..\..\..\..\..\..\Dev\Library embedded l2c display\u8g2\csrc/u8x8_d_st7528.c **** #define NLineInversion_off	0xe4	
 350:..\..\..\..\..\..\Dev\Library embedded l2c display\u8g2\csrc/u8x8_d_st7528.c **** #define ReverseDisp_on		0xa7
 351:..\..\..\..\..\..\Dev\Library embedded l2c display\u8g2\csrc/u8x8_d_st7528.c **** #define ReverseDisp_off		0xa6
 352:..\..\..\..\..\..\Dev\Library embedded l2c display\u8g2\csrc/u8x8_d_st7528.c **** #define AdcSelect			0xa0
 353:..\..\..\..\..\..\Dev\Library embedded l2c display\u8g2\csrc/u8x8_d_st7528.c **** #define ComScanDirection	0xc8
 354:..\..\..\..\..\..\Dev\Library embedded l2c display\u8g2\csrc/u8x8_d_st7528.c **** 
 355:..\..\..\..\..\..\Dev\Library embedded l2c display\u8g2\csrc/u8x8_d_st7528.c **** 	Write_command(ModeSet);		0x38, 0x64
 356:..\..\..\..\..\..\Dev\Library embedded l2c display\u8g2\csrc/u8x8_d_st7528.c **** 	Write_command(ModeSetP1);	
 357:..\..\..\..\..\..\Dev\Library embedded l2c display\u8g2\csrc/u8x8_d_st7528.c **** 	Write_command(InterOsc_on);	0xab
 358:..\..\..\..\..\..\Dev\Library embedded l2c display\u8g2\csrc/u8x8_d_st7528.c **** 	Write_command(Set_Initial_COM0);	0x44, 0x12
 359:..\..\..\..\..\..\Dev\Library embedded l2c display\u8g2\csrc/u8x8_d_st7528.c **** 	Write_command(Set_Initial_COM0P);
 360:..\..\..\..\..\..\Dev\Library embedded l2c display\u8g2\csrc/u8x8_d_st7528.c **** 
 361:..\..\..\..\..\..\Dev\Library embedded l2c display\u8g2\csrc/u8x8_d_st7528.c **** 	Write_command(AdcSelect);		0xa0
 362:..\..\..\..\..\..\Dev\Library embedded l2c display\u8g2\csrc/u8x8_d_st7528.c **** 	Write_command(ComScanDirection);	0xc8
 363:..\..\..\..\..\..\Dev\Library embedded l2c display\u8g2\csrc/u8x8_d_st7528.c **** 	Write_command(BoostLevel_5);		0x66
 364:..\..\..\..\..\..\Dev\Library embedded l2c display\u8g2\csrc/u8x8_d_st7528.c **** 	Delay(1000);
 365:..\..\..\..\..\..\Dev\Library embedded l2c display\u8g2\csrc/u8x8_d_st7528.c **** 	Write_command(LcdBias_9);	0x54
 366:..\..\..\..\..\..\Dev\Library embedded l2c display\u8g2\csrc/u8x8_d_st7528.c **** 	Write_command(Duty_set);		0x48, 0x40
 367:..\..\..\..\..\..\Dev\Library embedded l2c display\u8g2\csrc/u8x8_d_st7528.c **** 	Write_command(Duty_setP);
 368:..\..\..\..\..\..\Dev\Library embedded l2c display\u8g2\csrc/u8x8_d_st7528.c **** 	Write_command(Regulator);	0x26
 369:..\..\..\..\..\..\Dev\Library embedded l2c display\u8g2\csrc/u8x8_d_st7528.c **** 	Write_command(Contrast_level);		0x81, 0x0b
 370:..\..\..\..\..\..\Dev\Library embedded l2c display\u8g2\csrc/u8x8_d_st7528.c **** 	Write_command(Contrast_levelP);
 371:..\..\..\..\..\..\Dev\Library embedded l2c display\u8g2\csrc/u8x8_d_st7528.c **** 	Write_command(PowerControll_on1);	0x2c
 372:..\..\..\..\..\..\Dev\Library embedded l2c display\u8g2\csrc/u8x8_d_st7528.c **** 	Delay(10000);
 373:..\..\..\..\..\..\Dev\Library embedded l2c display\u8g2\csrc/u8x8_d_st7528.c **** 	Write_command(PowerControll_on2);	0x2e
 374:..\..\..\..\..\..\Dev\Library embedded l2c display\u8g2\csrc/u8x8_d_st7528.c **** 	Delay(1000);
 375:..\..\..\..\..\..\Dev\Library embedded l2c display\u8g2\csrc/u8x8_d_st7528.c **** 	Write_command(PowerControll_on3);	0x2f
 376:..\..\..\..\..\..\Dev\Library embedded l2c display\u8g2\csrc/u8x8_d_st7528.c **** 	Delay(1000);	
ARM GAS  C:\Users\Abude\AppData\Local\Temp\ccKI6lpd.s 			page 16


 377:..\..\..\..\..\..\Dev\Library embedded l2c display\u8g2\csrc/u8x8_d_st7528.c **** 	Write_command(FrcPwm_set);	0x92
 378:..\..\..\..\..\..\Dev\Library embedded l2c display\u8g2\csrc/u8x8_d_st7528.c **** 
 379:..\..\..\..\..\..\Dev\Library embedded l2c display\u8g2\csrc/u8x8_d_st7528.c **** 	Write_command(ModeSet);
 380:..\..\..\..\..\..\Dev\Library embedded l2c display\u8g2\csrc/u8x8_d_st7528.c **** 	Write_command(ModeSetP2);
 381:..\..\..\..\..\..\Dev\Library embedded l2c display\u8g2\csrc/u8x8_d_st7528.c **** 	for(i=0;i<64;i++)
 382:..\..\..\..\..\..\Dev\Library embedded l2c display\u8g2\csrc/u8x8_d_st7528.c **** 		{
 383:..\..\..\..\..\..\Dev\Library embedded l2c display\u8g2\csrc/u8x8_d_st7528.c **** 		Write_command(0x80+i);
 384:..\..\..\..\..\..\Dev\Library embedded l2c display\u8g2\csrc/u8x8_d_st7528.c **** 		Write_command(Gray_Parameters[i]);
 385:..\..\..\..\..\..\Dev\Library embedded l2c display\u8g2\csrc/u8x8_d_st7528.c **** 		}
 386:..\..\..\..\..\..\Dev\Library embedded l2c display\u8g2\csrc/u8x8_d_st7528.c **** 	Write_command(ModeSet);
 387:..\..\..\..\..\..\Dev\Library embedded l2c display\u8g2\csrc/u8x8_d_st7528.c **** 	Write_command(ModeSetP1);
 388:..\..\..\..\..\..\Dev\Library embedded l2c display\u8g2\csrc/u8x8_d_st7528.c **** */
 389:..\..\..\..\..\..\Dev\Library embedded l2c display\u8g2\csrc/u8x8_d_st7528.c **** 
 390:..\..\..\..\..\..\Dev\Library embedded l2c display\u8g2\csrc/u8x8_d_st7528.c **** static const uint8_t u8x8_d_st7528_erc16064_init_seq[] = {    
 391:..\..\..\..\..\..\Dev\Library embedded l2c display\u8g2\csrc/u8x8_d_st7528.c ****   U8X8_START_TRANSFER(),             	/* enable chip, delay is part of the transfer start */
 392:..\..\..\..\..\..\Dev\Library embedded l2c display\u8g2\csrc/u8x8_d_st7528.c ****   U8X8_CA(0x038, 0x064),		/* ext mode 0*/
 393:..\..\..\..\..\..\Dev\Library embedded l2c display\u8g2\csrc/u8x8_d_st7528.c ****   U8X8_C(0x0ab),		                /* start oscillator */
 394:..\..\..\..\..\..\Dev\Library embedded l2c display\u8g2\csrc/u8x8_d_st7528.c ****   U8X8_CA(0x044, 0x012),		/* initial Com0 */
 395:..\..\..\..\..\..\Dev\Library embedded l2c display\u8g2\csrc/u8x8_d_st7528.c ****   U8X8_C(0x0a0),		                /* ADC */
 396:..\..\..\..\..\..\Dev\Library embedded l2c display\u8g2\csrc/u8x8_d_st7528.c ****   U8X8_C(0x0c8),		                /* SHL */  
 397:..\..\..\..\..\..\Dev\Library embedded l2c display\u8g2\csrc/u8x8_d_st7528.c ****   U8X8_C(0x066),		                /* boost level, ERC16064: 0x066 */
 398:..\..\..\..\..\..\Dev\Library embedded l2c display\u8g2\csrc/u8x8_d_st7528.c ****   U8X8_DLY(1),
 399:..\..\..\..\..\..\Dev\Library embedded l2c display\u8g2\csrc/u8x8_d_st7528.c ****   U8X8_C(0x054),		                /* LCD Bias, ERC16064: 0x054 */
 400:..\..\..\..\..\..\Dev\Library embedded l2c display\u8g2\csrc/u8x8_d_st7528.c ****   U8X8_CA(0x048, 0x040),		/* partial display duty ratio */  
 401:..\..\..\..\..\..\Dev\Library embedded l2c display\u8g2\csrc/u8x8_d_st7528.c ****   U8X8_C(0x026),		                /* Select the internal resistance ratio of the regulator resistor
 402:..\..\..\..\..\..\Dev\Library embedded l2c display\u8g2\csrc/u8x8_d_st7528.c ****   U8X8_CA(0x081, 0x00b),		/* contrast,  ERC16064: 0x00b */
 403:..\..\..\..\..\..\Dev\Library embedded l2c display\u8g2\csrc/u8x8_d_st7528.c ****   
 404:..\..\..\..\..\..\Dev\Library embedded l2c display\u8g2\csrc/u8x8_d_st7528.c ****   U8X8_C(0x02c),		                /* Power Control */
 405:..\..\..\..\..\..\Dev\Library embedded l2c display\u8g2\csrc/u8x8_d_st7528.c ****   U8X8_DLY(2),
 406:..\..\..\..\..\..\Dev\Library embedded l2c display\u8g2\csrc/u8x8_d_st7528.c ****   U8X8_C(0x02e),		                /* Power Control */
 407:..\..\..\..\..\..\Dev\Library embedded l2c display\u8g2\csrc/u8x8_d_st7528.c ****   U8X8_DLY(2),
 408:..\..\..\..\..\..\Dev\Library embedded l2c display\u8g2\csrc/u8x8_d_st7528.c ****   U8X8_C(0x02f),		                /* Power Control */
 409:..\..\..\..\..\..\Dev\Library embedded l2c display\u8g2\csrc/u8x8_d_st7528.c ****   U8X8_DLY(2),
 410:..\..\..\..\..\..\Dev\Library embedded l2c display\u8g2\csrc/u8x8_d_st7528.c ****   U8X8_C(0x092),		                /* frc and pwm, ERC160624: 0x092 */
 411:..\..\..\..\..\..\Dev\Library embedded l2c display\u8g2\csrc/u8x8_d_st7528.c **** 
 412:..\..\..\..\..\..\Dev\Library embedded l2c display\u8g2\csrc/u8x8_d_st7528.c ****   
 413:..\..\..\..\..\..\Dev\Library embedded l2c display\u8g2\csrc/u8x8_d_st7528.c **** 
 414:..\..\..\..\..\..\Dev\Library embedded l2c display\u8g2\csrc/u8x8_d_st7528.c ****   U8X8_END_TRANSFER(),             	/* disable chip */
 415:..\..\..\..\..\..\Dev\Library embedded l2c display\u8g2\csrc/u8x8_d_st7528.c ****   U8X8_END()             			/* end of sequence */
 416:..\..\..\..\..\..\Dev\Library embedded l2c display\u8g2\csrc/u8x8_d_st7528.c **** };
 417:..\..\..\..\..\..\Dev\Library embedded l2c display\u8g2\csrc/u8x8_d_st7528.c **** 
 418:..\..\..\..\..\..\Dev\Library embedded l2c display\u8g2\csrc/u8x8_d_st7528.c **** 
 419:..\..\..\..\..\..\Dev\Library embedded l2c display\u8g2\csrc/u8x8_d_st7528.c **** static const u8x8_display_info_t u8x8_st7528_erc16064_display_info =
 420:..\..\..\..\..\..\Dev\Library embedded l2c display\u8g2\csrc/u8x8_d_st7528.c **** {
 421:..\..\..\..\..\..\Dev\Library embedded l2c display\u8g2\csrc/u8x8_d_st7528.c ****   /* chip_enable_level = */ 0,
 422:..\..\..\..\..\..\Dev\Library embedded l2c display\u8g2\csrc/u8x8_d_st7528.c ****   /* chip_disable_level = */ 1,
 423:..\..\..\..\..\..\Dev\Library embedded l2c display\u8g2\csrc/u8x8_d_st7528.c ****   
 424:..\..\..\..\..\..\Dev\Library embedded l2c display\u8g2\csrc/u8x8_d_st7528.c ****   /* post_chip_enable_wait_ns = */ 20,
 425:..\..\..\..\..\..\Dev\Library embedded l2c display\u8g2\csrc/u8x8_d_st7528.c ****   /* pre_chip_disable_wait_ns = */ 20,
 426:..\..\..\..\..\..\Dev\Library embedded l2c display\u8g2\csrc/u8x8_d_st7528.c ****   /* reset_pulse_width_ms = */ 5, 	
 427:..\..\..\..\..\..\Dev\Library embedded l2c display\u8g2\csrc/u8x8_d_st7528.c ****   /* post_reset_wait_ms = */ 5, 		/**/
 428:..\..\..\..\..\..\Dev\Library embedded l2c display\u8g2\csrc/u8x8_d_st7528.c ****   /* sda_setup_time_ns = */ 20,		/* st7528  */
 429:..\..\..\..\..\..\Dev\Library embedded l2c display\u8g2\csrc/u8x8_d_st7528.c ****   /* sck_pulse_width_ns = */ 25,	/* st7528 */
 430:..\..\..\..\..\..\Dev\Library embedded l2c display\u8g2\csrc/u8x8_d_st7528.c ****   /* sck_clock_hz = */ 8000000UL,	/* since Arduino 1.6.0, the SPI bus speed in Hz. Should be  10000
 431:..\..\..\..\..\..\Dev\Library embedded l2c display\u8g2\csrc/u8x8_d_st7528.c ****       /* st7528 actually allows 20MHz according to the datasheet */
 432:..\..\..\..\..\..\Dev\Library embedded l2c display\u8g2\csrc/u8x8_d_st7528.c ****   /* spi_mode = */ 0,		/* active high, rising edge */
 433:..\..\..\..\..\..\Dev\Library embedded l2c display\u8g2\csrc/u8x8_d_st7528.c ****   /* i2c_bus_clock_100kHz = */ 4,
ARM GAS  C:\Users\Abude\AppData\Local\Temp\ccKI6lpd.s 			page 17


 434:..\..\..\..\..\..\Dev\Library embedded l2c display\u8g2\csrc/u8x8_d_st7528.c ****   /* data_setup_time_ns = */ 40,
 435:..\..\..\..\..\..\Dev\Library embedded l2c display\u8g2\csrc/u8x8_d_st7528.c ****   /* write_pulse_width_ns = */ 80,	/* st7528 */
 436:..\..\..\..\..\..\Dev\Library embedded l2c display\u8g2\csrc/u8x8_d_st7528.c ****   /* tile_width = */ 20,
 437:..\..\..\..\..\..\Dev\Library embedded l2c display\u8g2\csrc/u8x8_d_st7528.c ****   /* tile_hight = */ 8,
 438:..\..\..\..\..\..\Dev\Library embedded l2c display\u8g2\csrc/u8x8_d_st7528.c ****   /* default_x_offset = */ 0,		/* x_offset is used as y offset for the ssd1326 */
 439:..\..\..\..\..\..\Dev\Library embedded l2c display\u8g2\csrc/u8x8_d_st7528.c ****   /* flipmode_x_offset = */ 0,		/* x_offset is used as y offset for the ssd1326 */
 440:..\..\..\..\..\..\Dev\Library embedded l2c display\u8g2\csrc/u8x8_d_st7528.c ****   /* pixel_width = */ 160,
 441:..\..\..\..\..\..\Dev\Library embedded l2c display\u8g2\csrc/u8x8_d_st7528.c ****   /* pixel_height = */ 64
 442:..\..\..\..\..\..\Dev\Library embedded l2c display\u8g2\csrc/u8x8_d_st7528.c **** };
 443:..\..\..\..\..\..\Dev\Library embedded l2c display\u8g2\csrc/u8x8_d_st7528.c **** 
 444:..\..\..\..\..\..\Dev\Library embedded l2c display\u8g2\csrc/u8x8_d_st7528.c **** 
 445:..\..\..\..\..\..\Dev\Library embedded l2c display\u8g2\csrc/u8x8_d_st7528.c **** uint8_t u8x8_d_st7528_erc16064(u8x8_t *u8x8, uint8_t msg, uint8_t arg_int, void *arg_ptr)
 446:..\..\..\..\..\..\Dev\Library embedded l2c display\u8g2\csrc/u8x8_d_st7528.c **** {
 435              		.loc 1 446 0
 436              		.cfi_startproc
 437              		@ args = 0, pretend = 0, frame = 0
 438              		@ frame_needed = 0, uses_anonymous_args = 0
 439              	.LVL70:
 440 0000 10B5     		push	{r4, lr}
 441              		.cfi_def_cfa_offset 8
 442              		.cfi_offset 4, -8
 443              		.cfi_offset 14, -4
 444 0002 0446     		mov	r4, r0
 447:..\..\..\..\..\..\Dev\Library embedded l2c display\u8g2\csrc/u8x8_d_st7528.c ****     if ( msg == U8X8_MSG_DISPLAY_SETUP_MEMORY )
 445              		.loc 1 447 0
 446 0004 0929     		cmp	r1, #9
 447 0006 04D1     		bne	.L33
 448:..\..\..\..\..\..\Dev\Library embedded l2c display\u8g2\csrc/u8x8_d_st7528.c ****     {
 449:..\..\..\..\..\..\Dev\Library embedded l2c display\u8g2\csrc/u8x8_d_st7528.c ****       u8x8_d_helper_display_setup_memory(u8x8, &u8x8_st7528_erc16064_display_info);
 448              		.loc 1 449 0
 449 0008 0A49     		ldr	r1, .L37
 450              	.LVL71:
 451 000a FFF7FEFF 		bl	u8x8_d_helper_display_setup_memory
 452              	.LVL72:
 450:..\..\..\..\..\..\Dev\Library embedded l2c display\u8g2\csrc/u8x8_d_st7528.c ****       return 1;
 453              		.loc 1 450 0
 454 000e 0120     		movs	r0, #1
 455 0010 10BD     		pop	{r4, pc}
 456              	.LVL73:
 457              	.L33:
 451:..\..\..\..\..\..\Dev\Library embedded l2c display\u8g2\csrc/u8x8_d_st7528.c ****     }
 452:..\..\..\..\..\..\Dev\Library embedded l2c display\u8g2\csrc/u8x8_d_st7528.c ****     if ( msg == U8X8_MSG_DISPLAY_INIT )
 458              		.loc 1 452 0
 459 0012 0A29     		cmp	r1, #10
 460 0014 0BD1     		bne	.L35
 453:..\..\..\..\..\..\Dev\Library embedded l2c display\u8g2\csrc/u8x8_d_st7528.c ****     {
 454:..\..\..\..\..\..\Dev\Library embedded l2c display\u8g2\csrc/u8x8_d_st7528.c ****       u8x8_d_helper_display_init(u8x8);
 461              		.loc 1 454 0
 462 0016 FFF7FEFF 		bl	u8x8_d_helper_display_init
 463              	.LVL74:
 455:..\..\..\..\..\..\Dev\Library embedded l2c display\u8g2\csrc/u8x8_d_st7528.c ****       u8x8_cad_SendSequence(u8x8, u8x8_d_st7528_erc16064_init_seq);    
 464              		.loc 1 455 0
 465 001a 0749     		ldr	r1, .L37+4
 466 001c 2046     		mov	r0, r4
 467 001e FFF7FEFF 		bl	u8x8_cad_SendSequence
 468              	.LVL75:
 456:..\..\..\..\..\..\Dev\Library embedded l2c display\u8g2\csrc/u8x8_d_st7528.c ****       u8x8_d_st7528_graylevel_init(u8x8, 0x064);
ARM GAS  C:\Users\Abude\AppData\Local\Temp\ccKI6lpd.s 			page 18


 469              		.loc 1 456 0
 470 0022 6421     		movs	r1, #100
 471 0024 2046     		mov	r0, r4
 472 0026 FFF7FEFF 		bl	u8x8_d_st7528_graylevel_init
 473              	.LVL76:
 457:..\..\..\..\..\..\Dev\Library embedded l2c display\u8g2\csrc/u8x8_d_st7528.c ****       return 1;
 474              		.loc 1 457 0
 475 002a 0120     		movs	r0, #1
 476 002c 10BD     		pop	{r4, pc}
 477              	.LVL77:
 478              	.L35:
 458:..\..\..\..\..\..\Dev\Library embedded l2c display\u8g2\csrc/u8x8_d_st7528.c ****     }    
 459:..\..\..\..\..\..\Dev\Library embedded l2c display\u8g2\csrc/u8x8_d_st7528.c ****     return u8x8_d_st7528_generic(u8x8, msg, arg_int, arg_ptr);
 479              		.loc 1 459 0
 480 002e FFF7FEFF 		bl	u8x8_d_st7528_generic
 481              	.LVL78:
 460:..\..\..\..\..\..\Dev\Library embedded l2c display\u8g2\csrc/u8x8_d_st7528.c **** }
 482              		.loc 1 460 0
 483 0032 10BD     		pop	{r4, pc}
 484              	.LVL79:
 485              	.L38:
 486              		.align	2
 487              	.L37:
 488 0034 74000000 		.word	.LANCHOR1+116
 489 0038 8C000000 		.word	.LANCHOR1+140
 490              		.cfi_endproc
 491              	.LFE4:
 492              		.size	u8x8_d_st7528_erc16064, .-u8x8_d_st7528_erc16064
 493              		.section	.rodata
 494              		.align	2
 495              		.set	.LANCHOR1,. + 0
 496              		.type	u8x8_d_st7528_powersave0_seq, %object
 497              		.size	u8x8_d_st7528_powersave0_seq, 9
 498              	u8x8_d_st7528_powersave0_seq:
 499 0000 18       		.byte	24
 500 0001 15       		.byte	21
 501 0002 38       		.byte	56
 502 0003 16       		.byte	22
 503 0004 74       		.byte	116
 504 0005 15       		.byte	21
 505 0006 AF       		.byte	-81
 506 0007 19       		.byte	25
 507 0008 FF       		.byte	-1
 508 0009 000000   		.space	3
 509              		.type	u8x8_d_st7528_powersave1_seq, %object
 510              		.size	u8x8_d_st7528_powersave1_seq, 9
 511              	u8x8_d_st7528_powersave1_seq:
 512 000c 18       		.byte	24
 513 000d 15       		.byte	21
 514 000e 38       		.byte	56
 515 000f 16       		.byte	22
 516 0010 74       		.byte	116
 517 0011 15       		.byte	21
 518 0012 AE       		.byte	-82
 519 0013 19       		.byte	25
 520 0014 FF       		.byte	-1
 521 0015 000000   		.space	3
ARM GAS  C:\Users\Abude\AppData\Local\Temp\ccKI6lpd.s 			page 19


 522              		.type	u8x8_d_st7528_flip0_seq, %object
 523              		.size	u8x8_d_st7528_flip0_seq, 7
 524              	u8x8_d_st7528_flip0_seq:
 525 0018 18       		.byte	24
 526 0019 15       		.byte	21
 527 001a A0       		.byte	-96
 528 001b 15       		.byte	21
 529 001c C8       		.byte	-56
 530 001d 19       		.byte	25
 531 001e FF       		.byte	-1
 532 001f 00       		.space	1
 533              		.type	u8x8_d_st7528_flip1_seq, %object
 534              		.size	u8x8_d_st7528_flip1_seq, 7
 535              	u8x8_d_st7528_flip1_seq:
 536 0020 18       		.byte	24
 537 0021 15       		.byte	21
 538 0022 A1       		.byte	-95
 539 0023 15       		.byte	21
 540 0024 C0       		.byte	-64
 541 0025 19       		.byte	25
 542 0026 FF       		.byte	-1
 543 0027 00       		.space	1
 544              		.type	u8x8_st7528_160x100_display_info, %object
 545              		.size	u8x8_st7528_160x100_display_info, 24
 546              	u8x8_st7528_160x100_display_info:
 547 0028 00       		.byte	0
 548 0029 01       		.byte	1
 549 002a 14       		.byte	20
 550 002b 14       		.byte	20
 551 002c 05       		.byte	5
 552 002d 05       		.byte	5
 553 002e 14       		.byte	20
 554 002f 19       		.byte	25
 555 0030 00127A00 		.word	8000000
 556 0034 00       		.byte	0
 557 0035 04       		.byte	4
 558 0036 28       		.byte	40
 559 0037 50       		.byte	80
 560 0038 14       		.byte	20
 561 0039 0D       		.byte	13
 562 003a 00       		.byte	0
 563 003b 00       		.byte	0
 564 003c A000     		.short	160
 565 003e 6400     		.short	100
 566              		.type	u8x8_d_st7528_nhd_c160100_init_seq, %object
 567              		.size	u8x8_d_st7528_nhd_c160100_init_seq, 51
 568              	u8x8_d_st7528_nhd_c160100_init_seq:
 569 0040 18       		.byte	24
 570 0041 15       		.byte	21
 571 0042 38       		.byte	56
 572 0043 16       		.byte	22
 573 0044 64       		.byte	100
 574 0045 15       		.byte	21
 575 0046 48       		.byte	72
 576 0047 16       		.byte	22
 577 0048 64       		.byte	100
 578 0049 15       		.byte	21
ARM GAS  C:\Users\Abude\AppData\Local\Temp\ccKI6lpd.s 			page 20


 579 004a A0       		.byte	-96
 580 004b 15       		.byte	21
 581 004c C8       		.byte	-56
 582 004d 15       		.byte	21
 583 004e 44       		.byte	68
 584 004f 16       		.byte	22
 585 0050 00       		.byte	0
 586 0051 15       		.byte	21
 587 0052 AB       		.byte	-85
 588 0053 15       		.byte	21
 589 0054 26       		.byte	38
 590 0055 15       		.byte	21
 591 0056 81       		.byte	-127
 592 0057 16       		.byte	22
 593 0058 15       		.byte	21
 594 0059 15       		.byte	21
 595 005a 56       		.byte	86
 596 005b 15       		.byte	21
 597 005c 64       		.byte	100
 598 005d FE       		.byte	-2
 599 005e 02       		.byte	2
 600 005f 15       		.byte	21
 601 0060 2C       		.byte	44
 602 0061 15       		.byte	21
 603 0062 66       		.byte	102
 604 0063 FE       		.byte	-2
 605 0064 02       		.byte	2
 606 0065 15       		.byte	21
 607 0066 2E       		.byte	46
 608 0067 FE       		.byte	-2
 609 0068 02       		.byte	2
 610 0069 15       		.byte	21
 611 006a 2F       		.byte	47
 612 006b 15       		.byte	21
 613 006c F3       		.byte	-13
 614 006d 16       		.byte	22
 615 006e 00       		.byte	0
 616 006f 15       		.byte	21
 617 0070 96       		.byte	-106
 618 0071 19       		.byte	25
 619 0072 FF       		.byte	-1
 620 0073 00       		.space	1
 621              		.type	u8x8_st7528_erc16064_display_info, %object
 622              		.size	u8x8_st7528_erc16064_display_info, 24
 623              	u8x8_st7528_erc16064_display_info:
 624 0074 00       		.byte	0
 625 0075 01       		.byte	1
 626 0076 14       		.byte	20
 627 0077 14       		.byte	20
 628 0078 05       		.byte	5
 629 0079 05       		.byte	5
 630 007a 14       		.byte	20
 631 007b 19       		.byte	25
 632 007c 00127A00 		.word	8000000
 633 0080 00       		.byte	0
 634 0081 04       		.byte	4
 635 0082 28       		.byte	40
ARM GAS  C:\Users\Abude\AppData\Local\Temp\ccKI6lpd.s 			page 21


 636 0083 50       		.byte	80
 637 0084 14       		.byte	20
 638 0085 08       		.byte	8
 639 0086 00       		.byte	0
 640 0087 00       		.byte	0
 641 0088 A000     		.short	160
 642 008a 4000     		.short	64
 643              		.type	u8x8_d_st7528_erc16064_init_seq, %object
 644              		.size	u8x8_d_st7528_erc16064_init_seq, 47
 645              	u8x8_d_st7528_erc16064_init_seq:
 646 008c 18       		.byte	24
 647 008d 15       		.byte	21
 648 008e 38       		.byte	56
 649 008f 16       		.byte	22
 650 0090 64       		.byte	100
 651 0091 15       		.byte	21
 652 0092 AB       		.byte	-85
 653 0093 15       		.byte	21
 654 0094 44       		.byte	68
 655 0095 16       		.byte	22
 656 0096 12       		.byte	18
 657 0097 15       		.byte	21
 658 0098 A0       		.byte	-96
 659 0099 15       		.byte	21
 660 009a C8       		.byte	-56
 661 009b 15       		.byte	21
 662 009c 66       		.byte	102
 663 009d FE       		.byte	-2
 664 009e 01       		.byte	1
 665 009f 15       		.byte	21
 666 00a0 54       		.byte	84
 667 00a1 15       		.byte	21
 668 00a2 48       		.byte	72
 669 00a3 16       		.byte	22
 670 00a4 40       		.byte	64
 671 00a5 15       		.byte	21
 672 00a6 26       		.byte	38
 673 00a7 15       		.byte	21
 674 00a8 81       		.byte	-127
 675 00a9 16       		.byte	22
 676 00aa 0B       		.byte	11
 677 00ab 15       		.byte	21
 678 00ac 2C       		.byte	44
 679 00ad FE       		.byte	-2
 680 00ae 02       		.byte	2
 681 00af 15       		.byte	21
 682 00b0 2E       		.byte	46
 683 00b1 FE       		.byte	-2
 684 00b2 02       		.byte	2
 685 00b3 15       		.byte	21
 686 00b4 2F       		.byte	47
 687 00b5 FE       		.byte	-2
 688 00b6 02       		.byte	2
 689 00b7 15       		.byte	21
 690 00b8 92       		.byte	-110
 691 00b9 19       		.byte	25
 692 00ba FF       		.byte	-1
ARM GAS  C:\Users\Abude\AppData\Local\Temp\ccKI6lpd.s 			page 22


 693              		.bss
 694              		.align	2
 695              		.set	.LANCHOR0,. + 0
 696              		.type	u8x8_st7528_8to32_dest_buf, %object
 697              		.size	u8x8_st7528_8to32_dest_buf, 32
 698              	u8x8_st7528_8to32_dest_buf:
 699 0000 00000000 		.space	32
 699      00000000 
 699      00000000 
 699      00000000 
 699      00000000 
 700              		.text
 701              	.Letext0:
 702              		.file 2 "c:\\program files (x86)\\cypress\\psoc creator\\4.4\\psoc creator\\import\\gnu\\arm\\5.4.
 703              		.file 3 "c:\\program files (x86)\\cypress\\psoc creator\\4.4\\psoc creator\\import\\gnu\\arm\\5.4.
 704              		.file 4 "c:\\dev\\library embedded l2c display\\u8g2\\csrc\\u8x8.h"