ARM GAS  C:\Users\Abude\AppData\Local\Temp\ccGSgr1b.s 			page 1


   1              		.syntax unified
   2              		.cpu cortex-m3
   3              		.fpu softvfp
   4              		.eabi_attribute 20, 1
   5              		.eabi_attribute 21, 1
   6              		.eabi_attribute 23, 3
   7              		.eabi_attribute 24, 1
   8              		.eabi_attribute 25, 1
   9              		.eabi_attribute 26, 1
  10              		.eabi_attribute 30, 1
  11              		.eabi_attribute 34, 1
  12              		.eabi_attribute 18, 4
  13              		.thumb
  14              		.syntax unified
  15              		.file	"u8x8_d_ssd1318.c"
  16              		.text
  17              	.Ltext0:
  18              		.cfi_sections	.debug_frame
  19              		.section	.text.u8x8_d_ssd1318_generic,"ax",%progbits
  20              		.align	2
  21              		.thumb
  22              		.thumb_func
  23              		.type	u8x8_d_ssd1318_generic, %function
  24              	u8x8_d_ssd1318_generic:
  25              	.LFB0:
  26              		.file 1 "..\\..\\..\\..\\..\\..\\Dev\\Library embedded l2c display\\u8g2\\csrc\\u8x8_d_ssd1318.c"
   1:..\..\..\..\..\..\Dev\Library embedded l2c display\u8g2\csrc/u8x8_d_ssd1318.c **** /*
   2:..\..\..\..\..\..\Dev\Library embedded l2c display\u8g2\csrc/u8x8_d_ssd1318.c **** 
   3:..\..\..\..\..\..\Dev\Library embedded l2c display\u8g2\csrc/u8x8_d_ssd1318.c ****   u8x8_d_ssd1318.c
   4:..\..\..\..\..\..\Dev\Library embedded l2c display\u8g2\csrc/u8x8_d_ssd1318.c **** 
   5:..\..\..\..\..\..\Dev\Library embedded l2c display\u8g2\csrc/u8x8_d_ssd1318.c ****   Universal 8bit Graphics Library (https://github.com/olikraus/u8g2/)
   6:..\..\..\..\..\..\Dev\Library embedded l2c display\u8g2\csrc/u8x8_d_ssd1318.c **** 
   7:..\..\..\..\..\..\Dev\Library embedded l2c display\u8g2\csrc/u8x8_d_ssd1318.c ****   Copyright (c) 2019, olikraus@gmail.com
   8:..\..\..\..\..\..\Dev\Library embedded l2c display\u8g2\csrc/u8x8_d_ssd1318.c ****   All rights reserved.
   9:..\..\..\..\..\..\Dev\Library embedded l2c display\u8g2\csrc/u8x8_d_ssd1318.c **** 
  10:..\..\..\..\..\..\Dev\Library embedded l2c display\u8g2\csrc/u8x8_d_ssd1318.c ****   Redistribution and use in source and binary forms, with or without modification, 
  11:..\..\..\..\..\..\Dev\Library embedded l2c display\u8g2\csrc/u8x8_d_ssd1318.c ****   are permitted provided that the following conditions are met:
  12:..\..\..\..\..\..\Dev\Library embedded l2c display\u8g2\csrc/u8x8_d_ssd1318.c **** 
  13:..\..\..\..\..\..\Dev\Library embedded l2c display\u8g2\csrc/u8x8_d_ssd1318.c ****   * Redistributions of source code must retain the above copyright notice, this list 
  14:..\..\..\..\..\..\Dev\Library embedded l2c display\u8g2\csrc/u8x8_d_ssd1318.c ****     of conditions and the following disclaimer.
  15:..\..\..\..\..\..\Dev\Library embedded l2c display\u8g2\csrc/u8x8_d_ssd1318.c ****     
  16:..\..\..\..\..\..\Dev\Library embedded l2c display\u8g2\csrc/u8x8_d_ssd1318.c ****   * Redistributions in binary form must reproduce the above copyright notice, this 
  17:..\..\..\..\..\..\Dev\Library embedded l2c display\u8g2\csrc/u8x8_d_ssd1318.c ****     list of conditions and the following disclaimer in the documentation and/or other 
  18:..\..\..\..\..\..\Dev\Library embedded l2c display\u8g2\csrc/u8x8_d_ssd1318.c ****     materials provided with the distribution.
  19:..\..\..\..\..\..\Dev\Library embedded l2c display\u8g2\csrc/u8x8_d_ssd1318.c **** 
  20:..\..\..\..\..\..\Dev\Library embedded l2c display\u8g2\csrc/u8x8_d_ssd1318.c ****   THIS SOFTWARE IS PROVIDED BY THE COPYRIGHT HOLDERS AND 
  21:..\..\..\..\..\..\Dev\Library embedded l2c display\u8g2\csrc/u8x8_d_ssd1318.c ****   CONTRIBUTORS "AS IS" AND ANY EXPRESS OR IMPLIED WARRANTIES, 
  22:..\..\..\..\..\..\Dev\Library embedded l2c display\u8g2\csrc/u8x8_d_ssd1318.c ****   INCLUDING, BUT NOT LIMITED TO, THE IMPLIED WARRANTIES OF 
  23:..\..\..\..\..\..\Dev\Library embedded l2c display\u8g2\csrc/u8x8_d_ssd1318.c ****   MERCHANTABILITY AND FITNESS FOR A PARTICULAR PURPOSE ARE 
  24:..\..\..\..\..\..\Dev\Library embedded l2c display\u8g2\csrc/u8x8_d_ssd1318.c ****   DISCLAIMED. IN NO EVENT SHALL THE COPYRIGHT HOLDER OR 
  25:..\..\..\..\..\..\Dev\Library embedded l2c display\u8g2\csrc/u8x8_d_ssd1318.c ****   CONTRIBUTORS BE LIABLE FOR ANY DIRECT, INDIRECT, INCIDENTAL, 
  26:..\..\..\..\..\..\Dev\Library embedded l2c display\u8g2\csrc/u8x8_d_ssd1318.c ****   SPECIAL, EXEMPLARY, OR CONSEQUENTIAL DAMAGES (INCLUDING, BUT 
  27:..\..\..\..\..\..\Dev\Library embedded l2c display\u8g2\csrc/u8x8_d_ssd1318.c ****   NOT LIMITED TO, PROCUREMENT OF SUBSTITUTE GOODS OR SERVICES; 
  28:..\..\..\..\..\..\Dev\Library embedded l2c display\u8g2\csrc/u8x8_d_ssd1318.c ****   LOSS OF USE, DATA, OR PROFITS; OR BUSINESS INTERRUPTION) HOWEVER 
  29:..\..\..\..\..\..\Dev\Library embedded l2c display\u8g2\csrc/u8x8_d_ssd1318.c ****   CAUSED AND ON ANY THEORY OF LIABILITY, WHETHER IN CONTRACT, 
  30:..\..\..\..\..\..\Dev\Library embedded l2c display\u8g2\csrc/u8x8_d_ssd1318.c ****   STRICT LIABILITY, OR TORT (INCLUDING NEGLIGENCE OR OTHERWISE) 
  31:..\..\..\..\..\..\Dev\Library embedded l2c display\u8g2\csrc/u8x8_d_ssd1318.c ****   ARISING IN ANY WAY OUT OF THE USE OF THIS SOFTWARE, EVEN IF 
ARM GAS  C:\Users\Abude\AppData\Local\Temp\ccGSgr1b.s 			page 2


  32:..\..\..\..\..\..\Dev\Library embedded l2c display\u8g2\csrc/u8x8_d_ssd1318.c ****   ADVISED OF THE POSSIBILITY OF SUCH DAMAGE.  
  33:..\..\..\..\..\..\Dev\Library embedded l2c display\u8g2\csrc/u8x8_d_ssd1318.c **** 
  34:..\..\..\..\..\..\Dev\Library embedded l2c display\u8g2\csrc/u8x8_d_ssd1318.c **** 
  35:..\..\..\..\..\..\Dev\Library embedded l2c display\u8g2\csrc/u8x8_d_ssd1318.c ****   SSD1318: 128x96 OLED
  36:..\..\..\..\..\..\Dev\Library embedded l2c display\u8g2\csrc/u8x8_d_ssd1318.c ****   
  37:..\..\..\..\..\..\Dev\Library embedded l2c display\u8g2\csrc/u8x8_d_ssd1318.c ****   https://github.com/olikraus/u8g2/issues/784
  38:..\..\..\..\..\..\Dev\Library embedded l2c display\u8g2\csrc/u8x8_d_ssd1318.c **** 
  39:..\..\..\..\..\..\Dev\Library embedded l2c display\u8g2\csrc/u8x8_d_ssd1318.c **** */
  40:..\..\..\..\..\..\Dev\Library embedded l2c display\u8g2\csrc/u8x8_d_ssd1318.c **** 
  41:..\..\..\..\..\..\Dev\Library embedded l2c display\u8g2\csrc/u8x8_d_ssd1318.c **** 
  42:..\..\..\..\..\..\Dev\Library embedded l2c display\u8g2\csrc/u8x8_d_ssd1318.c **** #include "u8x8.h"
  43:..\..\..\..\..\..\Dev\Library embedded l2c display\u8g2\csrc/u8x8_d_ssd1318.c **** 
  44:..\..\..\..\..\..\Dev\Library embedded l2c display\u8g2\csrc/u8x8_d_ssd1318.c **** 
  45:..\..\..\..\..\..\Dev\Library embedded l2c display\u8g2\csrc/u8x8_d_ssd1318.c **** 
  46:..\..\..\..\..\..\Dev\Library embedded l2c display\u8g2\csrc/u8x8_d_ssd1318.c **** /* with internal charge pump (icp) */
  47:..\..\..\..\..\..\Dev\Library embedded l2c display\u8g2\csrc/u8x8_d_ssd1318.c **** static const uint8_t u8x8_d_ssd1318_128x96_icp_init_seq[] = {
  48:..\..\..\..\..\..\Dev\Library embedded l2c display\u8g2\csrc/u8x8_d_ssd1318.c ****     
  49:..\..\..\..\..\..\Dev\Library embedded l2c display\u8g2\csrc/u8x8_d_ssd1318.c ****   U8X8_START_TRANSFER(),             	/* enable chip, delay is part of the transfer start */
  50:..\..\..\..\..\..\Dev\Library embedded l2c display\u8g2\csrc/u8x8_d_ssd1318.c ****   
  51:..\..\..\..\..\..\Dev\Library embedded l2c display\u8g2\csrc/u8x8_d_ssd1318.c ****   
  52:..\..\..\..\..\..\Dev\Library embedded l2c display\u8g2\csrc/u8x8_d_ssd1318.c ****   U8X8_CA(0x0fd, 0x012),		/* unlock */
  53:..\..\..\..\..\..\Dev\Library embedded l2c display\u8g2\csrc/u8x8_d_ssd1318.c ****   U8X8_C(0x0ae),		                /* display off */
  54:..\..\..\..\..\..\Dev\Library embedded l2c display\u8g2\csrc/u8x8_d_ssd1318.c ****   U8X8_CA(0x0ad, 0x0d0),		/* external or internal IREF selection */
  55:..\..\..\..\..\..\Dev\Library embedded l2c display\u8g2\csrc/u8x8_d_ssd1318.c ****   U8X8_CA(0x0a8, 0x05f),		/* multiplex ratio, 96 duty */
  56:..\..\..\..\..\..\Dev\Library embedded l2c display\u8g2\csrc/u8x8_d_ssd1318.c ****   U8X8_CA(0x0d3, 0x000),		/* display offset */
  57:..\..\..\..\..\..\Dev\Library embedded l2c display\u8g2\csrc/u8x8_d_ssd1318.c ****   U8X8_CA(0x0a2, 0x000),		/* start line */
  58:..\..\..\..\..\..\Dev\Library embedded l2c display\u8g2\csrc/u8x8_d_ssd1318.c ****   
  59:..\..\..\..\..\..\Dev\Library embedded l2c display\u8g2\csrc/u8x8_d_ssd1318.c ****   
  60:..\..\..\..\..\..\Dev\Library embedded l2c display\u8g2\csrc/u8x8_d_ssd1318.c ****   // four possible charge pump setting from as per sec 6.8.2 of the ssd1318 datasheet
  61:..\..\..\..\..\..\Dev\Library embedded l2c display\u8g2\csrc/u8x8_d_ssd1318.c ****   // uncomment only one of the below for lines  
  62:..\..\..\..\..\..\Dev\Library embedded l2c display\u8g2\csrc/u8x8_d_ssd1318.c ****   // default: 
  63:..\..\..\..\..\..\Dev\Library embedded l2c display\u8g2\csrc/u8x8_d_ssd1318.c ****   // U8X8_CA(0x08d, 0x004, 0x0ac, 0x001),		/* Charge pump setting from sec 6.8.2 of SSD1318 datashe
  64:..\..\..\..\..\..\Dev\Library embedded l2c display\u8g2\csrc/u8x8_d_ssd1318.c ****   // U8X8_CA(0x08d, 0x044, 0x0ac, 0x001),		/* Charge pump setting from sec 6.8.2 of SSD1318 datashe
  65:..\..\..\..\..\..\Dev\Library embedded l2c display\u8g2\csrc/u8x8_d_ssd1318.c ****   // U8X8_CA(0x08d, 0x084, 0x0ac, 0x001),		/* Charge pump setting from sec 6.8.2 of SSD1318 datashe
  66:..\..\..\..\..\..\Dev\Library embedded l2c display\u8g2\csrc/u8x8_d_ssd1318.c ****   U8X8_CAAA(0x08d, 0x0c4, 0x0ac, 0x001),		/* Charge pump setting from sec 6.8.2 of SSD1318 datashee
  67:..\..\..\..\..\..\Dev\Library embedded l2c display\u8g2\csrc/u8x8_d_ssd1318.c ****   
  68:..\..\..\..\..\..\Dev\Library embedded l2c display\u8g2\csrc/u8x8_d_ssd1318.c **** 
  69:..\..\..\..\..\..\Dev\Library embedded l2c display\u8g2\csrc/u8x8_d_ssd1318.c ****   U8X8_C(0x0a1),				/* segment remap a0/a1*/
  70:..\..\..\..\..\..\Dev\Library embedded l2c display\u8g2\csrc/u8x8_d_ssd1318.c ****   U8X8_C(0x0c0),				/* c0: scan dir normal, c8: reverse */
  71:..\..\..\..\..\..\Dev\Library embedded l2c display\u8g2\csrc/u8x8_d_ssd1318.c ****   // Flipmode
  72:..\..\..\..\..\..\Dev\Library embedded l2c display\u8g2\csrc/u8x8_d_ssd1318.c ****   // U8X8_C(0x0a0),				/* segment remap a0/a1*/
  73:..\..\..\..\..\..\Dev\Library embedded l2c display\u8g2\csrc/u8x8_d_ssd1318.c ****   // U8X8_C(0x0c8),				/* c0: scan dir normal, c8: reverse */
  74:..\..\..\..\..\..\Dev\Library embedded l2c display\u8g2\csrc/u8x8_d_ssd1318.c ****   
  75:..\..\..\..\..\..\Dev\Library embedded l2c display\u8g2\csrc/u8x8_d_ssd1318.c ****   U8X8_CA(0x0da, 0x012),		/* com pin HW config, sequential com pin config (bit 4), disable left/rig
  76:..\..\..\..\..\..\Dev\Library embedded l2c display\u8g2\csrc/u8x8_d_ssd1318.c **** 
  77:..\..\..\..\..\..\Dev\Library embedded l2c display\u8g2\csrc/u8x8_d_ssd1318.c ****   U8X8_CA(0x081, 0x00f), 		/* value from issue 784, seems to be a little bit low... */
  78:..\..\..\..\..\..\Dev\Library embedded l2c display\u8g2\csrc/u8x8_d_ssd1318.c ****   
  79:..\..\..\..\..\..\Dev\Library embedded l2c display\u8g2\csrc/u8x8_d_ssd1318.c ****   
  80:..\..\..\..\..\..\Dev\Library embedded l2c display\u8g2\csrc/u8x8_d_ssd1318.c ****   U8X8_CA(0x0d5, 0x0d1),		/* clock divide ratio (0x00=1) and oscillator frequency (0x8), value from
  81:..\..\..\..\..\..\Dev\Library embedded l2c display\u8g2\csrc/u8x8_d_ssd1318.c ****   U8X8_CA(0x0d9, 0x022), 		/* [2] pre-charge period 0x022/f1, value from issue 784 example code */
  82:..\..\..\..\..\..\Dev\Library embedded l2c display\u8g2\csrc/u8x8_d_ssd1318.c ****   U8X8_CA(0x0db, 0x030), 		/* vcomh deselect level, value from issue 784 example code  */  
  83:..\..\..\..\..\..\Dev\Library embedded l2c display\u8g2\csrc/u8x8_d_ssd1318.c ****   
  84:..\..\..\..\..\..\Dev\Library embedded l2c display\u8g2\csrc/u8x8_d_ssd1318.c ****   
  85:..\..\..\..\..\..\Dev\Library embedded l2c display\u8g2\csrc/u8x8_d_ssd1318.c ****   //U8X8_CA(0x020, 0x000),		/* horizontal addressing mode */
  86:..\..\..\..\..\..\Dev\Library embedded l2c display\u8g2\csrc/u8x8_d_ssd1318.c ****   //U8X8_C(0x02e),				/* Deactivate scroll */ 
  87:..\..\..\..\..\..\Dev\Library embedded l2c display\u8g2\csrc/u8x8_d_ssd1318.c ****   
  88:..\..\..\..\..\..\Dev\Library embedded l2c display\u8g2\csrc/u8x8_d_ssd1318.c ****   U8X8_C(0x0a4),				/* output ram to display */
ARM GAS  C:\Users\Abude\AppData\Local\Temp\ccGSgr1b.s 			page 3


  89:..\..\..\..\..\..\Dev\Library embedded l2c display\u8g2\csrc/u8x8_d_ssd1318.c ****   U8X8_C(0x0a6),				/* none inverted normal display mode */
  90:..\..\..\..\..\..\Dev\Library embedded l2c display\u8g2\csrc/u8x8_d_ssd1318.c ****     
  91:..\..\..\..\..\..\Dev\Library embedded l2c display\u8g2\csrc/u8x8_d_ssd1318.c ****   U8X8_END_TRANSFER(),             	/* disable chip */
  92:..\..\..\..\..\..\Dev\Library embedded l2c display\u8g2\csrc/u8x8_d_ssd1318.c ****   U8X8_END()             			/* end of sequence */
  93:..\..\..\..\..\..\Dev\Library embedded l2c display\u8g2\csrc/u8x8_d_ssd1318.c **** };
  94:..\..\..\..\..\..\Dev\Library embedded l2c display\u8g2\csrc/u8x8_d_ssd1318.c **** 
  95:..\..\..\..\..\..\Dev\Library embedded l2c display\u8g2\csrc/u8x8_d_ssd1318.c **** 
  96:..\..\..\..\..\..\Dev\Library embedded l2c display\u8g2\csrc/u8x8_d_ssd1318.c **** /* with external charge pump */
  97:..\..\..\..\..\..\Dev\Library embedded l2c display\u8g2\csrc/u8x8_d_ssd1318.c **** static const uint8_t u8x8_d_ssd1318_128x96_xcp_init_seq[] = {
  98:..\..\..\..\..\..\Dev\Library embedded l2c display\u8g2\csrc/u8x8_d_ssd1318.c ****     
  99:..\..\..\..\..\..\Dev\Library embedded l2c display\u8g2\csrc/u8x8_d_ssd1318.c ****   U8X8_START_TRANSFER(),             	/* enable chip, delay is part of the transfer start */
 100:..\..\..\..\..\..\Dev\Library embedded l2c display\u8g2\csrc/u8x8_d_ssd1318.c ****   
 101:..\..\..\..\..\..\Dev\Library embedded l2c display\u8g2\csrc/u8x8_d_ssd1318.c ****   
 102:..\..\..\..\..\..\Dev\Library embedded l2c display\u8g2\csrc/u8x8_d_ssd1318.c ****   U8X8_CA(0x0fd, 0x012),		/* unlock */
 103:..\..\..\..\..\..\Dev\Library embedded l2c display\u8g2\csrc/u8x8_d_ssd1318.c ****   U8X8_C(0x0ae),		                /* display off */
 104:..\..\..\..\..\..\Dev\Library embedded l2c display\u8g2\csrc/u8x8_d_ssd1318.c ****   U8X8_CA(0x0ad, 0x0d0),		/* external or internal IREF selection */
 105:..\..\..\..\..\..\Dev\Library embedded l2c display\u8g2\csrc/u8x8_d_ssd1318.c ****   U8X8_CA(0x0a8, 0x05f),		/* multiplex ratio, 96 duty */
 106:..\..\..\..\..\..\Dev\Library embedded l2c display\u8g2\csrc/u8x8_d_ssd1318.c ****   U8X8_CA(0x0d3, 0x000),		/* display offset */
 107:..\..\..\..\..\..\Dev\Library embedded l2c display\u8g2\csrc/u8x8_d_ssd1318.c ****   U8X8_CA(0x0a2, 0x000),		/* start line */
 108:..\..\..\..\..\..\Dev\Library embedded l2c display\u8g2\csrc/u8x8_d_ssd1318.c ****   
 109:..\..\..\..\..\..\Dev\Library embedded l2c display\u8g2\csrc/u8x8_d_ssd1318.c ****   
 110:..\..\..\..\..\..\Dev\Library embedded l2c display\u8g2\csrc/u8x8_d_ssd1318.c ****   // not sure if we have to set something for external charge pump
 111:..\..\..\..\..\..\Dev\Library embedded l2c display\u8g2\csrc/u8x8_d_ssd1318.c ****   // ...
 112:..\..\..\..\..\..\Dev\Library embedded l2c display\u8g2\csrc/u8x8_d_ssd1318.c ****   
 113:..\..\..\..\..\..\Dev\Library embedded l2c display\u8g2\csrc/u8x8_d_ssd1318.c **** 
 114:..\..\..\..\..\..\Dev\Library embedded l2c display\u8g2\csrc/u8x8_d_ssd1318.c ****   U8X8_C(0x0a1),				/* segment remap a0/a1*/
 115:..\..\..\..\..\..\Dev\Library embedded l2c display\u8g2\csrc/u8x8_d_ssd1318.c ****   U8X8_C(0x0c0),				/* c0: scan dir normal, c8: reverse */
 116:..\..\..\..\..\..\Dev\Library embedded l2c display\u8g2\csrc/u8x8_d_ssd1318.c ****   // Flipmode
 117:..\..\..\..\..\..\Dev\Library embedded l2c display\u8g2\csrc/u8x8_d_ssd1318.c ****   // U8X8_C(0x0a0),				/* segment remap a0/a1*/
 118:..\..\..\..\..\..\Dev\Library embedded l2c display\u8g2\csrc/u8x8_d_ssd1318.c ****   // U8X8_C(0x0c8),				/* c0: scan dir normal, c8: reverse */
 119:..\..\..\..\..\..\Dev\Library embedded l2c display\u8g2\csrc/u8x8_d_ssd1318.c ****   
 120:..\..\..\..\..\..\Dev\Library embedded l2c display\u8g2\csrc/u8x8_d_ssd1318.c ****   U8X8_CA(0x0da, 0x012),		/* com pin HW config, sequential com pin config (bit 4), disable left/rig
 121:..\..\..\..\..\..\Dev\Library embedded l2c display\u8g2\csrc/u8x8_d_ssd1318.c **** 
 122:..\..\..\..\..\..\Dev\Library embedded l2c display\u8g2\csrc/u8x8_d_ssd1318.c ****   U8X8_CA(0x081, 0x00f), 		/* value from issue 784, seems to be a little bit low... */
 123:..\..\..\..\..\..\Dev\Library embedded l2c display\u8g2\csrc/u8x8_d_ssd1318.c ****   
 124:..\..\..\..\..\..\Dev\Library embedded l2c display\u8g2\csrc/u8x8_d_ssd1318.c ****   
 125:..\..\..\..\..\..\Dev\Library embedded l2c display\u8g2\csrc/u8x8_d_ssd1318.c ****   U8X8_CA(0x0d5, 0x0d1),		/* clock divide ratio (0x00=1) and oscillator frequency (0x8), value from
 126:..\..\..\..\..\..\Dev\Library embedded l2c display\u8g2\csrc/u8x8_d_ssd1318.c ****   U8X8_CA(0x0d9, 0x022), 		/* [2] pre-charge period 0x022/f1, value from issue 784 example code */
 127:..\..\..\..\..\..\Dev\Library embedded l2c display\u8g2\csrc/u8x8_d_ssd1318.c ****   U8X8_CA(0x0db, 0x030), 		/* vcomh deselect level, value from issue 784 example code  */  
 128:..\..\..\..\..\..\Dev\Library embedded l2c display\u8g2\csrc/u8x8_d_ssd1318.c ****   
 129:..\..\..\..\..\..\Dev\Library embedded l2c display\u8g2\csrc/u8x8_d_ssd1318.c ****   
 130:..\..\..\..\..\..\Dev\Library embedded l2c display\u8g2\csrc/u8x8_d_ssd1318.c ****   //U8X8_CA(0x020, 0x000),		/* horizontal addressing mode */
 131:..\..\..\..\..\..\Dev\Library embedded l2c display\u8g2\csrc/u8x8_d_ssd1318.c ****   //U8X8_C(0x02e),				/* Deactivate scroll */ 
 132:..\..\..\..\..\..\Dev\Library embedded l2c display\u8g2\csrc/u8x8_d_ssd1318.c ****   
 133:..\..\..\..\..\..\Dev\Library embedded l2c display\u8g2\csrc/u8x8_d_ssd1318.c ****   U8X8_C(0x0a4),				/* output ram to display */
 134:..\..\..\..\..\..\Dev\Library embedded l2c display\u8g2\csrc/u8x8_d_ssd1318.c ****   U8X8_C(0x0a6),				/* none inverted normal display mode */
 135:..\..\..\..\..\..\Dev\Library embedded l2c display\u8g2\csrc/u8x8_d_ssd1318.c ****     
 136:..\..\..\..\..\..\Dev\Library embedded l2c display\u8g2\csrc/u8x8_d_ssd1318.c ****   U8X8_END_TRANSFER(),             	/* disable chip */
 137:..\..\..\..\..\..\Dev\Library embedded l2c display\u8g2\csrc/u8x8_d_ssd1318.c ****   U8X8_END()             			/* end of sequence */
 138:..\..\..\..\..\..\Dev\Library embedded l2c display\u8g2\csrc/u8x8_d_ssd1318.c **** };
 139:..\..\..\..\..\..\Dev\Library embedded l2c display\u8g2\csrc/u8x8_d_ssd1318.c **** 
 140:..\..\..\..\..\..\Dev\Library embedded l2c display\u8g2\csrc/u8x8_d_ssd1318.c **** 
 141:..\..\..\..\..\..\Dev\Library embedded l2c display\u8g2\csrc/u8x8_d_ssd1318.c **** static const uint8_t u8x8_d_ssd1318_128x96_powersave0_seq[] = {
 142:..\..\..\..\..\..\Dev\Library embedded l2c display\u8g2\csrc/u8x8_d_ssd1318.c ****   U8X8_START_TRANSFER(),             	/* enable chip, delay is part of the transfer start */
 143:..\..\..\..\..\..\Dev\Library embedded l2c display\u8g2\csrc/u8x8_d_ssd1318.c ****   U8X8_C(0x0af),		                /* display on */
 144:..\..\..\..\..\..\Dev\Library embedded l2c display\u8g2\csrc/u8x8_d_ssd1318.c ****   U8X8_END_TRANSFER(),             	/* disable chip */
 145:..\..\..\..\..\..\Dev\Library embedded l2c display\u8g2\csrc/u8x8_d_ssd1318.c ****   U8X8_END()             			/* end of sequence */
ARM GAS  C:\Users\Abude\AppData\Local\Temp\ccGSgr1b.s 			page 4


 146:..\..\..\..\..\..\Dev\Library embedded l2c display\u8g2\csrc/u8x8_d_ssd1318.c **** };
 147:..\..\..\..\..\..\Dev\Library embedded l2c display\u8g2\csrc/u8x8_d_ssd1318.c **** 
 148:..\..\..\..\..\..\Dev\Library embedded l2c display\u8g2\csrc/u8x8_d_ssd1318.c **** static const uint8_t u8x8_d_ssd1318_128x96_powersave1_seq[] = {
 149:..\..\..\..\..\..\Dev\Library embedded l2c display\u8g2\csrc/u8x8_d_ssd1318.c ****   U8X8_START_TRANSFER(),             	/* enable chip, delay is part of the transfer start */
 150:..\..\..\..\..\..\Dev\Library embedded l2c display\u8g2\csrc/u8x8_d_ssd1318.c ****   U8X8_C(0x0ae),		                /* display off */
 151:..\..\..\..\..\..\Dev\Library embedded l2c display\u8g2\csrc/u8x8_d_ssd1318.c ****   U8X8_END_TRANSFER(),             	/* disable chip */
 152:..\..\..\..\..\..\Dev\Library embedded l2c display\u8g2\csrc/u8x8_d_ssd1318.c ****   U8X8_END()             			/* end of sequence */
 153:..\..\..\..\..\..\Dev\Library embedded l2c display\u8g2\csrc/u8x8_d_ssd1318.c **** };
 154:..\..\..\..\..\..\Dev\Library embedded l2c display\u8g2\csrc/u8x8_d_ssd1318.c **** 
 155:..\..\..\..\..\..\Dev\Library embedded l2c display\u8g2\csrc/u8x8_d_ssd1318.c **** static const uint8_t u8x8_d_ssd1318_128x96_flip0_seq[] = {
 156:..\..\..\..\..\..\Dev\Library embedded l2c display\u8g2\csrc/u8x8_d_ssd1318.c ****   U8X8_START_TRANSFER(),             	/* enable chip, delay is part of the transfer start */
 157:..\..\..\..\..\..\Dev\Library embedded l2c display\u8g2\csrc/u8x8_d_ssd1318.c ****   U8X8_C(0x0a1),				/* segment remap a0/a1*/
 158:..\..\..\..\..\..\Dev\Library embedded l2c display\u8g2\csrc/u8x8_d_ssd1318.c ****   U8X8_C(0x0c0),				/* c0: scan dir normal, c8: reverse */
 159:..\..\..\..\..\..\Dev\Library embedded l2c display\u8g2\csrc/u8x8_d_ssd1318.c ****   U8X8_END_TRANSFER(),             	/* disable chip */
 160:..\..\..\..\..\..\Dev\Library embedded l2c display\u8g2\csrc/u8x8_d_ssd1318.c ****   U8X8_END()             			/* end of sequence */
 161:..\..\..\..\..\..\Dev\Library embedded l2c display\u8g2\csrc/u8x8_d_ssd1318.c **** };
 162:..\..\..\..\..\..\Dev\Library embedded l2c display\u8g2\csrc/u8x8_d_ssd1318.c **** 
 163:..\..\..\..\..\..\Dev\Library embedded l2c display\u8g2\csrc/u8x8_d_ssd1318.c **** static const uint8_t u8x8_d_ssd1318_128x96_flip1_seq[] = {
 164:..\..\..\..\..\..\Dev\Library embedded l2c display\u8g2\csrc/u8x8_d_ssd1318.c ****   U8X8_START_TRANSFER(),             	/* enable chip, delay is part of the transfer start */
 165:..\..\..\..\..\..\Dev\Library embedded l2c display\u8g2\csrc/u8x8_d_ssd1318.c ****   U8X8_C(0x0a0),				/* segment remap a0/a1*/
 166:..\..\..\..\..\..\Dev\Library embedded l2c display\u8g2\csrc/u8x8_d_ssd1318.c ****   U8X8_C(0x0c8),				/* c0: scan dir normal, c8: reverse */
 167:..\..\..\..\..\..\Dev\Library embedded l2c display\u8g2\csrc/u8x8_d_ssd1318.c ****   U8X8_END_TRANSFER(),             	/* disable chip */
 168:..\..\..\..\..\..\Dev\Library embedded l2c display\u8g2\csrc/u8x8_d_ssd1318.c ****   U8X8_END()             			/* end of sequence */
 169:..\..\..\..\..\..\Dev\Library embedded l2c display\u8g2\csrc/u8x8_d_ssd1318.c **** };
 170:..\..\..\..\..\..\Dev\Library embedded l2c display\u8g2\csrc/u8x8_d_ssd1318.c **** 
 171:..\..\..\..\..\..\Dev\Library embedded l2c display\u8g2\csrc/u8x8_d_ssd1318.c **** 
 172:..\..\..\..\..\..\Dev\Library embedded l2c display\u8g2\csrc/u8x8_d_ssd1318.c **** static uint8_t u8x8_d_ssd1318_generic(u8x8_t *u8x8, uint8_t msg, uint8_t arg_int, void *arg_ptr)
 173:..\..\..\..\..\..\Dev\Library embedded l2c display\u8g2\csrc/u8x8_d_ssd1318.c **** {
  27              		.loc 1 173 0
  28              		.cfi_startproc
  29              		@ args = 0, pretend = 0, frame = 0
  30              		@ frame_needed = 0, uses_anonymous_args = 0
  31              	.LVL0:
  32 0000 F8B5     		push	{r3, r4, r5, r6, r7, lr}
  33              		.cfi_def_cfa_offset 24
  34              		.cfi_offset 3, -24
  35              		.cfi_offset 4, -20
  36              		.cfi_offset 5, -16
  37              		.cfi_offset 6, -12
  38              		.cfi_offset 7, -8
  39              		.cfi_offset 14, -4
  40 0002 0546     		mov	r5, r0
  41 0004 1446     		mov	r4, r2
  42 0006 1E46     		mov	r6, r3
 174:..\..\..\..\..\..\Dev\Library embedded l2c display\u8g2\csrc/u8x8_d_ssd1318.c ****   uint8_t x, c;
 175:..\..\..\..\..\..\Dev\Library embedded l2c display\u8g2\csrc/u8x8_d_ssd1318.c ****   uint8_t *ptr;
 176:..\..\..\..\..\..\Dev\Library embedded l2c display\u8g2\csrc/u8x8_d_ssd1318.c ****   switch(msg)
  43              		.loc 1 176 0
  44 0008 0B39     		subs	r1, r1, #11
  45              	.LVL1:
  46 000a 0429     		cmp	r1, #4
  47 000c 60D8     		bhi	.L11
  48 000e DFE801F0 		tbb	[pc, r1]
  49              	.LVL2:
  50              	.L4:
  51 0012 03       		.byte	(.L3-.L4)/2
  52 0013 5F       		.byte	(.L11-.L4)/2
ARM GAS  C:\Users\Abude\AppData\Local\Temp\ccGSgr1b.s 			page 5


  53 0014 0E       		.byte	(.L5-.L4)/2
  54 0015 21       		.byte	(.L6-.L4)/2
  55 0016 30       		.byte	(.L7-.L4)/2
  56 0017 00       		.p2align 1
  57              	.L3:
 177:..\..\..\..\..\..\Dev\Library embedded l2c display\u8g2\csrc/u8x8_d_ssd1318.c ****   {
 178:..\..\..\..\..\..\Dev\Library embedded l2c display\u8g2\csrc/u8x8_d_ssd1318.c ****     /* handled by the calling function
 179:..\..\..\..\..\..\Dev\Library embedded l2c display\u8g2\csrc/u8x8_d_ssd1318.c ****     case U8X8_MSG_DISPLAY_SETUP_MEMORY:
 180:..\..\..\..\..\..\Dev\Library embedded l2c display\u8g2\csrc/u8x8_d_ssd1318.c ****       u8x8_d_helper_display_setup_memory(u8x8, &u8x8_ssd1318_128x96_display_info);
 181:..\..\..\..\..\..\Dev\Library embedded l2c display\u8g2\csrc/u8x8_d_ssd1318.c ****       break;
 182:..\..\..\..\..\..\Dev\Library embedded l2c display\u8g2\csrc/u8x8_d_ssd1318.c ****     */
 183:..\..\..\..\..\..\Dev\Library embedded l2c display\u8g2\csrc/u8x8_d_ssd1318.c ****     /* handled by the calling function
 184:..\..\..\..\..\..\Dev\Library embedded l2c display\u8g2\csrc/u8x8_d_ssd1318.c ****     case U8X8_MSG_DISPLAY_INIT:
 185:..\..\..\..\..\..\Dev\Library embedded l2c display\u8g2\csrc/u8x8_d_ssd1318.c ****       u8x8_d_helper_display_init(u8x8);
 186:..\..\..\..\..\..\Dev\Library embedded l2c display\u8g2\csrc/u8x8_d_ssd1318.c ****       u8x8_cad_SendSequence(u8x8, u8x8_d_ssd1318_128x96_init_seq);    
 187:..\..\..\..\..\..\Dev\Library embedded l2c display\u8g2\csrc/u8x8_d_ssd1318.c ****       break;
 188:..\..\..\..\..\..\Dev\Library embedded l2c display\u8g2\csrc/u8x8_d_ssd1318.c ****     */
 189:..\..\..\..\..\..\Dev\Library embedded l2c display\u8g2\csrc/u8x8_d_ssd1318.c ****     case U8X8_MSG_DISPLAY_SET_POWER_SAVE:
 190:..\..\..\..\..\..\Dev\Library embedded l2c display\u8g2\csrc/u8x8_d_ssd1318.c ****       if ( arg_int == 0 )
  58              		.loc 1 190 0
  59 0018 22B9     		cbnz	r2, .L8
 191:..\..\..\..\..\..\Dev\Library embedded l2c display\u8g2\csrc/u8x8_d_ssd1318.c **** 	u8x8_cad_SendSequence(u8x8, u8x8_d_ssd1318_128x96_powersave0_seq);
  60              		.loc 1 191 0
  61 001a 2E49     		ldr	r1, .L13
  62 001c FFF7FEFF 		bl	u8x8_cad_SendSequence
  63              	.LVL3:
 192:..\..\..\..\..\..\Dev\Library embedded l2c display\u8g2\csrc/u8x8_d_ssd1318.c ****       else
 193:..\..\..\..\..\..\Dev\Library embedded l2c display\u8g2\csrc/u8x8_d_ssd1318.c **** 	u8x8_cad_SendSequence(u8x8, u8x8_d_ssd1318_128x96_powersave1_seq);
 194:..\..\..\..\..\..\Dev\Library embedded l2c display\u8g2\csrc/u8x8_d_ssd1318.c ****       break;
 195:..\..\..\..\..\..\Dev\Library embedded l2c display\u8g2\csrc/u8x8_d_ssd1318.c ****     case U8X8_MSG_DISPLAY_SET_FLIP_MODE:
 196:..\..\..\..\..\..\Dev\Library embedded l2c display\u8g2\csrc/u8x8_d_ssd1318.c ****       if ( arg_int == 0 )
 197:..\..\..\..\..\..\Dev\Library embedded l2c display\u8g2\csrc/u8x8_d_ssd1318.c ****       {
 198:..\..\..\..\..\..\Dev\Library embedded l2c display\u8g2\csrc/u8x8_d_ssd1318.c **** 	u8x8_cad_SendSequence(u8x8, u8x8_d_ssd1318_128x96_flip0_seq);
 199:..\..\..\..\..\..\Dev\Library embedded l2c display\u8g2\csrc/u8x8_d_ssd1318.c **** 	u8x8->x_offset = u8x8->display_info->default_x_offset;
 200:..\..\..\..\..\..\Dev\Library embedded l2c display\u8g2\csrc/u8x8_d_ssd1318.c ****       }
 201:..\..\..\..\..\..\Dev\Library embedded l2c display\u8g2\csrc/u8x8_d_ssd1318.c ****       else
 202:..\..\..\..\..\..\Dev\Library embedded l2c display\u8g2\csrc/u8x8_d_ssd1318.c ****       {
 203:..\..\..\..\..\..\Dev\Library embedded l2c display\u8g2\csrc/u8x8_d_ssd1318.c **** 	u8x8_cad_SendSequence(u8x8, u8x8_d_ssd1318_128x96_flip1_seq);
 204:..\..\..\..\..\..\Dev\Library embedded l2c display\u8g2\csrc/u8x8_d_ssd1318.c **** 	u8x8->x_offset = u8x8->display_info->flipmode_x_offset;
 205:..\..\..\..\..\..\Dev\Library embedded l2c display\u8g2\csrc/u8x8_d_ssd1318.c ****       }
 206:..\..\..\..\..\..\Dev\Library embedded l2c display\u8g2\csrc/u8x8_d_ssd1318.c ****       break;
 207:..\..\..\..\..\..\Dev\Library embedded l2c display\u8g2\csrc/u8x8_d_ssd1318.c **** #ifdef U8X8_WITH_SET_CONTRAST
 208:..\..\..\..\..\..\Dev\Library embedded l2c display\u8g2\csrc/u8x8_d_ssd1318.c ****     case U8X8_MSG_DISPLAY_SET_CONTRAST:
 209:..\..\..\..\..\..\Dev\Library embedded l2c display\u8g2\csrc/u8x8_d_ssd1318.c ****       u8x8_cad_StartTransfer(u8x8);
 210:..\..\..\..\..\..\Dev\Library embedded l2c display\u8g2\csrc/u8x8_d_ssd1318.c ****       u8x8_cad_SendCmd(u8x8, 0x081 );
 211:..\..\..\..\..\..\Dev\Library embedded l2c display\u8g2\csrc/u8x8_d_ssd1318.c ****       u8x8_cad_SendArg(u8x8, arg_int );	/* ssd1318 has range from 0 to 255 */
 212:..\..\..\..\..\..\Dev\Library embedded l2c display\u8g2\csrc/u8x8_d_ssd1318.c ****       u8x8_cad_EndTransfer(u8x8);
 213:..\..\..\..\..\..\Dev\Library embedded l2c display\u8g2\csrc/u8x8_d_ssd1318.c ****       break;
 214:..\..\..\..\..\..\Dev\Library embedded l2c display\u8g2\csrc/u8x8_d_ssd1318.c **** #endif
 215:..\..\..\..\..\..\Dev\Library embedded l2c display\u8g2\csrc/u8x8_d_ssd1318.c ****     case U8X8_MSG_DISPLAY_DRAW_TILE:
 216:..\..\..\..\..\..\Dev\Library embedded l2c display\u8g2\csrc/u8x8_d_ssd1318.c ****       u8x8_cad_StartTransfer(u8x8);
 217:..\..\..\..\..\..\Dev\Library embedded l2c display\u8g2\csrc/u8x8_d_ssd1318.c ****       x = ((u8x8_tile_t *)arg_ptr)->x_pos;    
 218:..\..\..\..\..\..\Dev\Library embedded l2c display\u8g2\csrc/u8x8_d_ssd1318.c ****       x *= 8;
 219:..\..\..\..\..\..\Dev\Library embedded l2c display\u8g2\csrc/u8x8_d_ssd1318.c ****       x += u8x8->x_offset;
 220:..\..\..\..\..\..\Dev\Library embedded l2c display\u8g2\csrc/u8x8_d_ssd1318.c ****     
 221:..\..\..\..\..\..\Dev\Library embedded l2c display\u8g2\csrc/u8x8_d_ssd1318.c ****       u8x8_cad_SendCmd(u8x8, 0x040 );	/* set line offset to 0 */
 222:..\..\..\..\..\..\Dev\Library embedded l2c display\u8g2\csrc/u8x8_d_ssd1318.c ****     
ARM GAS  C:\Users\Abude\AppData\Local\Temp\ccGSgr1b.s 			page 6


 223:..\..\..\..\..\..\Dev\Library embedded l2c display\u8g2\csrc/u8x8_d_ssd1318.c ****       u8x8_cad_SendCmd(u8x8, 0x010 | (x>>4) );
 224:..\..\..\..\..\..\Dev\Library embedded l2c display\u8g2\csrc/u8x8_d_ssd1318.c ****       u8x8_cad_SendArg(u8x8, 0x000 | ((x&15)));					/* probably wrong, should be SendCmd */
 225:..\..\..\..\..\..\Dev\Library embedded l2c display\u8g2\csrc/u8x8_d_ssd1318.c ****       u8x8_cad_SendArg(u8x8, 0x0b0 | (((u8x8_tile_t *)arg_ptr)->y_pos));	/* probably wrong, should 
 226:..\..\..\..\..\..\Dev\Library embedded l2c display\u8g2\csrc/u8x8_d_ssd1318.c **** 
 227:..\..\..\..\..\..\Dev\Library embedded l2c display\u8g2\csrc/u8x8_d_ssd1318.c ****     
 228:..\..\..\..\..\..\Dev\Library embedded l2c display\u8g2\csrc/u8x8_d_ssd1318.c ****       do
 229:..\..\..\..\..\..\Dev\Library embedded l2c display\u8g2\csrc/u8x8_d_ssd1318.c ****       {
 230:..\..\..\..\..\..\Dev\Library embedded l2c display\u8g2\csrc/u8x8_d_ssd1318.c **** 	c = ((u8x8_tile_t *)arg_ptr)->cnt;
 231:..\..\..\..\..\..\Dev\Library embedded l2c display\u8g2\csrc/u8x8_d_ssd1318.c **** 	ptr = ((u8x8_tile_t *)arg_ptr)->tile_ptr;
 232:..\..\..\..\..\..\Dev\Library embedded l2c display\u8g2\csrc/u8x8_d_ssd1318.c **** 	u8x8_cad_SendData(u8x8, c*8, ptr); 	/* note: SendData can not handle more than 255 bytes */
 233:..\..\..\..\..\..\Dev\Library embedded l2c display\u8g2\csrc/u8x8_d_ssd1318.c **** 	/*
 234:..\..\..\..\..\..\Dev\Library embedded l2c display\u8g2\csrc/u8x8_d_ssd1318.c **** 	do
 235:..\..\..\..\..\..\Dev\Library embedded l2c display\u8g2\csrc/u8x8_d_ssd1318.c **** 	{
 236:..\..\..\..\..\..\Dev\Library embedded l2c display\u8g2\csrc/u8x8_d_ssd1318.c **** 	  u8x8_cad_SendData(u8x8, 8, ptr);
 237:..\..\..\..\..\..\Dev\Library embedded l2c display\u8g2\csrc/u8x8_d_ssd1318.c **** 	  ptr += 8;
 238:..\..\..\..\..\..\Dev\Library embedded l2c display\u8g2\csrc/u8x8_d_ssd1318.c **** 	  c--;
 239:..\..\..\..\..\..\Dev\Library embedded l2c display\u8g2\csrc/u8x8_d_ssd1318.c **** 	} while( c > 0 );
 240:..\..\..\..\..\..\Dev\Library embedded l2c display\u8g2\csrc/u8x8_d_ssd1318.c **** 	*/
 241:..\..\..\..\..\..\Dev\Library embedded l2c display\u8g2\csrc/u8x8_d_ssd1318.c **** 	arg_int--;
 242:..\..\..\..\..\..\Dev\Library embedded l2c display\u8g2\csrc/u8x8_d_ssd1318.c ****       } while( arg_int > 0 );
 243:..\..\..\..\..\..\Dev\Library embedded l2c display\u8g2\csrc/u8x8_d_ssd1318.c ****       
 244:..\..\..\..\..\..\Dev\Library embedded l2c display\u8g2\csrc/u8x8_d_ssd1318.c ****       u8x8_cad_EndTransfer(u8x8);
 245:..\..\..\..\..\..\Dev\Library embedded l2c display\u8g2\csrc/u8x8_d_ssd1318.c ****       break;
 246:..\..\..\..\..\..\Dev\Library embedded l2c display\u8g2\csrc/u8x8_d_ssd1318.c ****     default:
 247:..\..\..\..\..\..\Dev\Library embedded l2c display\u8g2\csrc/u8x8_d_ssd1318.c ****       return 0;
 248:..\..\..\..\..\..\Dev\Library embedded l2c display\u8g2\csrc/u8x8_d_ssd1318.c ****   }
 249:..\..\..\..\..\..\Dev\Library embedded l2c display\u8g2\csrc/u8x8_d_ssd1318.c ****   return 1;
  64              		.loc 1 249 0
  65 0020 0120     		movs	r0, #1
  66 0022 F8BD     		pop	{r3, r4, r5, r6, r7, pc}
  67              	.LVL4:
  68              	.L8:
 193:..\..\..\..\..\..\Dev\Library embedded l2c display\u8g2\csrc/u8x8_d_ssd1318.c ****       break;
  69              		.loc 1 193 0
  70 0024 2C49     		ldr	r1, .L13+4
  71 0026 FFF7FEFF 		bl	u8x8_cad_SendSequence
  72              	.LVL5:
  73              		.loc 1 249 0
  74 002a 0120     		movs	r0, #1
  75 002c F8BD     		pop	{r3, r4, r5, r6, r7, pc}
  76              	.LVL6:
  77              	.L5:
 196:..\..\..\..\..\..\Dev\Library embedded l2c display\u8g2\csrc/u8x8_d_ssd1318.c ****       {
  78              		.loc 1 196 0
  79 002e 42B9     		cbnz	r2, .L9
 198:..\..\..\..\..\..\Dev\Library embedded l2c display\u8g2\csrc/u8x8_d_ssd1318.c **** 	u8x8->x_offset = u8x8->display_info->default_x_offset;
  80              		.loc 1 198 0
  81 0030 2A49     		ldr	r1, .L13+8
  82 0032 FFF7FEFF 		bl	u8x8_cad_SendSequence
  83              	.LVL7:
 199:..\..\..\..\..\..\Dev\Library embedded l2c display\u8g2\csrc/u8x8_d_ssd1318.c ****       }
  84              		.loc 1 199 0
  85 0036 2B68     		ldr	r3, [r5]
  86 0038 9B7C     		ldrb	r3, [r3, #18]	@ zero_extendqisi2
  87 003a 85F82230 		strb	r3, [r5, #34]
  88              		.loc 1 249 0
  89 003e 0120     		movs	r0, #1
ARM GAS  C:\Users\Abude\AppData\Local\Temp\ccGSgr1b.s 			page 7


  90 0040 F8BD     		pop	{r3, r4, r5, r6, r7, pc}
  91              	.LVL8:
  92              	.L9:
 203:..\..\..\..\..\..\Dev\Library embedded l2c display\u8g2\csrc/u8x8_d_ssd1318.c **** 	u8x8->x_offset = u8x8->display_info->flipmode_x_offset;
  93              		.loc 1 203 0
  94 0042 2749     		ldr	r1, .L13+12
  95 0044 FFF7FEFF 		bl	u8x8_cad_SendSequence
  96              	.LVL9:
 204:..\..\..\..\..\..\Dev\Library embedded l2c display\u8g2\csrc/u8x8_d_ssd1318.c ****       }
  97              		.loc 1 204 0
  98 0048 2B68     		ldr	r3, [r5]
  99 004a DB7C     		ldrb	r3, [r3, #19]	@ zero_extendqisi2
 100 004c 85F82230 		strb	r3, [r5, #34]
 101              		.loc 1 249 0
 102 0050 0120     		movs	r0, #1
 103 0052 F8BD     		pop	{r3, r4, r5, r6, r7, pc}
 104              	.LVL10:
 105              	.L6:
 209:..\..\..\..\..\..\Dev\Library embedded l2c display\u8g2\csrc/u8x8_d_ssd1318.c ****       u8x8_cad_SendCmd(u8x8, 0x081 );
 106              		.loc 1 209 0
 107 0054 FFF7FEFF 		bl	u8x8_cad_StartTransfer
 108              	.LVL11:
 210:..\..\..\..\..\..\Dev\Library embedded l2c display\u8g2\csrc/u8x8_d_ssd1318.c ****       u8x8_cad_SendArg(u8x8, arg_int );	/* ssd1318 has range from 0 to 255 */
 109              		.loc 1 210 0
 110 0058 8121     		movs	r1, #129
 111 005a 2846     		mov	r0, r5
 112 005c FFF7FEFF 		bl	u8x8_cad_SendCmd
 113              	.LVL12:
 211:..\..\..\..\..\..\Dev\Library embedded l2c display\u8g2\csrc/u8x8_d_ssd1318.c ****       u8x8_cad_EndTransfer(u8x8);
 114              		.loc 1 211 0
 115 0060 2146     		mov	r1, r4
 116 0062 2846     		mov	r0, r5
 117 0064 FFF7FEFF 		bl	u8x8_cad_SendArg
 118              	.LVL13:
 212:..\..\..\..\..\..\Dev\Library embedded l2c display\u8g2\csrc/u8x8_d_ssd1318.c ****       break;
 119              		.loc 1 212 0
 120 0068 2846     		mov	r0, r5
 121 006a FFF7FEFF 		bl	u8x8_cad_EndTransfer
 122              	.LVL14:
 123              		.loc 1 249 0
 124 006e 0120     		movs	r0, #1
 213:..\..\..\..\..\..\Dev\Library embedded l2c display\u8g2\csrc/u8x8_d_ssd1318.c **** #endif
 125              		.loc 1 213 0
 126 0070 F8BD     		pop	{r3, r4, r5, r6, r7, pc}
 127              	.LVL15:
 128              	.L7:
 216:..\..\..\..\..\..\Dev\Library embedded l2c display\u8g2\csrc/u8x8_d_ssd1318.c ****       x = ((u8x8_tile_t *)arg_ptr)->x_pos;    
 129              		.loc 1 216 0
 130 0072 FFF7FEFF 		bl	u8x8_cad_StartTransfer
 131              	.LVL16:
 217:..\..\..\..\..\..\Dev\Library embedded l2c display\u8g2\csrc/u8x8_d_ssd1318.c ****       x *= 8;
 132              		.loc 1 217 0
 133 0076 7779     		ldrb	r7, [r6, #5]	@ zero_extendqisi2
 134              	.LVL17:
 218:..\..\..\..\..\..\Dev\Library embedded l2c display\u8g2\csrc/u8x8_d_ssd1318.c ****       x += u8x8->x_offset;
 135              		.loc 1 218 0
 136 0078 FF00     		lsls	r7, r7, #3
ARM GAS  C:\Users\Abude\AppData\Local\Temp\ccGSgr1b.s 			page 8


 137              	.LVL18:
 138 007a FFB2     		uxtb	r7, r7
 139              	.LVL19:
 219:..\..\..\..\..\..\Dev\Library embedded l2c display\u8g2\csrc/u8x8_d_ssd1318.c ****     
 140              		.loc 1 219 0
 141 007c 95F82230 		ldrb	r3, [r5, #34]	@ zero_extendqisi2
 142 0080 1F44     		add	r7, r7, r3
 143              	.LVL20:
 144 0082 FFB2     		uxtb	r7, r7
 145              	.LVL21:
 221:..\..\..\..\..\..\Dev\Library embedded l2c display\u8g2\csrc/u8x8_d_ssd1318.c ****     
 146              		.loc 1 221 0
 147 0084 4021     		movs	r1, #64
 148 0086 2846     		mov	r0, r5
 149 0088 FFF7FEFF 		bl	u8x8_cad_SendCmd
 150              	.LVL22:
 223:..\..\..\..\..\..\Dev\Library embedded l2c display\u8g2\csrc/u8x8_d_ssd1318.c ****       u8x8_cad_SendArg(u8x8, 0x000 | ((x&15)));					/* probably wrong, should be SendCmd */
 151              		.loc 1 223 0
 152 008c 3909     		lsrs	r1, r7, #4
 153 008e 41F01001 		orr	r1, r1, #16
 154 0092 2846     		mov	r0, r5
 155 0094 FFF7FEFF 		bl	u8x8_cad_SendCmd
 156              	.LVL23:
 224:..\..\..\..\..\..\Dev\Library embedded l2c display\u8g2\csrc/u8x8_d_ssd1318.c ****       u8x8_cad_SendArg(u8x8, 0x0b0 | (((u8x8_tile_t *)arg_ptr)->y_pos));	/* probably wrong, should 
 157              		.loc 1 224 0
 158 0098 07F00F01 		and	r1, r7, #15
 159 009c 2846     		mov	r0, r5
 160 009e FFF7FEFF 		bl	u8x8_cad_SendArg
 161              	.LVL24:
 225:..\..\..\..\..\..\Dev\Library embedded l2c display\u8g2\csrc/u8x8_d_ssd1318.c **** 
 162              		.loc 1 225 0
 163 00a2 B179     		ldrb	r1, [r6, #6]	@ zero_extendqisi2
 164 00a4 41F0B001 		orr	r1, r1, #176
 165 00a8 2846     		mov	r0, r5
 166 00aa FFF7FEFF 		bl	u8x8_cad_SendArg
 167              	.LVL25:
 168              	.L10:
 230:..\..\..\..\..\..\Dev\Library embedded l2c display\u8g2\csrc/u8x8_d_ssd1318.c **** 	ptr = ((u8x8_tile_t *)arg_ptr)->tile_ptr;
 169              		.loc 1 230 0 discriminator 1
 170 00ae 3179     		ldrb	r1, [r6, #4]	@ zero_extendqisi2
 171              	.LVL26:
 232:..\..\..\..\..\..\Dev\Library embedded l2c display\u8g2\csrc/u8x8_d_ssd1318.c **** 	/*
 172              		.loc 1 232 0 discriminator 1
 173 00b0 C900     		lsls	r1, r1, #3
 174              	.LVL27:
 175 00b2 3268     		ldr	r2, [r6]
 176 00b4 01F0F801 		and	r1, r1, #248
 177 00b8 2846     		mov	r0, r5
 178 00ba FFF7FEFF 		bl	u8x8_cad_SendData
 179              	.LVL28:
 241:..\..\..\..\..\..\Dev\Library embedded l2c display\u8g2\csrc/u8x8_d_ssd1318.c ****       } while( arg_int > 0 );
 180              		.loc 1 241 0 discriminator 1
 181 00be 621E     		subs	r2, r4, #1
 182              	.LVL29:
 242:..\..\..\..\..\..\Dev\Library embedded l2c display\u8g2\csrc/u8x8_d_ssd1318.c ****       
 183              		.loc 1 242 0 discriminator 1
 184 00c0 12F0FF04 		ands	r4, r2, #255
ARM GAS  C:\Users\Abude\AppData\Local\Temp\ccGSgr1b.s 			page 9


 185 00c4 F3D1     		bne	.L10
 244:..\..\..\..\..\..\Dev\Library embedded l2c display\u8g2\csrc/u8x8_d_ssd1318.c ****       break;
 186              		.loc 1 244 0
 187 00c6 2846     		mov	r0, r5
 188 00c8 FFF7FEFF 		bl	u8x8_cad_EndTransfer
 189              	.LVL30:
 190              		.loc 1 249 0
 191 00cc 0120     		movs	r0, #1
 245:..\..\..\..\..\..\Dev\Library embedded l2c display\u8g2\csrc/u8x8_d_ssd1318.c ****     default:
 192              		.loc 1 245 0
 193 00ce F8BD     		pop	{r3, r4, r5, r6, r7, pc}
 194              	.LVL31:
 195              	.L11:
 247:..\..\..\..\..\..\Dev\Library embedded l2c display\u8g2\csrc/u8x8_d_ssd1318.c ****   }
 196              		.loc 1 247 0
 197 00d0 0020     		movs	r0, #0
 198              	.LVL32:
 250:..\..\..\..\..\..\Dev\Library embedded l2c display\u8g2\csrc/u8x8_d_ssd1318.c **** }
 199              		.loc 1 250 0
 200 00d2 F8BD     		pop	{r3, r4, r5, r6, r7, pc}
 201              	.LVL33:
 202              	.L14:
 203              		.align	2
 204              	.L13:
 205 00d4 00000000 		.word	.LANCHOR0
 206 00d8 08000000 		.word	.LANCHOR0+8
 207 00dc 10000000 		.word	.LANCHOR0+16
 208 00e0 18000000 		.word	.LANCHOR0+24
 209              		.cfi_endproc
 210              	.LFE0:
 211              		.size	u8x8_d_ssd1318_generic, .-u8x8_d_ssd1318_generic
 212              		.section	.text.u8x8_d_ssd1318_128x96,"ax",%progbits
 213              		.align	2
 214              		.global	u8x8_d_ssd1318_128x96
 215              		.thumb
 216              		.thumb_func
 217              		.type	u8x8_d_ssd1318_128x96, %function
 218              	u8x8_d_ssd1318_128x96:
 219              	.LFB1:
 251:..\..\..\..\..\..\Dev\Library embedded l2c display\u8g2\csrc/u8x8_d_ssd1318.c **** 
 252:..\..\..\..\..\..\Dev\Library embedded l2c display\u8g2\csrc/u8x8_d_ssd1318.c **** 
 253:..\..\..\..\..\..\Dev\Library embedded l2c display\u8g2\csrc/u8x8_d_ssd1318.c **** static const u8x8_display_info_t u8x8_ssd1318_128x96_display_info =
 254:..\..\..\..\..\..\Dev\Library embedded l2c display\u8g2\csrc/u8x8_d_ssd1318.c **** {
 255:..\..\..\..\..\..\Dev\Library embedded l2c display\u8g2\csrc/u8x8_d_ssd1318.c ****   /* chip_enable_level = */ 0,
 256:..\..\..\..\..\..\Dev\Library embedded l2c display\u8g2\csrc/u8x8_d_ssd1318.c ****   /* chip_disable_level = */ 1,
 257:..\..\..\..\..\..\Dev\Library embedded l2c display\u8g2\csrc/u8x8_d_ssd1318.c ****   
 258:..\..\..\..\..\..\Dev\Library embedded l2c display\u8g2\csrc/u8x8_d_ssd1318.c ****   /* post_chip_enable_wait_ns = */ 20,
 259:..\..\..\..\..\..\Dev\Library embedded l2c display\u8g2\csrc/u8x8_d_ssd1318.c ****   /* pre_chip_disable_wait_ns = */ 10,
 260:..\..\..\..\..\..\Dev\Library embedded l2c display\u8g2\csrc/u8x8_d_ssd1318.c ****   /* reset_pulse_width_ms = */ 100, 	/* SSD1306: 3 us */
 261:..\..\..\..\..\..\Dev\Library embedded l2c display\u8g2\csrc/u8x8_d_ssd1318.c ****   /* post_reset_wait_ms = */ 100, /* far east OLEDs need much longer setup time */
 262:..\..\..\..\..\..\Dev\Library embedded l2c display\u8g2\csrc/u8x8_d_ssd1318.c ****   /* sda_setup_time_ns = */ 50,		/* SSD1306: 15ns, but cycle time is 100ns, so use 100/2 */
 263:..\..\..\..\..\..\Dev\Library embedded l2c display\u8g2\csrc/u8x8_d_ssd1318.c ****   /* sck_pulse_width_ns = */ 50,	/* SSD1306: 20ns, but cycle time is 100ns, so use 100/2, AVR: belo
 264:..\..\..\..\..\..\Dev\Library embedded l2c display\u8g2\csrc/u8x8_d_ssd1318.c ****   /* sck_clock_hz = */ 8000000UL,	/* since Arduino 1.6.0, the SPI bus speed in Hz. Should be  10000
 265:..\..\..\..\..\..\Dev\Library embedded l2c display\u8g2\csrc/u8x8_d_ssd1318.c ****   /* spi_mode = */ 0,		/* active high, rising edge */
 266:..\..\..\..\..\..\Dev\Library embedded l2c display\u8g2\csrc/u8x8_d_ssd1318.c ****   /* i2c_bus_clock_100kHz = */ 4,
 267:..\..\..\..\..\..\Dev\Library embedded l2c display\u8g2\csrc/u8x8_d_ssd1318.c ****   /* data_setup_time_ns = */ 40,
 268:..\..\..\..\..\..\Dev\Library embedded l2c display\u8g2\csrc/u8x8_d_ssd1318.c ****   /* write_pulse_width_ns = */ 150,	/* SSD1306: cycle time is 300ns, so use 300/2 = 150 */
ARM GAS  C:\Users\Abude\AppData\Local\Temp\ccGSgr1b.s 			page 10


 269:..\..\..\..\..\..\Dev\Library embedded l2c display\u8g2\csrc/u8x8_d_ssd1318.c ****   /* tile_width = */ 16,
 270:..\..\..\..\..\..\Dev\Library embedded l2c display\u8g2\csrc/u8x8_d_ssd1318.c ****   /* tile_hight = */ 12,
 271:..\..\..\..\..\..\Dev\Library embedded l2c display\u8g2\csrc/u8x8_d_ssd1318.c ****   /* default_x_offset = */ 0,
 272:..\..\..\..\..\..\Dev\Library embedded l2c display\u8g2\csrc/u8x8_d_ssd1318.c ****   /* flipmode_x_offset = */ 0,
 273:..\..\..\..\..\..\Dev\Library embedded l2c display\u8g2\csrc/u8x8_d_ssd1318.c ****   /* pixel_width = */ 128,
 274:..\..\..\..\..\..\Dev\Library embedded l2c display\u8g2\csrc/u8x8_d_ssd1318.c ****   /* pixel_height = */ 96
 275:..\..\..\..\..\..\Dev\Library embedded l2c display\u8g2\csrc/u8x8_d_ssd1318.c **** };
 276:..\..\..\..\..\..\Dev\Library embedded l2c display\u8g2\csrc/u8x8_d_ssd1318.c **** 
 277:..\..\..\..\..\..\Dev\Library embedded l2c display\u8g2\csrc/u8x8_d_ssd1318.c **** uint8_t u8x8_d_ssd1318_128x96(u8x8_t *u8x8, uint8_t msg, uint8_t arg_int, void *arg_ptr)
 278:..\..\..\..\..\..\Dev\Library embedded l2c display\u8g2\csrc/u8x8_d_ssd1318.c **** {
 220              		.loc 1 278 0
 221              		.cfi_startproc
 222              		@ args = 0, pretend = 0, frame = 0
 223              		@ frame_needed = 0, uses_anonymous_args = 0
 224              	.LVL34:
 225 0000 38B5     		push	{r3, r4, r5, lr}
 226              		.cfi_def_cfa_offset 16
 227              		.cfi_offset 3, -16
 228              		.cfi_offset 4, -12
 229              		.cfi_offset 5, -8
 230              		.cfi_offset 14, -4
 231 0002 0546     		mov	r5, r0
 232 0004 0C46     		mov	r4, r1
 279:..\..\..\..\..\..\Dev\Library embedded l2c display\u8g2\csrc/u8x8_d_ssd1318.c ****     
 280:..\..\..\..\..\..\Dev\Library embedded l2c display\u8g2\csrc/u8x8_d_ssd1318.c ****   if ( u8x8_d_ssd1318_generic(u8x8, msg, arg_int, arg_ptr) != 0 )
 233              		.loc 1 280 0
 234 0006 FFF7FEFF 		bl	u8x8_d_ssd1318_generic
 235              	.LVL35:
 236 000a 98B9     		cbnz	r0, .L19
 237 000c 0346     		mov	r3, r0
 281:..\..\..\..\..\..\Dev\Library embedded l2c display\u8g2\csrc/u8x8_d_ssd1318.c ****     return 1;
 282:..\..\..\..\..\..\Dev\Library embedded l2c display\u8g2\csrc/u8x8_d_ssd1318.c ****   
 283:..\..\..\..\..\..\Dev\Library embedded l2c display\u8g2\csrc/u8x8_d_ssd1318.c ****   switch(msg)
 238              		.loc 1 283 0
 239 000e 092C     		cmp	r4, #9
 240 0010 0AD0     		beq	.L17
 241 0012 0A2C     		cmp	r4, #10
 242 0014 0FD1     		bne	.L16
 284:..\..\..\..\..\..\Dev\Library embedded l2c display\u8g2\csrc/u8x8_d_ssd1318.c ****   {
 285:..\..\..\..\..\..\Dev\Library embedded l2c display\u8g2\csrc/u8x8_d_ssd1318.c ****     case U8X8_MSG_DISPLAY_INIT:
 286:..\..\..\..\..\..\Dev\Library embedded l2c display\u8g2\csrc/u8x8_d_ssd1318.c ****       u8x8_d_helper_display_init(u8x8);
 243              		.loc 1 286 0
 244 0016 2846     		mov	r0, r5
 245 0018 FFF7FEFF 		bl	u8x8_d_helper_display_init
 246              	.LVL36:
 287:..\..\..\..\..\..\Dev\Library embedded l2c display\u8g2\csrc/u8x8_d_ssd1318.c ****       u8x8_cad_SendSequence(u8x8, u8x8_d_ssd1318_128x96_icp_init_seq);    
 247              		.loc 1 287 0
 248 001c 0749     		ldr	r1, .L21
 249 001e 2846     		mov	r0, r5
 250 0020 FFF7FEFF 		bl	u8x8_cad_SendSequence
 251              	.LVL37:
 288:..\..\..\..\..\..\Dev\Library embedded l2c display\u8g2\csrc/u8x8_d_ssd1318.c ****       break;
 289:..\..\..\..\..\..\Dev\Library embedded l2c display\u8g2\csrc/u8x8_d_ssd1318.c ****     case U8X8_MSG_DISPLAY_SETUP_MEMORY:
 290:..\..\..\..\..\..\Dev\Library embedded l2c display\u8g2\csrc/u8x8_d_ssd1318.c ****       u8x8_d_helper_display_setup_memory(u8x8, &u8x8_ssd1318_128x96_display_info);
 291:..\..\..\..\..\..\Dev\Library embedded l2c display\u8g2\csrc/u8x8_d_ssd1318.c ****       break;
 292:..\..\..\..\..\..\Dev\Library embedded l2c display\u8g2\csrc/u8x8_d_ssd1318.c ****     default:
 293:..\..\..\..\..\..\Dev\Library embedded l2c display\u8g2\csrc/u8x8_d_ssd1318.c ****       return 0;
ARM GAS  C:\Users\Abude\AppData\Local\Temp\ccGSgr1b.s 			page 11


 294:..\..\..\..\..\..\Dev\Library embedded l2c display\u8g2\csrc/u8x8_d_ssd1318.c ****   }
 295:..\..\..\..\..\..\Dev\Library embedded l2c display\u8g2\csrc/u8x8_d_ssd1318.c ****   return 1;
 252              		.loc 1 295 0
 253 0024 0123     		movs	r3, #1
 288:..\..\..\..\..\..\Dev\Library embedded l2c display\u8g2\csrc/u8x8_d_ssd1318.c ****       break;
 254              		.loc 1 288 0
 255 0026 06E0     		b	.L16
 256              	.L17:
 290:..\..\..\..\..\..\Dev\Library embedded l2c display\u8g2\csrc/u8x8_d_ssd1318.c ****       break;
 257              		.loc 1 290 0
 258 0028 0549     		ldr	r1, .L21+4
 259 002a 2846     		mov	r0, r5
 260 002c FFF7FEFF 		bl	u8x8_d_helper_display_setup_memory
 261              	.LVL38:
 262              		.loc 1 295 0
 263 0030 0123     		movs	r3, #1
 291:..\..\..\..\..\..\Dev\Library embedded l2c display\u8g2\csrc/u8x8_d_ssd1318.c ****     default:
 264              		.loc 1 291 0
 265 0032 00E0     		b	.L16
 266              	.L19:
 281:..\..\..\..\..\..\Dev\Library embedded l2c display\u8g2\csrc/u8x8_d_ssd1318.c ****   
 267              		.loc 1 281 0
 268 0034 0123     		movs	r3, #1
 269              	.L16:
 296:..\..\..\..\..\..\Dev\Library embedded l2c display\u8g2\csrc/u8x8_d_ssd1318.c **** }
 270              		.loc 1 296 0
 271 0036 1846     		mov	r0, r3
 272 0038 38BD     		pop	{r3, r4, r5, pc}
 273              	.LVL39:
 274              	.L22:
 275 003a 00BF     		.align	2
 276              	.L21:
 277 003c 20000000 		.word	.LANCHOR0+32
 278 0040 60000000 		.word	.LANCHOR0+96
 279              		.cfi_endproc
 280              	.LFE1:
 281              		.size	u8x8_d_ssd1318_128x96, .-u8x8_d_ssd1318_128x96
 282              		.section	.text.u8x8_d_ssd1318_128x96_xcp,"ax",%progbits
 283              		.align	2
 284              		.global	u8x8_d_ssd1318_128x96_xcp
 285              		.thumb
 286              		.thumb_func
 287              		.type	u8x8_d_ssd1318_128x96_xcp, %function
 288              	u8x8_d_ssd1318_128x96_xcp:
 289              	.LFB2:
 297:..\..\..\..\..\..\Dev\Library embedded l2c display\u8g2\csrc/u8x8_d_ssd1318.c **** 
 298:..\..\..\..\..\..\Dev\Library embedded l2c display\u8g2\csrc/u8x8_d_ssd1318.c **** uint8_t u8x8_d_ssd1318_128x96_xcp(u8x8_t *u8x8, uint8_t msg, uint8_t arg_int, void *arg_ptr)
 299:..\..\..\..\..\..\Dev\Library embedded l2c display\u8g2\csrc/u8x8_d_ssd1318.c **** {
 290              		.loc 1 299 0
 291              		.cfi_startproc
 292              		@ args = 0, pretend = 0, frame = 0
 293              		@ frame_needed = 0, uses_anonymous_args = 0
 294              	.LVL40:
 295 0000 38B5     		push	{r3, r4, r5, lr}
 296              		.cfi_def_cfa_offset 16
 297              		.cfi_offset 3, -16
 298              		.cfi_offset 4, -12
ARM GAS  C:\Users\Abude\AppData\Local\Temp\ccGSgr1b.s 			page 12


 299              		.cfi_offset 5, -8
 300              		.cfi_offset 14, -4
 301 0002 0546     		mov	r5, r0
 302 0004 0C46     		mov	r4, r1
 300:..\..\..\..\..\..\Dev\Library embedded l2c display\u8g2\csrc/u8x8_d_ssd1318.c ****     
 301:..\..\..\..\..\..\Dev\Library embedded l2c display\u8g2\csrc/u8x8_d_ssd1318.c ****   if ( u8x8_d_ssd1318_generic(u8x8, msg, arg_int, arg_ptr) != 0 )
 303              		.loc 1 301 0
 304 0006 FFF7FEFF 		bl	u8x8_d_ssd1318_generic
 305              	.LVL41:
 306 000a 98B9     		cbnz	r0, .L27
 307 000c 0346     		mov	r3, r0
 302:..\..\..\..\..\..\Dev\Library embedded l2c display\u8g2\csrc/u8x8_d_ssd1318.c ****     return 1;
 303:..\..\..\..\..\..\Dev\Library embedded l2c display\u8g2\csrc/u8x8_d_ssd1318.c ****   
 304:..\..\..\..\..\..\Dev\Library embedded l2c display\u8g2\csrc/u8x8_d_ssd1318.c ****   switch(msg)
 308              		.loc 1 304 0
 309 000e 092C     		cmp	r4, #9
 310 0010 0AD0     		beq	.L25
 311 0012 0A2C     		cmp	r4, #10
 312 0014 0FD1     		bne	.L24
 305:..\..\..\..\..\..\Dev\Library embedded l2c display\u8g2\csrc/u8x8_d_ssd1318.c ****   {
 306:..\..\..\..\..\..\Dev\Library embedded l2c display\u8g2\csrc/u8x8_d_ssd1318.c ****     case U8X8_MSG_DISPLAY_INIT:
 307:..\..\..\..\..\..\Dev\Library embedded l2c display\u8g2\csrc/u8x8_d_ssd1318.c ****       u8x8_d_helper_display_init(u8x8);
 313              		.loc 1 307 0
 314 0016 2846     		mov	r0, r5
 315 0018 FFF7FEFF 		bl	u8x8_d_helper_display_init
 316              	.LVL42:
 308:..\..\..\..\..\..\Dev\Library embedded l2c display\u8g2\csrc/u8x8_d_ssd1318.c ****       u8x8_cad_SendSequence(u8x8, u8x8_d_ssd1318_128x96_xcp_init_seq);    
 317              		.loc 1 308 0
 318 001c 0749     		ldr	r1, .L29
 319 001e 2846     		mov	r0, r5
 320 0020 FFF7FEFF 		bl	u8x8_cad_SendSequence
 321              	.LVL43:
 309:..\..\..\..\..\..\Dev\Library embedded l2c display\u8g2\csrc/u8x8_d_ssd1318.c ****       break;
 310:..\..\..\..\..\..\Dev\Library embedded l2c display\u8g2\csrc/u8x8_d_ssd1318.c ****     case U8X8_MSG_DISPLAY_SETUP_MEMORY:
 311:..\..\..\..\..\..\Dev\Library embedded l2c display\u8g2\csrc/u8x8_d_ssd1318.c ****       u8x8_d_helper_display_setup_memory(u8x8, &u8x8_ssd1318_128x96_display_info);
 312:..\..\..\..\..\..\Dev\Library embedded l2c display\u8g2\csrc/u8x8_d_ssd1318.c ****       break;
 313:..\..\..\..\..\..\Dev\Library embedded l2c display\u8g2\csrc/u8x8_d_ssd1318.c ****     default:
 314:..\..\..\..\..\..\Dev\Library embedded l2c display\u8g2\csrc/u8x8_d_ssd1318.c ****       return 0;
 315:..\..\..\..\..\..\Dev\Library embedded l2c display\u8g2\csrc/u8x8_d_ssd1318.c ****   }
 316:..\..\..\..\..\..\Dev\Library embedded l2c display\u8g2\csrc/u8x8_d_ssd1318.c ****   return 1;
 322              		.loc 1 316 0
 323 0024 0123     		movs	r3, #1
 309:..\..\..\..\..\..\Dev\Library embedded l2c display\u8g2\csrc/u8x8_d_ssd1318.c ****       break;
 324              		.loc 1 309 0
 325 0026 06E0     		b	.L24
 326              	.L25:
 311:..\..\..\..\..\..\Dev\Library embedded l2c display\u8g2\csrc/u8x8_d_ssd1318.c ****       break;
 327              		.loc 1 311 0
 328 0028 0549     		ldr	r1, .L29+4
 329 002a 2846     		mov	r0, r5
 330 002c FFF7FEFF 		bl	u8x8_d_helper_display_setup_memory
 331              	.LVL44:
 332              		.loc 1 316 0
 333 0030 0123     		movs	r3, #1
 312:..\..\..\..\..\..\Dev\Library embedded l2c display\u8g2\csrc/u8x8_d_ssd1318.c ****     default:
 334              		.loc 1 312 0
 335 0032 00E0     		b	.L24
ARM GAS  C:\Users\Abude\AppData\Local\Temp\ccGSgr1b.s 			page 13


 336              	.L27:
 302:..\..\..\..\..\..\Dev\Library embedded l2c display\u8g2\csrc/u8x8_d_ssd1318.c ****   
 337              		.loc 1 302 0
 338 0034 0123     		movs	r3, #1
 339              	.L24:
 317:..\..\..\..\..\..\Dev\Library embedded l2c display\u8g2\csrc/u8x8_d_ssd1318.c **** }
 340              		.loc 1 317 0
 341 0036 1846     		mov	r0, r3
 342 0038 38BD     		pop	{r3, r4, r5, pc}
 343              	.LVL45:
 344              	.L30:
 345 003a 00BF     		.align	2
 346              	.L29:
 347 003c 78000000 		.word	.LANCHOR0+120
 348 0040 60000000 		.word	.LANCHOR0+96
 349              		.cfi_endproc
 350              	.LFE2:
 351              		.size	u8x8_d_ssd1318_128x96_xcp, .-u8x8_d_ssd1318_128x96_xcp
 352              		.section	.rodata
 353              		.align	2
 354              		.set	.LANCHOR0,. + 0
 355              		.type	u8x8_d_ssd1318_128x96_powersave0_seq, %object
 356              		.size	u8x8_d_ssd1318_128x96_powersave0_seq, 5
 357              	u8x8_d_ssd1318_128x96_powersave0_seq:
 358 0000 18       		.byte	24
 359 0001 15       		.byte	21
 360 0002 AF       		.byte	-81
 361 0003 19       		.byte	25
 362 0004 FF       		.byte	-1
 363 0005 000000   		.space	3
 364              		.type	u8x8_d_ssd1318_128x96_powersave1_seq, %object
 365              		.size	u8x8_d_ssd1318_128x96_powersave1_seq, 5
 366              	u8x8_d_ssd1318_128x96_powersave1_seq:
 367 0008 18       		.byte	24
 368 0009 15       		.byte	21
 369 000a AE       		.byte	-82
 370 000b 19       		.byte	25
 371 000c FF       		.byte	-1
 372 000d 000000   		.space	3
 373              		.type	u8x8_d_ssd1318_128x96_flip0_seq, %object
 374              		.size	u8x8_d_ssd1318_128x96_flip0_seq, 7
 375              	u8x8_d_ssd1318_128x96_flip0_seq:
 376 0010 18       		.byte	24
 377 0011 15       		.byte	21
 378 0012 A1       		.byte	-95
 379 0013 15       		.byte	21
 380 0014 C0       		.byte	-64
 381 0015 19       		.byte	25
 382 0016 FF       		.byte	-1
 383 0017 00       		.space	1
 384              		.type	u8x8_d_ssd1318_128x96_flip1_seq, %object
 385              		.size	u8x8_d_ssd1318_128x96_flip1_seq, 7
 386              	u8x8_d_ssd1318_128x96_flip1_seq:
 387 0018 18       		.byte	24
 388 0019 15       		.byte	21
 389 001a A0       		.byte	-96
 390 001b 15       		.byte	21
ARM GAS  C:\Users\Abude\AppData\Local\Temp\ccGSgr1b.s 			page 14


 391 001c C8       		.byte	-56
 392 001d 19       		.byte	25
 393 001e FF       		.byte	-1
 394 001f 00       		.space	1
 395              		.type	u8x8_d_ssd1318_128x96_icp_init_seq, %object
 396              		.size	u8x8_d_ssd1318_128x96_icp_init_seq, 61
 397              	u8x8_d_ssd1318_128x96_icp_init_seq:
 398 0020 18       		.byte	24
 399 0021 15       		.byte	21
 400 0022 FD       		.byte	-3
 401 0023 16       		.byte	22
 402 0024 12       		.byte	18
 403 0025 15       		.byte	21
 404 0026 AE       		.byte	-82
 405 0027 15       		.byte	21
 406 0028 AD       		.byte	-83
 407 0029 16       		.byte	22
 408 002a D0       		.byte	-48
 409 002b 15       		.byte	21
 410 002c A8       		.byte	-88
 411 002d 16       		.byte	22
 412 002e 5F       		.byte	95
 413 002f 15       		.byte	21
 414 0030 D3       		.byte	-45
 415 0031 16       		.byte	22
 416 0032 00       		.byte	0
 417 0033 15       		.byte	21
 418 0034 A2       		.byte	-94
 419 0035 16       		.byte	22
 420 0036 00       		.byte	0
 421 0037 15       		.byte	21
 422 0038 8D       		.byte	-115
 423 0039 16       		.byte	22
 424 003a C4       		.byte	-60
 425 003b 16       		.byte	22
 426 003c AC       		.byte	-84
 427 003d 16       		.byte	22
 428 003e 01       		.byte	1
 429 003f 15       		.byte	21
 430 0040 A1       		.byte	-95
 431 0041 15       		.byte	21
 432 0042 C0       		.byte	-64
 433 0043 15       		.byte	21
 434 0044 DA       		.byte	-38
 435 0045 16       		.byte	22
 436 0046 12       		.byte	18
 437 0047 15       		.byte	21
 438 0048 81       		.byte	-127
 439 0049 16       		.byte	22
 440 004a 0F       		.byte	15
 441 004b 15       		.byte	21
 442 004c D5       		.byte	-43
 443 004d 16       		.byte	22
 444 004e D1       		.byte	-47
 445 004f 15       		.byte	21
 446 0050 D9       		.byte	-39
 447 0051 16       		.byte	22
ARM GAS  C:\Users\Abude\AppData\Local\Temp\ccGSgr1b.s 			page 15


 448 0052 22       		.byte	34
 449 0053 15       		.byte	21
 450 0054 DB       		.byte	-37
 451 0055 16       		.byte	22
 452 0056 30       		.byte	48
 453 0057 15       		.byte	21
 454 0058 A4       		.byte	-92
 455 0059 15       		.byte	21
 456 005a A6       		.byte	-90
 457 005b 19       		.byte	25
 458 005c FF       		.byte	-1
 459 005d 000000   		.space	3
 460              		.type	u8x8_ssd1318_128x96_display_info, %object
 461              		.size	u8x8_ssd1318_128x96_display_info, 24
 462              	u8x8_ssd1318_128x96_display_info:
 463 0060 00       		.byte	0
 464 0061 01       		.byte	1
 465 0062 14       		.byte	20
 466 0063 0A       		.byte	10
 467 0064 64       		.byte	100
 468 0065 64       		.byte	100
 469 0066 32       		.byte	50
 470 0067 32       		.byte	50
 471 0068 00127A00 		.word	8000000
 472 006c 00       		.byte	0
 473 006d 04       		.byte	4
 474 006e 28       		.byte	40
 475 006f 96       		.byte	-106
 476 0070 10       		.byte	16
 477 0071 0C       		.byte	12
 478 0072 00       		.byte	0
 479 0073 00       		.byte	0
 480 0074 8000     		.short	128
 481 0076 6000     		.short	96
 482              		.type	u8x8_d_ssd1318_128x96_xcp_init_seq, %object
 483              		.size	u8x8_d_ssd1318_128x96_xcp_init_seq, 53
 484              	u8x8_d_ssd1318_128x96_xcp_init_seq:
 485 0078 18       		.byte	24
 486 0079 15       		.byte	21
 487 007a FD       		.byte	-3
 488 007b 16       		.byte	22
 489 007c 12       		.byte	18
 490 007d 15       		.byte	21
 491 007e AE       		.byte	-82
 492 007f 15       		.byte	21
 493 0080 AD       		.byte	-83
 494 0081 16       		.byte	22
 495 0082 D0       		.byte	-48
 496 0083 15       		.byte	21
 497 0084 A8       		.byte	-88
 498 0085 16       		.byte	22
 499 0086 5F       		.byte	95
 500 0087 15       		.byte	21
 501 0088 D3       		.byte	-45
 502 0089 16       		.byte	22
 503 008a 00       		.byte	0
 504 008b 15       		.byte	21
ARM GAS  C:\Users\Abude\AppData\Local\Temp\ccGSgr1b.s 			page 16


 505 008c A2       		.byte	-94
 506 008d 16       		.byte	22
 507 008e 00       		.byte	0
 508 008f 15       		.byte	21
 509 0090 A1       		.byte	-95
 510 0091 15       		.byte	21
 511 0092 C0       		.byte	-64
 512 0093 15       		.byte	21
 513 0094 DA       		.byte	-38
 514 0095 16       		.byte	22
 515 0096 12       		.byte	18
 516 0097 15       		.byte	21
 517 0098 81       		.byte	-127
 518 0099 16       		.byte	22
 519 009a 0F       		.byte	15
 520 009b 15       		.byte	21
 521 009c D5       		.byte	-43
 522 009d 16       		.byte	22
 523 009e D1       		.byte	-47
 524 009f 15       		.byte	21
 525 00a0 D9       		.byte	-39
 526 00a1 16       		.byte	22
 527 00a2 22       		.byte	34
 528 00a3 15       		.byte	21
 529 00a4 DB       		.byte	-37
 530 00a5 16       		.byte	22
 531 00a6 30       		.byte	48
 532 00a7 15       		.byte	21
 533 00a8 A4       		.byte	-92
 534 00a9 15       		.byte	21
 535 00aa A6       		.byte	-90
 536 00ab 19       		.byte	25
 537 00ac FF       		.byte	-1
 538              		.text
 539              	.Letext0:
 540              		.file 2 "c:\\program files (x86)\\cypress\\psoc creator\\4.4\\psoc creator\\import\\gnu\\arm\\5.4.
 541              		.file 3 "c:\\program files (x86)\\cypress\\psoc creator\\4.4\\psoc creator\\import\\gnu\\arm\\5.4.
 542              		.file 4 "c:\\dev\\library embedded l2c display\\u8g2\\csrc\\u8x8.h"