ARM GAS  C:\Users\Abude\AppData\Local\Temp\ccYol8So.s 			page 1


   1              		.syntax unified
   2              		.cpu cortex-m3
   3              		.fpu softvfp
   4              		.eabi_attribute 20, 1
   5              		.eabi_attribute 21, 1
   6              		.eabi_attribute 23, 3
   7              		.eabi_attribute 24, 1
   8              		.eabi_attribute 25, 1
   9              		.eabi_attribute 26, 1
  10              		.eabi_attribute 30, 1
  11              		.eabi_attribute 34, 1
  12              		.eabi_attribute 18, 4
  13              		.thumb
  14              		.syntax unified
  15              		.file	"u8x8_d_uc1638.c"
  16              		.text
  17              	.Ltext0:
  18              		.cfi_sections	.debug_frame
  19              		.section	.text.u8x8_d_uc1638_common,"ax",%progbits
  20              		.align	2
  21              		.global	u8x8_d_uc1638_common
  22              		.thumb
  23              		.thumb_func
  24              		.type	u8x8_d_uc1638_common, %function
  25              	u8x8_d_uc1638_common:
  26              	.LFB0:
  27              		.file 1 "..\\..\\..\\..\\..\\..\\Dev\\Library embedded l2c display\\u8g2\\csrc\\u8x8_d_uc1638.c"
   1:..\..\..\..\..\..\Dev\Library embedded l2c display\u8g2\csrc/u8x8_d_uc1638.c **** /*
   2:..\..\..\..\..\..\Dev\Library embedded l2c display\u8g2\csrc/u8x8_d_uc1638.c **** 
   3:..\..\..\..\..\..\Dev\Library embedded l2c display\u8g2\csrc/u8x8_d_uc1638.c ****   u8x8_d_uc1638.c
   4:..\..\..\..\..\..\Dev\Library embedded l2c display\u8g2\csrc/u8x8_d_uc1638.c ****   
   5:..\..\..\..\..\..\Dev\Library embedded l2c display\u8g2\csrc/u8x8_d_uc1638.c ****   Universal 8bit Graphics Library (https://github.com/olikraus/u8g2/)
   6:..\..\..\..\..\..\Dev\Library embedded l2c display\u8g2\csrc/u8x8_d_uc1638.c **** 
   7:..\..\..\..\..\..\Dev\Library embedded l2c display\u8g2\csrc/u8x8_d_uc1638.c ****   Copyright (c) 2016, olikraus@gmail.com
   8:..\..\..\..\..\..\Dev\Library embedded l2c display\u8g2\csrc/u8x8_d_uc1638.c ****   All rights reserved.
   9:..\..\..\..\..\..\Dev\Library embedded l2c display\u8g2\csrc/u8x8_d_uc1638.c **** 
  10:..\..\..\..\..\..\Dev\Library embedded l2c display\u8g2\csrc/u8x8_d_uc1638.c ****   Redistribution and use in source and binary forms, with or without modification, 
  11:..\..\..\..\..\..\Dev\Library embedded l2c display\u8g2\csrc/u8x8_d_uc1638.c ****   are permitted provided that the following conditions are met:
  12:..\..\..\..\..\..\Dev\Library embedded l2c display\u8g2\csrc/u8x8_d_uc1638.c **** 
  13:..\..\..\..\..\..\Dev\Library embedded l2c display\u8g2\csrc/u8x8_d_uc1638.c ****   * Redistributions of source code must retain the above copyright notice, this list 
  14:..\..\..\..\..\..\Dev\Library embedded l2c display\u8g2\csrc/u8x8_d_uc1638.c ****     of conditions and the following disclaimer.
  15:..\..\..\..\..\..\Dev\Library embedded l2c display\u8g2\csrc/u8x8_d_uc1638.c ****     
  16:..\..\..\..\..\..\Dev\Library embedded l2c display\u8g2\csrc/u8x8_d_uc1638.c ****   * Redistributions in binary form must reproduce the above copyright notice, this 
  17:..\..\..\..\..\..\Dev\Library embedded l2c display\u8g2\csrc/u8x8_d_uc1638.c ****     list of conditions and the following disclaimer in the documentation and/or other 
  18:..\..\..\..\..\..\Dev\Library embedded l2c display\u8g2\csrc/u8x8_d_uc1638.c ****     materials provided with the distribution.
  19:..\..\..\..\..\..\Dev\Library embedded l2c display\u8g2\csrc/u8x8_d_uc1638.c **** 
  20:..\..\..\..\..\..\Dev\Library embedded l2c display\u8g2\csrc/u8x8_d_uc1638.c ****   THIS SOFTWARE IS PROVIDED BY THE COPYRIGHT HOLDERS AND 
  21:..\..\..\..\..\..\Dev\Library embedded l2c display\u8g2\csrc/u8x8_d_uc1638.c ****   CONTRIBUTORS "AS IS" AND ANY EXPRESS OR IMPLIED WARRANTIES, 
  22:..\..\..\..\..\..\Dev\Library embedded l2c display\u8g2\csrc/u8x8_d_uc1638.c ****   INCLUDING, BUT NOT LIMITED TO, THE IMPLIED WARRANTIES OF 
  23:..\..\..\..\..\..\Dev\Library embedded l2c display\u8g2\csrc/u8x8_d_uc1638.c ****   MERCHANTABILITY AND FITNESS FOR A PARTICULAR PURPOSE ARE 
  24:..\..\..\..\..\..\Dev\Library embedded l2c display\u8g2\csrc/u8x8_d_uc1638.c ****   DISCLAIMED. IN NO EVENT SHALL THE COPYRIGHT HOLDER OR 
  25:..\..\..\..\..\..\Dev\Library embedded l2c display\u8g2\csrc/u8x8_d_uc1638.c ****   CONTRIBUTORS BE LIABLE FOR ANY DIRECT, INDIRECT, INCIDENTAL, 
  26:..\..\..\..\..\..\Dev\Library embedded l2c display\u8g2\csrc/u8x8_d_uc1638.c ****   SPECIAL, EXEMPLARY, OR CONSEQUENTIAL DAMAGES (INCLUDING, BUT 
  27:..\..\..\..\..\..\Dev\Library embedded l2c display\u8g2\csrc/u8x8_d_uc1638.c ****   NOT LIMITED TO, PROCUREMENT OF SUBSTITUTE GOODS OR SERVICES; 
  28:..\..\..\..\..\..\Dev\Library embedded l2c display\u8g2\csrc/u8x8_d_uc1638.c ****   LOSS OF USE, DATA, OR PROFITS; OR BUSINESS INTERRUPTION) HOWEVER 
  29:..\..\..\..\..\..\Dev\Library embedded l2c display\u8g2\csrc/u8x8_d_uc1638.c ****   CAUSED AND ON ANY THEORY OF LIABILITY, WHETHER IN CONTRACT, 
  30:..\..\..\..\..\..\Dev\Library embedded l2c display\u8g2\csrc/u8x8_d_uc1638.c ****   STRICT LIABILITY, OR TORT (INCLUDING NEGLIGENCE OR OTHERWISE) 
ARM GAS  C:\Users\Abude\AppData\Local\Temp\ccYol8So.s 			page 2


  31:..\..\..\..\..\..\Dev\Library embedded l2c display\u8g2\csrc/u8x8_d_uc1638.c ****   ARISING IN ANY WAY OUT OF THE USE OF THIS SOFTWARE, EVEN IF 
  32:..\..\..\..\..\..\Dev\Library embedded l2c display\u8g2\csrc/u8x8_d_uc1638.c ****   ADVISED OF THE POSSIBILITY OF SUCH DAMAGE.  
  33:..\..\..\..\..\..\Dev\Library embedded l2c display\u8g2\csrc/u8x8_d_uc1638.c **** 
  34:..\..\..\..\..\..\Dev\Library embedded l2c display\u8g2\csrc/u8x8_d_uc1638.c ****   
  35:..\..\..\..\..\..\Dev\Library embedded l2c display\u8g2\csrc/u8x8_d_uc1638.c ****   Support for the UC1638 controller
  36:..\..\..\..\..\..\Dev\Library embedded l2c display\u8g2\csrc/u8x8_d_uc1638.c ****   
  37:..\..\..\..\..\..\Dev\Library embedded l2c display\u8g2\csrc/u8x8_d_uc1638.c ****   20 Jun 2021: 
  38:..\..\..\..\..\..\Dev\Library embedded l2c display\u8g2\csrc/u8x8_d_uc1638.c ****     The u8x8_d_uc1638_192x96 is tested and works.
  39:..\..\..\..\..\..\Dev\Library embedded l2c display\u8g2\csrc/u8x8_d_uc1638.c ****     The u8x8_d_uc1638_160x128 will probably not work, there is no display to test this
  40:..\..\..\..\..\..\Dev\Library embedded l2c display\u8g2\csrc/u8x8_d_uc1638.c ****       WARNING; The u8x8_d_uc1638_160x128 also has an inverted CS signal !!!
  41:..\..\..\..\..\..\Dev\Library embedded l2c display\u8g2\csrc/u8x8_d_uc1638.c ****     Changed the SPI mode from 3 to 0, because it work nicely with mode 0
  42:..\..\..\..\..\..\Dev\Library embedded l2c display\u8g2\csrc/u8x8_d_uc1638.c **** 
  43:..\..\..\..\..\..\Dev\Library embedded l2c display\u8g2\csrc/u8x8_d_uc1638.c ****   
  44:..\..\..\..\..\..\Dev\Library embedded l2c display\u8g2\csrc/u8x8_d_uc1638.c **** */
  45:..\..\..\..\..\..\Dev\Library embedded l2c display\u8g2\csrc/u8x8_d_uc1638.c **** #include "u8x8.h"
  46:..\..\..\..\..\..\Dev\Library embedded l2c display\u8g2\csrc/u8x8_d_uc1638.c **** 
  47:..\..\..\..\..\..\Dev\Library embedded l2c display\u8g2\csrc/u8x8_d_uc1638.c **** 
  48:..\..\..\..\..\..\Dev\Library embedded l2c display\u8g2\csrc/u8x8_d_uc1638.c **** 
  49:..\..\..\..\..\..\Dev\Library embedded l2c display\u8g2\csrc/u8x8_d_uc1638.c **** 
  50:..\..\..\..\..\..\Dev\Library embedded l2c display\u8g2\csrc/u8x8_d_uc1638.c **** 
  51:..\..\..\..\..\..\Dev\Library embedded l2c display\u8g2\csrc/u8x8_d_uc1638.c **** static const uint8_t u8x8_d_uc1638_powersave0_seq[] = {
  52:..\..\..\..\..\..\Dev\Library embedded l2c display\u8g2\csrc/u8x8_d_uc1638.c ****   U8X8_START_TRANSFER(),             	/* enable chip, delay is part of the transfer start */
  53:..\..\..\..\..\..\Dev\Library embedded l2c display\u8g2\csrc/u8x8_d_uc1638.c ****   U8X8_CA(0x0c9, 0x0ad),		                /* display on */   /* UC1638 B/W mode */
  54:..\..\..\..\..\..\Dev\Library embedded l2c display\u8g2\csrc/u8x8_d_uc1638.c ****   U8X8_END_TRANSFER(),             	/* disable chip */
  55:..\..\..\..\..\..\Dev\Library embedded l2c display\u8g2\csrc/u8x8_d_uc1638.c ****   U8X8_END()             			/* end of sequence */
  56:..\..\..\..\..\..\Dev\Library embedded l2c display\u8g2\csrc/u8x8_d_uc1638.c **** };
  57:..\..\..\..\..\..\Dev\Library embedded l2c display\u8g2\csrc/u8x8_d_uc1638.c **** 
  58:..\..\..\..\..\..\Dev\Library embedded l2c display\u8g2\csrc/u8x8_d_uc1638.c **** static const uint8_t u8x8_d_uc1638_powersave1_seq[] = {
  59:..\..\..\..\..\..\Dev\Library embedded l2c display\u8g2\csrc/u8x8_d_uc1638.c ****   U8X8_START_TRANSFER(),             	/* enable chip, delay is part of the transfer start */
  60:..\..\..\..\..\..\Dev\Library embedded l2c display\u8g2\csrc/u8x8_d_uc1638.c ****   U8X8_CA(0x0c9, 0x0ac),		                /* display off */   /* UC1638 */
  61:..\..\..\..\..\..\Dev\Library embedded l2c display\u8g2\csrc/u8x8_d_uc1638.c ****   U8X8_END_TRANSFER(),             	/* disable chip */
  62:..\..\..\..\..\..\Dev\Library embedded l2c display\u8g2\csrc/u8x8_d_uc1638.c ****   U8X8_END()             			/* end of sequence */
  63:..\..\..\..\..\..\Dev\Library embedded l2c display\u8g2\csrc/u8x8_d_uc1638.c **** };
  64:..\..\..\..\..\..\Dev\Library embedded l2c display\u8g2\csrc/u8x8_d_uc1638.c **** 
  65:..\..\..\..\..\..\Dev\Library embedded l2c display\u8g2\csrc/u8x8_d_uc1638.c **** static const uint8_t u8x8_d_uc1638_flip0_seq[] = {
  66:..\..\..\..\..\..\Dev\Library embedded l2c display\u8g2\csrc/u8x8_d_uc1638.c ****   U8X8_START_TRANSFER(),             	/* enable chip, delay is part of the transfer start */
  67:..\..\..\..\..\..\Dev\Library embedded l2c display\u8g2\csrc/u8x8_d_uc1638.c ****   U8X8_C(0x0c2),            	/* LCD Mapping */    /* UC1638*/
  68:..\..\..\..\..\..\Dev\Library embedded l2c display\u8g2\csrc/u8x8_d_uc1638.c ****   U8X8_END_TRANSFER(),             	/* disable chip */
  69:..\..\..\..\..\..\Dev\Library embedded l2c display\u8g2\csrc/u8x8_d_uc1638.c ****   U8X8_END()             			/* end of sequence */
  70:..\..\..\..\..\..\Dev\Library embedded l2c display\u8g2\csrc/u8x8_d_uc1638.c **** };
  71:..\..\..\..\..\..\Dev\Library embedded l2c display\u8g2\csrc/u8x8_d_uc1638.c **** 
  72:..\..\..\..\..\..\Dev\Library embedded l2c display\u8g2\csrc/u8x8_d_uc1638.c **** static const uint8_t u8x8_d_uc1638_flip1_seq[] = {
  73:..\..\..\..\..\..\Dev\Library embedded l2c display\u8g2\csrc/u8x8_d_uc1638.c ****   U8X8_START_TRANSFER(),             	/* enable chip, delay is part of the transfer start */
  74:..\..\..\..\..\..\Dev\Library embedded l2c display\u8g2\csrc/u8x8_d_uc1638.c ****   U8X8_C(0x0c4),            	/* LCD Mapping */    /* UC1638*/
  75:..\..\..\..\..\..\Dev\Library embedded l2c display\u8g2\csrc/u8x8_d_uc1638.c ****   U8X8_END_TRANSFER(),             	/* disable chip */
  76:..\..\..\..\..\..\Dev\Library embedded l2c display\u8g2\csrc/u8x8_d_uc1638.c ****   U8X8_END()             			/* end of sequence */
  77:..\..\..\..\..\..\Dev\Library embedded l2c display\u8g2\csrc/u8x8_d_uc1638.c **** };
  78:..\..\..\..\..\..\Dev\Library embedded l2c display\u8g2\csrc/u8x8_d_uc1638.c **** 
  79:..\..\..\..\..\..\Dev\Library embedded l2c display\u8g2\csrc/u8x8_d_uc1638.c **** 
  80:..\..\..\..\..\..\Dev\Library embedded l2c display\u8g2\csrc/u8x8_d_uc1638.c **** uint8_t u8x8_d_uc1638_common(u8x8_t *u8x8, uint8_t msg, uint8_t arg_int, void *arg_ptr)
  81:..\..\..\..\..\..\Dev\Library embedded l2c display\u8g2\csrc/u8x8_d_uc1638.c **** {
  28              		.loc 1 81 0
  29              		.cfi_startproc
  30              		@ args = 0, pretend = 0, frame = 0
  31              		@ frame_needed = 0, uses_anonymous_args = 0
  32              	.LVL0:
  33 0000 F8B5     		push	{r3, r4, r5, r6, r7, lr}
ARM GAS  C:\Users\Abude\AppData\Local\Temp\ccYol8So.s 			page 3


  34              		.cfi_def_cfa_offset 24
  35              		.cfi_offset 3, -24
  36              		.cfi_offset 4, -20
  37              		.cfi_offset 5, -16
  38              		.cfi_offset 6, -12
  39              		.cfi_offset 7, -8
  40              		.cfi_offset 14, -4
  41 0002 0546     		mov	r5, r0
  42 0004 1446     		mov	r4, r2
  43 0006 1F46     		mov	r7, r3
  82:..\..\..\..\..\..\Dev\Library embedded l2c display\u8g2\csrc/u8x8_d_uc1638.c ****   uint8_t x, y, c;
  83:..\..\..\..\..\..\Dev\Library embedded l2c display\u8g2\csrc/u8x8_d_uc1638.c ****   uint8_t *ptr;
  84:..\..\..\..\..\..\Dev\Library embedded l2c display\u8g2\csrc/u8x8_d_uc1638.c ****   switch(msg)
  44              		.loc 1 84 0
  45 0008 0B39     		subs	r1, r1, #11
  46              	.LVL1:
  47 000a 0429     		cmp	r1, #4
  48 000c 6DD8     		bhi	.L11
  49 000e DFE801F0 		tbb	[pc, r1]
  50              	.LVL2:
  51              	.L4:
  52 0012 3F       		.byte	(.L3-.L4)/2
  53 0013 6C       		.byte	(.L11-.L4)/2
  54 0014 4A       		.byte	(.L5-.L4)/2
  55 0015 5D       		.byte	(.L6-.L4)/2
  56 0016 03       		.byte	(.L7-.L4)/2
  57 0017 00       		.p2align 1
  58              	.L7:
  85:..\..\..\..\..\..\Dev\Library embedded l2c display\u8g2\csrc/u8x8_d_uc1638.c ****   {
  86:..\..\..\..\..\..\Dev\Library embedded l2c display\u8g2\csrc/u8x8_d_uc1638.c ****     case U8X8_MSG_DISPLAY_DRAW_TILE:
  87:..\..\..\..\..\..\Dev\Library embedded l2c display\u8g2\csrc/u8x8_d_uc1638.c ****       u8x8_cad_StartTransfer(u8x8);
  59              		.loc 1 87 0
  60 0018 FFF7FEFF 		bl	u8x8_cad_StartTransfer
  61              	.LVL3:
  88:..\..\..\..\..\..\Dev\Library embedded l2c display\u8g2\csrc/u8x8_d_uc1638.c ****     
  89:..\..\..\..\..\..\Dev\Library embedded l2c display\u8g2\csrc/u8x8_d_uc1638.c ****       x = ((u8x8_tile_t *)arg_ptr)->x_pos;
  62              		.loc 1 89 0
  63 001c 7E79     		ldrb	r6, [r7, #5]	@ zero_extendqisi2
  64              	.LVL4:
  90:..\..\..\..\..\..\Dev\Library embedded l2c display\u8g2\csrc/u8x8_d_uc1638.c ****       x += u8x8->x_offset & 15;
  65              		.loc 1 90 0
  66 001e 95F82230 		ldrb	r3, [r5, #34]	@ zero_extendqisi2
  67 0022 03F00F03 		and	r3, r3, #15
  68 0026 1E44     		add	r6, r6, r3
  69              	.LVL5:
  70 0028 F6B2     		uxtb	r6, r6
  71              	.LVL6:
  91:..\..\..\..\..\..\Dev\Library embedded l2c display\u8g2\csrc/u8x8_d_uc1638.c ****       x *= 8;
  72              		.loc 1 91 0
  73 002a F600     		lsls	r6, r6, #3
  74              	.LVL7:
  75 002c F6B2     		uxtb	r6, r6
  76              	.LVL8:
  92:..\..\..\..\..\..\Dev\Library embedded l2c display\u8g2\csrc/u8x8_d_uc1638.c **** 
  93:..\..\..\..\..\..\Dev\Library embedded l2c display\u8g2\csrc/u8x8_d_uc1638.c ****       u8x8_cad_SendCmd(u8x8, 0x004);  /* UC1638 */
  77              		.loc 1 93 0
  78 002e 0421     		movs	r1, #4
ARM GAS  C:\Users\Abude\AppData\Local\Temp\ccYol8So.s 			page 4


  79 0030 2846     		mov	r0, r5
  80 0032 FFF7FEFF 		bl	u8x8_cad_SendCmd
  81              	.LVL9:
  94:..\..\..\..\..\..\Dev\Library embedded l2c display\u8g2\csrc/u8x8_d_uc1638.c ****       u8x8_cad_SendArg(u8x8, x);
  82              		.loc 1 94 0
  83 0036 3146     		mov	r1, r6
  84 0038 2846     		mov	r0, r5
  85 003a FFF7FEFF 		bl	u8x8_cad_SendArg
  86              	.LVL10:
  95:..\..\..\..\..\..\Dev\Library embedded l2c display\u8g2\csrc/u8x8_d_uc1638.c ****     
  96:..\..\..\..\..\..\Dev\Library embedded l2c display\u8g2\csrc/u8x8_d_uc1638.c ****       y = ((u8x8_tile_t *)arg_ptr)->y_pos;
  87              		.loc 1 96 0
  88 003e BB79     		ldrb	r3, [r7, #6]	@ zero_extendqisi2
  89              	.LVL11:
  97:..\..\..\..\..\..\Dev\Library embedded l2c display\u8g2\csrc/u8x8_d_uc1638.c ****       y += u8x8->x_offset >> 4;
  90              		.loc 1 97 0
  91 0040 95F82260 		ldrb	r6, [r5, #34]	@ zero_extendqisi2
  92              	.LVL12:
  93 0044 03EB1616 		add	r6, r3, r6, lsr #4
  94 0048 F6B2     		uxtb	r6, r6
  95              	.LVL13:
  98:..\..\..\..\..\..\Dev\Library embedded l2c display\u8g2\csrc/u8x8_d_uc1638.c **** 
  99:..\..\..\..\..\..\Dev\Library embedded l2c display\u8g2\csrc/u8x8_d_uc1638.c ****       u8x8_cad_SendCmd(u8x8, 0x060 | (y&15));  /* UC1638 */
  96              		.loc 1 99 0
  97 004a 06F00F01 		and	r1, r6, #15
  98 004e 41F06001 		orr	r1, r1, #96
  99 0052 2846     		mov	r0, r5
 100 0054 FFF7FEFF 		bl	u8x8_cad_SendCmd
 101              	.LVL14:
 100:..\..\..\..\..\..\Dev\Library embedded l2c display\u8g2\csrc/u8x8_d_uc1638.c ****       u8x8_cad_SendCmd(u8x8, 0x070 | (y>>4));  /* UC1638 */
 102              		.loc 1 100 0
 103 0058 3109     		lsrs	r1, r6, #4
 104 005a 41F07001 		orr	r1, r1, #112
 105 005e 2846     		mov	r0, r5
 106 0060 FFF7FEFF 		bl	u8x8_cad_SendCmd
 107              	.LVL15:
 101:..\..\..\..\..\..\Dev\Library embedded l2c display\u8g2\csrc/u8x8_d_uc1638.c ****     
 102:..\..\..\..\..\..\Dev\Library embedded l2c display\u8g2\csrc/u8x8_d_uc1638.c ****     
 103:..\..\..\..\..\..\Dev\Library embedded l2c display\u8g2\csrc/u8x8_d_uc1638.c ****       u8x8_cad_SendCmd(u8x8, 0x001); /* UC1638 */
 108              		.loc 1 103 0
 109 0064 0121     		movs	r1, #1
 110 0066 2846     		mov	r0, r5
 111 0068 FFF7FEFF 		bl	u8x8_cad_SendCmd
 112              	.LVL16:
 104:..\..\..\..\..\..\Dev\Library embedded l2c display\u8g2\csrc/u8x8_d_uc1638.c ****       c = ((u8x8_tile_t *)arg_ptr)->cnt;
 113              		.loc 1 104 0
 114 006c 3E79     		ldrb	r6, [r7, #4]	@ zero_extendqisi2
 115              	.LVL17:
 105:..\..\..\..\..\..\Dev\Library embedded l2c display\u8g2\csrc/u8x8_d_uc1638.c ****       c *= 8;
 116              		.loc 1 105 0
 117 006e F600     		lsls	r6, r6, #3
 118              	.LVL18:
 119 0070 F6B2     		uxtb	r6, r6
 120              	.LVL19:
 106:..\..\..\..\..\..\Dev\Library embedded l2c display\u8g2\csrc/u8x8_d_uc1638.c ****       ptr = ((u8x8_tile_t *)arg_ptr)->tile_ptr;
 121              		.loc 1 106 0
 122 0072 3F68     		ldr	r7, [r7]
ARM GAS  C:\Users\Abude\AppData\Local\Temp\ccYol8So.s 			page 5


 123              	.LVL20:
 124              	.L8:
 107:..\..\..\..\..\..\Dev\Library embedded l2c display\u8g2\csrc/u8x8_d_uc1638.c ****       do
 108:..\..\..\..\..\..\Dev\Library embedded l2c display\u8g2\csrc/u8x8_d_uc1638.c ****       {
 109:..\..\..\..\..\..\Dev\Library embedded l2c display\u8g2\csrc/u8x8_d_uc1638.c **** 	u8x8_cad_SendData(u8x8, c, ptr);	/* note: SendData can not handle more than 255 bytes */
 125              		.loc 1 109 0 discriminator 1
 126 0074 3A46     		mov	r2, r7
 127 0076 3146     		mov	r1, r6
 128 0078 2846     		mov	r0, r5
 129 007a FFF7FEFF 		bl	u8x8_cad_SendData
 130              	.LVL21:
 110:..\..\..\..\..\..\Dev\Library embedded l2c display\u8g2\csrc/u8x8_d_uc1638.c **** 	arg_int--;
 131              		.loc 1 110 0 discriminator 1
 132 007e 621E     		subs	r2, r4, #1
 133              	.LVL22:
 111:..\..\..\..\..\..\Dev\Library embedded l2c display\u8g2\csrc/u8x8_d_uc1638.c ****       } while( arg_int > 0 );
 134              		.loc 1 111 0 discriminator 1
 135 0080 12F0FF04 		ands	r4, r2, #255
 136 0084 F6D1     		bne	.L8
 112:..\..\..\..\..\..\Dev\Library embedded l2c display\u8g2\csrc/u8x8_d_uc1638.c ****       
 113:..\..\..\..\..\..\Dev\Library embedded l2c display\u8g2\csrc/u8x8_d_uc1638.c ****       u8x8_cad_EndTransfer(u8x8);
 137              		.loc 1 113 0
 138 0086 2846     		mov	r0, r5
 139 0088 FFF7FEFF 		bl	u8x8_cad_EndTransfer
 140              	.LVL23:
 114:..\..\..\..\..\..\Dev\Library embedded l2c display\u8g2\csrc/u8x8_d_uc1638.c ****       break;
 115:..\..\..\..\..\..\Dev\Library embedded l2c display\u8g2\csrc/u8x8_d_uc1638.c ****     /*	handled in the calling procedure 
 116:..\..\..\..\..\..\Dev\Library embedded l2c display\u8g2\csrc/u8x8_d_uc1638.c ****     case U8X8_MSG_DISPLAY_SETUP_MEMORY:
 117:..\..\..\..\..\..\Dev\Library embedded l2c display\u8g2\csrc/u8x8_d_uc1638.c ****       u8x8_d_helper_display_setup_memory(u8x8, &u8x8_uc1638_128x64_display_info);
 118:..\..\..\..\..\..\Dev\Library embedded l2c display\u8g2\csrc/u8x8_d_uc1638.c ****       break;
 119:..\..\..\..\..\..\Dev\Library embedded l2c display\u8g2\csrc/u8x8_d_uc1638.c ****     case U8X8_MSG_DISPLAY_INIT:
 120:..\..\..\..\..\..\Dev\Library embedded l2c display\u8g2\csrc/u8x8_d_uc1638.c ****       u8x8_d_helper_display_init(u8x8);
 121:..\..\..\..\..\..\Dev\Library embedded l2c display\u8g2\csrc/u8x8_d_uc1638.c ****       u8x8_cad_SendSequence(u8x8, u8x8_d_uc1701_dogs102_init_seq);
 122:..\..\..\..\..\..\Dev\Library embedded l2c display\u8g2\csrc/u8x8_d_uc1638.c ****       break;
 123:..\..\..\..\..\..\Dev\Library embedded l2c display\u8g2\csrc/u8x8_d_uc1638.c ****     */
 124:..\..\..\..\..\..\Dev\Library embedded l2c display\u8g2\csrc/u8x8_d_uc1638.c ****     case U8X8_MSG_DISPLAY_SET_POWER_SAVE:
 125:..\..\..\..\..\..\Dev\Library embedded l2c display\u8g2\csrc/u8x8_d_uc1638.c ****       if ( arg_int == 0 )
 126:..\..\..\..\..\..\Dev\Library embedded l2c display\u8g2\csrc/u8x8_d_uc1638.c **** 	u8x8_cad_SendSequence(u8x8, u8x8_d_uc1638_powersave0_seq);
 127:..\..\..\..\..\..\Dev\Library embedded l2c display\u8g2\csrc/u8x8_d_uc1638.c ****       else
 128:..\..\..\..\..\..\Dev\Library embedded l2c display\u8g2\csrc/u8x8_d_uc1638.c **** 	u8x8_cad_SendSequence(u8x8, u8x8_d_uc1638_powersave1_seq);
 129:..\..\..\..\..\..\Dev\Library embedded l2c display\u8g2\csrc/u8x8_d_uc1638.c ****       break;
 130:..\..\..\..\..\..\Dev\Library embedded l2c display\u8g2\csrc/u8x8_d_uc1638.c ****     case U8X8_MSG_DISPLAY_SET_FLIP_MODE:
 131:..\..\..\..\..\..\Dev\Library embedded l2c display\u8g2\csrc/u8x8_d_uc1638.c ****       if ( arg_int == 0 )
 132:..\..\..\..\..\..\Dev\Library embedded l2c display\u8g2\csrc/u8x8_d_uc1638.c ****       {
 133:..\..\..\..\..\..\Dev\Library embedded l2c display\u8g2\csrc/u8x8_d_uc1638.c **** 	u8x8_cad_SendSequence(u8x8, u8x8_d_uc1638_flip0_seq);
 134:..\..\..\..\..\..\Dev\Library embedded l2c display\u8g2\csrc/u8x8_d_uc1638.c **** 	u8x8->x_offset = u8x8->display_info->default_x_offset;
 135:..\..\..\..\..\..\Dev\Library embedded l2c display\u8g2\csrc/u8x8_d_uc1638.c ****       }
 136:..\..\..\..\..\..\Dev\Library embedded l2c display\u8g2\csrc/u8x8_d_uc1638.c ****       else
 137:..\..\..\..\..\..\Dev\Library embedded l2c display\u8g2\csrc/u8x8_d_uc1638.c ****       {
 138:..\..\..\..\..\..\Dev\Library embedded l2c display\u8g2\csrc/u8x8_d_uc1638.c **** 	u8x8_cad_SendSequence(u8x8, u8x8_d_uc1638_flip1_seq);
 139:..\..\..\..\..\..\Dev\Library embedded l2c display\u8g2\csrc/u8x8_d_uc1638.c **** 	u8x8->x_offset = u8x8->display_info->flipmode_x_offset;
 140:..\..\..\..\..\..\Dev\Library embedded l2c display\u8g2\csrc/u8x8_d_uc1638.c ****       }	
 141:..\..\..\..\..\..\Dev\Library embedded l2c display\u8g2\csrc/u8x8_d_uc1638.c ****       break;
 142:..\..\..\..\..\..\Dev\Library embedded l2c display\u8g2\csrc/u8x8_d_uc1638.c **** #ifdef U8X8_WITH_SET_CONTRAST
 143:..\..\..\..\..\..\Dev\Library embedded l2c display\u8g2\csrc/u8x8_d_uc1638.c ****     case U8X8_MSG_DISPLAY_SET_CONTRAST:
 144:..\..\..\..\..\..\Dev\Library embedded l2c display\u8g2\csrc/u8x8_d_uc1638.c ****       u8x8_cad_StartTransfer(u8x8);
 145:..\..\..\..\..\..\Dev\Library embedded l2c display\u8g2\csrc/u8x8_d_uc1638.c ****       u8x8_cad_SendCmd(u8x8, 0x081 );
ARM GAS  C:\Users\Abude\AppData\Local\Temp\ccYol8So.s 			page 6


 146:..\..\..\..\..\..\Dev\Library embedded l2c display\u8g2\csrc/u8x8_d_uc1638.c ****       u8x8_cad_SendArg(u8x8, arg_int  );	/* uc1638 has range from 0 to 255 */
 147:..\..\..\..\..\..\Dev\Library embedded l2c display\u8g2\csrc/u8x8_d_uc1638.c ****       u8x8_cad_EndTransfer(u8x8);
 148:..\..\..\..\..\..\Dev\Library embedded l2c display\u8g2\csrc/u8x8_d_uc1638.c ****       break;
 149:..\..\..\..\..\..\Dev\Library embedded l2c display\u8g2\csrc/u8x8_d_uc1638.c **** #endif
 150:..\..\..\..\..\..\Dev\Library embedded l2c display\u8g2\csrc/u8x8_d_uc1638.c ****     default:
 151:..\..\..\..\..\..\Dev\Library embedded l2c display\u8g2\csrc/u8x8_d_uc1638.c ****       return 0;
 152:..\..\..\..\..\..\Dev\Library embedded l2c display\u8g2\csrc/u8x8_d_uc1638.c ****   }
 153:..\..\..\..\..\..\Dev\Library embedded l2c display\u8g2\csrc/u8x8_d_uc1638.c ****   return 1;
 141              		.loc 1 153 0
 142 008c 0120     		movs	r0, #1
 114:..\..\..\..\..\..\Dev\Library embedded l2c display\u8g2\csrc/u8x8_d_uc1638.c ****       break;
 143              		.loc 1 114 0
 144 008e F8BD     		pop	{r3, r4, r5, r6, r7, pc}
 145              	.LVL24:
 146              	.L3:
 125:..\..\..\..\..\..\Dev\Library embedded l2c display\u8g2\csrc/u8x8_d_uc1638.c **** 	u8x8_cad_SendSequence(u8x8, u8x8_d_uc1638_powersave0_seq);
 147              		.loc 1 125 0
 148 0090 22B9     		cbnz	r2, .L9
 126:..\..\..\..\..\..\Dev\Library embedded l2c display\u8g2\csrc/u8x8_d_uc1638.c ****       else
 149              		.loc 1 126 0
 150 0092 1749     		ldr	r1, .L13
 151 0094 FFF7FEFF 		bl	u8x8_cad_SendSequence
 152              	.LVL25:
 153              		.loc 1 153 0
 154 0098 0120     		movs	r0, #1
 155 009a F8BD     		pop	{r3, r4, r5, r6, r7, pc}
 156              	.LVL26:
 157              	.L9:
 128:..\..\..\..\..\..\Dev\Library embedded l2c display\u8g2\csrc/u8x8_d_uc1638.c ****       break;
 158              		.loc 1 128 0
 159 009c 1549     		ldr	r1, .L13+4
 160 009e FFF7FEFF 		bl	u8x8_cad_SendSequence
 161              	.LVL27:
 162              		.loc 1 153 0
 163 00a2 0120     		movs	r0, #1
 164 00a4 F8BD     		pop	{r3, r4, r5, r6, r7, pc}
 165              	.LVL28:
 166              	.L5:
 131:..\..\..\..\..\..\Dev\Library embedded l2c display\u8g2\csrc/u8x8_d_uc1638.c ****       {
 167              		.loc 1 131 0
 168 00a6 42B9     		cbnz	r2, .L10
 133:..\..\..\..\..\..\Dev\Library embedded l2c display\u8g2\csrc/u8x8_d_uc1638.c **** 	u8x8->x_offset = u8x8->display_info->default_x_offset;
 169              		.loc 1 133 0
 170 00a8 1349     		ldr	r1, .L13+8
 171 00aa FFF7FEFF 		bl	u8x8_cad_SendSequence
 172              	.LVL29:
 134:..\..\..\..\..\..\Dev\Library embedded l2c display\u8g2\csrc/u8x8_d_uc1638.c ****       }
 173              		.loc 1 134 0
 174 00ae 2B68     		ldr	r3, [r5]
 175 00b0 9B7C     		ldrb	r3, [r3, #18]	@ zero_extendqisi2
 176 00b2 85F82230 		strb	r3, [r5, #34]
 177              		.loc 1 153 0
 178 00b6 0120     		movs	r0, #1
 179 00b8 F8BD     		pop	{r3, r4, r5, r6, r7, pc}
 180              	.LVL30:
 181              	.L10:
 138:..\..\..\..\..\..\Dev\Library embedded l2c display\u8g2\csrc/u8x8_d_uc1638.c **** 	u8x8->x_offset = u8x8->display_info->flipmode_x_offset;
ARM GAS  C:\Users\Abude\AppData\Local\Temp\ccYol8So.s 			page 7


 182              		.loc 1 138 0
 183 00ba 1049     		ldr	r1, .L13+12
 184 00bc FFF7FEFF 		bl	u8x8_cad_SendSequence
 185              	.LVL31:
 139:..\..\..\..\..\..\Dev\Library embedded l2c display\u8g2\csrc/u8x8_d_uc1638.c ****       }	
 186              		.loc 1 139 0
 187 00c0 2B68     		ldr	r3, [r5]
 188 00c2 DB7C     		ldrb	r3, [r3, #19]	@ zero_extendqisi2
 189 00c4 85F82230 		strb	r3, [r5, #34]
 190              		.loc 1 153 0
 191 00c8 0120     		movs	r0, #1
 192 00ca F8BD     		pop	{r3, r4, r5, r6, r7, pc}
 193              	.LVL32:
 194              	.L6:
 144:..\..\..\..\..\..\Dev\Library embedded l2c display\u8g2\csrc/u8x8_d_uc1638.c ****       u8x8_cad_SendCmd(u8x8, 0x081 );
 195              		.loc 1 144 0
 196 00cc FFF7FEFF 		bl	u8x8_cad_StartTransfer
 197              	.LVL33:
 145:..\..\..\..\..\..\Dev\Library embedded l2c display\u8g2\csrc/u8x8_d_uc1638.c ****       u8x8_cad_SendArg(u8x8, arg_int  );	/* uc1638 has range from 0 to 255 */
 198              		.loc 1 145 0
 199 00d0 8121     		movs	r1, #129
 200 00d2 2846     		mov	r0, r5
 201 00d4 FFF7FEFF 		bl	u8x8_cad_SendCmd
 202              	.LVL34:
 146:..\..\..\..\..\..\Dev\Library embedded l2c display\u8g2\csrc/u8x8_d_uc1638.c ****       u8x8_cad_EndTransfer(u8x8);
 203              		.loc 1 146 0
 204 00d8 2146     		mov	r1, r4
 205 00da 2846     		mov	r0, r5
 206 00dc FFF7FEFF 		bl	u8x8_cad_SendArg
 207              	.LVL35:
 147:..\..\..\..\..\..\Dev\Library embedded l2c display\u8g2\csrc/u8x8_d_uc1638.c ****       break;
 208              		.loc 1 147 0
 209 00e0 2846     		mov	r0, r5
 210 00e2 FFF7FEFF 		bl	u8x8_cad_EndTransfer
 211              	.LVL36:
 212              		.loc 1 153 0
 213 00e6 0120     		movs	r0, #1
 148:..\..\..\..\..\..\Dev\Library embedded l2c display\u8g2\csrc/u8x8_d_uc1638.c **** #endif
 214              		.loc 1 148 0
 215 00e8 F8BD     		pop	{r3, r4, r5, r6, r7, pc}
 216              	.LVL37:
 217              	.L11:
 151:..\..\..\..\..\..\Dev\Library embedded l2c display\u8g2\csrc/u8x8_d_uc1638.c ****   }
 218              		.loc 1 151 0
 219 00ea 0020     		movs	r0, #0
 220              	.LVL38:
 154:..\..\..\..\..\..\Dev\Library embedded l2c display\u8g2\csrc/u8x8_d_uc1638.c **** }
 221              		.loc 1 154 0
 222 00ec F8BD     		pop	{r3, r4, r5, r6, r7, pc}
 223              	.LVL39:
 224              	.L14:
 225 00ee 00BF     		.align	2
 226              	.L13:
 227 00f0 00000000 		.word	.LANCHOR0
 228 00f4 08000000 		.word	.LANCHOR0+8
 229 00f8 10000000 		.word	.LANCHOR0+16
 230 00fc 18000000 		.word	.LANCHOR0+24
ARM GAS  C:\Users\Abude\AppData\Local\Temp\ccYol8So.s 			page 8


 231              		.cfi_endproc
 232              	.LFE0:
 233              		.size	u8x8_d_uc1638_common, .-u8x8_d_uc1638_common
 234              		.section	.text.u8x8_d_uc1638_160x128,"ax",%progbits
 235              		.align	2
 236              		.global	u8x8_d_uc1638_160x128
 237              		.thumb
 238              		.thumb_func
 239              		.type	u8x8_d_uc1638_160x128, %function
 240              	u8x8_d_uc1638_160x128:
 241              	.LFB1:
 155:..\..\..\..\..\..\Dev\Library embedded l2c display\u8g2\csrc/u8x8_d_uc1638.c **** 
 156:..\..\..\..\..\..\Dev\Library embedded l2c display\u8g2\csrc/u8x8_d_uc1638.c **** 
 157:..\..\..\..\..\..\Dev\Library embedded l2c display\u8g2\csrc/u8x8_d_uc1638.c **** /*================================================*/
 158:..\..\..\..\..\..\Dev\Library embedded l2c display\u8g2\csrc/u8x8_d_uc1638.c **** /* uc1638 160x128 */
 159:..\..\..\..\..\..\Dev\Library embedded l2c display\u8g2\csrc/u8x8_d_uc1638.c **** 
 160:..\..\..\..\..\..\Dev\Library embedded l2c display\u8g2\csrc/u8x8_d_uc1638.c **** /* values taken from uc1608 */
 161:..\..\..\..\..\..\Dev\Library embedded l2c display\u8g2\csrc/u8x8_d_uc1638.c **** static const u8x8_display_info_t u8x8_uc1638_160x128_display_info =
 162:..\..\..\..\..\..\Dev\Library embedded l2c display\u8g2\csrc/u8x8_d_uc1638.c **** {
 163:..\..\..\..\..\..\Dev\Library embedded l2c display\u8g2\csrc/u8x8_d_uc1638.c ****   /* chip_enable_level = */ 1,	/* uc1638 has high active CS */
 164:..\..\..\..\..\..\Dev\Library embedded l2c display\u8g2\csrc/u8x8_d_uc1638.c ****   /* chip_disable_level = */ 0,
 165:..\..\..\..\..\..\Dev\Library embedded l2c display\u8g2\csrc/u8x8_d_uc1638.c ****   
 166:..\..\..\..\..\..\Dev\Library embedded l2c display\u8g2\csrc/u8x8_d_uc1638.c ****   /* post_chip_enable_wait_ns = */ 10,	/* */
 167:..\..\..\..\..\..\Dev\Library embedded l2c display\u8g2\csrc/u8x8_d_uc1638.c ****   /* pre_chip_disable_wait_ns = */ 20,	/* */
 168:..\..\..\..\..\..\Dev\Library embedded l2c display\u8g2\csrc/u8x8_d_uc1638.c ****   /* reset_pulse_width_ms = */ 5, 	/* */
 169:..\..\..\..\..\..\Dev\Library embedded l2c display\u8g2\csrc/u8x8_d_uc1638.c ****   /* post_reset_wait_ms = */ 150, 	
 170:..\..\..\..\..\..\Dev\Library embedded l2c display\u8g2\csrc/u8x8_d_uc1638.c ****   /* sda_setup_time_ns = */ 25,		/* */
 171:..\..\..\..\..\..\Dev\Library embedded l2c display\u8g2\csrc/u8x8_d_uc1638.c ****   /* sck_pulse_width_ns = */ 65,	/* */
 172:..\..\..\..\..\..\Dev\Library embedded l2c display\u8g2\csrc/u8x8_d_uc1638.c ****   /* sck_clock_hz = */ 1000000UL,	/* since Arduino 1.6.0, the SPI bus speed in Hz. Should be  10000
 173:..\..\..\..\..\..\Dev\Library embedded l2c display\u8g2\csrc/u8x8_d_uc1638.c ****   /* spi_mode = */ 0,		/* active high, rising edge */
 174:..\..\..\..\..\..\Dev\Library embedded l2c display\u8g2\csrc/u8x8_d_uc1638.c ****   /* i2c_bus_clock_100kHz = */ 4,
 175:..\..\..\..\..\..\Dev\Library embedded l2c display\u8g2\csrc/u8x8_d_uc1638.c ****   /* data_setup_time_ns = */ 30,	/*  */
 176:..\..\..\..\..\..\Dev\Library embedded l2c display\u8g2\csrc/u8x8_d_uc1638.c ****   /* write_pulse_width_ns = */ 35,	/*  */
 177:..\..\..\..\..\..\Dev\Library embedded l2c display\u8g2\csrc/u8x8_d_uc1638.c ****   /* tile_width = */ 20,		/* width of 20*8=160 pixel */
 178:..\..\..\..\..\..\Dev\Library embedded l2c display\u8g2\csrc/u8x8_d_uc1638.c ****   /* tile_hight = */ 16,
 179:..\..\..\..\..\..\Dev\Library embedded l2c display\u8g2\csrc/u8x8_d_uc1638.c ****   /* default_x_offset = */ 0,	/* lower nibble: x offset, upper nibble: y offset */
 180:..\..\..\..\..\..\Dev\Library embedded l2c display\u8g2\csrc/u8x8_d_uc1638.c ****   /* flipmode_x_offset = */ 0,	/* lower nibble: x offset, upper nibble: y offset */
 181:..\..\..\..\..\..\Dev\Library embedded l2c display\u8g2\csrc/u8x8_d_uc1638.c ****   /* pixel_width = */ 160,
 182:..\..\..\..\..\..\Dev\Library embedded l2c display\u8g2\csrc/u8x8_d_uc1638.c ****   /* pixel_height = */ 128
 183:..\..\..\..\..\..\Dev\Library embedded l2c display\u8g2\csrc/u8x8_d_uc1638.c **** };
 184:..\..\..\..\..\..\Dev\Library embedded l2c display\u8g2\csrc/u8x8_d_uc1638.c **** 
 185:..\..\..\..\..\..\Dev\Library embedded l2c display\u8g2\csrc/u8x8_d_uc1638.c **** static const uint8_t u8x8_d_uc1638_160x128_init_seq[] = {
 186:..\..\..\..\..\..\Dev\Library embedded l2c display\u8g2\csrc/u8x8_d_uc1638.c ****     
 187:..\..\..\..\..\..\Dev\Library embedded l2c display\u8g2\csrc/u8x8_d_uc1638.c ****   U8X8_START_TRANSFER(),             	/* enable chip, delay is part of the transfer start */
 188:..\..\..\..\..\..\Dev\Library embedded l2c display\u8g2\csrc/u8x8_d_uc1638.c **** 
 189:..\..\..\..\..\..\Dev\Library embedded l2c display\u8g2\csrc/u8x8_d_uc1638.c ****   U8X8_CA(0x0e1, 0x0e2),		/* software reset */    /* UC1638*/
 190:..\..\..\..\..\..\Dev\Library embedded l2c display\u8g2\csrc/u8x8_d_uc1638.c ****   U8X8_END_TRANSFER(),             	/* disable chip, requirement for I2C */
 191:..\..\..\..\..\..\Dev\Library embedded l2c display\u8g2\csrc/u8x8_d_uc1638.c ****   U8X8_DLY(5),					/* 5 ms */	
 192:..\..\..\..\..\..\Dev\Library embedded l2c display\u8g2\csrc/u8x8_d_uc1638.c ****   
 193:..\..\..\..\..\..\Dev\Library embedded l2c display\u8g2\csrc/u8x8_d_uc1638.c ****   U8X8_START_TRANSFER(),             	/* enable chip, delay is part of the transfer start */
 194:..\..\..\..\..\..\Dev\Library embedded l2c display\u8g2\csrc/u8x8_d_uc1638.c **** 
 195:..\..\..\..\..\..\Dev\Library embedded l2c display\u8g2\csrc/u8x8_d_uc1638.c ****   U8X8_C(0x024),            		/*	 set temp comp*/
 196:..\..\..\..\..\..\Dev\Library embedded l2c display\u8g2\csrc/u8x8_d_uc1638.c ****   U8X8_C(0x0c0),            		/*	mirror y and mirror x */  /* WAS: c2 */
 197:..\..\..\..\..\..\Dev\Library embedded l2c display\u8g2\csrc/u8x8_d_uc1638.c ****   U8X8_C(0x0a2),            		/*	line rate */
 198:..\..\..\..\..\..\Dev\Library embedded l2c display\u8g2\csrc/u8x8_d_uc1638.c ****   U8X8_C(0x0d6),            		/*	gray scale 2 */
 199:..\..\..\..\..\..\Dev\Library embedded l2c display\u8g2\csrc/u8x8_d_uc1638.c ****   U8X8_C(0x0eb),            		/*	 set bias*/
 200:..\..\..\..\..\..\Dev\Library embedded l2c display\u8g2\csrc/u8x8_d_uc1638.c ****   U8X8_C(0x095),            		/*	 set 1 bit per pixel, pattern 0*/
ARM GAS  C:\Users\Abude\AppData\Local\Temp\ccYol8So.s 			page 9


 201:..\..\..\..\..\..\Dev\Library embedded l2c display\u8g2\csrc/u8x8_d_uc1638.c ****   U8X8_C(0x089),            		/*	 set auto increment, low bits are AC2 AC1 AC0 */  /* WAS 89 */
 202:..\..\..\..\..\..\Dev\Library embedded l2c display\u8g2\csrc/u8x8_d_uc1638.c **** 
 203:..\..\..\..\..\..\Dev\Library embedded l2c display\u8g2\csrc/u8x8_d_uc1638.c **** 
 204:..\..\..\..\..\..\Dev\Library embedded l2c display\u8g2\csrc/u8x8_d_uc1638.c ****   U8X8_CA(0x081, 0x0a0),		/* set contrast */    /* UC1638*/
 205:..\..\..\..\..\..\Dev\Library embedded l2c display\u8g2\csrc/u8x8_d_uc1638.c ****   
 206:..\..\..\..\..\..\Dev\Library embedded l2c display\u8g2\csrc/u8x8_d_uc1638.c ****   
 207:..\..\..\..\..\..\Dev\Library embedded l2c display\u8g2\csrc/u8x8_d_uc1638.c ****   U8X8_END_TRANSFER(),             	/* disable chip */
 208:..\..\..\..\..\..\Dev\Library embedded l2c display\u8g2\csrc/u8x8_d_uc1638.c ****   U8X8_END()             			/* end of sequence */
 209:..\..\..\..\..\..\Dev\Library embedded l2c display\u8g2\csrc/u8x8_d_uc1638.c **** };
 210:..\..\..\..\..\..\Dev\Library embedded l2c display\u8g2\csrc/u8x8_d_uc1638.c **** 
 211:..\..\..\..\..\..\Dev\Library embedded l2c display\u8g2\csrc/u8x8_d_uc1638.c **** uint8_t u8x8_d_uc1638_160x128(u8x8_t *u8x8, uint8_t msg, uint8_t arg_int, void *arg_ptr)
 212:..\..\..\..\..\..\Dev\Library embedded l2c display\u8g2\csrc/u8x8_d_uc1638.c **** {
 242              		.loc 1 212 0
 243              		.cfi_startproc
 244              		@ args = 0, pretend = 0, frame = 0
 245              		@ frame_needed = 0, uses_anonymous_args = 0
 246              	.LVL40:
 247 0000 38B5     		push	{r3, r4, r5, lr}
 248              		.cfi_def_cfa_offset 16
 249              		.cfi_offset 3, -16
 250              		.cfi_offset 4, -12
 251              		.cfi_offset 5, -8
 252              		.cfi_offset 14, -4
 253 0002 0546     		mov	r5, r0
 254 0004 0C46     		mov	r4, r1
 213:..\..\..\..\..\..\Dev\Library embedded l2c display\u8g2\csrc/u8x8_d_uc1638.c ****   /* call common procedure first and handle messages there */
 214:..\..\..\..\..\..\Dev\Library embedded l2c display\u8g2\csrc/u8x8_d_uc1638.c ****   if ( u8x8_d_uc1638_common(u8x8, msg, arg_int, arg_ptr) == 0 )
 255              		.loc 1 214 0
 256 0006 FFF7FEFF 		bl	u8x8_d_uc1638_common
 257              	.LVL41:
 258 000a A0B9     		cbnz	r0, .L19
 259 000c 0346     		mov	r3, r0
 215:..\..\..\..\..\..\Dev\Library embedded l2c display\u8g2\csrc/u8x8_d_uc1638.c ****   {
 216:..\..\..\..\..\..\Dev\Library embedded l2c display\u8g2\csrc/u8x8_d_uc1638.c ****     /* msg not handled, then try here */
 217:..\..\..\..\..\..\Dev\Library embedded l2c display\u8g2\csrc/u8x8_d_uc1638.c ****     switch(msg)
 260              		.loc 1 217 0
 261 000e 092C     		cmp	r4, #9
 262 0010 02D0     		beq	.L17
 263 0012 0A2C     		cmp	r4, #10
 264 0014 06D0     		beq	.L18
 265 0016 0FE0     		b	.L16
 266              	.L17:
 218:..\..\..\..\..\..\Dev\Library embedded l2c display\u8g2\csrc/u8x8_d_uc1638.c ****     {
 219:..\..\..\..\..\..\Dev\Library embedded l2c display\u8g2\csrc/u8x8_d_uc1638.c ****       case U8X8_MSG_DISPLAY_SETUP_MEMORY:
 220:..\..\..\..\..\..\Dev\Library embedded l2c display\u8g2\csrc/u8x8_d_uc1638.c **** 	u8x8_d_helper_display_setup_memory(u8x8, &u8x8_uc1638_160x128_display_info);
 267              		.loc 1 220 0
 268 0018 0849     		ldr	r1, .L21
 269 001a 2846     		mov	r0, r5
 270 001c FFF7FEFF 		bl	u8x8_d_helper_display_setup_memory
 271              	.LVL42:
 221:..\..\..\..\..\..\Dev\Library embedded l2c display\u8g2\csrc/u8x8_d_uc1638.c **** 	break;
 222:..\..\..\..\..\..\Dev\Library embedded l2c display\u8g2\csrc/u8x8_d_uc1638.c ****       case U8X8_MSG_DISPLAY_INIT:
 223:..\..\..\..\..\..\Dev\Library embedded l2c display\u8g2\csrc/u8x8_d_uc1638.c **** 	u8x8_d_helper_display_init(u8x8);
 224:..\..\..\..\..\..\Dev\Library embedded l2c display\u8g2\csrc/u8x8_d_uc1638.c **** 	u8x8_cad_SendSequence(u8x8, u8x8_d_uc1638_160x128_init_seq);
 225:..\..\..\..\..\..\Dev\Library embedded l2c display\u8g2\csrc/u8x8_d_uc1638.c **** 	break;
 226:..\..\..\..\..\..\Dev\Library embedded l2c display\u8g2\csrc/u8x8_d_uc1638.c ****       default:
 227:..\..\..\..\..\..\Dev\Library embedded l2c display\u8g2\csrc/u8x8_d_uc1638.c **** 	return 0;		/* msg unknown */
ARM GAS  C:\Users\Abude\AppData\Local\Temp\ccYol8So.s 			page 10


 228:..\..\..\..\..\..\Dev\Library embedded l2c display\u8g2\csrc/u8x8_d_uc1638.c ****     }
 229:..\..\..\..\..\..\Dev\Library embedded l2c display\u8g2\csrc/u8x8_d_uc1638.c ****   }
 230:..\..\..\..\..\..\Dev\Library embedded l2c display\u8g2\csrc/u8x8_d_uc1638.c ****   return 1;
 272              		.loc 1 230 0
 273 0020 0123     		movs	r3, #1
 221:..\..\..\..\..\..\Dev\Library embedded l2c display\u8g2\csrc/u8x8_d_uc1638.c **** 	break;
 274              		.loc 1 221 0
 275 0022 09E0     		b	.L16
 276              	.L18:
 223:..\..\..\..\..\..\Dev\Library embedded l2c display\u8g2\csrc/u8x8_d_uc1638.c **** 	u8x8_cad_SendSequence(u8x8, u8x8_d_uc1638_160x128_init_seq);
 277              		.loc 1 223 0
 278 0024 2846     		mov	r0, r5
 279 0026 FFF7FEFF 		bl	u8x8_d_helper_display_init
 280              	.LVL43:
 224:..\..\..\..\..\..\Dev\Library embedded l2c display\u8g2\csrc/u8x8_d_uc1638.c **** 	break;
 281              		.loc 1 224 0
 282 002a 0549     		ldr	r1, .L21+4
 283 002c 2846     		mov	r0, r5
 284 002e FFF7FEFF 		bl	u8x8_cad_SendSequence
 285              	.LVL44:
 286              		.loc 1 230 0
 287 0032 0123     		movs	r3, #1
 225:..\..\..\..\..\..\Dev\Library embedded l2c display\u8g2\csrc/u8x8_d_uc1638.c ****       default:
 288              		.loc 1 225 0
 289 0034 00E0     		b	.L16
 290              	.L19:
 291              		.loc 1 230 0
 292 0036 0123     		movs	r3, #1
 293              	.L16:
 231:..\..\..\..\..\..\Dev\Library embedded l2c display\u8g2\csrc/u8x8_d_uc1638.c **** }
 294              		.loc 1 231 0
 295 0038 1846     		mov	r0, r3
 296 003a 38BD     		pop	{r3, r4, r5, pc}
 297              	.LVL45:
 298              	.L22:
 299              		.align	2
 300              	.L21:
 301 003c 20000000 		.word	.LANCHOR0+32
 302 0040 38000000 		.word	.LANCHOR0+56
 303              		.cfi_endproc
 304              	.LFE1:
 305              		.size	u8x8_d_uc1638_160x128, .-u8x8_d_uc1638_160x128
 306              		.section	.text.u8x8_d_uc1638_192x96,"ax",%progbits
 307              		.align	2
 308              		.global	u8x8_d_uc1638_192x96
 309              		.thumb
 310              		.thumb_func
 311              		.type	u8x8_d_uc1638_192x96, %function
 312              	u8x8_d_uc1638_192x96:
 313              	.LFB2:
 232:..\..\..\..\..\..\Dev\Library embedded l2c display\u8g2\csrc/u8x8_d_uc1638.c **** 
 233:..\..\..\..\..\..\Dev\Library embedded l2c display\u8g2\csrc/u8x8_d_uc1638.c **** 
 234:..\..\..\..\..\..\Dev\Library embedded l2c display\u8g2\csrc/u8x8_d_uc1638.c **** /*================================================*/
 235:..\..\..\..\..\..\Dev\Library embedded l2c display\u8g2\csrc/u8x8_d_uc1638.c **** 
 236:..\..\..\..\..\..\Dev\Library embedded l2c display\u8g2\csrc/u8x8_d_uc1638.c **** /* LG192962-DW-V33, uc1638 192x96, https://github.com/olikraus/u8g2/issues/371 */
 237:..\..\..\..\..\..\Dev\Library embedded l2c display\u8g2\csrc/u8x8_d_uc1638.c **** 
 238:..\..\..\..\..\..\Dev\Library embedded l2c display\u8g2\csrc/u8x8_d_uc1638.c **** static const u8x8_display_info_t u8x8_uc1638_192x96_display_info =
ARM GAS  C:\Users\Abude\AppData\Local\Temp\ccYol8So.s 			page 11


 239:..\..\..\..\..\..\Dev\Library embedded l2c display\u8g2\csrc/u8x8_d_uc1638.c **** {
 240:..\..\..\..\..\..\Dev\Library embedded l2c display\u8g2\csrc/u8x8_d_uc1638.c ****   /* chip_enable_level = */ 0,	/* low active CS for this display */
 241:..\..\..\..\..\..\Dev\Library embedded l2c display\u8g2\csrc/u8x8_d_uc1638.c ****   /* chip_disable_level = */ 1,
 242:..\..\..\..\..\..\Dev\Library embedded l2c display\u8g2\csrc/u8x8_d_uc1638.c ****   
 243:..\..\..\..\..\..\Dev\Library embedded l2c display\u8g2\csrc/u8x8_d_uc1638.c ****   /* post_chip_enable_wait_ns = */ 10,	/* */
 244:..\..\..\..\..\..\Dev\Library embedded l2c display\u8g2\csrc/u8x8_d_uc1638.c ****   /* pre_chip_disable_wait_ns = */ 20,	/* */
 245:..\..\..\..\..\..\Dev\Library embedded l2c display\u8g2\csrc/u8x8_d_uc1638.c ****   /* reset_pulse_width_ms = */ 5, 	/* */
 246:..\..\..\..\..\..\Dev\Library embedded l2c display\u8g2\csrc/u8x8_d_uc1638.c ****   /* post_reset_wait_ms = */ 150, 	
 247:..\..\..\..\..\..\Dev\Library embedded l2c display\u8g2\csrc/u8x8_d_uc1638.c ****   /* sda_setup_time_ns = */ 25,		/* */
 248:..\..\..\..\..\..\Dev\Library embedded l2c display\u8g2\csrc/u8x8_d_uc1638.c ****   /* sck_pulse_width_ns = */ 65,	/* */
 249:..\..\..\..\..\..\Dev\Library embedded l2c display\u8g2\csrc/u8x8_d_uc1638.c ****   /* sck_clock_hz = */ 2000000UL,	/* since Arduino 1.6.0, the SPI bus speed in Hz. Should be  10000
 250:..\..\..\..\..\..\Dev\Library embedded l2c display\u8g2\csrc/u8x8_d_uc1638.c ****   /* spi_mode = */ 0,		/* active high, rising edge */
 251:..\..\..\..\..\..\Dev\Library embedded l2c display\u8g2\csrc/u8x8_d_uc1638.c ****   /* i2c_bus_clock_100kHz = */ 4,
 252:..\..\..\..\..\..\Dev\Library embedded l2c display\u8g2\csrc/u8x8_d_uc1638.c ****   /* data_setup_time_ns = */ 30,	/*  */
 253:..\..\..\..\..\..\Dev\Library embedded l2c display\u8g2\csrc/u8x8_d_uc1638.c ****   /* write_pulse_width_ns = */ 35,	/*  */
 254:..\..\..\..\..\..\Dev\Library embedded l2c display\u8g2\csrc/u8x8_d_uc1638.c ****   /* tile_width = */ 24,		/* width of 24*8=192 pixel */
 255:..\..\..\..\..\..\Dev\Library embedded l2c display\u8g2\csrc/u8x8_d_uc1638.c ****   /* tile_hight = */ 12,
 256:..\..\..\..\..\..\Dev\Library embedded l2c display\u8g2\csrc/u8x8_d_uc1638.c ****   /* default_x_offset = */ 8*16+0,	/* lower nibble: x offset, upper nibble: y offset */
 257:..\..\..\..\..\..\Dev\Library embedded l2c display\u8g2\csrc/u8x8_d_uc1638.c ****   /* flipmode_x_offset = */ 0*16+6,	/* lower nibble: x offset, upper nibble: y offset */
 258:..\..\..\..\..\..\Dev\Library embedded l2c display\u8g2\csrc/u8x8_d_uc1638.c ****   /* pixel_width = */ 192,
 259:..\..\..\..\..\..\Dev\Library embedded l2c display\u8g2\csrc/u8x8_d_uc1638.c ****   /* pixel_height = */ 96
 260:..\..\..\..\..\..\Dev\Library embedded l2c display\u8g2\csrc/u8x8_d_uc1638.c **** };
 261:..\..\..\..\..\..\Dev\Library embedded l2c display\u8g2\csrc/u8x8_d_uc1638.c **** 
 262:..\..\..\..\..\..\Dev\Library embedded l2c display\u8g2\csrc/u8x8_d_uc1638.c **** static const uint8_t u8x8_d_uc1638_192x96_init_seq[] = {
 263:..\..\..\..\..\..\Dev\Library embedded l2c display\u8g2\csrc/u8x8_d_uc1638.c ****     
 264:..\..\..\..\..\..\Dev\Library embedded l2c display\u8g2\csrc/u8x8_d_uc1638.c ****   U8X8_START_TRANSFER(),             	/* enable chip, delay is part of the transfer start */
 265:..\..\..\..\..\..\Dev\Library embedded l2c display\u8g2\csrc/u8x8_d_uc1638.c **** 
 266:..\..\..\..\..\..\Dev\Library embedded l2c display\u8g2\csrc/u8x8_d_uc1638.c ****   U8X8_CA(0x0e1, 0x0e2),		/* software reset */    /* UC1638*/
 267:..\..\..\..\..\..\Dev\Library embedded l2c display\u8g2\csrc/u8x8_d_uc1638.c ****   U8X8_DLY(5),					/* 5 ms */	
 268:..\..\..\..\..\..\Dev\Library embedded l2c display\u8g2\csrc/u8x8_d_uc1638.c **** 
 269:..\..\..\..\..\..\Dev\Library embedded l2c display\u8g2\csrc/u8x8_d_uc1638.c ****   U8X8_C(0x024),            		/*	 set temp comp*/
 270:..\..\..\..\..\..\Dev\Library embedded l2c display\u8g2\csrc/u8x8_d_uc1638.c ****   U8X8_C(0x0c2),            		/*	mirror y and mirror x */ 
 271:..\..\..\..\..\..\Dev\Library embedded l2c display\u8g2\csrc/u8x8_d_uc1638.c ****   U8X8_C(0x0a2),            		/*	line rate */
 272:..\..\..\..\..\..\Dev\Library embedded l2c display\u8g2\csrc/u8x8_d_uc1638.c ****   U8X8_C(0x02d),            		/*	charge pump */
 273:..\..\..\..\..\..\Dev\Library embedded l2c display\u8g2\csrc/u8x8_d_uc1638.c ****   U8X8_C(0x0ea),            		/*	 set bias*/
 274:..\..\..\..\..\..\Dev\Library embedded l2c display\u8g2\csrc/u8x8_d_uc1638.c ****   U8X8_CA(0x081, 160),            	/*	 set contrast */
 275:..\..\..\..\..\..\Dev\Library embedded l2c display\u8g2\csrc/u8x8_d_uc1638.c ****   //U8X8_C(0x0d6),            		/*	gray scale 2 */
 276:..\..\..\..\..\..\Dev\Library embedded l2c display\u8g2\csrc/u8x8_d_uc1638.c ****   U8X8_C(0x095),            		/*	 set 1 bit per pixel, pattern 0*/
 277:..\..\..\..\..\..\Dev\Library embedded l2c display\u8g2\csrc/u8x8_d_uc1638.c ****   U8X8_C(0x086),            		/*	 COM scan */
 278:..\..\..\..\..\..\Dev\Library embedded l2c display\u8g2\csrc/u8x8_d_uc1638.c ****   U8X8_CA(0x0f1, 159),            	/*	 COM End*/
 279:..\..\..\..\..\..\Dev\Library embedded l2c display\u8g2\csrc/u8x8_d_uc1638.c ****   U8X8_C(0x089),            		/*	 set auto increment, low bits are AC2 AC1 AC0 */  /* WAS 89 */
 280:..\..\..\..\..\..\Dev\Library embedded l2c display\u8g2\csrc/u8x8_d_uc1638.c ****   //U8X8_C(0x086),            		/*	 scan function 0x86 or 0x87: no effect*/
 281:..\..\..\..\..\..\Dev\Library embedded l2c display\u8g2\csrc/u8x8_d_uc1638.c ****   
 282:..\..\..\..\..\..\Dev\Library embedded l2c display\u8g2\csrc/u8x8_d_uc1638.c ****   U8X8_END_TRANSFER(),             	/* disable chip */
 283:..\..\..\..\..\..\Dev\Library embedded l2c display\u8g2\csrc/u8x8_d_uc1638.c ****   U8X8_END()             			/* end of sequence */
 284:..\..\..\..\..\..\Dev\Library embedded l2c display\u8g2\csrc/u8x8_d_uc1638.c **** };
 285:..\..\..\..\..\..\Dev\Library embedded l2c display\u8g2\csrc/u8x8_d_uc1638.c **** 
 286:..\..\..\..\..\..\Dev\Library embedded l2c display\u8g2\csrc/u8x8_d_uc1638.c **** uint8_t u8x8_d_uc1638_192x96(u8x8_t *u8x8, uint8_t msg, uint8_t arg_int, void *arg_ptr)
 287:..\..\..\..\..\..\Dev\Library embedded l2c display\u8g2\csrc/u8x8_d_uc1638.c **** {
 314              		.loc 1 287 0
 315              		.cfi_startproc
 316              		@ args = 0, pretend = 0, frame = 0
 317              		@ frame_needed = 0, uses_anonymous_args = 0
 318              	.LVL46:
 319 0000 38B5     		push	{r3, r4, r5, lr}
 320              		.cfi_def_cfa_offset 16
 321              		.cfi_offset 3, -16
ARM GAS  C:\Users\Abude\AppData\Local\Temp\ccYol8So.s 			page 12


 322              		.cfi_offset 4, -12
 323              		.cfi_offset 5, -8
 324              		.cfi_offset 14, -4
 325 0002 0546     		mov	r5, r0
 326 0004 0C46     		mov	r4, r1
 288:..\..\..\..\..\..\Dev\Library embedded l2c display\u8g2\csrc/u8x8_d_uc1638.c ****   /* call common procedure first and handle messages there */
 289:..\..\..\..\..\..\Dev\Library embedded l2c display\u8g2\csrc/u8x8_d_uc1638.c ****   if ( u8x8_d_uc1638_common(u8x8, msg, arg_int, arg_ptr) == 0 )
 327              		.loc 1 289 0
 328 0006 FFF7FEFF 		bl	u8x8_d_uc1638_common
 329              	.LVL47:
 330 000a A0B9     		cbnz	r0, .L27
 331 000c 0346     		mov	r3, r0
 290:..\..\..\..\..\..\Dev\Library embedded l2c display\u8g2\csrc/u8x8_d_uc1638.c ****   {
 291:..\..\..\..\..\..\Dev\Library embedded l2c display\u8g2\csrc/u8x8_d_uc1638.c ****     /* msg not handled, then try here */
 292:..\..\..\..\..\..\Dev\Library embedded l2c display\u8g2\csrc/u8x8_d_uc1638.c ****     switch(msg)
 332              		.loc 1 292 0
 333 000e 092C     		cmp	r4, #9
 334 0010 02D0     		beq	.L25
 335 0012 0A2C     		cmp	r4, #10
 336 0014 06D0     		beq	.L26
 337 0016 0FE0     		b	.L24
 338              	.L25:
 293:..\..\..\..\..\..\Dev\Library embedded l2c display\u8g2\csrc/u8x8_d_uc1638.c ****     {
 294:..\..\..\..\..\..\Dev\Library embedded l2c display\u8g2\csrc/u8x8_d_uc1638.c ****       case U8X8_MSG_DISPLAY_SETUP_MEMORY:
 295:..\..\..\..\..\..\Dev\Library embedded l2c display\u8g2\csrc/u8x8_d_uc1638.c **** 	u8x8_d_helper_display_setup_memory(u8x8, &u8x8_uc1638_192x96_display_info);
 339              		.loc 1 295 0
 340 0018 0849     		ldr	r1, .L29
 341 001a 2846     		mov	r0, r5
 342 001c FFF7FEFF 		bl	u8x8_d_helper_display_setup_memory
 343              	.LVL48:
 296:..\..\..\..\..\..\Dev\Library embedded l2c display\u8g2\csrc/u8x8_d_uc1638.c **** 	break;
 297:..\..\..\..\..\..\Dev\Library embedded l2c display\u8g2\csrc/u8x8_d_uc1638.c ****       case U8X8_MSG_DISPLAY_INIT:
 298:..\..\..\..\..\..\Dev\Library embedded l2c display\u8g2\csrc/u8x8_d_uc1638.c **** 	u8x8_d_helper_display_init(u8x8);
 299:..\..\..\..\..\..\Dev\Library embedded l2c display\u8g2\csrc/u8x8_d_uc1638.c ****           u8x8_cad_SendSequence(u8x8, u8x8_d_uc1638_192x96_init_seq);
 300:..\..\..\..\..\..\Dev\Library embedded l2c display\u8g2\csrc/u8x8_d_uc1638.c **** 	break;
 301:..\..\..\..\..\..\Dev\Library embedded l2c display\u8g2\csrc/u8x8_d_uc1638.c ****       default:
 302:..\..\..\..\..\..\Dev\Library embedded l2c display\u8g2\csrc/u8x8_d_uc1638.c **** 	return 0;		/* msg unknown */
 303:..\..\..\..\..\..\Dev\Library embedded l2c display\u8g2\csrc/u8x8_d_uc1638.c ****     }
 304:..\..\..\..\..\..\Dev\Library embedded l2c display\u8g2\csrc/u8x8_d_uc1638.c ****   }
 305:..\..\..\..\..\..\Dev\Library embedded l2c display\u8g2\csrc/u8x8_d_uc1638.c ****   return 1;
 344              		.loc 1 305 0
 345 0020 0123     		movs	r3, #1
 296:..\..\..\..\..\..\Dev\Library embedded l2c display\u8g2\csrc/u8x8_d_uc1638.c **** 	break;
 346              		.loc 1 296 0
 347 0022 09E0     		b	.L24
 348              	.L26:
 298:..\..\..\..\..\..\Dev\Library embedded l2c display\u8g2\csrc/u8x8_d_uc1638.c ****           u8x8_cad_SendSequence(u8x8, u8x8_d_uc1638_192x96_init_seq);
 349              		.loc 1 298 0
 350 0024 2846     		mov	r0, r5
 351 0026 FFF7FEFF 		bl	u8x8_d_helper_display_init
 352              	.LVL49:
 299:..\..\..\..\..\..\Dev\Library embedded l2c display\u8g2\csrc/u8x8_d_uc1638.c **** 	break;
 353              		.loc 1 299 0
 354 002a 0549     		ldr	r1, .L29+4
 355 002c 2846     		mov	r0, r5
 356 002e FFF7FEFF 		bl	u8x8_cad_SendSequence
 357              	.LVL50:
ARM GAS  C:\Users\Abude\AppData\Local\Temp\ccYol8So.s 			page 13


 358              		.loc 1 305 0
 359 0032 0123     		movs	r3, #1
 300:..\..\..\..\..\..\Dev\Library embedded l2c display\u8g2\csrc/u8x8_d_uc1638.c ****       default:
 360              		.loc 1 300 0
 361 0034 00E0     		b	.L24
 362              	.L27:
 363              		.loc 1 305 0
 364 0036 0123     		movs	r3, #1
 365              	.L24:
 306:..\..\..\..\..\..\Dev\Library embedded l2c display\u8g2\csrc/u8x8_d_uc1638.c **** }
 366              		.loc 1 306 0
 367 0038 1846     		mov	r0, r3
 368 003a 38BD     		pop	{r3, r4, r5, pc}
 369              	.LVL51:
 370              	.L30:
 371              		.align	2
 372              	.L29:
 373 003c 58000000 		.word	.LANCHOR0+88
 374 0040 70000000 		.word	.LANCHOR0+112
 375              		.cfi_endproc
 376              	.LFE2:
 377              		.size	u8x8_d_uc1638_192x96, .-u8x8_d_uc1638_192x96
 378              		.section	.rodata
 379              		.align	2
 380              		.set	.LANCHOR0,. + 0
 381              		.type	u8x8_d_uc1638_powersave0_seq, %object
 382              		.size	u8x8_d_uc1638_powersave0_seq, 7
 383              	u8x8_d_uc1638_powersave0_seq:
 384 0000 18       		.byte	24
 385 0001 15       		.byte	21
 386 0002 C9       		.byte	-55
 387 0003 16       		.byte	22
 388 0004 AD       		.byte	-83
 389 0005 19       		.byte	25
 390 0006 FF       		.byte	-1
 391 0007 00       		.space	1
 392              		.type	u8x8_d_uc1638_powersave1_seq, %object
 393              		.size	u8x8_d_uc1638_powersave1_seq, 7
 394              	u8x8_d_uc1638_powersave1_seq:
 395 0008 18       		.byte	24
 396 0009 15       		.byte	21
 397 000a C9       		.byte	-55
 398 000b 16       		.byte	22
 399 000c AC       		.byte	-84
 400 000d 19       		.byte	25
 401 000e FF       		.byte	-1
 402 000f 00       		.space	1
 403              		.type	u8x8_d_uc1638_flip0_seq, %object
 404              		.size	u8x8_d_uc1638_flip0_seq, 5
 405              	u8x8_d_uc1638_flip0_seq:
 406 0010 18       		.byte	24
 407 0011 15       		.byte	21
 408 0012 C2       		.byte	-62
 409 0013 19       		.byte	25
 410 0014 FF       		.byte	-1
 411 0015 000000   		.space	3
 412              		.type	u8x8_d_uc1638_flip1_seq, %object
ARM GAS  C:\Users\Abude\AppData\Local\Temp\ccYol8So.s 			page 14


 413              		.size	u8x8_d_uc1638_flip1_seq, 5
 414              	u8x8_d_uc1638_flip1_seq:
 415 0018 18       		.byte	24
 416 0019 15       		.byte	21
 417 001a C4       		.byte	-60
 418 001b 19       		.byte	25
 419 001c FF       		.byte	-1
 420 001d 000000   		.space	3
 421              		.type	u8x8_uc1638_160x128_display_info, %object
 422              		.size	u8x8_uc1638_160x128_display_info, 24
 423              	u8x8_uc1638_160x128_display_info:
 424 0020 01       		.byte	1
 425 0021 00       		.byte	0
 426 0022 0A       		.byte	10
 427 0023 14       		.byte	20
 428 0024 05       		.byte	5
 429 0025 96       		.byte	-106
 430 0026 19       		.byte	25
 431 0027 41       		.byte	65
 432 0028 40420F00 		.word	1000000
 433 002c 00       		.byte	0
 434 002d 04       		.byte	4
 435 002e 1E       		.byte	30
 436 002f 23       		.byte	35
 437 0030 14       		.byte	20
 438 0031 10       		.byte	16
 439 0032 00       		.byte	0
 440 0033 00       		.byte	0
 441 0034 A000     		.short	160
 442 0036 8000     		.short	128
 443              		.type	u8x8_d_uc1638_160x128_init_seq, %object
 444              		.size	u8x8_d_uc1638_160x128_init_seq, 29
 445              	u8x8_d_uc1638_160x128_init_seq:
 446 0038 18       		.byte	24
 447 0039 15       		.byte	21
 448 003a E1       		.byte	-31
 449 003b 16       		.byte	22
 450 003c E2       		.byte	-30
 451 003d 19       		.byte	25
 452 003e FE       		.byte	-2
 453 003f 05       		.byte	5
 454 0040 18       		.byte	24
 455 0041 15       		.byte	21
 456 0042 24       		.byte	36
 457 0043 15       		.byte	21
 458 0044 C0       		.byte	-64
 459 0045 15       		.byte	21
 460 0046 A2       		.byte	-94
 461 0047 15       		.byte	21
 462 0048 D6       		.byte	-42
 463 0049 15       		.byte	21
 464 004a EB       		.byte	-21
 465 004b 15       		.byte	21
 466 004c 95       		.byte	-107
 467 004d 15       		.byte	21
 468 004e 89       		.byte	-119
 469 004f 15       		.byte	21
ARM GAS  C:\Users\Abude\AppData\Local\Temp\ccYol8So.s 			page 15


 470 0050 81       		.byte	-127
 471 0051 16       		.byte	22
 472 0052 A0       		.byte	-96
 473 0053 19       		.byte	25
 474 0054 FF       		.byte	-1
 475 0055 000000   		.space	3
 476              		.type	u8x8_uc1638_192x96_display_info, %object
 477              		.size	u8x8_uc1638_192x96_display_info, 24
 478              	u8x8_uc1638_192x96_display_info:
 479 0058 00       		.byte	0
 480 0059 01       		.byte	1
 481 005a 0A       		.byte	10
 482 005b 14       		.byte	20
 483 005c 05       		.byte	5
 484 005d 96       		.byte	-106
 485 005e 19       		.byte	25
 486 005f 41       		.byte	65
 487 0060 80841E00 		.word	2000000
 488 0064 00       		.byte	0
 489 0065 04       		.byte	4
 490 0066 1E       		.byte	30
 491 0067 23       		.byte	35
 492 0068 18       		.byte	24
 493 0069 0C       		.byte	12
 494 006a 80       		.byte	-128
 495 006b 06       		.byte	6
 496 006c C000     		.short	192
 497 006e 6000     		.short	96
 498              		.type	u8x8_d_uc1638_192x96_init_seq, %object
 499              		.size	u8x8_d_uc1638_192x96_init_seq, 33
 500              	u8x8_d_uc1638_192x96_init_seq:
 501 0070 18       		.byte	24
 502 0071 15       		.byte	21
 503 0072 E1       		.byte	-31
 504 0073 16       		.byte	22
 505 0074 E2       		.byte	-30
 506 0075 FE       		.byte	-2
 507 0076 05       		.byte	5
 508 0077 15       		.byte	21
 509 0078 24       		.byte	36
 510 0079 15       		.byte	21
 511 007a C2       		.byte	-62
 512 007b 15       		.byte	21
 513 007c A2       		.byte	-94
 514 007d 15       		.byte	21
 515 007e 2D       		.byte	45
 516 007f 15       		.byte	21
 517 0080 EA       		.byte	-22
 518 0081 15       		.byte	21
 519 0082 81       		.byte	-127
 520 0083 16       		.byte	22
 521 0084 A0       		.byte	-96
 522 0085 15       		.byte	21
 523 0086 95       		.byte	-107
 524 0087 15       		.byte	21
 525 0088 86       		.byte	-122
 526 0089 15       		.byte	21
ARM GAS  C:\Users\Abude\AppData\Local\Temp\ccYol8So.s 			page 16


 527 008a F1       		.byte	-15
 528 008b 16       		.byte	22
 529 008c 9F       		.byte	-97
 530 008d 15       		.byte	21
 531 008e 89       		.byte	-119
 532 008f 19       		.byte	25
 533 0090 FF       		.byte	-1
 534              		.text
 535              	.Letext0:
 536              		.file 2 "c:\\program files (x86)\\cypress\\psoc creator\\4.4\\psoc creator\\import\\gnu\\arm\\5.4.
 537              		.file 3 "c:\\program files (x86)\\cypress\\psoc creator\\4.4\\psoc creator\\import\\gnu\\arm\\5.4.
 538              		.file 4 "c:\\dev\\library embedded l2c display\\u8g2\\csrc\\u8x8.h"