ARM GAS  C:\Users\Abude\AppData\Local\Temp\ccc6HnmV.s 			page 1


   1              		.syntax unified
   2              		.cpu cortex-m3
   3              		.fpu softvfp
   4              		.eabi_attribute 20, 1
   5              		.eabi_attribute 21, 1
   6              		.eabi_attribute 23, 3
   7              		.eabi_attribute 24, 1
   8              		.eabi_attribute 25, 1
   9              		.eabi_attribute 26, 1
  10              		.eabi_attribute 30, 1
  11              		.eabi_attribute 34, 1
  12              		.eabi_attribute 18, 4
  13              		.thumb
  14              		.syntax unified
  15              		.file	"u8x8_d_pcf8812.c"
  16              		.text
  17              	.Ltext0:
  18              		.cfi_sections	.debug_frame
  19              		.section	.text.u8x8_d_pcf8812_96x65_generic,"ax",%progbits
  20              		.align	2
  21              		.thumb
  22              		.thumb_func
  23              		.type	u8x8_d_pcf8812_96x65_generic, %function
  24              	u8x8_d_pcf8812_96x65_generic:
  25              	.LFB0:
  26              		.file 1 "..\\..\\..\\..\\..\\..\\Dev\\Library embedded l2c display\\u8g2\\csrc\\u8x8_d_pcf8812.c"
   1:..\..\..\..\..\..\Dev\Library embedded l2c display\u8g2\csrc/u8x8_d_pcf8812.c **** /*
   2:..\..\..\..\..\..\Dev\Library embedded l2c display\u8g2\csrc/u8x8_d_pcf8812.c **** 
   3:..\..\..\..\..\..\Dev\Library embedded l2c display\u8g2\csrc/u8x8_d_pcf8812.c ****   u8x8_d_pcf8812.c
   4:..\..\..\..\..\..\Dev\Library embedded l2c display\u8g2\csrc/u8x8_d_pcf8812.c ****   
   5:..\..\..\..\..\..\Dev\Library embedded l2c display\u8g2\csrc/u8x8_d_pcf8812.c ****   pcf8812: 65x102
   6:..\..\..\..\..\..\Dev\Library embedded l2c display\u8g2\csrc/u8x8_d_pcf8812.c ****   pcf8814: 65x96
   7:..\..\..\..\..\..\Dev\Library embedded l2c display\u8g2\csrc/u8x8_d_pcf8812.c **** 
   8:..\..\..\..\..\..\Dev\Library embedded l2c display\u8g2\csrc/u8x8_d_pcf8812.c ****   Universal 8bit Graphics Library (https://github.com/olikraus/u8g2/)
   9:..\..\..\..\..\..\Dev\Library embedded l2c display\u8g2\csrc/u8x8_d_pcf8812.c **** 
  10:..\..\..\..\..\..\Dev\Library embedded l2c display\u8g2\csrc/u8x8_d_pcf8812.c ****   Copyright (c) 2017, olikraus@gmail.com
  11:..\..\..\..\..\..\Dev\Library embedded l2c display\u8g2\csrc/u8x8_d_pcf8812.c ****   All rights reserved.
  12:..\..\..\..\..\..\Dev\Library embedded l2c display\u8g2\csrc/u8x8_d_pcf8812.c **** 
  13:..\..\..\..\..\..\Dev\Library embedded l2c display\u8g2\csrc/u8x8_d_pcf8812.c ****   Redistribution and use in source and binary forms, with or without modification, 
  14:..\..\..\..\..\..\Dev\Library embedded l2c display\u8g2\csrc/u8x8_d_pcf8812.c ****   are permitted provided that the following conditions are met:
  15:..\..\..\..\..\..\Dev\Library embedded l2c display\u8g2\csrc/u8x8_d_pcf8812.c **** 
  16:..\..\..\..\..\..\Dev\Library embedded l2c display\u8g2\csrc/u8x8_d_pcf8812.c ****   * Redistributions of source code must retain the above copyright notice, this list 
  17:..\..\..\..\..\..\Dev\Library embedded l2c display\u8g2\csrc/u8x8_d_pcf8812.c ****     of conditions and the following disclaimer.
  18:..\..\..\..\..\..\Dev\Library embedded l2c display\u8g2\csrc/u8x8_d_pcf8812.c ****     
  19:..\..\..\..\..\..\Dev\Library embedded l2c display\u8g2\csrc/u8x8_d_pcf8812.c ****   * Redistributions in binary form must reproduce the above copyright notice, this 
  20:..\..\..\..\..\..\Dev\Library embedded l2c display\u8g2\csrc/u8x8_d_pcf8812.c ****     list of conditions and the following disclaimer in the documentation and/or other 
  21:..\..\..\..\..\..\Dev\Library embedded l2c display\u8g2\csrc/u8x8_d_pcf8812.c ****     materials provided with the distribution.
  22:..\..\..\..\..\..\Dev\Library embedded l2c display\u8g2\csrc/u8x8_d_pcf8812.c **** 
  23:..\..\..\..\..\..\Dev\Library embedded l2c display\u8g2\csrc/u8x8_d_pcf8812.c ****   THIS SOFTWARE IS PROVIDED BY THE COPYRIGHT HOLDERS AND 
  24:..\..\..\..\..\..\Dev\Library embedded l2c display\u8g2\csrc/u8x8_d_pcf8812.c ****   CONTRIBUTORS "AS IS" AND ANY EXPRESS OR IMPLIED WARRANTIES, 
  25:..\..\..\..\..\..\Dev\Library embedded l2c display\u8g2\csrc/u8x8_d_pcf8812.c ****   INCLUDING, BUT NOT LIMITED TO, THE IMPLIED WARRANTIES OF 
  26:..\..\..\..\..\..\Dev\Library embedded l2c display\u8g2\csrc/u8x8_d_pcf8812.c ****   MERCHANTABILITY AND FITNESS FOR A PARTICULAR PURPOSE ARE 
  27:..\..\..\..\..\..\Dev\Library embedded l2c display\u8g2\csrc/u8x8_d_pcf8812.c ****   DISCLAIMED. IN NO EVENT SHALL THE COPYRIGHT HOLDER OR 
  28:..\..\..\..\..\..\Dev\Library embedded l2c display\u8g2\csrc/u8x8_d_pcf8812.c ****   CONTRIBUTORS BE LIABLE FOR ANY DIRECT, INDIRECT, INCIDENTAL, 
  29:..\..\..\..\..\..\Dev\Library embedded l2c display\u8g2\csrc/u8x8_d_pcf8812.c ****   SPECIAL, EXEMPLARY, OR CONSEQUENTIAL DAMAGES (INCLUDING, BUT 
  30:..\..\..\..\..\..\Dev\Library embedded l2c display\u8g2\csrc/u8x8_d_pcf8812.c ****   NOT LIMITED TO, PROCUREMENT OF SUBSTITUTE GOODS OR SERVICES; 
  31:..\..\..\..\..\..\Dev\Library embedded l2c display\u8g2\csrc/u8x8_d_pcf8812.c ****   LOSS OF USE, DATA, OR PROFITS; OR BUSINESS INTERRUPTION) HOWEVER 
ARM GAS  C:\Users\Abude\AppData\Local\Temp\ccc6HnmV.s 			page 2


  32:..\..\..\..\..\..\Dev\Library embedded l2c display\u8g2\csrc/u8x8_d_pcf8812.c ****   CAUSED AND ON ANY THEORY OF LIABILITY, WHETHER IN CONTRACT, 
  33:..\..\..\..\..\..\Dev\Library embedded l2c display\u8g2\csrc/u8x8_d_pcf8812.c ****   STRICT LIABILITY, OR TORT (INCLUDING NEGLIGENCE OR OTHERWISE) 
  34:..\..\..\..\..\..\Dev\Library embedded l2c display\u8g2\csrc/u8x8_d_pcf8812.c ****   ARISING IN ANY WAY OUT OF THE USE OF THIS SOFTWARE, EVEN IF 
  35:..\..\..\..\..\..\Dev\Library embedded l2c display\u8g2\csrc/u8x8_d_pcf8812.c ****   ADVISED OF THE POSSIBILITY OF SUCH DAMAGE.  
  36:..\..\..\..\..\..\Dev\Library embedded l2c display\u8g2\csrc/u8x8_d_pcf8812.c ****   
  37:..\..\..\..\..\..\Dev\Library embedded l2c display\u8g2\csrc/u8x8_d_pcf8812.c **** */
  38:..\..\..\..\..\..\Dev\Library embedded l2c display\u8g2\csrc/u8x8_d_pcf8812.c **** 
  39:..\..\..\..\..\..\Dev\Library embedded l2c display\u8g2\csrc/u8x8_d_pcf8812.c **** 
  40:..\..\..\..\..\..\Dev\Library embedded l2c display\u8g2\csrc/u8x8_d_pcf8812.c **** #include "u8x8.h"
  41:..\..\..\..\..\..\Dev\Library embedded l2c display\u8g2\csrc/u8x8_d_pcf8812.c **** 
  42:..\..\..\..\..\..\Dev\Library embedded l2c display\u8g2\csrc/u8x8_d_pcf8812.c **** 
  43:..\..\..\..\..\..\Dev\Library embedded l2c display\u8g2\csrc/u8x8_d_pcf8812.c **** 
  44:..\..\..\..\..\..\Dev\Library embedded l2c display\u8g2\csrc/u8x8_d_pcf8812.c **** static const uint8_t u8x8_d_pcf8812_96x65_init_seq[] = {
  45:..\..\..\..\..\..\Dev\Library embedded l2c display\u8g2\csrc/u8x8_d_pcf8812.c ****     
  46:..\..\..\..\..\..\Dev\Library embedded l2c display\u8g2\csrc/u8x8_d_pcf8812.c ****   U8X8_START_TRANSFER(),             	/* enable chip, delay is part of the transfer start */
  47:..\..\..\..\..\..\Dev\Library embedded l2c display\u8g2\csrc/u8x8_d_pcf8812.c ****   
  48:..\..\..\..\..\..\Dev\Library embedded l2c display\u8g2\csrc/u8x8_d_pcf8812.c ****   U8X8_C(0x020),		                /* activate chip (PD=0), horizontal increment (V=0), enter normal
  49:..\..\..\..\..\..\Dev\Library embedded l2c display\u8g2\csrc/u8x8_d_pcf8812.c ****   U8X8_C(0x008),		                /* blank display */
  50:..\..\..\..\..\..\Dev\Library embedded l2c display\u8g2\csrc/u8x8_d_pcf8812.c ****   
  51:..\..\..\..\..\..\Dev\Library embedded l2c display\u8g2\csrc/u8x8_d_pcf8812.c ****   U8X8_C(0x021),		                /* activate chip (PD=0), horizontal increment (V=0), enter extend
  52:..\..\..\..\..\..\Dev\Library embedded l2c display\u8g2\csrc/u8x8_d_pcf8812.c ****   U8X8_C(0x006),		                /* temp. control: b10 = 2 */
  53:..\..\..\..\..\..\Dev\Library embedded l2c display\u8g2\csrc/u8x8_d_pcf8812.c ****   U8X8_C(0x013),		                /* bias system, 0x010..0x07 1:48 */
  54:..\..\..\..\..\..\Dev\Library embedded l2c display\u8g2\csrc/u8x8_d_pcf8812.c ****   U8X8_C(0x09f),				/* contrast setting, 0..127 */
  55:..\..\..\..\..\..\Dev\Library embedded l2c display\u8g2\csrc/u8x8_d_pcf8812.c ****   //U8X8_CA(0x020 | 2, 0x080 | 0),				/* contrast setting, pcf8814 */
  56:..\..\..\..\..\..\Dev\Library embedded l2c display\u8g2\csrc/u8x8_d_pcf8812.c **** 
  57:..\..\..\..\..\..\Dev\Library embedded l2c display\u8g2\csrc/u8x8_d_pcf8812.c ****   U8X8_C(0x024),		                /* deactivate chip (PD=1), horizontal increment (V=0), enter norm
  58:..\..\..\..\..\..\Dev\Library embedded l2c display\u8g2\csrc/u8x8_d_pcf8812.c ****     
  59:..\..\..\..\..\..\Dev\Library embedded l2c display\u8g2\csrc/u8x8_d_pcf8812.c ****   U8X8_END_TRANSFER(),             	/* disable chip */
  60:..\..\..\..\..\..\Dev\Library embedded l2c display\u8g2\csrc/u8x8_d_pcf8812.c ****   U8X8_END()             			/* end of sequence */
  61:..\..\..\..\..\..\Dev\Library embedded l2c display\u8g2\csrc/u8x8_d_pcf8812.c **** };
  62:..\..\..\..\..\..\Dev\Library embedded l2c display\u8g2\csrc/u8x8_d_pcf8812.c **** 
  63:..\..\..\..\..\..\Dev\Library embedded l2c display\u8g2\csrc/u8x8_d_pcf8812.c **** static const uint8_t u8x8_d_pcf8812_96x65_powersave0_seq[] = {
  64:..\..\..\..\..\..\Dev\Library embedded l2c display\u8g2\csrc/u8x8_d_pcf8812.c ****   U8X8_START_TRANSFER(),             	/* enable chip, delay is part of the transfer start */
  65:..\..\..\..\..\..\Dev\Library embedded l2c display\u8g2\csrc/u8x8_d_pcf8812.c ****   U8X8_C(0x020),		                /* power on */
  66:..\..\..\..\..\..\Dev\Library embedded l2c display\u8g2\csrc/u8x8_d_pcf8812.c ****   U8X8_C(0x00c),		                /* display on */
  67:..\..\..\..\..\..\Dev\Library embedded l2c display\u8g2\csrc/u8x8_d_pcf8812.c ****   U8X8_END_TRANSFER(),             	/* disable chip */
  68:..\..\..\..\..\..\Dev\Library embedded l2c display\u8g2\csrc/u8x8_d_pcf8812.c ****   U8X8_END()             			/* end of sequence */
  69:..\..\..\..\..\..\Dev\Library embedded l2c display\u8g2\csrc/u8x8_d_pcf8812.c **** };
  70:..\..\..\..\..\..\Dev\Library embedded l2c display\u8g2\csrc/u8x8_d_pcf8812.c **** 
  71:..\..\..\..\..\..\Dev\Library embedded l2c display\u8g2\csrc/u8x8_d_pcf8812.c **** static const uint8_t u8x8_d_pcf8812_96x65_powersave1_seq[] = {
  72:..\..\..\..\..\..\Dev\Library embedded l2c display\u8g2\csrc/u8x8_d_pcf8812.c ****   U8X8_START_TRANSFER(),             	/* enable chip, delay is part of the transfer start */
  73:..\..\..\..\..\..\Dev\Library embedded l2c display\u8g2\csrc/u8x8_d_pcf8812.c ****   U8X8_C(0x020),		                /* power on */
  74:..\..\..\..\..\..\Dev\Library embedded l2c display\u8g2\csrc/u8x8_d_pcf8812.c ****   U8X8_C(0x008),		                /* blank display */
  75:..\..\..\..\..\..\Dev\Library embedded l2c display\u8g2\csrc/u8x8_d_pcf8812.c ****   U8X8_C(0x024),		                /* power down */
  76:..\..\..\..\..\..\Dev\Library embedded l2c display\u8g2\csrc/u8x8_d_pcf8812.c ****   U8X8_END_TRANSFER(),             	/* disable chip */
  77:..\..\..\..\..\..\Dev\Library embedded l2c display\u8g2\csrc/u8x8_d_pcf8812.c ****   U8X8_END()             			/* end of sequence */
  78:..\..\..\..\..\..\Dev\Library embedded l2c display\u8g2\csrc/u8x8_d_pcf8812.c **** };
  79:..\..\..\..\..\..\Dev\Library embedded l2c display\u8g2\csrc/u8x8_d_pcf8812.c **** 
  80:..\..\..\..\..\..\Dev\Library embedded l2c display\u8g2\csrc/u8x8_d_pcf8812.c **** 
  81:..\..\..\..\..\..\Dev\Library embedded l2c display\u8g2\csrc/u8x8_d_pcf8812.c **** static uint8_t u8x8_d_pcf8812_96x65_generic(u8x8_t *u8x8, uint8_t msg, uint8_t arg_int, void *arg_p
  82:..\..\..\..\..\..\Dev\Library embedded l2c display\u8g2\csrc/u8x8_d_pcf8812.c **** {
  27              		.loc 1 82 0
  28              		.cfi_startproc
  29              		@ args = 0, pretend = 0, frame = 0
  30              		@ frame_needed = 0, uses_anonymous_args = 0
  31              	.LVL0:
  32 0000 F8B5     		push	{r3, r4, r5, r6, r7, lr}
ARM GAS  C:\Users\Abude\AppData\Local\Temp\ccc6HnmV.s 			page 3


  33              		.cfi_def_cfa_offset 24
  34              		.cfi_offset 3, -24
  35              		.cfi_offset 4, -20
  36              		.cfi_offset 5, -16
  37              		.cfi_offset 6, -12
  38              		.cfi_offset 7, -8
  39              		.cfi_offset 14, -4
  40 0002 0646     		mov	r6, r0
  41 0004 1446     		mov	r4, r2
  42 0006 1D46     		mov	r5, r3
  83:..\..\..\..\..\..\Dev\Library embedded l2c display\u8g2\csrc/u8x8_d_pcf8812.c ****   uint8_t x, c;
  84:..\..\..\..\..\..\Dev\Library embedded l2c display\u8g2\csrc/u8x8_d_pcf8812.c ****   uint8_t *ptr;
  85:..\..\..\..\..\..\Dev\Library embedded l2c display\u8g2\csrc/u8x8_d_pcf8812.c ****   switch(msg)
  43              		.loc 1 85 0
  44 0008 0A39     		subs	r1, r1, #10
  45              	.LVL1:
  46 000a 0529     		cmp	r1, #5
  47 000c 51D8     		bhi	.L10
  48 000e DFE801F0 		tbb	[pc, r1]
  49              	.LVL2:
  50              	.L4:
  51 0012 03       		.byte	(.L3-.L4)/2
  52 0013 0B       		.byte	(.L5-.L4)/2
  53 0014 50       		.byte	(.L10-.L4)/2
  54 0015 50       		.byte	(.L10-.L4)/2
  55 0016 16       		.byte	(.L6-.L4)/2
  56 0017 27       		.byte	(.L7-.L4)/2
  57              		.p2align 1
  58              	.L3:
  86:..\..\..\..\..\..\Dev\Library embedded l2c display\u8g2\csrc/u8x8_d_pcf8812.c ****   {
  87:..\..\..\..\..\..\Dev\Library embedded l2c display\u8g2\csrc/u8x8_d_pcf8812.c ****     /* handled by the calling function
  88:..\..\..\..\..\..\Dev\Library embedded l2c display\u8g2\csrc/u8x8_d_pcf8812.c ****     case U8X8_MSG_DISPLAY_SETUP_MEMORY:
  89:..\..\..\..\..\..\Dev\Library embedded l2c display\u8g2\csrc/u8x8_d_pcf8812.c ****       u8x8_d_helper_display_setup_memory(u8x8, &u8x8_pcf8812_96x65_display_info);
  90:..\..\..\..\..\..\Dev\Library embedded l2c display\u8g2\csrc/u8x8_d_pcf8812.c ****       break;
  91:..\..\..\..\..\..\Dev\Library embedded l2c display\u8g2\csrc/u8x8_d_pcf8812.c ****     */
  92:..\..\..\..\..\..\Dev\Library embedded l2c display\u8g2\csrc/u8x8_d_pcf8812.c ****     case U8X8_MSG_DISPLAY_INIT:
  93:..\..\..\..\..\..\Dev\Library embedded l2c display\u8g2\csrc/u8x8_d_pcf8812.c ****       u8x8_d_helper_display_init(u8x8);
  59              		.loc 1 93 0
  60 0018 FFF7FEFF 		bl	u8x8_d_helper_display_init
  61              	.LVL3:
  94:..\..\..\..\..\..\Dev\Library embedded l2c display\u8g2\csrc/u8x8_d_pcf8812.c ****       u8x8_cad_SendSequence(u8x8, u8x8_d_pcf8812_96x65_init_seq);    
  62              		.loc 1 94 0
  63 001c 2649     		ldr	r1, .L12
  64 001e 3046     		mov	r0, r6
  65 0020 FFF7FEFF 		bl	u8x8_cad_SendSequence
  66              	.LVL4:
  95:..\..\..\..\..\..\Dev\Library embedded l2c display\u8g2\csrc/u8x8_d_pcf8812.c ****       break;
  96:..\..\..\..\..\..\Dev\Library embedded l2c display\u8g2\csrc/u8x8_d_pcf8812.c ****     case U8X8_MSG_DISPLAY_SET_POWER_SAVE:
  97:..\..\..\..\..\..\Dev\Library embedded l2c display\u8g2\csrc/u8x8_d_pcf8812.c ****       if ( arg_int == 0 )
  98:..\..\..\..\..\..\Dev\Library embedded l2c display\u8g2\csrc/u8x8_d_pcf8812.c **** 	u8x8_cad_SendSequence(u8x8, u8x8_d_pcf8812_96x65_powersave0_seq);
  99:..\..\..\..\..\..\Dev\Library embedded l2c display\u8g2\csrc/u8x8_d_pcf8812.c ****       else
 100:..\..\..\..\..\..\Dev\Library embedded l2c display\u8g2\csrc/u8x8_d_pcf8812.c **** 	u8x8_cad_SendSequence(u8x8, u8x8_d_pcf8812_96x65_powersave1_seq);
 101:..\..\..\..\..\..\Dev\Library embedded l2c display\u8g2\csrc/u8x8_d_pcf8812.c ****       break;
 102:..\..\..\..\..\..\Dev\Library embedded l2c display\u8g2\csrc/u8x8_d_pcf8812.c **** /*
 103:..\..\..\..\..\..\Dev\Library embedded l2c display\u8g2\csrc/u8x8_d_pcf8812.c ****     case U8X8_MSG_DISPLAY_SET_FLIP_MODE:
 104:..\..\..\..\..\..\Dev\Library embedded l2c display\u8g2\csrc/u8x8_d_pcf8812.c ****       if ( arg_int == 0 )
 105:..\..\..\..\..\..\Dev\Library embedded l2c display\u8g2\csrc/u8x8_d_pcf8812.c ****       {
ARM GAS  C:\Users\Abude\AppData\Local\Temp\ccc6HnmV.s 			page 4


 106:..\..\..\..\..\..\Dev\Library embedded l2c display\u8g2\csrc/u8x8_d_pcf8812.c **** 	u8x8_cad_SendSequence(u8x8, u8x8_d_pcf8812_96x65_flip0_seq);
 107:..\..\..\..\..\..\Dev\Library embedded l2c display\u8g2\csrc/u8x8_d_pcf8812.c **** 	u8x8->x_offset = u8x8->display_info->default_x_offset;
 108:..\..\..\..\..\..\Dev\Library embedded l2c display\u8g2\csrc/u8x8_d_pcf8812.c ****       }
 109:..\..\..\..\..\..\Dev\Library embedded l2c display\u8g2\csrc/u8x8_d_pcf8812.c ****       else
 110:..\..\..\..\..\..\Dev\Library embedded l2c display\u8g2\csrc/u8x8_d_pcf8812.c ****       {
 111:..\..\..\..\..\..\Dev\Library embedded l2c display\u8g2\csrc/u8x8_d_pcf8812.c **** 	u8x8_cad_SendSequence(u8x8, u8x8_d_pcf8812_96x65_flip1_seq);
 112:..\..\..\..\..\..\Dev\Library embedded l2c display\u8g2\csrc/u8x8_d_pcf8812.c **** 	u8x8->x_offset = u8x8->display_info->flipmode_x_offset;
 113:..\..\..\..\..\..\Dev\Library embedded l2c display\u8g2\csrc/u8x8_d_pcf8812.c ****       }
 114:..\..\..\..\..\..\Dev\Library embedded l2c display\u8g2\csrc/u8x8_d_pcf8812.c ****       break;
 115:..\..\..\..\..\..\Dev\Library embedded l2c display\u8g2\csrc/u8x8_d_pcf8812.c **** */
 116:..\..\..\..\..\..\Dev\Library embedded l2c display\u8g2\csrc/u8x8_d_pcf8812.c **** #ifdef U8X8_WITH_SET_CONTRAST
 117:..\..\..\..\..\..\Dev\Library embedded l2c display\u8g2\csrc/u8x8_d_pcf8812.c ****     case U8X8_MSG_DISPLAY_SET_CONTRAST:
 118:..\..\..\..\..\..\Dev\Library embedded l2c display\u8g2\csrc/u8x8_d_pcf8812.c ****       u8x8_cad_StartTransfer(u8x8);
 119:..\..\..\..\..\..\Dev\Library embedded l2c display\u8g2\csrc/u8x8_d_pcf8812.c ****       u8x8_cad_SendCmd(u8x8, 0x021 );    /* command mode, extended function set */
 120:..\..\..\..\..\..\Dev\Library embedded l2c display\u8g2\csrc/u8x8_d_pcf8812.c ****       u8x8_cad_SendArg(u8x8, (arg_int>>1)|0x80 );	/* 0..127 for contrast */
 121:..\..\..\..\..\..\Dev\Library embedded l2c display\u8g2\csrc/u8x8_d_pcf8812.c ****       u8x8_cad_EndTransfer(u8x8);
 122:..\..\..\..\..\..\Dev\Library embedded l2c display\u8g2\csrc/u8x8_d_pcf8812.c ****       break;
 123:..\..\..\..\..\..\Dev\Library embedded l2c display\u8g2\csrc/u8x8_d_pcf8812.c **** #endif
 124:..\..\..\..\..\..\Dev\Library embedded l2c display\u8g2\csrc/u8x8_d_pcf8812.c ****     case U8X8_MSG_DISPLAY_DRAW_TILE:
 125:..\..\..\..\..\..\Dev\Library embedded l2c display\u8g2\csrc/u8x8_d_pcf8812.c ****       u8x8_cad_StartTransfer(u8x8);
 126:..\..\..\..\..\..\Dev\Library embedded l2c display\u8g2\csrc/u8x8_d_pcf8812.c ****       x = ((u8x8_tile_t *)arg_ptr)->x_pos;    
 127:..\..\..\..\..\..\Dev\Library embedded l2c display\u8g2\csrc/u8x8_d_pcf8812.c ****       x *= 8;
 128:..\..\..\..\..\..\Dev\Library embedded l2c display\u8g2\csrc/u8x8_d_pcf8812.c ****       x += u8x8->x_offset;
 129:..\..\..\..\..\..\Dev\Library embedded l2c display\u8g2\csrc/u8x8_d_pcf8812.c ****     
 130:..\..\..\..\..\..\Dev\Library embedded l2c display\u8g2\csrc/u8x8_d_pcf8812.c ****       u8x8_cad_SendCmd(u8x8, 0x020 );	/* activate chip (PD=0), horizontal increment (V=0), enter no
 131:..\..\..\..\..\..\Dev\Library embedded l2c display\u8g2\csrc/u8x8_d_pcf8812.c ****       u8x8_cad_SendCmd(u8x8, 0x080 | x);
 132:..\..\..\..\..\..\Dev\Library embedded l2c display\u8g2\csrc/u8x8_d_pcf8812.c ****       u8x8_cad_SendCmd(u8x8, 0x040 | ((u8x8_tile_t *)arg_ptr)->y_pos);
 133:..\..\..\..\..\..\Dev\Library embedded l2c display\u8g2\csrc/u8x8_d_pcf8812.c ****       
 134:..\..\..\..\..\..\Dev\Library embedded l2c display\u8g2\csrc/u8x8_d_pcf8812.c ****       do
 135:..\..\..\..\..\..\Dev\Library embedded l2c display\u8g2\csrc/u8x8_d_pcf8812.c ****       {
 136:..\..\..\..\..\..\Dev\Library embedded l2c display\u8g2\csrc/u8x8_d_pcf8812.c **** 	c = ((u8x8_tile_t *)arg_ptr)->cnt;
 137:..\..\..\..\..\..\Dev\Library embedded l2c display\u8g2\csrc/u8x8_d_pcf8812.c **** 	ptr = ((u8x8_tile_t *)arg_ptr)->tile_ptr;
 138:..\..\..\..\..\..\Dev\Library embedded l2c display\u8g2\csrc/u8x8_d_pcf8812.c **** 	u8x8_cad_SendData(u8x8, c*8, ptr); 	/* note: SendData can not handle more than 255 bytes */
 139:..\..\..\..\..\..\Dev\Library embedded l2c display\u8g2\csrc/u8x8_d_pcf8812.c **** 	/*
 140:..\..\..\..\..\..\Dev\Library embedded l2c display\u8g2\csrc/u8x8_d_pcf8812.c **** 	do
 141:..\..\..\..\..\..\Dev\Library embedded l2c display\u8g2\csrc/u8x8_d_pcf8812.c **** 	{
 142:..\..\..\..\..\..\Dev\Library embedded l2c display\u8g2\csrc/u8x8_d_pcf8812.c **** 	  u8x8_cad_SendData(u8x8, 8, ptr);
 143:..\..\..\..\..\..\Dev\Library embedded l2c display\u8g2\csrc/u8x8_d_pcf8812.c **** 	  ptr += 8;
 144:..\..\..\..\..\..\Dev\Library embedded l2c display\u8g2\csrc/u8x8_d_pcf8812.c **** 	  c--;
 145:..\..\..\..\..\..\Dev\Library embedded l2c display\u8g2\csrc/u8x8_d_pcf8812.c **** 	} while( c > 0 );
 146:..\..\..\..\..\..\Dev\Library embedded l2c display\u8g2\csrc/u8x8_d_pcf8812.c **** 	*/
 147:..\..\..\..\..\..\Dev\Library embedded l2c display\u8g2\csrc/u8x8_d_pcf8812.c **** 	arg_int--;
 148:..\..\..\..\..\..\Dev\Library embedded l2c display\u8g2\csrc/u8x8_d_pcf8812.c ****       } while( arg_int > 0 );
 149:..\..\..\..\..\..\Dev\Library embedded l2c display\u8g2\csrc/u8x8_d_pcf8812.c ****       
 150:..\..\..\..\..\..\Dev\Library embedded l2c display\u8g2\csrc/u8x8_d_pcf8812.c ****       u8x8_cad_EndTransfer(u8x8);
 151:..\..\..\..\..\..\Dev\Library embedded l2c display\u8g2\csrc/u8x8_d_pcf8812.c ****       break;
 152:..\..\..\..\..\..\Dev\Library embedded l2c display\u8g2\csrc/u8x8_d_pcf8812.c ****     default:
 153:..\..\..\..\..\..\Dev\Library embedded l2c display\u8g2\csrc/u8x8_d_pcf8812.c ****       return 0;
 154:..\..\..\..\..\..\Dev\Library embedded l2c display\u8g2\csrc/u8x8_d_pcf8812.c ****   }
 155:..\..\..\..\..\..\Dev\Library embedded l2c display\u8g2\csrc/u8x8_d_pcf8812.c ****   return 1;
  67              		.loc 1 155 0
  68 0024 0120     		movs	r0, #1
  95:..\..\..\..\..\..\Dev\Library embedded l2c display\u8g2\csrc/u8x8_d_pcf8812.c ****       break;
  69              		.loc 1 95 0
  70 0026 F8BD     		pop	{r3, r4, r5, r6, r7, pc}
  71              	.LVL5:
  72              	.L5:
ARM GAS  C:\Users\Abude\AppData\Local\Temp\ccc6HnmV.s 			page 5


  97:..\..\..\..\..\..\Dev\Library embedded l2c display\u8g2\csrc/u8x8_d_pcf8812.c **** 	u8x8_cad_SendSequence(u8x8, u8x8_d_pcf8812_96x65_powersave0_seq);
  73              		.loc 1 97 0
  74 0028 22B9     		cbnz	r2, .L8
  98:..\..\..\..\..\..\Dev\Library embedded l2c display\u8g2\csrc/u8x8_d_pcf8812.c ****       else
  75              		.loc 1 98 0
  76 002a 2449     		ldr	r1, .L12+4
  77 002c FFF7FEFF 		bl	u8x8_cad_SendSequence
  78              	.LVL6:
  79              		.loc 1 155 0
  80 0030 0120     		movs	r0, #1
  81 0032 F8BD     		pop	{r3, r4, r5, r6, r7, pc}
  82              	.LVL7:
  83              	.L8:
 100:..\..\..\..\..\..\Dev\Library embedded l2c display\u8g2\csrc/u8x8_d_pcf8812.c ****       break;
  84              		.loc 1 100 0
  85 0034 2249     		ldr	r1, .L12+8
  86 0036 FFF7FEFF 		bl	u8x8_cad_SendSequence
  87              	.LVL8:
  88              		.loc 1 155 0
  89 003a 0120     		movs	r0, #1
  90 003c F8BD     		pop	{r3, r4, r5, r6, r7, pc}
  91              	.LVL9:
  92              	.L6:
 118:..\..\..\..\..\..\Dev\Library embedded l2c display\u8g2\csrc/u8x8_d_pcf8812.c ****       u8x8_cad_SendCmd(u8x8, 0x021 );    /* command mode, extended function set */
  93              		.loc 1 118 0
  94 003e FFF7FEFF 		bl	u8x8_cad_StartTransfer
  95              	.LVL10:
 119:..\..\..\..\..\..\Dev\Library embedded l2c display\u8g2\csrc/u8x8_d_pcf8812.c ****       u8x8_cad_SendArg(u8x8, (arg_int>>1)|0x80 );	/* 0..127 for contrast */
  96              		.loc 1 119 0
  97 0042 2121     		movs	r1, #33
  98 0044 3046     		mov	r0, r6
  99 0046 FFF7FEFF 		bl	u8x8_cad_SendCmd
 100              	.LVL11:
 120:..\..\..\..\..\..\Dev\Library embedded l2c display\u8g2\csrc/u8x8_d_pcf8812.c ****       u8x8_cad_EndTransfer(u8x8);
 101              		.loc 1 120 0
 102 004a 6108     		lsrs	r1, r4, #1
 103 004c 41F08001 		orr	r1, r1, #128
 104 0050 3046     		mov	r0, r6
 105 0052 FFF7FEFF 		bl	u8x8_cad_SendArg
 106              	.LVL12:
 121:..\..\..\..\..\..\Dev\Library embedded l2c display\u8g2\csrc/u8x8_d_pcf8812.c ****       break;
 107              		.loc 1 121 0
 108 0056 3046     		mov	r0, r6
 109 0058 FFF7FEFF 		bl	u8x8_cad_EndTransfer
 110              	.LVL13:
 111              		.loc 1 155 0
 112 005c 0120     		movs	r0, #1
 122:..\..\..\..\..\..\Dev\Library embedded l2c display\u8g2\csrc/u8x8_d_pcf8812.c **** #endif
 113              		.loc 1 122 0
 114 005e F8BD     		pop	{r3, r4, r5, r6, r7, pc}
 115              	.LVL14:
 116              	.L7:
 125:..\..\..\..\..\..\Dev\Library embedded l2c display\u8g2\csrc/u8x8_d_pcf8812.c ****       x = ((u8x8_tile_t *)arg_ptr)->x_pos;    
 117              		.loc 1 125 0
 118 0060 FFF7FEFF 		bl	u8x8_cad_StartTransfer
 119              	.LVL15:
 126:..\..\..\..\..\..\Dev\Library embedded l2c display\u8g2\csrc/u8x8_d_pcf8812.c ****       x *= 8;
ARM GAS  C:\Users\Abude\AppData\Local\Temp\ccc6HnmV.s 			page 6


 120              		.loc 1 126 0
 121 0064 6F79     		ldrb	r7, [r5, #5]	@ zero_extendqisi2
 122              	.LVL16:
 127:..\..\..\..\..\..\Dev\Library embedded l2c display\u8g2\csrc/u8x8_d_pcf8812.c ****       x += u8x8->x_offset;
 123              		.loc 1 127 0
 124 0066 FF00     		lsls	r7, r7, #3
 125              	.LVL17:
 126 0068 FFB2     		uxtb	r7, r7
 127              	.LVL18:
 128:..\..\..\..\..\..\Dev\Library embedded l2c display\u8g2\csrc/u8x8_d_pcf8812.c ****     
 128              		.loc 1 128 0
 129 006a 96F82230 		ldrb	r3, [r6, #34]	@ zero_extendqisi2
 130 006e 1F44     		add	r7, r7, r3
 131              	.LVL19:
 132 0070 FFB2     		uxtb	r7, r7
 133              	.LVL20:
 130:..\..\..\..\..\..\Dev\Library embedded l2c display\u8g2\csrc/u8x8_d_pcf8812.c ****       u8x8_cad_SendCmd(u8x8, 0x080 | x);
 134              		.loc 1 130 0
 135 0072 2021     		movs	r1, #32
 136 0074 3046     		mov	r0, r6
 137 0076 FFF7FEFF 		bl	u8x8_cad_SendCmd
 138              	.LVL21:
 131:..\..\..\..\..\..\Dev\Library embedded l2c display\u8g2\csrc/u8x8_d_pcf8812.c ****       u8x8_cad_SendCmd(u8x8, 0x040 | ((u8x8_tile_t *)arg_ptr)->y_pos);
 139              		.loc 1 131 0
 140 007a 47F08001 		orr	r1, r7, #128
 141 007e 3046     		mov	r0, r6
 142 0080 FFF7FEFF 		bl	u8x8_cad_SendCmd
 143              	.LVL22:
 132:..\..\..\..\..\..\Dev\Library embedded l2c display\u8g2\csrc/u8x8_d_pcf8812.c ****       
 144              		.loc 1 132 0
 145 0084 A979     		ldrb	r1, [r5, #6]	@ zero_extendqisi2
 146 0086 41F04001 		orr	r1, r1, #64
 147 008a 3046     		mov	r0, r6
 148 008c FFF7FEFF 		bl	u8x8_cad_SendCmd
 149              	.LVL23:
 150              	.L9:
 136:..\..\..\..\..\..\Dev\Library embedded l2c display\u8g2\csrc/u8x8_d_pcf8812.c **** 	ptr = ((u8x8_tile_t *)arg_ptr)->tile_ptr;
 151              		.loc 1 136 0 discriminator 1
 152 0090 2979     		ldrb	r1, [r5, #4]	@ zero_extendqisi2
 153              	.LVL24:
 138:..\..\..\..\..\..\Dev\Library embedded l2c display\u8g2\csrc/u8x8_d_pcf8812.c **** 	/*
 154              		.loc 1 138 0 discriminator 1
 155 0092 C900     		lsls	r1, r1, #3
 156              	.LVL25:
 157 0094 2A68     		ldr	r2, [r5]
 158 0096 01F0F801 		and	r1, r1, #248
 159 009a 3046     		mov	r0, r6
 160 009c FFF7FEFF 		bl	u8x8_cad_SendData
 161              	.LVL26:
 147:..\..\..\..\..\..\Dev\Library embedded l2c display\u8g2\csrc/u8x8_d_pcf8812.c ****       } while( arg_int > 0 );
 162              		.loc 1 147 0 discriminator 1
 163 00a0 621E     		subs	r2, r4, #1
 164              	.LVL27:
 148:..\..\..\..\..\..\Dev\Library embedded l2c display\u8g2\csrc/u8x8_d_pcf8812.c ****       
 165              		.loc 1 148 0 discriminator 1
 166 00a2 12F0FF04 		ands	r4, r2, #255
 167 00a6 F3D1     		bne	.L9
ARM GAS  C:\Users\Abude\AppData\Local\Temp\ccc6HnmV.s 			page 7


 150:..\..\..\..\..\..\Dev\Library embedded l2c display\u8g2\csrc/u8x8_d_pcf8812.c ****       break;
 168              		.loc 1 150 0
 169 00a8 3046     		mov	r0, r6
 170 00aa FFF7FEFF 		bl	u8x8_cad_EndTransfer
 171              	.LVL28:
 172              		.loc 1 155 0
 173 00ae 0120     		movs	r0, #1
 151:..\..\..\..\..\..\Dev\Library embedded l2c display\u8g2\csrc/u8x8_d_pcf8812.c ****     default:
 174              		.loc 1 151 0
 175 00b0 F8BD     		pop	{r3, r4, r5, r6, r7, pc}
 176              	.LVL29:
 177              	.L10:
 153:..\..\..\..\..\..\Dev\Library embedded l2c display\u8g2\csrc/u8x8_d_pcf8812.c ****   }
 178              		.loc 1 153 0
 179 00b2 0020     		movs	r0, #0
 180              	.LVL30:
 156:..\..\..\..\..\..\Dev\Library embedded l2c display\u8g2\csrc/u8x8_d_pcf8812.c **** }
 181              		.loc 1 156 0
 182 00b4 F8BD     		pop	{r3, r4, r5, r6, r7, pc}
 183              	.LVL31:
 184              	.L13:
 185 00b6 00BF     		.align	2
 186              	.L12:
 187 00b8 00000000 		.word	.LANCHOR0
 188 00bc 14000000 		.word	.LANCHOR0+20
 189 00c0 1C000000 		.word	.LANCHOR0+28
 190              		.cfi_endproc
 191              	.LFE0:
 192              		.size	u8x8_d_pcf8812_96x65_generic, .-u8x8_d_pcf8812_96x65_generic
 193              		.section	.text.u8x8_d_pcf8812_96x65,"ax",%progbits
 194              		.align	2
 195              		.global	u8x8_d_pcf8812_96x65
 196              		.thumb
 197              		.thumb_func
 198              		.type	u8x8_d_pcf8812_96x65, %function
 199              	u8x8_d_pcf8812_96x65:
 200              	.LFB1:
 157:..\..\..\..\..\..\Dev\Library embedded l2c display\u8g2\csrc/u8x8_d_pcf8812.c **** 
 158:..\..\..\..\..\..\Dev\Library embedded l2c display\u8g2\csrc/u8x8_d_pcf8812.c **** 
 159:..\..\..\..\..\..\Dev\Library embedded l2c display\u8g2\csrc/u8x8_d_pcf8812.c **** static const u8x8_display_info_t u8x8_pcf8812_96x65_display_info =
 160:..\..\..\..\..\..\Dev\Library embedded l2c display\u8g2\csrc/u8x8_d_pcf8812.c **** {
 161:..\..\..\..\..\..\Dev\Library embedded l2c display\u8g2\csrc/u8x8_d_pcf8812.c ****   /* chip_enable_level = */ 0,
 162:..\..\..\..\..\..\Dev\Library embedded l2c display\u8g2\csrc/u8x8_d_pcf8812.c ****   /* chip_disable_level = */ 1,
 163:..\..\..\..\..\..\Dev\Library embedded l2c display\u8g2\csrc/u8x8_d_pcf8812.c ****   
 164:..\..\..\..\..\..\Dev\Library embedded l2c display\u8g2\csrc/u8x8_d_pcf8812.c ****   /* post_chip_enable_wait_ns = */ 100,
 165:..\..\..\..\..\..\Dev\Library embedded l2c display\u8g2\csrc/u8x8_d_pcf8812.c ****   /* pre_chip_disable_wait_ns = */ 100,
 166:..\..\..\..\..\..\Dev\Library embedded l2c display\u8g2\csrc/u8x8_d_pcf8812.c ****   /* reset_pulse_width_ms = */ 100, 
 167:..\..\..\..\..\..\Dev\Library embedded l2c display\u8g2\csrc/u8x8_d_pcf8812.c ****   /* post_reset_wait_ms = */ 100, 
 168:..\..\..\..\..\..\Dev\Library embedded l2c display\u8g2\csrc/u8x8_d_pcf8812.c ****   /* sda_setup_time_ns = */ 100,	
 169:..\..\..\..\..\..\Dev\Library embedded l2c display\u8g2\csrc/u8x8_d_pcf8812.c ****   /* sck_pulse_width_ns = */ 100,	
 170:..\..\..\..\..\..\Dev\Library embedded l2c display\u8g2\csrc/u8x8_d_pcf8812.c ****   /* sck_clock_hz = */ 4000000UL,	/* since Arduino 1.6.0, the SPI bus speed in Hz. Should be  10000
 171:..\..\..\..\..\..\Dev\Library embedded l2c display\u8g2\csrc/u8x8_d_pcf8812.c ****   /* spi_mode = */ 0,		/* active high, rising edge */
 172:..\..\..\..\..\..\Dev\Library embedded l2c display\u8g2\csrc/u8x8_d_pcf8812.c ****   /* i2c_bus_clock_100kHz = */ 4,
 173:..\..\..\..\..\..\Dev\Library embedded l2c display\u8g2\csrc/u8x8_d_pcf8812.c ****   /* data_setup_time_ns = */ 40,
 174:..\..\..\..\..\..\Dev\Library embedded l2c display\u8g2\csrc/u8x8_d_pcf8812.c ****   /* write_pulse_width_ns = */ 150,	
 175:..\..\..\..\..\..\Dev\Library embedded l2c display\u8g2\csrc/u8x8_d_pcf8812.c ****   /* tile_width = */ 12,
 176:..\..\..\..\..\..\Dev\Library embedded l2c display\u8g2\csrc/u8x8_d_pcf8812.c ****   /* tile_hight = */ 9,
ARM GAS  C:\Users\Abude\AppData\Local\Temp\ccc6HnmV.s 			page 8


 177:..\..\..\..\..\..\Dev\Library embedded l2c display\u8g2\csrc/u8x8_d_pcf8812.c ****   /* default_x_offset = */ 0,
 178:..\..\..\..\..\..\Dev\Library embedded l2c display\u8g2\csrc/u8x8_d_pcf8812.c ****   /* flipmode_x_offset = */ 0,
 179:..\..\..\..\..\..\Dev\Library embedded l2c display\u8g2\csrc/u8x8_d_pcf8812.c ****   /* pixel_width = */ 96,
 180:..\..\..\..\..\..\Dev\Library embedded l2c display\u8g2\csrc/u8x8_d_pcf8812.c ****   /* pixel_height = */ 65
 181:..\..\..\..\..\..\Dev\Library embedded l2c display\u8g2\csrc/u8x8_d_pcf8812.c **** };
 182:..\..\..\..\..\..\Dev\Library embedded l2c display\u8g2\csrc/u8x8_d_pcf8812.c **** 
 183:..\..\..\..\..\..\Dev\Library embedded l2c display\u8g2\csrc/u8x8_d_pcf8812.c **** uint8_t u8x8_d_pcf8812_96x65(u8x8_t *u8x8, uint8_t msg, uint8_t arg_int, void *arg_ptr)
 184:..\..\..\..\..\..\Dev\Library embedded l2c display\u8g2\csrc/u8x8_d_pcf8812.c **** {
 201              		.loc 1 184 0
 202              		.cfi_startproc
 203              		@ args = 0, pretend = 0, frame = 0
 204              		@ frame_needed = 0, uses_anonymous_args = 0
 205              	.LVL32:
 206 0000 08B5     		push	{r3, lr}
 207              		.cfi_def_cfa_offset 8
 208              		.cfi_offset 3, -8
 209              		.cfi_offset 14, -4
 185:..\..\..\..\..\..\Dev\Library embedded l2c display\u8g2\csrc/u8x8_d_pcf8812.c ****     if ( msg == U8X8_MSG_DISPLAY_SETUP_MEMORY )
 210              		.loc 1 185 0
 211 0002 0929     		cmp	r1, #9
 212 0004 04D1     		bne	.L15
 186:..\..\..\..\..\..\Dev\Library embedded l2c display\u8g2\csrc/u8x8_d_pcf8812.c ****     {
 187:..\..\..\..\..\..\Dev\Library embedded l2c display\u8g2\csrc/u8x8_d_pcf8812.c ****       u8x8_d_helper_display_setup_memory(u8x8, &u8x8_pcf8812_96x65_display_info);
 213              		.loc 1 187 0
 214 0006 0449     		ldr	r1, .L18
 215              	.LVL33:
 216 0008 FFF7FEFF 		bl	u8x8_d_helper_display_setup_memory
 217              	.LVL34:
 188:..\..\..\..\..\..\Dev\Library embedded l2c display\u8g2\csrc/u8x8_d_pcf8812.c ****       return 1;
 218              		.loc 1 188 0
 219 000c 0120     		movs	r0, #1
 220 000e 08BD     		pop	{r3, pc}
 221              	.LVL35:
 222              	.L15:
 189:..\..\..\..\..\..\Dev\Library embedded l2c display\u8g2\csrc/u8x8_d_pcf8812.c ****     }
 190:..\..\..\..\..\..\Dev\Library embedded l2c display\u8g2\csrc/u8x8_d_pcf8812.c ****     return u8x8_d_pcf8812_96x65_generic(u8x8, msg, arg_int, arg_ptr);
 223              		.loc 1 190 0
 224 0010 FFF7FEFF 		bl	u8x8_d_pcf8812_96x65_generic
 225              	.LVL36:
 191:..\..\..\..\..\..\Dev\Library embedded l2c display\u8g2\csrc/u8x8_d_pcf8812.c **** }
 226              		.loc 1 191 0
 227 0014 08BD     		pop	{r3, pc}
 228              	.L19:
 229 0016 00BF     		.align	2
 230              	.L18:
 231 0018 28000000 		.word	.LANCHOR0+40
 232              		.cfi_endproc
 233              	.LFE1:
 234              		.size	u8x8_d_pcf8812_96x65, .-u8x8_d_pcf8812_96x65
 235              		.section	.rodata
 236              		.align	2
 237              		.set	.LANCHOR0,. + 0
 238              		.type	u8x8_d_pcf8812_96x65_init_seq, %object
 239              		.size	u8x8_d_pcf8812_96x65_init_seq, 17
 240              	u8x8_d_pcf8812_96x65_init_seq:
 241 0000 18       		.byte	24
 242 0001 15       		.byte	21
ARM GAS  C:\Users\Abude\AppData\Local\Temp\ccc6HnmV.s 			page 9


 243 0002 20       		.byte	32
 244 0003 15       		.byte	21
 245 0004 08       		.byte	8
 246 0005 15       		.byte	21
 247 0006 21       		.byte	33
 248 0007 15       		.byte	21
 249 0008 06       		.byte	6
 250 0009 15       		.byte	21
 251 000a 13       		.byte	19
 252 000b 15       		.byte	21
 253 000c 9F       		.byte	-97
 254 000d 15       		.byte	21
 255 000e 24       		.byte	36
 256 000f 19       		.byte	25
 257 0010 FF       		.byte	-1
 258 0011 000000   		.space	3
 259              		.type	u8x8_d_pcf8812_96x65_powersave0_seq, %object
 260              		.size	u8x8_d_pcf8812_96x65_powersave0_seq, 7
 261              	u8x8_d_pcf8812_96x65_powersave0_seq:
 262 0014 18       		.byte	24
 263 0015 15       		.byte	21
 264 0016 20       		.byte	32
 265 0017 15       		.byte	21
 266 0018 0C       		.byte	12
 267 0019 19       		.byte	25
 268 001a FF       		.byte	-1
 269 001b 00       		.space	1
 270              		.type	u8x8_d_pcf8812_96x65_powersave1_seq, %object
 271              		.size	u8x8_d_pcf8812_96x65_powersave1_seq, 9
 272              	u8x8_d_pcf8812_96x65_powersave1_seq:
 273 001c 18       		.byte	24
 274 001d 15       		.byte	21
 275 001e 20       		.byte	32
 276 001f 15       		.byte	21
 277 0020 08       		.byte	8
 278 0021 15       		.byte	21
 279 0022 24       		.byte	36
 280 0023 19       		.byte	25
 281 0024 FF       		.byte	-1
 282 0025 000000   		.space	3
 283              		.type	u8x8_pcf8812_96x65_display_info, %object
 284              		.size	u8x8_pcf8812_96x65_display_info, 24
 285              	u8x8_pcf8812_96x65_display_info:
 286 0028 00       		.byte	0
 287 0029 01       		.byte	1
 288 002a 64       		.byte	100
 289 002b 64       		.byte	100
 290 002c 64       		.byte	100
 291 002d 64       		.byte	100
 292 002e 64       		.byte	100
 293 002f 64       		.byte	100
 294 0030 00093D00 		.word	4000000
 295 0034 00       		.byte	0
 296 0035 04       		.byte	4
 297 0036 28       		.byte	40
 298 0037 96       		.byte	-106
 299 0038 0C       		.byte	12
ARM GAS  C:\Users\Abude\AppData\Local\Temp\ccc6HnmV.s 			page 10


 300 0039 09       		.byte	9
 301 003a 00       		.byte	0
 302 003b 00       		.byte	0
 303 003c 6000     		.short	96
 304 003e 4100     		.short	65
 305              		.text
 306              	.Letext0:
 307              		.file 2 "c:\\program files (x86)\\cypress\\psoc creator\\4.4\\psoc creator\\import\\gnu\\arm\\5.4.
 308              		.file 3 "c:\\program files (x86)\\cypress\\psoc creator\\4.4\\psoc creator\\import\\gnu\\arm\\5.4.
 309              		.file 4 "c:\\dev\\library embedded l2c display\\u8g2\\csrc\\u8x8.h"