ARM GAS  C:\Users\Abude\AppData\Local\Temp\ccTGQkLk.s 			page 1


   1              		.syntax unified
   2              		.cpu cortex-m3
   3              		.fpu softvfp
   4              		.eabi_attribute 20, 1
   5              		.eabi_attribute 21, 1
   6              		.eabi_attribute 23, 3
   7              		.eabi_attribute 24, 1
   8              		.eabi_attribute 25, 1
   9              		.eabi_attribute 26, 1
  10              		.eabi_attribute 30, 1
  11              		.eabi_attribute 34, 1
  12              		.eabi_attribute 18, 4
  13              		.thumb
  14              		.syntax unified
  15              		.file	"u8x8_d_ssd1309.c"
  16              		.text
  17              	.Ltext0:
  18              		.cfi_sections	.debug_frame
  19              		.section	.text.u8x8_d_ssd1309_generic,"ax",%progbits
  20              		.align	2
  21              		.thumb
  22              		.thumb_func
  23              		.type	u8x8_d_ssd1309_generic, %function
  24              	u8x8_d_ssd1309_generic:
  25              	.LFB0:
  26              		.file 1 "..\\..\\..\\..\\..\\..\\Dev\\Library embedded l2c display\\u8g2\\csrc\\u8x8_d_ssd1309.c"
   1:..\..\..\..\..\..\Dev\Library embedded l2c display\u8g2\csrc/u8x8_d_ssd1309.c **** /*
   2:..\..\..\..\..\..\Dev\Library embedded l2c display\u8g2\csrc/u8x8_d_ssd1309.c **** 
   3:..\..\..\..\..\..\Dev\Library embedded l2c display\u8g2\csrc/u8x8_d_ssd1309.c ****   u8x8_d_ssd1309.c
   4:..\..\..\..\..\..\Dev\Library embedded l2c display\u8g2\csrc/u8x8_d_ssd1309.c **** 
   5:..\..\..\..\..\..\Dev\Library embedded l2c display\u8g2\csrc/u8x8_d_ssd1309.c ****   Universal 8bit Graphics Library (https://github.com/olikraus/u8g2/)
   6:..\..\..\..\..\..\Dev\Library embedded l2c display\u8g2\csrc/u8x8_d_ssd1309.c **** 
   7:..\..\..\..\..\..\Dev\Library embedded l2c display\u8g2\csrc/u8x8_d_ssd1309.c ****   Copyright (c) 2017, olikraus@gmail.com
   8:..\..\..\..\..\..\Dev\Library embedded l2c display\u8g2\csrc/u8x8_d_ssd1309.c ****   All rights reserved.
   9:..\..\..\..\..\..\Dev\Library embedded l2c display\u8g2\csrc/u8x8_d_ssd1309.c **** 
  10:..\..\..\..\..\..\Dev\Library embedded l2c display\u8g2\csrc/u8x8_d_ssd1309.c ****   Redistribution and use in source and binary forms, with or without modification, 
  11:..\..\..\..\..\..\Dev\Library embedded l2c display\u8g2\csrc/u8x8_d_ssd1309.c ****   are permitted provided that the following conditions are met:
  12:..\..\..\..\..\..\Dev\Library embedded l2c display\u8g2\csrc/u8x8_d_ssd1309.c **** 
  13:..\..\..\..\..\..\Dev\Library embedded l2c display\u8g2\csrc/u8x8_d_ssd1309.c ****   * Redistributions of source code must retain the above copyright notice, this list 
  14:..\..\..\..\..\..\Dev\Library embedded l2c display\u8g2\csrc/u8x8_d_ssd1309.c ****     of conditions and the following disclaimer.
  15:..\..\..\..\..\..\Dev\Library embedded l2c display\u8g2\csrc/u8x8_d_ssd1309.c ****     
  16:..\..\..\..\..\..\Dev\Library embedded l2c display\u8g2\csrc/u8x8_d_ssd1309.c ****   * Redistributions in binary form must reproduce the above copyright notice, this 
  17:..\..\..\..\..\..\Dev\Library embedded l2c display\u8g2\csrc/u8x8_d_ssd1309.c ****     list of conditions and the following disclaimer in the documentation and/or other 
  18:..\..\..\..\..\..\Dev\Library embedded l2c display\u8g2\csrc/u8x8_d_ssd1309.c ****     materials provided with the distribution.
  19:..\..\..\..\..\..\Dev\Library embedded l2c display\u8g2\csrc/u8x8_d_ssd1309.c **** 
  20:..\..\..\..\..\..\Dev\Library embedded l2c display\u8g2\csrc/u8x8_d_ssd1309.c ****   THIS SOFTWARE IS PROVIDED BY THE COPYRIGHT HOLDERS AND 
  21:..\..\..\..\..\..\Dev\Library embedded l2c display\u8g2\csrc/u8x8_d_ssd1309.c ****   CONTRIBUTORS "AS IS" AND ANY EXPRESS OR IMPLIED WARRANTIES, 
  22:..\..\..\..\..\..\Dev\Library embedded l2c display\u8g2\csrc/u8x8_d_ssd1309.c ****   INCLUDING, BUT NOT LIMITED TO, THE IMPLIED WARRANTIES OF 
  23:..\..\..\..\..\..\Dev\Library embedded l2c display\u8g2\csrc/u8x8_d_ssd1309.c ****   MERCHANTABILITY AND FITNESS FOR A PARTICULAR PURPOSE ARE 
  24:..\..\..\..\..\..\Dev\Library embedded l2c display\u8g2\csrc/u8x8_d_ssd1309.c ****   DISCLAIMED. IN NO EVENT SHALL THE COPYRIGHT HOLDER OR 
  25:..\..\..\..\..\..\Dev\Library embedded l2c display\u8g2\csrc/u8x8_d_ssd1309.c ****   CONTRIBUTORS BE LIABLE FOR ANY DIRECT, INDIRECT, INCIDENTAL, 
  26:..\..\..\..\..\..\Dev\Library embedded l2c display\u8g2\csrc/u8x8_d_ssd1309.c ****   SPECIAL, EXEMPLARY, OR CONSEQUENTIAL DAMAGES (INCLUDING, BUT 
  27:..\..\..\..\..\..\Dev\Library embedded l2c display\u8g2\csrc/u8x8_d_ssd1309.c ****   NOT LIMITED TO, PROCUREMENT OF SUBSTITUTE GOODS OR SERVICES; 
  28:..\..\..\..\..\..\Dev\Library embedded l2c display\u8g2\csrc/u8x8_d_ssd1309.c ****   LOSS OF USE, DATA, OR PROFITS; OR BUSINESS INTERRUPTION) HOWEVER 
  29:..\..\..\..\..\..\Dev\Library embedded l2c display\u8g2\csrc/u8x8_d_ssd1309.c ****   CAUSED AND ON ANY THEORY OF LIABILITY, WHETHER IN CONTRACT, 
  30:..\..\..\..\..\..\Dev\Library embedded l2c display\u8g2\csrc/u8x8_d_ssd1309.c ****   STRICT LIABILITY, OR TORT (INCLUDING NEGLIGENCE OR OTHERWISE) 
  31:..\..\..\..\..\..\Dev\Library embedded l2c display\u8g2\csrc/u8x8_d_ssd1309.c ****   ARISING IN ANY WAY OUT OF THE USE OF THIS SOFTWARE, EVEN IF 
ARM GAS  C:\Users\Abude\AppData\Local\Temp\ccTGQkLk.s 			page 2


  32:..\..\..\..\..\..\Dev\Library embedded l2c display\u8g2\csrc/u8x8_d_ssd1309.c ****   ADVISED OF THE POSSIBILITY OF SUCH DAMAGE.  
  33:..\..\..\..\..\..\Dev\Library embedded l2c display\u8g2\csrc/u8x8_d_ssd1309.c ****   
  34:..\..\..\..\..\..\Dev\Library embedded l2c display\u8g2\csrc/u8x8_d_ssd1309.c **** */
  35:..\..\..\..\..\..\Dev\Library embedded l2c display\u8g2\csrc/u8x8_d_ssd1309.c **** 
  36:..\..\..\..\..\..\Dev\Library embedded l2c display\u8g2\csrc/u8x8_d_ssd1309.c **** 
  37:..\..\..\..\..\..\Dev\Library embedded l2c display\u8g2\csrc/u8x8_d_ssd1309.c **** #include "u8x8.h"
  38:..\..\..\..\..\..\Dev\Library embedded l2c display\u8g2\csrc/u8x8_d_ssd1309.c **** 
  39:..\..\..\..\..\..\Dev\Library embedded l2c display\u8g2\csrc/u8x8_d_ssd1309.c **** 
  40:..\..\..\..\..\..\Dev\Library embedded l2c display\u8g2\csrc/u8x8_d_ssd1309.c **** 
  41:..\..\..\..\..\..\Dev\Library embedded l2c display\u8g2\csrc/u8x8_d_ssd1309.c **** 
  42:..\..\..\..\..\..\Dev\Library embedded l2c display\u8g2\csrc/u8x8_d_ssd1309.c **** static const uint8_t u8x8_d_ssd1309_powersave0_seq[] = {
  43:..\..\..\..\..\..\Dev\Library embedded l2c display\u8g2\csrc/u8x8_d_ssd1309.c ****   U8X8_START_TRANSFER(),             	/* enable chip, delay is part of the transfer start */
  44:..\..\..\..\..\..\Dev\Library embedded l2c display\u8g2\csrc/u8x8_d_ssd1309.c ****   U8X8_C(0x0af),		                /* display on */
  45:..\..\..\..\..\..\Dev\Library embedded l2c display\u8g2\csrc/u8x8_d_ssd1309.c ****   U8X8_END_TRANSFER(),             	/* disable chip */
  46:..\..\..\..\..\..\Dev\Library embedded l2c display\u8g2\csrc/u8x8_d_ssd1309.c ****   U8X8_END()             			/* end of sequence */
  47:..\..\..\..\..\..\Dev\Library embedded l2c display\u8g2\csrc/u8x8_d_ssd1309.c **** };
  48:..\..\..\..\..\..\Dev\Library embedded l2c display\u8g2\csrc/u8x8_d_ssd1309.c **** 
  49:..\..\..\..\..\..\Dev\Library embedded l2c display\u8g2\csrc/u8x8_d_ssd1309.c **** static const uint8_t u8x8_d_ssd1309_powersave1_seq[] = {
  50:..\..\..\..\..\..\Dev\Library embedded l2c display\u8g2\csrc/u8x8_d_ssd1309.c ****   U8X8_START_TRANSFER(),             	/* enable chip, delay is part of the transfer start */
  51:..\..\..\..\..\..\Dev\Library embedded l2c display\u8g2\csrc/u8x8_d_ssd1309.c ****   U8X8_C(0x0ae),		                /* display off */
  52:..\..\..\..\..\..\Dev\Library embedded l2c display\u8g2\csrc/u8x8_d_ssd1309.c ****   U8X8_END_TRANSFER(),             	/* disable chip */
  53:..\..\..\..\..\..\Dev\Library embedded l2c display\u8g2\csrc/u8x8_d_ssd1309.c ****   U8X8_END()             			/* end of sequence */
  54:..\..\..\..\..\..\Dev\Library embedded l2c display\u8g2\csrc/u8x8_d_ssd1309.c **** };
  55:..\..\..\..\..\..\Dev\Library embedded l2c display\u8g2\csrc/u8x8_d_ssd1309.c **** 
  56:..\..\..\..\..\..\Dev\Library embedded l2c display\u8g2\csrc/u8x8_d_ssd1309.c **** static const uint8_t u8x8_d_ssd1309_128x64_flip0_seq[] = {
  57:..\..\..\..\..\..\Dev\Library embedded l2c display\u8g2\csrc/u8x8_d_ssd1309.c ****   U8X8_START_TRANSFER(),             	/* enable chip, delay is part of the transfer start */
  58:..\..\..\..\..\..\Dev\Library embedded l2c display\u8g2\csrc/u8x8_d_ssd1309.c ****   U8X8_C(0x0a1),				/* segment remap a0/a1*/
  59:..\..\..\..\..\..\Dev\Library embedded l2c display\u8g2\csrc/u8x8_d_ssd1309.c ****   U8X8_C(0x0c8),				/* c0: scan dir normal, c8: reverse */
  60:..\..\..\..\..\..\Dev\Library embedded l2c display\u8g2\csrc/u8x8_d_ssd1309.c ****   U8X8_END_TRANSFER(),             	/* disable chip */
  61:..\..\..\..\..\..\Dev\Library embedded l2c display\u8g2\csrc/u8x8_d_ssd1309.c ****   U8X8_END()             			/* end of sequence */
  62:..\..\..\..\..\..\Dev\Library embedded l2c display\u8g2\csrc/u8x8_d_ssd1309.c **** };
  63:..\..\..\..\..\..\Dev\Library embedded l2c display\u8g2\csrc/u8x8_d_ssd1309.c **** 
  64:..\..\..\..\..\..\Dev\Library embedded l2c display\u8g2\csrc/u8x8_d_ssd1309.c **** static const uint8_t u8x8_d_ssd1309_128x64_flip1_seq[] = {
  65:..\..\..\..\..\..\Dev\Library embedded l2c display\u8g2\csrc/u8x8_d_ssd1309.c ****   U8X8_START_TRANSFER(),             	/* enable chip, delay is part of the transfer start */
  66:..\..\..\..\..\..\Dev\Library embedded l2c display\u8g2\csrc/u8x8_d_ssd1309.c ****   U8X8_C(0x0a0),				/* segment remap a0/a1*/
  67:..\..\..\..\..\..\Dev\Library embedded l2c display\u8g2\csrc/u8x8_d_ssd1309.c ****   U8X8_C(0x0c0),				/* c0: scan dir normal, c8: reverse */
  68:..\..\..\..\..\..\Dev\Library embedded l2c display\u8g2\csrc/u8x8_d_ssd1309.c ****   U8X8_END_TRANSFER(),             	/* disable chip */
  69:..\..\..\..\..\..\Dev\Library embedded l2c display\u8g2\csrc/u8x8_d_ssd1309.c ****   U8X8_END()             			/* end of sequence */
  70:..\..\..\..\..\..\Dev\Library embedded l2c display\u8g2\csrc/u8x8_d_ssd1309.c **** };
  71:..\..\..\..\..\..\Dev\Library embedded l2c display\u8g2\csrc/u8x8_d_ssd1309.c **** 
  72:..\..\..\..\..\..\Dev\Library embedded l2c display\u8g2\csrc/u8x8_d_ssd1309.c **** 
  73:..\..\..\..\..\..\Dev\Library embedded l2c display\u8g2\csrc/u8x8_d_ssd1309.c **** 
  74:..\..\..\..\..\..\Dev\Library embedded l2c display\u8g2\csrc/u8x8_d_ssd1309.c **** static uint8_t u8x8_d_ssd1309_generic(u8x8_t *u8x8, uint8_t msg, uint8_t arg_int, void *arg_ptr)
  75:..\..\..\..\..\..\Dev\Library embedded l2c display\u8g2\csrc/u8x8_d_ssd1309.c **** {
  27              		.loc 1 75 0
  28              		.cfi_startproc
  29              		@ args = 0, pretend = 0, frame = 0
  30              		@ frame_needed = 0, uses_anonymous_args = 0
  31              	.LVL0:
  32 0000 F8B5     		push	{r3, r4, r5, r6, r7, lr}
  33              		.cfi_def_cfa_offset 24
  34              		.cfi_offset 3, -24
  35              		.cfi_offset 4, -20
  36              		.cfi_offset 5, -16
  37              		.cfi_offset 6, -12
  38              		.cfi_offset 7, -8
  39              		.cfi_offset 14, -4
ARM GAS  C:\Users\Abude\AppData\Local\Temp\ccTGQkLk.s 			page 3


  40 0002 0646     		mov	r6, r0
  41 0004 1446     		mov	r4, r2
  76:..\..\..\..\..\..\Dev\Library embedded l2c display\u8g2\csrc/u8x8_d_ssd1309.c ****   uint8_t x, c;
  77:..\..\..\..\..\..\Dev\Library embedded l2c display\u8g2\csrc/u8x8_d_ssd1309.c ****   uint8_t *ptr;
  78:..\..\..\..\..\..\Dev\Library embedded l2c display\u8g2\csrc/u8x8_d_ssd1309.c ****   switch(msg)
  42              		.loc 1 78 0
  43 0006 0E29     		cmp	r1, #14
  44 0008 3BD0     		beq	.L3
  45 000a 1D46     		mov	r5, r3
  46 000c 0F29     		cmp	r1, #15
  47 000e 02D0     		beq	.L4
  48 0010 0B29     		cmp	r1, #11
  49 0012 45D1     		bne	.L9
  50 0014 2AE0     		b	.L5
  51              	.L4:
  79:..\..\..\..\..\..\Dev\Library embedded l2c display\u8g2\csrc/u8x8_d_ssd1309.c ****   {
  80:..\..\..\..\..\..\Dev\Library embedded l2c display\u8g2\csrc/u8x8_d_ssd1309.c ****     case U8X8_MSG_DISPLAY_DRAW_TILE:
  81:..\..\..\..\..\..\Dev\Library embedded l2c display\u8g2\csrc/u8x8_d_ssd1309.c ****       u8x8_cad_StartTransfer(u8x8);
  52              		.loc 1 81 0
  53 0016 FFF7FEFF 		bl	u8x8_cad_StartTransfer
  54              	.LVL1:
  82:..\..\..\..\..\..\Dev\Library embedded l2c display\u8g2\csrc/u8x8_d_ssd1309.c ****       x = ((u8x8_tile_t *)arg_ptr)->x_pos;    
  55              		.loc 1 82 0
  56 001a 6F79     		ldrb	r7, [r5, #5]	@ zero_extendqisi2
  57              	.LVL2:
  83:..\..\..\..\..\..\Dev\Library embedded l2c display\u8g2\csrc/u8x8_d_ssd1309.c ****       x *= 8;
  58              		.loc 1 83 0
  59 001c FF00     		lsls	r7, r7, #3
  60              	.LVL3:
  61 001e FFB2     		uxtb	r7, r7
  62              	.LVL4:
  84:..\..\..\..\..\..\Dev\Library embedded l2c display\u8g2\csrc/u8x8_d_ssd1309.c ****       x += u8x8->x_offset;
  63              		.loc 1 84 0
  64 0020 96F82230 		ldrb	r3, [r6, #34]	@ zero_extendqisi2
  65 0024 1F44     		add	r7, r7, r3
  66              	.LVL5:
  67 0026 FFB2     		uxtb	r7, r7
  68              	.LVL6:
  85:..\..\..\..\..\..\Dev\Library embedded l2c display\u8g2\csrc/u8x8_d_ssd1309.c ****     
  86:..\..\..\..\..\..\Dev\Library embedded l2c display\u8g2\csrc/u8x8_d_ssd1309.c ****       u8x8_cad_SendCmd(u8x8, 0x010 | (x>>4) );
  69              		.loc 1 86 0
  70 0028 3909     		lsrs	r1, r7, #4
  71 002a 41F01001 		orr	r1, r1, #16
  72 002e 3046     		mov	r0, r6
  73 0030 FFF7FEFF 		bl	u8x8_cad_SendCmd
  74              	.LVL7:
  87:..\..\..\..\..\..\Dev\Library embedded l2c display\u8g2\csrc/u8x8_d_ssd1309.c ****       u8x8_cad_SendCmd(u8x8, 0x000 | ((x&15)));
  75              		.loc 1 87 0
  76 0034 07F00F01 		and	r1, r7, #15
  77 0038 3046     		mov	r0, r6
  78 003a FFF7FEFF 		bl	u8x8_cad_SendCmd
  79              	.LVL8:
  88:..\..\..\..\..\..\Dev\Library embedded l2c display\u8g2\csrc/u8x8_d_ssd1309.c ****       u8x8_cad_SendCmd(u8x8, 0x0b0 | (((u8x8_tile_t *)arg_ptr)->y_pos)   );
  80              		.loc 1 88 0
  81 003e A979     		ldrb	r1, [r5, #6]	@ zero_extendqisi2
  82 0040 41F0B001 		orr	r1, r1, #176
  83 0044 3046     		mov	r0, r6
ARM GAS  C:\Users\Abude\AppData\Local\Temp\ccTGQkLk.s 			page 4


  84 0046 FFF7FEFF 		bl	u8x8_cad_SendCmd
  85              	.LVL9:
  86              	.L6:
  89:..\..\..\..\..\..\Dev\Library embedded l2c display\u8g2\csrc/u8x8_d_ssd1309.c **** 
  90:..\..\..\..\..\..\Dev\Library embedded l2c display\u8g2\csrc/u8x8_d_ssd1309.c ****     
  91:..\..\..\..\..\..\Dev\Library embedded l2c display\u8g2\csrc/u8x8_d_ssd1309.c ****       do
  92:..\..\..\..\..\..\Dev\Library embedded l2c display\u8g2\csrc/u8x8_d_ssd1309.c ****       {
  93:..\..\..\..\..\..\Dev\Library embedded l2c display\u8g2\csrc/u8x8_d_ssd1309.c **** 	c = ((u8x8_tile_t *)arg_ptr)->cnt;
  87              		.loc 1 93 0 discriminator 1
  88 004a 2979     		ldrb	r1, [r5, #4]	@ zero_extendqisi2
  89              	.LVL10:
  94:..\..\..\..\..\..\Dev\Library embedded l2c display\u8g2\csrc/u8x8_d_ssd1309.c **** 	ptr = ((u8x8_tile_t *)arg_ptr)->tile_ptr;
  95:..\..\..\..\..\..\Dev\Library embedded l2c display\u8g2\csrc/u8x8_d_ssd1309.c **** 	u8x8_cad_SendData(u8x8, c*8, ptr); 	/* note: SendData can not handle more than 255 bytes */
  90              		.loc 1 95 0 discriminator 1
  91 004c C900     		lsls	r1, r1, #3
  92              	.LVL11:
  93 004e 2A68     		ldr	r2, [r5]
  94 0050 01F0F801 		and	r1, r1, #248
  95 0054 3046     		mov	r0, r6
  96 0056 FFF7FEFF 		bl	u8x8_cad_SendData
  97              	.LVL12:
  96:..\..\..\..\..\..\Dev\Library embedded l2c display\u8g2\csrc/u8x8_d_ssd1309.c **** 	/*
  97:..\..\..\..\..\..\Dev\Library embedded l2c display\u8g2\csrc/u8x8_d_ssd1309.c **** 	do
  98:..\..\..\..\..\..\Dev\Library embedded l2c display\u8g2\csrc/u8x8_d_ssd1309.c **** 	{
  99:..\..\..\..\..\..\Dev\Library embedded l2c display\u8g2\csrc/u8x8_d_ssd1309.c **** 	  u8x8_cad_SendData(u8x8, 8, ptr);
 100:..\..\..\..\..\..\Dev\Library embedded l2c display\u8g2\csrc/u8x8_d_ssd1309.c **** 	  ptr += 8;
 101:..\..\..\..\..\..\Dev\Library embedded l2c display\u8g2\csrc/u8x8_d_ssd1309.c **** 	  c--;
 102:..\..\..\..\..\..\Dev\Library embedded l2c display\u8g2\csrc/u8x8_d_ssd1309.c **** 	} while( c > 0 );
 103:..\..\..\..\..\..\Dev\Library embedded l2c display\u8g2\csrc/u8x8_d_ssd1309.c **** 	*/
 104:..\..\..\..\..\..\Dev\Library embedded l2c display\u8g2\csrc/u8x8_d_ssd1309.c **** 	arg_int--;
  98              		.loc 1 104 0 discriminator 1
  99 005a 621E     		subs	r2, r4, #1
 100              	.LVL13:
 105:..\..\..\..\..\..\Dev\Library embedded l2c display\u8g2\csrc/u8x8_d_ssd1309.c ****       } while( arg_int > 0 );
 101              		.loc 1 105 0 discriminator 1
 102 005c 12F0FF04 		ands	r4, r2, #255
 103 0060 F3D1     		bne	.L6
 106:..\..\..\..\..\..\Dev\Library embedded l2c display\u8g2\csrc/u8x8_d_ssd1309.c ****       
 107:..\..\..\..\..\..\Dev\Library embedded l2c display\u8g2\csrc/u8x8_d_ssd1309.c ****       u8x8_cad_EndTransfer(u8x8);
 104              		.loc 1 107 0
 105 0062 3046     		mov	r0, r6
 106 0064 FFF7FEFF 		bl	u8x8_cad_EndTransfer
 107              	.LVL14:
 108:..\..\..\..\..\..\Dev\Library embedded l2c display\u8g2\csrc/u8x8_d_ssd1309.c ****       break;
 109:..\..\..\..\..\..\Dev\Library embedded l2c display\u8g2\csrc/u8x8_d_ssd1309.c ****     case U8X8_MSG_DISPLAY_SET_POWER_SAVE:
 110:..\..\..\..\..\..\Dev\Library embedded l2c display\u8g2\csrc/u8x8_d_ssd1309.c ****       if ( arg_int == 0 )
 111:..\..\..\..\..\..\Dev\Library embedded l2c display\u8g2\csrc/u8x8_d_ssd1309.c **** 	u8x8_cad_SendSequence(u8x8, u8x8_d_ssd1309_powersave0_seq);
 112:..\..\..\..\..\..\Dev\Library embedded l2c display\u8g2\csrc/u8x8_d_ssd1309.c ****       else
 113:..\..\..\..\..\..\Dev\Library embedded l2c display\u8g2\csrc/u8x8_d_ssd1309.c **** 	u8x8_cad_SendSequence(u8x8, u8x8_d_ssd1309_powersave1_seq);
 114:..\..\..\..\..\..\Dev\Library embedded l2c display\u8g2\csrc/u8x8_d_ssd1309.c ****       break;
 115:..\..\..\..\..\..\Dev\Library embedded l2c display\u8g2\csrc/u8x8_d_ssd1309.c **** #ifdef U8X8_WITH_SET_CONTRAST
 116:..\..\..\..\..\..\Dev\Library embedded l2c display\u8g2\csrc/u8x8_d_ssd1309.c ****     case U8X8_MSG_DISPLAY_SET_CONTRAST:
 117:..\..\..\..\..\..\Dev\Library embedded l2c display\u8g2\csrc/u8x8_d_ssd1309.c ****       u8x8_cad_StartTransfer(u8x8);
 118:..\..\..\..\..\..\Dev\Library embedded l2c display\u8g2\csrc/u8x8_d_ssd1309.c ****       u8x8_cad_SendCmd(u8x8, 0x081 );
 119:..\..\..\..\..\..\Dev\Library embedded l2c display\u8g2\csrc/u8x8_d_ssd1309.c ****       u8x8_cad_SendArg(u8x8, arg_int );	/* ssd1309 has range from 0 to 255 */
 120:..\..\..\..\..\..\Dev\Library embedded l2c display\u8g2\csrc/u8x8_d_ssd1309.c ****       u8x8_cad_EndTransfer(u8x8);
 121:..\..\..\..\..\..\Dev\Library embedded l2c display\u8g2\csrc/u8x8_d_ssd1309.c ****       break;
ARM GAS  C:\Users\Abude\AppData\Local\Temp\ccTGQkLk.s 			page 5


 122:..\..\..\..\..\..\Dev\Library embedded l2c display\u8g2\csrc/u8x8_d_ssd1309.c **** #endif
 123:..\..\..\..\..\..\Dev\Library embedded l2c display\u8g2\csrc/u8x8_d_ssd1309.c ****     default:
 124:..\..\..\..\..\..\Dev\Library embedded l2c display\u8g2\csrc/u8x8_d_ssd1309.c ****       return 0;
 125:..\..\..\..\..\..\Dev\Library embedded l2c display\u8g2\csrc/u8x8_d_ssd1309.c ****   }
 126:..\..\..\..\..\..\Dev\Library embedded l2c display\u8g2\csrc/u8x8_d_ssd1309.c ****   return 1;
 108              		.loc 1 126 0
 109 0068 0120     		movs	r0, #1
 108:..\..\..\..\..\..\Dev\Library embedded l2c display\u8g2\csrc/u8x8_d_ssd1309.c ****       break;
 110              		.loc 1 108 0
 111 006a F8BD     		pop	{r3, r4, r5, r6, r7, pc}
 112              	.LVL15:
 113              	.L5:
 110:..\..\..\..\..\..\Dev\Library embedded l2c display\u8g2\csrc/u8x8_d_ssd1309.c **** 	u8x8_cad_SendSequence(u8x8, u8x8_d_ssd1309_powersave0_seq);
 114              		.loc 1 110 0
 115 006c 22B9     		cbnz	r2, .L7
 111:..\..\..\..\..\..\Dev\Library embedded l2c display\u8g2\csrc/u8x8_d_ssd1309.c ****       else
 116              		.loc 1 111 0
 117 006e 0D49     		ldr	r1, .L11
 118              	.LVL16:
 119 0070 FFF7FEFF 		bl	u8x8_cad_SendSequence
 120              	.LVL17:
 121              		.loc 1 126 0
 122 0074 0120     		movs	r0, #1
 123 0076 F8BD     		pop	{r3, r4, r5, r6, r7, pc}
 124              	.LVL18:
 125              	.L7:
 113:..\..\..\..\..\..\Dev\Library embedded l2c display\u8g2\csrc/u8x8_d_ssd1309.c ****       break;
 126              		.loc 1 113 0
 127 0078 0B49     		ldr	r1, .L11+4
 128              	.LVL19:
 129 007a FFF7FEFF 		bl	u8x8_cad_SendSequence
 130              	.LVL20:
 131              		.loc 1 126 0
 132 007e 0120     		movs	r0, #1
 133 0080 F8BD     		pop	{r3, r4, r5, r6, r7, pc}
 134              	.LVL21:
 135              	.L3:
 117:..\..\..\..\..\..\Dev\Library embedded l2c display\u8g2\csrc/u8x8_d_ssd1309.c ****       u8x8_cad_SendCmd(u8x8, 0x081 );
 136              		.loc 1 117 0
 137 0082 FFF7FEFF 		bl	u8x8_cad_StartTransfer
 138              	.LVL22:
 118:..\..\..\..\..\..\Dev\Library embedded l2c display\u8g2\csrc/u8x8_d_ssd1309.c ****       u8x8_cad_SendArg(u8x8, arg_int );	/* ssd1309 has range from 0 to 255 */
 139              		.loc 1 118 0
 140 0086 8121     		movs	r1, #129
 141 0088 3046     		mov	r0, r6
 142 008a FFF7FEFF 		bl	u8x8_cad_SendCmd
 143              	.LVL23:
 119:..\..\..\..\..\..\Dev\Library embedded l2c display\u8g2\csrc/u8x8_d_ssd1309.c ****       u8x8_cad_EndTransfer(u8x8);
 144              		.loc 1 119 0
 145 008e 2146     		mov	r1, r4
 146 0090 3046     		mov	r0, r6
 147 0092 FFF7FEFF 		bl	u8x8_cad_SendArg
 148              	.LVL24:
 120:..\..\..\..\..\..\Dev\Library embedded l2c display\u8g2\csrc/u8x8_d_ssd1309.c ****       break;
 149              		.loc 1 120 0
 150 0096 3046     		mov	r0, r6
 151 0098 FFF7FEFF 		bl	u8x8_cad_EndTransfer
ARM GAS  C:\Users\Abude\AppData\Local\Temp\ccTGQkLk.s 			page 6


 152              	.LVL25:
 153              		.loc 1 126 0
 154 009c 0120     		movs	r0, #1
 121:..\..\..\..\..\..\Dev\Library embedded l2c display\u8g2\csrc/u8x8_d_ssd1309.c **** #endif
 155              		.loc 1 121 0
 156 009e F8BD     		pop	{r3, r4, r5, r6, r7, pc}
 157              	.LVL26:
 158              	.L9:
 124:..\..\..\..\..\..\Dev\Library embedded l2c display\u8g2\csrc/u8x8_d_ssd1309.c ****   }
 159              		.loc 1 124 0
 160 00a0 0020     		movs	r0, #0
 161              	.LVL27:
 127:..\..\..\..\..\..\Dev\Library embedded l2c display\u8g2\csrc/u8x8_d_ssd1309.c **** }
 162              		.loc 1 127 0
 163 00a2 F8BD     		pop	{r3, r4, r5, r6, r7, pc}
 164              	.LVL28:
 165              	.L12:
 166              		.align	2
 167              	.L11:
 168 00a4 00000000 		.word	.LANCHOR0
 169 00a8 08000000 		.word	.LANCHOR0+8
 170              		.cfi_endproc
 171              	.LFE0:
 172              		.size	u8x8_d_ssd1309_generic, .-u8x8_d_ssd1309_generic
 173              		.section	.text.u8x8_d_ssd1309_128x64_noname2,"ax",%progbits
 174              		.align	2
 175              		.global	u8x8_d_ssd1309_128x64_noname2
 176              		.thumb
 177              		.thumb_func
 178              		.type	u8x8_d_ssd1309_128x64_noname2, %function
 179              	u8x8_d_ssd1309_128x64_noname2:
 180              	.LFB1:
 128:..\..\..\..\..\..\Dev\Library embedded l2c display\u8g2\csrc/u8x8_d_ssd1309.c **** 
 129:..\..\..\..\..\..\Dev\Library embedded l2c display\u8g2\csrc/u8x8_d_ssd1309.c **** 
 130:..\..\..\..\..\..\Dev\Library embedded l2c display\u8g2\csrc/u8x8_d_ssd1309.c **** /*=================================================*/
 131:..\..\..\..\..\..\Dev\Library embedded l2c display\u8g2\csrc/u8x8_d_ssd1309.c **** /* offset 2 version */
 132:..\..\..\..\..\..\Dev\Library embedded l2c display\u8g2\csrc/u8x8_d_ssd1309.c **** 
 133:..\..\..\..\..\..\Dev\Library embedded l2c display\u8g2\csrc/u8x8_d_ssd1309.c **** /* timing from SSD1306 */
 134:..\..\..\..\..\..\Dev\Library embedded l2c display\u8g2\csrc/u8x8_d_ssd1309.c **** static const u8x8_display_info_t u8x8_ssd1309_128x64_noname2_display_info =
 135:..\..\..\..\..\..\Dev\Library embedded l2c display\u8g2\csrc/u8x8_d_ssd1309.c **** {
 136:..\..\..\..\..\..\Dev\Library embedded l2c display\u8g2\csrc/u8x8_d_ssd1309.c ****   /* chip_enable_level = */ 0,
 137:..\..\..\..\..\..\Dev\Library embedded l2c display\u8g2\csrc/u8x8_d_ssd1309.c ****   /* chip_disable_level = */ 1,
 138:..\..\..\..\..\..\Dev\Library embedded l2c display\u8g2\csrc/u8x8_d_ssd1309.c ****   
 139:..\..\..\..\..\..\Dev\Library embedded l2c display\u8g2\csrc/u8x8_d_ssd1309.c ****   /* post_chip_enable_wait_ns = */ 20,
 140:..\..\..\..\..\..\Dev\Library embedded l2c display\u8g2\csrc/u8x8_d_ssd1309.c ****   /* pre_chip_disable_wait_ns = */ 10,
 141:..\..\..\..\..\..\Dev\Library embedded l2c display\u8g2\csrc/u8x8_d_ssd1309.c ****   /* reset_pulse_width_ms = */ 100, 	/* SSD1306: 3 us */
 142:..\..\..\..\..\..\Dev\Library embedded l2c display\u8g2\csrc/u8x8_d_ssd1309.c ****   /* post_reset_wait_ms = */ 100, /* far east OLEDs need much longer setup time */
 143:..\..\..\..\..\..\Dev\Library embedded l2c display\u8g2\csrc/u8x8_d_ssd1309.c ****   /* sda_setup_time_ns = */ 50,		/* SSD1306: 15ns, but cycle time is 100ns, so use 100/2 */
 144:..\..\..\..\..\..\Dev\Library embedded l2c display\u8g2\csrc/u8x8_d_ssd1309.c ****   /* sck_pulse_width_ns = */ 50,	/* SSD1306: 20ns, but cycle time is 100ns, so use 100/2, AVR: belo
 145:..\..\..\..\..\..\Dev\Library embedded l2c display\u8g2\csrc/u8x8_d_ssd1309.c ****   /* sck_clock_hz = */ 4000000UL,	/* since Arduino 1.6.0, the SPI bus speed in Hz. Should be  10000
 146:..\..\..\..\..\..\Dev\Library embedded l2c display\u8g2\csrc/u8x8_d_ssd1309.c ****   /* spi_mode = */ 0,		/* active high, rising edge */
 147:..\..\..\..\..\..\Dev\Library embedded l2c display\u8g2\csrc/u8x8_d_ssd1309.c ****   /* i2c_bus_clock_100kHz = */ 4,
 148:..\..\..\..\..\..\Dev\Library embedded l2c display\u8g2\csrc/u8x8_d_ssd1309.c ****   /* data_setup_time_ns = */ 40,
 149:..\..\..\..\..\..\Dev\Library embedded l2c display\u8g2\csrc/u8x8_d_ssd1309.c ****   /* write_pulse_width_ns = */ 150,	/* SSD1306: cycle time is 300ns, so use 300/2 = 150 */
 150:..\..\..\..\..\..\Dev\Library embedded l2c display\u8g2\csrc/u8x8_d_ssd1309.c ****   /* tile_width = */ 16,
 151:..\..\..\..\..\..\Dev\Library embedded l2c display\u8g2\csrc/u8x8_d_ssd1309.c ****   /* tile_hight = */ 8,
 152:..\..\..\..\..\..\Dev\Library embedded l2c display\u8g2\csrc/u8x8_d_ssd1309.c ****   /* default_x_offset = */ 2,
ARM GAS  C:\Users\Abude\AppData\Local\Temp\ccTGQkLk.s 			page 7


 153:..\..\..\..\..\..\Dev\Library embedded l2c display\u8g2\csrc/u8x8_d_ssd1309.c ****   /* flipmode_x_offset = */ 2,
 154:..\..\..\..\..\..\Dev\Library embedded l2c display\u8g2\csrc/u8x8_d_ssd1309.c ****   /* pixel_width = */ 128,
 155:..\..\..\..\..\..\Dev\Library embedded l2c display\u8g2\csrc/u8x8_d_ssd1309.c ****   /* pixel_height = */ 64
 156:..\..\..\..\..\..\Dev\Library embedded l2c display\u8g2\csrc/u8x8_d_ssd1309.c **** };
 157:..\..\..\..\..\..\Dev\Library embedded l2c display\u8g2\csrc/u8x8_d_ssd1309.c **** 
 158:..\..\..\..\..\..\Dev\Library embedded l2c display\u8g2\csrc/u8x8_d_ssd1309.c **** 
 159:..\..\..\..\..\..\Dev\Library embedded l2c display\u8g2\csrc/u8x8_d_ssd1309.c **** static const uint8_t u8x8_d_ssd1309_128x64_noname_init_seq[] = {
 160:..\..\..\..\..\..\Dev\Library embedded l2c display\u8g2\csrc/u8x8_d_ssd1309.c ****     
 161:..\..\..\..\..\..\Dev\Library embedded l2c display\u8g2\csrc/u8x8_d_ssd1309.c ****   U8X8_START_TRANSFER(),             	/* enable chip, delay is part of the transfer start */
 162:..\..\..\..\..\..\Dev\Library embedded l2c display\u8g2\csrc/u8x8_d_ssd1309.c ****   
 163:..\..\..\..\..\..\Dev\Library embedded l2c display\u8g2\csrc/u8x8_d_ssd1309.c ****   
 164:..\..\..\..\..\..\Dev\Library embedded l2c display\u8g2\csrc/u8x8_d_ssd1309.c ****   U8X8_C(0x0ae),		                /* display off */
 165:..\..\..\..\..\..\Dev\Library embedded l2c display\u8g2\csrc/u8x8_d_ssd1309.c ****   U8X8_CA(0x0d5, 0x0a0),		/* clock divide ratio (0x00=1) and oscillator frequency (0x8) */
 166:..\..\..\..\..\..\Dev\Library embedded l2c display\u8g2\csrc/u8x8_d_ssd1309.c ****   //U8X8_CA(0x0a8, 0x03f),		/* multiplex ratio */
 167:..\..\..\..\..\..\Dev\Library embedded l2c display\u8g2\csrc/u8x8_d_ssd1309.c ****   U8X8_C(0x040),		        	/* set display start line to 0 */
 168:..\..\..\..\..\..\Dev\Library embedded l2c display\u8g2\csrc/u8x8_d_ssd1309.c ****   U8X8_CA(0x020, 0x002),		/* horizontal addressing mode */
 169:..\..\..\..\..\..\Dev\Library embedded l2c display\u8g2\csrc/u8x8_d_ssd1309.c ****   
 170:..\..\..\..\..\..\Dev\Library embedded l2c display\u8g2\csrc/u8x8_d_ssd1309.c ****   U8X8_C(0x0a1),				/* segment remap a0/a1*/
 171:..\..\..\..\..\..\Dev\Library embedded l2c display\u8g2\csrc/u8x8_d_ssd1309.c ****   U8X8_C(0x0c8),				/* c0: scan dir normal, c8: reverse */
 172:..\..\..\..\..\..\Dev\Library embedded l2c display\u8g2\csrc/u8x8_d_ssd1309.c ****   // Flipmode
 173:..\..\..\..\..\..\Dev\Library embedded l2c display\u8g2\csrc/u8x8_d_ssd1309.c ****   // U8X8_C(0x0a0),				/* segment remap a0/a1*/
 174:..\..\..\..\..\..\Dev\Library embedded l2c display\u8g2\csrc/u8x8_d_ssd1309.c ****   // U8X8_C(0x0c0),				/* c0: scan dir normal, c8: reverse */
 175:..\..\..\..\..\..\Dev\Library embedded l2c display\u8g2\csrc/u8x8_d_ssd1309.c ****   
 176:..\..\..\..\..\..\Dev\Library embedded l2c display\u8g2\csrc/u8x8_d_ssd1309.c ****   U8X8_CA(0x0da, 0x012),		/* com pin HW config, sequential com pin config (bit 4), disable left/rig
 177:..\..\..\..\..\..\Dev\Library embedded l2c display\u8g2\csrc/u8x8_d_ssd1309.c **** 
 178:..\..\..\..\..\..\Dev\Library embedded l2c display\u8g2\csrc/u8x8_d_ssd1309.c ****   U8X8_CA(0x081, 0x06f), 		/* [2] set contrast control */
 179:..\..\..\..\..\..\Dev\Library embedded l2c display\u8g2\csrc/u8x8_d_ssd1309.c ****   U8X8_CA(0x0d9, 0x0d3), 		/* [2] pre-charge period 0x022/f1*/
 180:..\..\..\..\..\..\Dev\Library embedded l2c display\u8g2\csrc/u8x8_d_ssd1309.c ****   U8X8_CA(0x0db, 0x020), 		/* vcomh deselect level */  
 181:..\..\..\..\..\..\Dev\Library embedded l2c display\u8g2\csrc/u8x8_d_ssd1309.c ****   // if vcomh is 0, then this will give the biggest range for contrast control issue #98
 182:..\..\..\..\..\..\Dev\Library embedded l2c display\u8g2\csrc/u8x8_d_ssd1309.c ****   // restored the old values for the noname constructor, because vcomh=0 will not work for all OLED
 183:..\..\..\..\..\..\Dev\Library embedded l2c display\u8g2\csrc/u8x8_d_ssd1309.c ****   
 184:..\..\..\..\..\..\Dev\Library embedded l2c display\u8g2\csrc/u8x8_d_ssd1309.c ****   U8X8_C(0x02e),				/* Deactivate scroll */ 
 185:..\..\..\..\..\..\Dev\Library embedded l2c display\u8g2\csrc/u8x8_d_ssd1309.c ****   U8X8_C(0x0a4),				/* output ram to display */
 186:..\..\..\..\..\..\Dev\Library embedded l2c display\u8g2\csrc/u8x8_d_ssd1309.c ****   U8X8_C(0x0a6),				/* none inverted normal display mode */
 187:..\..\..\..\..\..\Dev\Library embedded l2c display\u8g2\csrc/u8x8_d_ssd1309.c ****   
 188:..\..\..\..\..\..\Dev\Library embedded l2c display\u8g2\csrc/u8x8_d_ssd1309.c ****   //U8X8_C(0x0af),		                /* display on */
 189:..\..\..\..\..\..\Dev\Library embedded l2c display\u8g2\csrc/u8x8_d_ssd1309.c ****     
 190:..\..\..\..\..\..\Dev\Library embedded l2c display\u8g2\csrc/u8x8_d_ssd1309.c ****   U8X8_END_TRANSFER(),             	/* disable chip */
 191:..\..\..\..\..\..\Dev\Library embedded l2c display\u8g2\csrc/u8x8_d_ssd1309.c ****   U8X8_END()             			/* end of sequence */
 192:..\..\..\..\..\..\Dev\Library embedded l2c display\u8g2\csrc/u8x8_d_ssd1309.c **** };
 193:..\..\..\..\..\..\Dev\Library embedded l2c display\u8g2\csrc/u8x8_d_ssd1309.c **** 
 194:..\..\..\..\..\..\Dev\Library embedded l2c display\u8g2\csrc/u8x8_d_ssd1309.c **** 
 195:..\..\..\..\..\..\Dev\Library embedded l2c display\u8g2\csrc/u8x8_d_ssd1309.c **** uint8_t u8x8_d_ssd1309_128x64_noname2(u8x8_t *u8x8, uint8_t msg, uint8_t arg_int, void *arg_ptr)
 196:..\..\..\..\..\..\Dev\Library embedded l2c display\u8g2\csrc/u8x8_d_ssd1309.c **** {
 181              		.loc 1 196 0
 182              		.cfi_startproc
 183              		@ args = 0, pretend = 0, frame = 0
 184              		@ frame_needed = 0, uses_anonymous_args = 0
 185              	.LVL29:
 186 0000 70B5     		push	{r4, r5, r6, lr}
 187              		.cfi_def_cfa_offset 16
 188              		.cfi_offset 4, -16
 189              		.cfi_offset 5, -12
 190              		.cfi_offset 6, -8
 191              		.cfi_offset 14, -4
 192 0002 0546     		mov	r5, r0
 193 0004 0C46     		mov	r4, r1
ARM GAS  C:\Users\Abude\AppData\Local\Temp\ccTGQkLk.s 			page 8


 194 0006 1646     		mov	r6, r2
 197:..\..\..\..\..\..\Dev\Library embedded l2c display\u8g2\csrc/u8x8_d_ssd1309.c ****     
 198:..\..\..\..\..\..\Dev\Library embedded l2c display\u8g2\csrc/u8x8_d_ssd1309.c ****   if ( u8x8_d_ssd1309_generic(u8x8, msg, arg_int, arg_ptr) != 0 )
 195              		.loc 1 198 0
 196 0008 FFF7FEFF 		bl	u8x8_d_ssd1309_generic
 197              	.LVL30:
 198 000c 58BB     		cbnz	r0, .L19
 199 000e 0346     		mov	r3, r0
 199:..\..\..\..\..\..\Dev\Library embedded l2c display\u8g2\csrc/u8x8_d_ssd1309.c ****     return 1;
 200:..\..\..\..\..\..\Dev\Library embedded l2c display\u8g2\csrc/u8x8_d_ssd1309.c ****   
 201:..\..\..\..\..\..\Dev\Library embedded l2c display\u8g2\csrc/u8x8_d_ssd1309.c ****   switch(msg)
 200              		.loc 1 201 0
 201 0010 0A2C     		cmp	r4, #10
 202 0012 19D0     		beq	.L15
 203 0014 0D2C     		cmp	r4, #13
 204 0016 02D0     		beq	.L16
 205 0018 092C     		cmp	r4, #9
 206 001a 25D1     		bne	.L14
 207 001c 1DE0     		b	.L17
 208              	.L16:
 202:..\..\..\..\..\..\Dev\Library embedded l2c display\u8g2\csrc/u8x8_d_ssd1309.c ****   {
 203:..\..\..\..\..\..\Dev\Library embedded l2c display\u8g2\csrc/u8x8_d_ssd1309.c ****     case U8X8_MSG_DISPLAY_SET_FLIP_MODE:
 204:..\..\..\..\..\..\Dev\Library embedded l2c display\u8g2\csrc/u8x8_d_ssd1309.c ****       if ( arg_int == 0 )
 209              		.loc 1 204 0
 210 001e 4EB9     		cbnz	r6, .L18
 205:..\..\..\..\..\..\Dev\Library embedded l2c display\u8g2\csrc/u8x8_d_ssd1309.c ****       {
 206:..\..\..\..\..\..\Dev\Library embedded l2c display\u8g2\csrc/u8x8_d_ssd1309.c **** 	u8x8_cad_SendSequence(u8x8, u8x8_d_ssd1309_128x64_flip0_seq);
 211              		.loc 1 206 0
 212 0020 1249     		ldr	r1, .L21
 213 0022 2846     		mov	r0, r5
 214 0024 FFF7FEFF 		bl	u8x8_cad_SendSequence
 215              	.LVL31:
 207:..\..\..\..\..\..\Dev\Library embedded l2c display\u8g2\csrc/u8x8_d_ssd1309.c **** 	u8x8->x_offset = u8x8->display_info->default_x_offset;
 216              		.loc 1 207 0
 217 0028 2B68     		ldr	r3, [r5]
 218 002a 9B7C     		ldrb	r3, [r3, #18]	@ zero_extendqisi2
 219 002c 85F82230 		strb	r3, [r5, #34]
 208:..\..\..\..\..\..\Dev\Library embedded l2c display\u8g2\csrc/u8x8_d_ssd1309.c ****       }
 209:..\..\..\..\..\..\Dev\Library embedded l2c display\u8g2\csrc/u8x8_d_ssd1309.c ****       else
 210:..\..\..\..\..\..\Dev\Library embedded l2c display\u8g2\csrc/u8x8_d_ssd1309.c ****       {
 211:..\..\..\..\..\..\Dev\Library embedded l2c display\u8g2\csrc/u8x8_d_ssd1309.c **** 	u8x8_cad_SendSequence(u8x8, u8x8_d_ssd1309_128x64_flip1_seq);
 212:..\..\..\..\..\..\Dev\Library embedded l2c display\u8g2\csrc/u8x8_d_ssd1309.c **** 	u8x8->x_offset = u8x8->display_info->flipmode_x_offset;
 213:..\..\..\..\..\..\Dev\Library embedded l2c display\u8g2\csrc/u8x8_d_ssd1309.c ****       }
 214:..\..\..\..\..\..\Dev\Library embedded l2c display\u8g2\csrc/u8x8_d_ssd1309.c ****       break;
 215:..\..\..\..\..\..\Dev\Library embedded l2c display\u8g2\csrc/u8x8_d_ssd1309.c ****     case U8X8_MSG_DISPLAY_INIT:
 216:..\..\..\..\..\..\Dev\Library embedded l2c display\u8g2\csrc/u8x8_d_ssd1309.c ****       u8x8_d_helper_display_init(u8x8);
 217:..\..\..\..\..\..\Dev\Library embedded l2c display\u8g2\csrc/u8x8_d_ssd1309.c ****       u8x8_cad_SendSequence(u8x8, u8x8_d_ssd1309_128x64_noname_init_seq);    
 218:..\..\..\..\..\..\Dev\Library embedded l2c display\u8g2\csrc/u8x8_d_ssd1309.c ****       break;
 219:..\..\..\..\..\..\Dev\Library embedded l2c display\u8g2\csrc/u8x8_d_ssd1309.c ****     case U8X8_MSG_DISPLAY_SETUP_MEMORY:
 220:..\..\..\..\..\..\Dev\Library embedded l2c display\u8g2\csrc/u8x8_d_ssd1309.c ****       u8x8_d_helper_display_setup_memory(u8x8, &u8x8_ssd1309_128x64_noname2_display_info);
 221:..\..\..\..\..\..\Dev\Library embedded l2c display\u8g2\csrc/u8x8_d_ssd1309.c ****       break;
 222:..\..\..\..\..\..\Dev\Library embedded l2c display\u8g2\csrc/u8x8_d_ssd1309.c ****     default:
 223:..\..\..\..\..\..\Dev\Library embedded l2c display\u8g2\csrc/u8x8_d_ssd1309.c ****       return 0;
 224:..\..\..\..\..\..\Dev\Library embedded l2c display\u8g2\csrc/u8x8_d_ssd1309.c ****   }
 225:..\..\..\..\..\..\Dev\Library embedded l2c display\u8g2\csrc/u8x8_d_ssd1309.c ****   return 1;
 220              		.loc 1 225 0
 221 0030 0123     		movs	r3, #1
ARM GAS  C:\Users\Abude\AppData\Local\Temp\ccTGQkLk.s 			page 9


 222 0032 19E0     		b	.L14
 223              	.L18:
 211:..\..\..\..\..\..\Dev\Library embedded l2c display\u8g2\csrc/u8x8_d_ssd1309.c **** 	u8x8->x_offset = u8x8->display_info->flipmode_x_offset;
 224              		.loc 1 211 0
 225 0034 0E49     		ldr	r1, .L21+4
 226 0036 2846     		mov	r0, r5
 227 0038 FFF7FEFF 		bl	u8x8_cad_SendSequence
 228              	.LVL32:
 212:..\..\..\..\..\..\Dev\Library embedded l2c display\u8g2\csrc/u8x8_d_ssd1309.c ****       }
 229              		.loc 1 212 0
 230 003c 2B68     		ldr	r3, [r5]
 231 003e DB7C     		ldrb	r3, [r3, #19]	@ zero_extendqisi2
 232 0040 85F82230 		strb	r3, [r5, #34]
 233              		.loc 1 225 0
 234 0044 0123     		movs	r3, #1
 235 0046 0FE0     		b	.L14
 236              	.L15:
 216:..\..\..\..\..\..\Dev\Library embedded l2c display\u8g2\csrc/u8x8_d_ssd1309.c ****       u8x8_cad_SendSequence(u8x8, u8x8_d_ssd1309_128x64_noname_init_seq);    
 237              		.loc 1 216 0
 238 0048 2846     		mov	r0, r5
 239 004a FFF7FEFF 		bl	u8x8_d_helper_display_init
 240              	.LVL33:
 217:..\..\..\..\..\..\Dev\Library embedded l2c display\u8g2\csrc/u8x8_d_ssd1309.c ****       break;
 241              		.loc 1 217 0
 242 004e 0949     		ldr	r1, .L21+8
 243 0050 2846     		mov	r0, r5
 244 0052 FFF7FEFF 		bl	u8x8_cad_SendSequence
 245              	.LVL34:
 246              		.loc 1 225 0
 247 0056 0123     		movs	r3, #1
 218:..\..\..\..\..\..\Dev\Library embedded l2c display\u8g2\csrc/u8x8_d_ssd1309.c ****     case U8X8_MSG_DISPLAY_SETUP_MEMORY:
 248              		.loc 1 218 0
 249 0058 06E0     		b	.L14
 250              	.L17:
 220:..\..\..\..\..\..\Dev\Library embedded l2c display\u8g2\csrc/u8x8_d_ssd1309.c ****       break;
 251              		.loc 1 220 0
 252 005a 0749     		ldr	r1, .L21+12
 253 005c 2846     		mov	r0, r5
 254 005e FFF7FEFF 		bl	u8x8_d_helper_display_setup_memory
 255              	.LVL35:
 256              		.loc 1 225 0
 257 0062 0123     		movs	r3, #1
 221:..\..\..\..\..\..\Dev\Library embedded l2c display\u8g2\csrc/u8x8_d_ssd1309.c ****     default:
 258              		.loc 1 221 0
 259 0064 00E0     		b	.L14
 260              	.L19:
 199:..\..\..\..\..\..\Dev\Library embedded l2c display\u8g2\csrc/u8x8_d_ssd1309.c ****   
 261              		.loc 1 199 0
 262 0066 0123     		movs	r3, #1
 263              	.L14:
 226:..\..\..\..\..\..\Dev\Library embedded l2c display\u8g2\csrc/u8x8_d_ssd1309.c **** }
 264              		.loc 1 226 0
 265 0068 1846     		mov	r0, r3
 266 006a 70BD     		pop	{r4, r5, r6, pc}
 267              	.LVL36:
 268              	.L22:
 269              		.align	2
ARM GAS  C:\Users\Abude\AppData\Local\Temp\ccTGQkLk.s 			page 10


 270              	.L21:
 271 006c 10000000 		.word	.LANCHOR0+16
 272 0070 18000000 		.word	.LANCHOR0+24
 273 0074 20000000 		.word	.LANCHOR0+32
 274 0078 4C000000 		.word	.LANCHOR0+76
 275              		.cfi_endproc
 276              	.LFE1:
 277              		.size	u8x8_d_ssd1309_128x64_noname2, .-u8x8_d_ssd1309_128x64_noname2
 278              		.section	.text.u8x8_d_ssd1309_128x64_noname0,"ax",%progbits
 279              		.align	2
 280              		.global	u8x8_d_ssd1309_128x64_noname0
 281              		.thumb
 282              		.thumb_func
 283              		.type	u8x8_d_ssd1309_128x64_noname0, %function
 284              	u8x8_d_ssd1309_128x64_noname0:
 285              	.LFB2:
 227:..\..\..\..\..\..\Dev\Library embedded l2c display\u8g2\csrc/u8x8_d_ssd1309.c **** 
 228:..\..\..\..\..\..\Dev\Library embedded l2c display\u8g2\csrc/u8x8_d_ssd1309.c **** 
 229:..\..\..\..\..\..\Dev\Library embedded l2c display\u8g2\csrc/u8x8_d_ssd1309.c **** /*=================================================*/
 230:..\..\..\..\..\..\Dev\Library embedded l2c display\u8g2\csrc/u8x8_d_ssd1309.c **** /* offset 0 version */
 231:..\..\..\..\..\..\Dev\Library embedded l2c display\u8g2\csrc/u8x8_d_ssd1309.c **** 
 232:..\..\..\..\..\..\Dev\Library embedded l2c display\u8g2\csrc/u8x8_d_ssd1309.c **** /* timing from SSD1306 */
 233:..\..\..\..\..\..\Dev\Library embedded l2c display\u8g2\csrc/u8x8_d_ssd1309.c **** static const u8x8_display_info_t u8x8_ssd1309_128x64_noname0_display_info =
 234:..\..\..\..\..\..\Dev\Library embedded l2c display\u8g2\csrc/u8x8_d_ssd1309.c **** {
 235:..\..\..\..\..\..\Dev\Library embedded l2c display\u8g2\csrc/u8x8_d_ssd1309.c ****   /* chip_enable_level = */ 0,
 236:..\..\..\..\..\..\Dev\Library embedded l2c display\u8g2\csrc/u8x8_d_ssd1309.c ****   /* chip_disable_level = */ 1,
 237:..\..\..\..\..\..\Dev\Library embedded l2c display\u8g2\csrc/u8x8_d_ssd1309.c ****   
 238:..\..\..\..\..\..\Dev\Library embedded l2c display\u8g2\csrc/u8x8_d_ssd1309.c ****   /* post_chip_enable_wait_ns = */ 20,
 239:..\..\..\..\..\..\Dev\Library embedded l2c display\u8g2\csrc/u8x8_d_ssd1309.c ****   /* pre_chip_disable_wait_ns = */ 10,
 240:..\..\..\..\..\..\Dev\Library embedded l2c display\u8g2\csrc/u8x8_d_ssd1309.c ****   /* reset_pulse_width_ms = */ 100, 	/* SSD1306: 3 us */
 241:..\..\..\..\..\..\Dev\Library embedded l2c display\u8g2\csrc/u8x8_d_ssd1309.c ****   /* post_reset_wait_ms = */ 100, /* far east OLEDs need much longer setup time */
 242:..\..\..\..\..\..\Dev\Library embedded l2c display\u8g2\csrc/u8x8_d_ssd1309.c ****   /* sda_setup_time_ns = */ 50,		/* SSD1306: 15ns, but cycle time is 100ns, so use 100/2 */
 243:..\..\..\..\..\..\Dev\Library embedded l2c display\u8g2\csrc/u8x8_d_ssd1309.c ****   /* sck_pulse_width_ns = */ 50,	/* SSD1306: 20ns, but cycle time is 100ns, so use 100/2, AVR: belo
 244:..\..\..\..\..\..\Dev\Library embedded l2c display\u8g2\csrc/u8x8_d_ssd1309.c ****   /* sck_clock_hz = */ 4000000UL,	/* since Arduino 1.6.0, the SPI bus speed in Hz. Should be  10000
 245:..\..\..\..\..\..\Dev\Library embedded l2c display\u8g2\csrc/u8x8_d_ssd1309.c ****   /* spi_mode = */ 0,		/* active high, rising edge */
 246:..\..\..\..\..\..\Dev\Library embedded l2c display\u8g2\csrc/u8x8_d_ssd1309.c ****   /* i2c_bus_clock_100kHz = */ 4,
 247:..\..\..\..\..\..\Dev\Library embedded l2c display\u8g2\csrc/u8x8_d_ssd1309.c ****   /* data_setup_time_ns = */ 40,
 248:..\..\..\..\..\..\Dev\Library embedded l2c display\u8g2\csrc/u8x8_d_ssd1309.c ****   /* write_pulse_width_ns = */ 150,	/* SSD1306: cycle time is 300ns, so use 300/2 = 150 */
 249:..\..\..\..\..\..\Dev\Library embedded l2c display\u8g2\csrc/u8x8_d_ssd1309.c ****   /* tile_width = */ 16,
 250:..\..\..\..\..\..\Dev\Library embedded l2c display\u8g2\csrc/u8x8_d_ssd1309.c ****   /* tile_hight = */ 8,
 251:..\..\..\..\..\..\Dev\Library embedded l2c display\u8g2\csrc/u8x8_d_ssd1309.c ****   /* default_x_offset = */ 0,
 252:..\..\..\..\..\..\Dev\Library embedded l2c display\u8g2\csrc/u8x8_d_ssd1309.c ****   /* flipmode_x_offset = */ 0,
 253:..\..\..\..\..\..\Dev\Library embedded l2c display\u8g2\csrc/u8x8_d_ssd1309.c ****   /* pixel_width = */ 128,
 254:..\..\..\..\..\..\Dev\Library embedded l2c display\u8g2\csrc/u8x8_d_ssd1309.c ****   /* pixel_height = */ 64
 255:..\..\..\..\..\..\Dev\Library embedded l2c display\u8g2\csrc/u8x8_d_ssd1309.c **** };
 256:..\..\..\..\..\..\Dev\Library embedded l2c display\u8g2\csrc/u8x8_d_ssd1309.c **** 
 257:..\..\..\..\..\..\Dev\Library embedded l2c display\u8g2\csrc/u8x8_d_ssd1309.c **** uint8_t u8x8_d_ssd1309_128x64_noname0(u8x8_t *u8x8, uint8_t msg, uint8_t arg_int, void *arg_ptr)
 258:..\..\..\..\..\..\Dev\Library embedded l2c display\u8g2\csrc/u8x8_d_ssd1309.c **** {
 286              		.loc 1 258 0
 287              		.cfi_startproc
 288              		@ args = 0, pretend = 0, frame = 0
 289              		@ frame_needed = 0, uses_anonymous_args = 0
 290              	.LVL37:
 291 0000 70B5     		push	{r4, r5, r6, lr}
 292              		.cfi_def_cfa_offset 16
 293              		.cfi_offset 4, -16
 294              		.cfi_offset 5, -12
ARM GAS  C:\Users\Abude\AppData\Local\Temp\ccTGQkLk.s 			page 11


 295              		.cfi_offset 6, -8
 296              		.cfi_offset 14, -4
 297 0002 0546     		mov	r5, r0
 298 0004 0C46     		mov	r4, r1
 299 0006 1646     		mov	r6, r2
 259:..\..\..\..\..\..\Dev\Library embedded l2c display\u8g2\csrc/u8x8_d_ssd1309.c ****     
 260:..\..\..\..\..\..\Dev\Library embedded l2c display\u8g2\csrc/u8x8_d_ssd1309.c ****   if ( u8x8_d_ssd1309_generic(u8x8, msg, arg_int, arg_ptr) != 0 )
 300              		.loc 1 260 0
 301 0008 FFF7FEFF 		bl	u8x8_d_ssd1309_generic
 302              	.LVL38:
 303 000c 58BB     		cbnz	r0, .L29
 304 000e 0346     		mov	r3, r0
 261:..\..\..\..\..\..\Dev\Library embedded l2c display\u8g2\csrc/u8x8_d_ssd1309.c ****     return 1;
 262:..\..\..\..\..\..\Dev\Library embedded l2c display\u8g2\csrc/u8x8_d_ssd1309.c ****   
 263:..\..\..\..\..\..\Dev\Library embedded l2c display\u8g2\csrc/u8x8_d_ssd1309.c ****   switch(msg)
 305              		.loc 1 263 0
 306 0010 0A2C     		cmp	r4, #10
 307 0012 19D0     		beq	.L25
 308 0014 0D2C     		cmp	r4, #13
 309 0016 02D0     		beq	.L26
 310 0018 092C     		cmp	r4, #9
 311 001a 25D1     		bne	.L24
 312 001c 1DE0     		b	.L27
 313              	.L26:
 264:..\..\..\..\..\..\Dev\Library embedded l2c display\u8g2\csrc/u8x8_d_ssd1309.c ****   {
 265:..\..\..\..\..\..\Dev\Library embedded l2c display\u8g2\csrc/u8x8_d_ssd1309.c ****     case U8X8_MSG_DISPLAY_SET_FLIP_MODE:
 266:..\..\..\..\..\..\Dev\Library embedded l2c display\u8g2\csrc/u8x8_d_ssd1309.c ****       if ( arg_int == 0 )
 314              		.loc 1 266 0
 315 001e 4EB9     		cbnz	r6, .L28
 267:..\..\..\..\..\..\Dev\Library embedded l2c display\u8g2\csrc/u8x8_d_ssd1309.c ****       {
 268:..\..\..\..\..\..\Dev\Library embedded l2c display\u8g2\csrc/u8x8_d_ssd1309.c **** 	u8x8_cad_SendSequence(u8x8, u8x8_d_ssd1309_128x64_flip0_seq);
 316              		.loc 1 268 0
 317 0020 1249     		ldr	r1, .L31
 318 0022 2846     		mov	r0, r5
 319 0024 FFF7FEFF 		bl	u8x8_cad_SendSequence
 320              	.LVL39:
 269:..\..\..\..\..\..\Dev\Library embedded l2c display\u8g2\csrc/u8x8_d_ssd1309.c **** 	u8x8->x_offset = u8x8->display_info->default_x_offset;
 321              		.loc 1 269 0
 322 0028 2B68     		ldr	r3, [r5]
 323 002a 9B7C     		ldrb	r3, [r3, #18]	@ zero_extendqisi2
 324 002c 85F82230 		strb	r3, [r5, #34]
 270:..\..\..\..\..\..\Dev\Library embedded l2c display\u8g2\csrc/u8x8_d_ssd1309.c ****       }
 271:..\..\..\..\..\..\Dev\Library embedded l2c display\u8g2\csrc/u8x8_d_ssd1309.c ****       else
 272:..\..\..\..\..\..\Dev\Library embedded l2c display\u8g2\csrc/u8x8_d_ssd1309.c ****       {
 273:..\..\..\..\..\..\Dev\Library embedded l2c display\u8g2\csrc/u8x8_d_ssd1309.c **** 	u8x8_cad_SendSequence(u8x8, u8x8_d_ssd1309_128x64_flip1_seq);
 274:..\..\..\..\..\..\Dev\Library embedded l2c display\u8g2\csrc/u8x8_d_ssd1309.c **** 	u8x8->x_offset = u8x8->display_info->flipmode_x_offset;
 275:..\..\..\..\..\..\Dev\Library embedded l2c display\u8g2\csrc/u8x8_d_ssd1309.c ****       }
 276:..\..\..\..\..\..\Dev\Library embedded l2c display\u8g2\csrc/u8x8_d_ssd1309.c ****       break;
 277:..\..\..\..\..\..\Dev\Library embedded l2c display\u8g2\csrc/u8x8_d_ssd1309.c ****     case U8X8_MSG_DISPLAY_INIT:
 278:..\..\..\..\..\..\Dev\Library embedded l2c display\u8g2\csrc/u8x8_d_ssd1309.c ****       u8x8_d_helper_display_init(u8x8);
 279:..\..\..\..\..\..\Dev\Library embedded l2c display\u8g2\csrc/u8x8_d_ssd1309.c ****       u8x8_cad_SendSequence(u8x8, u8x8_d_ssd1309_128x64_noname_init_seq);    
 280:..\..\..\..\..\..\Dev\Library embedded l2c display\u8g2\csrc/u8x8_d_ssd1309.c ****       break;
 281:..\..\..\..\..\..\Dev\Library embedded l2c display\u8g2\csrc/u8x8_d_ssd1309.c ****     case U8X8_MSG_DISPLAY_SETUP_MEMORY:
 282:..\..\..\..\..\..\Dev\Library embedded l2c display\u8g2\csrc/u8x8_d_ssd1309.c ****       u8x8_d_helper_display_setup_memory(u8x8, &u8x8_ssd1309_128x64_noname0_display_info);
 283:..\..\..\..\..\..\Dev\Library embedded l2c display\u8g2\csrc/u8x8_d_ssd1309.c ****       break;
 284:..\..\..\..\..\..\Dev\Library embedded l2c display\u8g2\csrc/u8x8_d_ssd1309.c ****     default:
 285:..\..\..\..\..\..\Dev\Library embedded l2c display\u8g2\csrc/u8x8_d_ssd1309.c ****       return 0;
ARM GAS  C:\Users\Abude\AppData\Local\Temp\ccTGQkLk.s 			page 12


 286:..\..\..\..\..\..\Dev\Library embedded l2c display\u8g2\csrc/u8x8_d_ssd1309.c ****   }
 287:..\..\..\..\..\..\Dev\Library embedded l2c display\u8g2\csrc/u8x8_d_ssd1309.c ****   return 1;
 325              		.loc 1 287 0
 326 0030 0123     		movs	r3, #1
 327 0032 19E0     		b	.L24
 328              	.L28:
 273:..\..\..\..\..\..\Dev\Library embedded l2c display\u8g2\csrc/u8x8_d_ssd1309.c **** 	u8x8->x_offset = u8x8->display_info->flipmode_x_offset;
 329              		.loc 1 273 0
 330 0034 0E49     		ldr	r1, .L31+4
 331 0036 2846     		mov	r0, r5
 332 0038 FFF7FEFF 		bl	u8x8_cad_SendSequence
 333              	.LVL40:
 274:..\..\..\..\..\..\Dev\Library embedded l2c display\u8g2\csrc/u8x8_d_ssd1309.c ****       }
 334              		.loc 1 274 0
 335 003c 2B68     		ldr	r3, [r5]
 336 003e DB7C     		ldrb	r3, [r3, #19]	@ zero_extendqisi2
 337 0040 85F82230 		strb	r3, [r5, #34]
 338              		.loc 1 287 0
 339 0044 0123     		movs	r3, #1
 340 0046 0FE0     		b	.L24
 341              	.L25:
 278:..\..\..\..\..\..\Dev\Library embedded l2c display\u8g2\csrc/u8x8_d_ssd1309.c ****       u8x8_cad_SendSequence(u8x8, u8x8_d_ssd1309_128x64_noname_init_seq);    
 342              		.loc 1 278 0
 343 0048 2846     		mov	r0, r5
 344 004a FFF7FEFF 		bl	u8x8_d_helper_display_init
 345              	.LVL41:
 279:..\..\..\..\..\..\Dev\Library embedded l2c display\u8g2\csrc/u8x8_d_ssd1309.c ****       break;
 346              		.loc 1 279 0
 347 004e 0949     		ldr	r1, .L31+8
 348 0050 2846     		mov	r0, r5
 349 0052 FFF7FEFF 		bl	u8x8_cad_SendSequence
 350              	.LVL42:
 351              		.loc 1 287 0
 352 0056 0123     		movs	r3, #1
 280:..\..\..\..\..\..\Dev\Library embedded l2c display\u8g2\csrc/u8x8_d_ssd1309.c ****     case U8X8_MSG_DISPLAY_SETUP_MEMORY:
 353              		.loc 1 280 0
 354 0058 06E0     		b	.L24
 355              	.L27:
 282:..\..\..\..\..\..\Dev\Library embedded l2c display\u8g2\csrc/u8x8_d_ssd1309.c ****       break;
 356              		.loc 1 282 0
 357 005a 0749     		ldr	r1, .L31+12
 358 005c 2846     		mov	r0, r5
 359 005e FFF7FEFF 		bl	u8x8_d_helper_display_setup_memory
 360              	.LVL43:
 361              		.loc 1 287 0
 362 0062 0123     		movs	r3, #1
 283:..\..\..\..\..\..\Dev\Library embedded l2c display\u8g2\csrc/u8x8_d_ssd1309.c ****     default:
 363              		.loc 1 283 0
 364 0064 00E0     		b	.L24
 365              	.L29:
 261:..\..\..\..\..\..\Dev\Library embedded l2c display\u8g2\csrc/u8x8_d_ssd1309.c ****   
 366              		.loc 1 261 0
 367 0066 0123     		movs	r3, #1
 368              	.L24:
 288:..\..\..\..\..\..\Dev\Library embedded l2c display\u8g2\csrc/u8x8_d_ssd1309.c **** }
 369              		.loc 1 288 0
 370 0068 1846     		mov	r0, r3
ARM GAS  C:\Users\Abude\AppData\Local\Temp\ccTGQkLk.s 			page 13


 371 006a 70BD     		pop	{r4, r5, r6, pc}
 372              	.LVL44:
 373              	.L32:
 374              		.align	2
 375              	.L31:
 376 006c 10000000 		.word	.LANCHOR0+16
 377 0070 18000000 		.word	.LANCHOR0+24
 378 0074 20000000 		.word	.LANCHOR0+32
 379 0078 64000000 		.word	.LANCHOR0+100
 380              		.cfi_endproc
 381              	.LFE2:
 382              		.size	u8x8_d_ssd1309_128x64_noname0, .-u8x8_d_ssd1309_128x64_noname0
 383              		.section	.text.u8x8_d_ssd1306_102x64_ea_oleds102,"ax",%progbits
 384              		.align	2
 385              		.global	u8x8_d_ssd1306_102x64_ea_oleds102
 386              		.thumb
 387              		.thumb_func
 388              		.type	u8x8_d_ssd1306_102x64_ea_oleds102, %function
 389              	u8x8_d_ssd1306_102x64_ea_oleds102:
 390              	.LFB3:
 289:..\..\..\..\..\..\Dev\Library embedded l2c display\u8g2\csrc/u8x8_d_ssd1309.c **** 
 290:..\..\..\..\..\..\Dev\Library embedded l2c display\u8g2\csrc/u8x8_d_ssd1309.c **** 
 291:..\..\..\..\..\..\Dev\Library embedded l2c display\u8g2\csrc/u8x8_d_ssd1309.c **** /*=================================================*/
 292:..\..\..\..\..\..\Dev\Library embedded l2c display\u8g2\csrc/u8x8_d_ssd1309.c **** /*
 293:..\..\..\..\..\..\Dev\Library embedded l2c display\u8g2\csrc/u8x8_d_ssd1309.c ****   EA OLEDS102
 294:..\..\..\..\..\..\Dev\Library embedded l2c display\u8g2\csrc/u8x8_d_ssd1309.c ****   Contributed here: https://github.com/olikraus/u8g2/pull/1497/files
 295:..\..\..\..\..\..\Dev\Library embedded l2c display\u8g2\csrc/u8x8_d_ssd1309.c ****   Manually added here, device renamed from SSD1309 to SSD1306
 296:..\..\..\..\..\..\Dev\Library embedded l2c display\u8g2\csrc/u8x8_d_ssd1309.c **** */
 297:..\..\..\..\..\..\Dev\Library embedded l2c display\u8g2\csrc/u8x8_d_ssd1309.c **** 
 298:..\..\..\..\..\..\Dev\Library embedded l2c display\u8g2\csrc/u8x8_d_ssd1309.c **** static const uint8_t u8x8_d_ssd1309_102x64_ea_oleds102_init_seq[] = {
 299:..\..\..\..\..\..\Dev\Library embedded l2c display\u8g2\csrc/u8x8_d_ssd1309.c **** 
 300:..\..\..\..\..\..\Dev\Library embedded l2c display\u8g2\csrc/u8x8_d_ssd1309.c ****   U8X8_START_TRANSFER(),             	/* enable chip, delay is part of the transfer start */
 301:..\..\..\..\..\..\Dev\Library embedded l2c display\u8g2\csrc/u8x8_d_ssd1309.c **** 
 302:..\..\..\..\..\..\Dev\Library embedded l2c display\u8g2\csrc/u8x8_d_ssd1309.c ****   U8X8_C(0x40),         //Set Display start line
 303:..\..\..\..\..\..\Dev\Library embedded l2c display\u8g2\csrc/u8x8_d_ssd1309.c ****   U8X8_C(0xA0),         //Bottom View no Segment remap
 304:..\..\..\..\..\..\Dev\Library embedded l2c display\u8g2\csrc/u8x8_d_ssd1309.c ****   U8X8_C(0xC0),         //Bottom View COM scan direction normal
 305:..\..\..\..\..\..\Dev\Library embedded l2c display\u8g2\csrc/u8x8_d_ssd1309.c ****   U8X8_C(0x2E),         //StartColumnAddress
 306:..\..\..\..\..\..\Dev\Library embedded l2c display\u8g2\csrc/u8x8_d_ssd1309.c ****   U8X8_CA(0x8D, 0x95),  //Switch Charge Pump (9V)
 307:..\..\..\..\..\..\Dev\Library embedded l2c display\u8g2\csrc/u8x8_d_ssd1309.c ****   U8X8_CA(0x20, 0x02),  //Set Memory AddressMode
 308:..\..\..\..\..\..\Dev\Library embedded l2c display\u8g2\csrc/u8x8_d_ssd1309.c ****   U8X8_CA(0x81, 0xFF),  //Set Brightness
 309:..\..\..\..\..\..\Dev\Library embedded l2c display\u8g2\csrc/u8x8_d_ssd1309.c ****   U8X8_CA(0xD5, 0x40),  //Set Display Clock Divide
 310:..\..\..\..\..\..\Dev\Library embedded l2c display\u8g2\csrc/u8x8_d_ssd1309.c ****   U8X8_CA(0xD9, 0xF1),  //Set Precharge Periode
 311:..\..\..\..\..\..\Dev\Library embedded l2c display\u8g2\csrc/u8x8_d_ssd1309.c ****   U8X8_CA(0xAD, 0x30),  //Set Internal Ref
 312:..\..\..\..\..\..\Dev\Library embedded l2c display\u8g2\csrc/u8x8_d_ssd1309.c ****   U8X8_CAA(0x21, 0x0D, 0x72), //Set ColumnAddress to 13x8 + 10 = 114/0x72
 313:..\..\..\..\..\..\Dev\Library embedded l2c display\u8g2\csrc/u8x8_d_ssd1309.c ****   U8X8_CAA(0x22, 0x00, 0x3F), //Set PageAddress
 314:..\..\..\..\..\..\Dev\Library embedded l2c display\u8g2\csrc/u8x8_d_ssd1309.c ****   U8X8_C(0xAF),         //Display on
 315:..\..\..\..\..\..\Dev\Library embedded l2c display\u8g2\csrc/u8x8_d_ssd1309.c **** 
 316:..\..\..\..\..\..\Dev\Library embedded l2c display\u8g2\csrc/u8x8_d_ssd1309.c ****   U8X8_END_TRANSFER(),  /* disable chip */
 317:..\..\..\..\..\..\Dev\Library embedded l2c display\u8g2\csrc/u8x8_d_ssd1309.c ****   U8X8_END()            /* end of sequence */
 318:..\..\..\..\..\..\Dev\Library embedded l2c display\u8g2\csrc/u8x8_d_ssd1309.c **** };
 319:..\..\..\..\..\..\Dev\Library embedded l2c display\u8g2\csrc/u8x8_d_ssd1309.c **** 
 320:..\..\..\..\..\..\Dev\Library embedded l2c display\u8g2\csrc/u8x8_d_ssd1309.c **** /* timing from SSD1306 */
 321:..\..\..\..\..\..\Dev\Library embedded l2c display\u8g2\csrc/u8x8_d_ssd1309.c **** static const u8x8_display_info_t u8x8_ssd1309_102x64_ea_oleds102_display_info =
 322:..\..\..\..\..\..\Dev\Library embedded l2c display\u8g2\csrc/u8x8_d_ssd1309.c **** {
 323:..\..\..\..\..\..\Dev\Library embedded l2c display\u8g2\csrc/u8x8_d_ssd1309.c ****   /* chip_enable_level = */ 0,
 324:..\..\..\..\..\..\Dev\Library embedded l2c display\u8g2\csrc/u8x8_d_ssd1309.c ****   /* chip_disable_level = */ 1,
 325:..\..\..\..\..\..\Dev\Library embedded l2c display\u8g2\csrc/u8x8_d_ssd1309.c **** 
ARM GAS  C:\Users\Abude\AppData\Local\Temp\ccTGQkLk.s 			page 14


 326:..\..\..\..\..\..\Dev\Library embedded l2c display\u8g2\csrc/u8x8_d_ssd1309.c ****   /* post_chip_enable_wait_ns = */ 20,
 327:..\..\..\..\..\..\Dev\Library embedded l2c display\u8g2\csrc/u8x8_d_ssd1309.c ****   /* pre_chip_disable_wait_ns = */ 10,
 328:..\..\..\..\..\..\Dev\Library embedded l2c display\u8g2\csrc/u8x8_d_ssd1309.c ****   /* reset_pulse_width_ms = */ 100, 	/* SSD1306: 3 us */
 329:..\..\..\..\..\..\Dev\Library embedded l2c display\u8g2\csrc/u8x8_d_ssd1309.c ****   /* post_reset_wait_ms = */ 100, /* far east OLEDs need much longer setup time */
 330:..\..\..\..\..\..\Dev\Library embedded l2c display\u8g2\csrc/u8x8_d_ssd1309.c ****   /* sda_setup_time_ns = */ 50,		/* SSD1306: 15ns, but cycle time is 100ns, so use 100/2 */
 331:..\..\..\..\..\..\Dev\Library embedded l2c display\u8g2\csrc/u8x8_d_ssd1309.c ****   /* sck_pulse_width_ns = */ 50,	/* SSD1306: 20ns, but cycle time is 100ns, so use 100/2, AVR: belo
 332:..\..\..\..\..\..\Dev\Library embedded l2c display\u8g2\csrc/u8x8_d_ssd1309.c ****   /* sck_clock_hz = */ 4000000UL,	/* since Arduino 1.6.0, the SPI bus speed in Hz. Should be  10000
 333:..\..\..\..\..\..\Dev\Library embedded l2c display\u8g2\csrc/u8x8_d_ssd1309.c ****   /* spi_mode = */ 0,		/* active high, rising edge */
 334:..\..\..\..\..\..\Dev\Library embedded l2c display\u8g2\csrc/u8x8_d_ssd1309.c ****   /* i2c_bus_clock_100kHz = */ 4,
 335:..\..\..\..\..\..\Dev\Library embedded l2c display\u8g2\csrc/u8x8_d_ssd1309.c ****   /* data_setup_time_ns = */ 40,
 336:..\..\..\..\..\..\Dev\Library embedded l2c display\u8g2\csrc/u8x8_d_ssd1309.c ****   /* write_pulse_width_ns = */ 150,	/* SSD1306: cycle time is 300ns, so use 300/2 = 150 */
 337:..\..\..\..\..\..\Dev\Library embedded l2c display\u8g2\csrc/u8x8_d_ssd1309.c ****   /* tile_width = */ 13,  /* width of 13*8=104 pixel */
 338:..\..\..\..\..\..\Dev\Library embedded l2c display\u8g2\csrc/u8x8_d_ssd1309.c ****   /* tile_hight = */ 8,
 339:..\..\..\..\..\..\Dev\Library embedded l2c display\u8g2\csrc/u8x8_d_ssd1309.c ****   /* default_x_offset = */ 13, 
 340:..\..\..\..\..\..\Dev\Library embedded l2c display\u8g2\csrc/u8x8_d_ssd1309.c ****   /* flipmode_x_offset = */ 13,
 341:..\..\..\..\..\..\Dev\Library embedded l2c display\u8g2\csrc/u8x8_d_ssd1309.c ****   /* pixel_width = */ 102,
 342:..\..\..\..\..\..\Dev\Library embedded l2c display\u8g2\csrc/u8x8_d_ssd1309.c ****   /* pixel_height = */ 64
 343:..\..\..\..\..\..\Dev\Library embedded l2c display\u8g2\csrc/u8x8_d_ssd1309.c **** };
 344:..\..\..\..\..\..\Dev\Library embedded l2c display\u8g2\csrc/u8x8_d_ssd1309.c **** 
 345:..\..\..\..\..\..\Dev\Library embedded l2c display\u8g2\csrc/u8x8_d_ssd1309.c **** uint8_t u8x8_d_ssd1306_102x64_ea_oleds102(u8x8_t *u8x8, uint8_t msg, uint8_t arg_int, void *arg_ptr
 346:..\..\..\..\..\..\Dev\Library embedded l2c display\u8g2\csrc/u8x8_d_ssd1309.c **** {
 391              		.loc 1 346 0
 392              		.cfi_startproc
 393              		@ args = 0, pretend = 0, frame = 0
 394              		@ frame_needed = 0, uses_anonymous_args = 0
 395              	.LVL45:
 396 0000 2DE9F041 		push	{r4, r5, r6, r7, r8, lr}
 397              		.cfi_def_cfa_offset 24
 398              		.cfi_offset 4, -24
 399              		.cfi_offset 5, -20
 400              		.cfi_offset 6, -16
 401              		.cfi_offset 7, -12
 402              		.cfi_offset 8, -8
 403              		.cfi_offset 14, -4
 404 0004 0546     		mov	r5, r0
 405 0006 1446     		mov	r4, r2
 406 0008 1F46     		mov	r7, r3
 347:..\..\..\..\..\..\Dev\Library embedded l2c display\u8g2\csrc/u8x8_d_ssd1309.c ****   uint8_t x, c;
 348:..\..\..\..\..\..\Dev\Library embedded l2c display\u8g2\csrc/u8x8_d_ssd1309.c ****   uint8_t *ptr;
 349:..\..\..\..\..\..\Dev\Library embedded l2c display\u8g2\csrc/u8x8_d_ssd1309.c **** 
 350:..\..\..\..\..\..\Dev\Library embedded l2c display\u8g2\csrc/u8x8_d_ssd1309.c ****   switch(msg)
 407              		.loc 1 350 0
 408 000a 0939     		subs	r1, r1, #9
 409              	.LVL46:
 410 000c 0629     		cmp	r1, #6
 411 000e 6FD8     		bhi	.L44
 412 0010 DFE801F0 		tbb	[pc, r1]
 413              	.LVL47:
 414              	.L36:
 415 0014 22       		.byte	(.L35-.L36)/2
 416 0015 19       		.byte	(.L37-.L36)/2
 417 0016 6E       		.byte	(.L44-.L36)/2
 418 0017 6E       		.byte	(.L44-.L36)/2
 419 0018 04       		.byte	(.L38-.L36)/2
 420 0019 28       		.byte	(.L39-.L36)/2
 421 001a 38       		.byte	(.L40-.L36)/2
 422 001b 00       		.p2align 1
ARM GAS  C:\Users\Abude\AppData\Local\Temp\ccTGQkLk.s 			page 15


 423              	.L38:
 351:..\..\..\..\..\..\Dev\Library embedded l2c display\u8g2\csrc/u8x8_d_ssd1309.c ****   {
 352:..\..\..\..\..\..\Dev\Library embedded l2c display\u8g2\csrc/u8x8_d_ssd1309.c ****     case U8X8_MSG_DISPLAY_SET_FLIP_MODE:
 353:..\..\..\..\..\..\Dev\Library embedded l2c display\u8g2\csrc/u8x8_d_ssd1309.c ****       if ( arg_int == 0 )
 424              		.loc 1 353 0
 425 001c 4AB9     		cbnz	r2, .L41
 354:..\..\..\..\..\..\Dev\Library embedded l2c display\u8g2\csrc/u8x8_d_ssd1309.c ****       {
 355:..\..\..\..\..\..\Dev\Library embedded l2c display\u8g2\csrc/u8x8_d_ssd1309.c **** 	u8x8_cad_SendSequence(u8x8, u8x8_d_ssd1309_128x64_flip0_seq);
 426              		.loc 1 355 0
 427 001e 3649     		ldr	r1, .L46
 428 0020 FFF7FEFF 		bl	u8x8_cad_SendSequence
 429              	.LVL48:
 356:..\..\..\..\..\..\Dev\Library embedded l2c display\u8g2\csrc/u8x8_d_ssd1309.c **** 	u8x8->x_offset = u8x8->display_info->default_x_offset;
 430              		.loc 1 356 0
 431 0024 2B68     		ldr	r3, [r5]
 432 0026 9B7C     		ldrb	r3, [r3, #18]	@ zero_extendqisi2
 433 0028 85F82230 		strb	r3, [r5, #34]
 357:..\..\..\..\..\..\Dev\Library embedded l2c display\u8g2\csrc/u8x8_d_ssd1309.c ****       }
 358:..\..\..\..\..\..\Dev\Library embedded l2c display\u8g2\csrc/u8x8_d_ssd1309.c ****       else
 359:..\..\..\..\..\..\Dev\Library embedded l2c display\u8g2\csrc/u8x8_d_ssd1309.c ****       {
 360:..\..\..\..\..\..\Dev\Library embedded l2c display\u8g2\csrc/u8x8_d_ssd1309.c **** 	u8x8_cad_SendSequence(u8x8, u8x8_d_ssd1309_128x64_flip1_seq);
 361:..\..\..\..\..\..\Dev\Library embedded l2c display\u8g2\csrc/u8x8_d_ssd1309.c **** 	u8x8->x_offset = u8x8->display_info->flipmode_x_offset;
 362:..\..\..\..\..\..\Dev\Library embedded l2c display\u8g2\csrc/u8x8_d_ssd1309.c ****       }
 363:..\..\..\..\..\..\Dev\Library embedded l2c display\u8g2\csrc/u8x8_d_ssd1309.c ****       break;
 364:..\..\..\..\..\..\Dev\Library embedded l2c display\u8g2\csrc/u8x8_d_ssd1309.c ****     case U8X8_MSG_DISPLAY_INIT:
 365:..\..\..\..\..\..\Dev\Library embedded l2c display\u8g2\csrc/u8x8_d_ssd1309.c ****       u8x8_d_helper_display_init(u8x8);
 366:..\..\..\..\..\..\Dev\Library embedded l2c display\u8g2\csrc/u8x8_d_ssd1309.c ****       u8x8_cad_SendSequence(u8x8, u8x8_d_ssd1309_102x64_ea_oleds102_init_seq);    
 367:..\..\..\..\..\..\Dev\Library embedded l2c display\u8g2\csrc/u8x8_d_ssd1309.c ****       break;
 368:..\..\..\..\..\..\Dev\Library embedded l2c display\u8g2\csrc/u8x8_d_ssd1309.c ****     case U8X8_MSG_DISPLAY_SETUP_MEMORY:
 369:..\..\..\..\..\..\Dev\Library embedded l2c display\u8g2\csrc/u8x8_d_ssd1309.c ****       u8x8_d_helper_display_setup_memory(u8x8, &u8x8_ssd1309_102x64_ea_oleds102_display_info);
 370:..\..\..\..\..\..\Dev\Library embedded l2c display\u8g2\csrc/u8x8_d_ssd1309.c ****       break;
 371:..\..\..\..\..\..\Dev\Library embedded l2c display\u8g2\csrc/u8x8_d_ssd1309.c ****     case U8X8_MSG_DISPLAY_SET_CONTRAST:
 372:..\..\..\..\..\..\Dev\Library embedded l2c display\u8g2\csrc/u8x8_d_ssd1309.c ****       u8x8_cad_StartTransfer(u8x8);
 373:..\..\..\..\..\..\Dev\Library embedded l2c display\u8g2\csrc/u8x8_d_ssd1309.c ****       u8x8_cad_SendCmd(u8x8, 0x081 );
 374:..\..\..\..\..\..\Dev\Library embedded l2c display\u8g2\csrc/u8x8_d_ssd1309.c ****       u8x8_cad_SendArg(u8x8, arg_int );	/* ssd1309 has range from 0 to 255 */
 375:..\..\..\..\..\..\Dev\Library embedded l2c display\u8g2\csrc/u8x8_d_ssd1309.c ****       u8x8_cad_EndTransfer(u8x8);
 376:..\..\..\..\..\..\Dev\Library embedded l2c display\u8g2\csrc/u8x8_d_ssd1309.c ****       break;
 377:..\..\..\..\..\..\Dev\Library embedded l2c display\u8g2\csrc/u8x8_d_ssd1309.c ****     case U8X8_MSG_DISPLAY_DRAW_TILE:
 378:..\..\..\..\..\..\Dev\Library embedded l2c display\u8g2\csrc/u8x8_d_ssd1309.c ****       u8x8_cad_StartTransfer(u8x8);
 379:..\..\..\..\..\..\Dev\Library embedded l2c display\u8g2\csrc/u8x8_d_ssd1309.c **** 
 380:..\..\..\..\..\..\Dev\Library embedded l2c display\u8g2\csrc/u8x8_d_ssd1309.c ****       x = ((u8x8_tile_t *)arg_ptr)->x_pos;
 381:..\..\..\..\..\..\Dev\Library embedded l2c display\u8g2\csrc/u8x8_d_ssd1309.c ****       x *= 8;
 382:..\..\..\..\..\..\Dev\Library embedded l2c display\u8g2\csrc/u8x8_d_ssd1309.c ****       x += u8x8->x_offset;
 383:..\..\..\..\..\..\Dev\Library embedded l2c display\u8g2\csrc/u8x8_d_ssd1309.c ****       u8x8_cad_SendCmd(u8x8, 0x010 | (x>>4) );
 384:..\..\..\..\..\..\Dev\Library embedded l2c display\u8g2\csrc/u8x8_d_ssd1309.c ****       u8x8_cad_SendCmd(u8x8, 0x000 | ((x&15)));
 385:..\..\..\..\..\..\Dev\Library embedded l2c display\u8g2\csrc/u8x8_d_ssd1309.c ****       u8x8_cad_SendCmd(u8x8, 0x0b0 | (((u8x8_tile_t *)arg_ptr)->y_pos));
 386:..\..\..\..\..\..\Dev\Library embedded l2c display\u8g2\csrc/u8x8_d_ssd1309.c **** 
 387:..\..\..\..\..\..\Dev\Library embedded l2c display\u8g2\csrc/u8x8_d_ssd1309.c ****       c = ((u8x8_tile_t *)arg_ptr)->cnt;
 388:..\..\..\..\..\..\Dev\Library embedded l2c display\u8g2\csrc/u8x8_d_ssd1309.c ****       c *= 8;
 389:..\..\..\..\..\..\Dev\Library embedded l2c display\u8g2\csrc/u8x8_d_ssd1309.c ****       ptr = ((u8x8_tile_t *)arg_ptr)->tile_ptr;
 390:..\..\..\..\..\..\Dev\Library embedded l2c display\u8g2\csrc/u8x8_d_ssd1309.c **** 
 391:..\..\..\..\..\..\Dev\Library embedded l2c display\u8g2\csrc/u8x8_d_ssd1309.c ****       if ( c + x > 115u )
 392:..\..\..\..\..\..\Dev\Library embedded l2c display\u8g2\csrc/u8x8_d_ssd1309.c ****       {
 393:..\..\..\..\..\..\Dev\Library embedded l2c display\u8g2\csrc/u8x8_d_ssd1309.c ****         c = 115u;
 394:..\..\..\..\..\..\Dev\Library embedded l2c display\u8g2\csrc/u8x8_d_ssd1309.c ****         c -= x;
 395:..\..\..\..\..\..\Dev\Library embedded l2c display\u8g2\csrc/u8x8_d_ssd1309.c ****       }
 396:..\..\..\..\..\..\Dev\Library embedded l2c display\u8g2\csrc/u8x8_d_ssd1309.c ****       do
ARM GAS  C:\Users\Abude\AppData\Local\Temp\ccTGQkLk.s 			page 16


 397:..\..\..\..\..\..\Dev\Library embedded l2c display\u8g2\csrc/u8x8_d_ssd1309.c ****       {
 398:..\..\..\..\..\..\Dev\Library embedded l2c display\u8g2\csrc/u8x8_d_ssd1309.c ****         u8x8_cad_SendData(u8x8, c, ptr);	/* note: SendData can not handle more than 255 bytes */
 399:..\..\..\..\..\..\Dev\Library embedded l2c display\u8g2\csrc/u8x8_d_ssd1309.c ****         arg_int--;
 400:..\..\..\..\..\..\Dev\Library embedded l2c display\u8g2\csrc/u8x8_d_ssd1309.c ****       } while( arg_int > 0 );
 401:..\..\..\..\..\..\Dev\Library embedded l2c display\u8g2\csrc/u8x8_d_ssd1309.c **** 
 402:..\..\..\..\..\..\Dev\Library embedded l2c display\u8g2\csrc/u8x8_d_ssd1309.c ****       u8x8_cad_EndTransfer(u8x8);
 403:..\..\..\..\..\..\Dev\Library embedded l2c display\u8g2\csrc/u8x8_d_ssd1309.c ****       break;
 404:..\..\..\..\..\..\Dev\Library embedded l2c display\u8g2\csrc/u8x8_d_ssd1309.c ****     default:
 405:..\..\..\..\..\..\Dev\Library embedded l2c display\u8g2\csrc/u8x8_d_ssd1309.c ****       return 0;
 406:..\..\..\..\..\..\Dev\Library embedded l2c display\u8g2\csrc/u8x8_d_ssd1309.c ****   }
 407:..\..\..\..\..\..\Dev\Library embedded l2c display\u8g2\csrc/u8x8_d_ssd1309.c ****   return 1;
 434              		.loc 1 407 0
 435 002c 0120     		movs	r0, #1
 436 002e BDE8F081 		pop	{r4, r5, r6, r7, r8, pc}
 437              	.LVL49:
 438              	.L41:
 360:..\..\..\..\..\..\Dev\Library embedded l2c display\u8g2\csrc/u8x8_d_ssd1309.c **** 	u8x8->x_offset = u8x8->display_info->flipmode_x_offset;
 439              		.loc 1 360 0
 440 0032 3249     		ldr	r1, .L46+4
 441 0034 FFF7FEFF 		bl	u8x8_cad_SendSequence
 442              	.LVL50:
 361:..\..\..\..\..\..\Dev\Library embedded l2c display\u8g2\csrc/u8x8_d_ssd1309.c ****       }
 443              		.loc 1 361 0
 444 0038 2B68     		ldr	r3, [r5]
 445 003a DB7C     		ldrb	r3, [r3, #19]	@ zero_extendqisi2
 446 003c 85F82230 		strb	r3, [r5, #34]
 447              		.loc 1 407 0
 448 0040 0120     		movs	r0, #1
 449 0042 BDE8F081 		pop	{r4, r5, r6, r7, r8, pc}
 450              	.LVL51:
 451              	.L37:
 365:..\..\..\..\..\..\Dev\Library embedded l2c display\u8g2\csrc/u8x8_d_ssd1309.c ****       u8x8_cad_SendSequence(u8x8, u8x8_d_ssd1309_102x64_ea_oleds102_init_seq);    
 452              		.loc 1 365 0
 453 0046 FFF7FEFF 		bl	u8x8_d_helper_display_init
 454              	.LVL52:
 366:..\..\..\..\..\..\Dev\Library embedded l2c display\u8g2\csrc/u8x8_d_ssd1309.c ****       break;
 455              		.loc 1 366 0
 456 004a 2D49     		ldr	r1, .L46+8
 457 004c 2846     		mov	r0, r5
 458 004e FFF7FEFF 		bl	u8x8_cad_SendSequence
 459              	.LVL53:
 460              		.loc 1 407 0
 461 0052 0120     		movs	r0, #1
 367:..\..\..\..\..\..\Dev\Library embedded l2c display\u8g2\csrc/u8x8_d_ssd1309.c ****     case U8X8_MSG_DISPLAY_SETUP_MEMORY:
 462              		.loc 1 367 0
 463 0054 BDE8F081 		pop	{r4, r5, r6, r7, r8, pc}
 464              	.LVL54:
 465              	.L35:
 369:..\..\..\..\..\..\Dev\Library embedded l2c display\u8g2\csrc/u8x8_d_ssd1309.c ****       break;
 466              		.loc 1 369 0
 467 0058 2A49     		ldr	r1, .L46+12
 468 005a FFF7FEFF 		bl	u8x8_d_helper_display_setup_memory
 469              	.LVL55:
 470              		.loc 1 407 0
 471 005e 0120     		movs	r0, #1
 370:..\..\..\..\..\..\Dev\Library embedded l2c display\u8g2\csrc/u8x8_d_ssd1309.c ****     case U8X8_MSG_DISPLAY_SET_CONTRAST:
 472              		.loc 1 370 0
ARM GAS  C:\Users\Abude\AppData\Local\Temp\ccTGQkLk.s 			page 17


 473 0060 BDE8F081 		pop	{r4, r5, r6, r7, r8, pc}
 474              	.LVL56:
 475              	.L39:
 372:..\..\..\..\..\..\Dev\Library embedded l2c display\u8g2\csrc/u8x8_d_ssd1309.c ****       u8x8_cad_SendCmd(u8x8, 0x081 );
 476              		.loc 1 372 0
 477 0064 FFF7FEFF 		bl	u8x8_cad_StartTransfer
 478              	.LVL57:
 373:..\..\..\..\..\..\Dev\Library embedded l2c display\u8g2\csrc/u8x8_d_ssd1309.c ****       u8x8_cad_SendArg(u8x8, arg_int );	/* ssd1309 has range from 0 to 255 */
 479              		.loc 1 373 0
 480 0068 8121     		movs	r1, #129
 481 006a 2846     		mov	r0, r5
 482 006c FFF7FEFF 		bl	u8x8_cad_SendCmd
 483              	.LVL58:
 374:..\..\..\..\..\..\Dev\Library embedded l2c display\u8g2\csrc/u8x8_d_ssd1309.c ****       u8x8_cad_EndTransfer(u8x8);
 484              		.loc 1 374 0
 485 0070 2146     		mov	r1, r4
 486 0072 2846     		mov	r0, r5
 487 0074 FFF7FEFF 		bl	u8x8_cad_SendArg
 488              	.LVL59:
 375:..\..\..\..\..\..\Dev\Library embedded l2c display\u8g2\csrc/u8x8_d_ssd1309.c ****       break;
 489              		.loc 1 375 0
 490 0078 2846     		mov	r0, r5
 491 007a FFF7FEFF 		bl	u8x8_cad_EndTransfer
 492              	.LVL60:
 493              		.loc 1 407 0
 494 007e 0120     		movs	r0, #1
 376:..\..\..\..\..\..\Dev\Library embedded l2c display\u8g2\csrc/u8x8_d_ssd1309.c ****     case U8X8_MSG_DISPLAY_DRAW_TILE:
 495              		.loc 1 376 0
 496 0080 BDE8F081 		pop	{r4, r5, r6, r7, r8, pc}
 497              	.LVL61:
 498              	.L40:
 378:..\..\..\..\..\..\Dev\Library embedded l2c display\u8g2\csrc/u8x8_d_ssd1309.c **** 
 499              		.loc 1 378 0
 500 0084 FFF7FEFF 		bl	u8x8_cad_StartTransfer
 501              	.LVL62:
 380:..\..\..\..\..\..\Dev\Library embedded l2c display\u8g2\csrc/u8x8_d_ssd1309.c ****       x *= 8;
 502              		.loc 1 380 0
 503 0088 7B79     		ldrb	r3, [r7, #5]	@ zero_extendqisi2
 504              	.LVL63:
 381:..\..\..\..\..\..\Dev\Library embedded l2c display\u8g2\csrc/u8x8_d_ssd1309.c ****       x += u8x8->x_offset;
 505              		.loc 1 381 0
 506 008a DB00     		lsls	r3, r3, #3
 507              	.LVL64:
 508 008c DBB2     		uxtb	r3, r3
 509              	.LVL65:
 382:..\..\..\..\..\..\Dev\Library embedded l2c display\u8g2\csrc/u8x8_d_ssd1309.c ****       u8x8_cad_SendCmd(u8x8, 0x010 | (x>>4) );
 510              		.loc 1 382 0
 511 008e 95F82280 		ldrb	r8, [r5, #34]	@ zero_extendqisi2
 512 0092 9844     		add	r8, r8, r3
 513 0094 5FFA88F8 		uxtb	r8, r8
 514              	.LVL66:
 383:..\..\..\..\..\..\Dev\Library embedded l2c display\u8g2\csrc/u8x8_d_ssd1309.c ****       u8x8_cad_SendCmd(u8x8, 0x000 | ((x&15)));
 515              		.loc 1 383 0
 516 0098 4FEA1811 		lsr	r1, r8, #4
 517 009c 41F01001 		orr	r1, r1, #16
 518 00a0 2846     		mov	r0, r5
 519 00a2 FFF7FEFF 		bl	u8x8_cad_SendCmd
ARM GAS  C:\Users\Abude\AppData\Local\Temp\ccTGQkLk.s 			page 18


 520              	.LVL67:
 384:..\..\..\..\..\..\Dev\Library embedded l2c display\u8g2\csrc/u8x8_d_ssd1309.c ****       u8x8_cad_SendCmd(u8x8, 0x0b0 | (((u8x8_tile_t *)arg_ptr)->y_pos));
 521              		.loc 1 384 0
 522 00a6 08F00F01 		and	r1, r8, #15
 523 00aa 2846     		mov	r0, r5
 524 00ac FFF7FEFF 		bl	u8x8_cad_SendCmd
 525              	.LVL68:
 385:..\..\..\..\..\..\Dev\Library embedded l2c display\u8g2\csrc/u8x8_d_ssd1309.c **** 
 526              		.loc 1 385 0
 527 00b0 B979     		ldrb	r1, [r7, #6]	@ zero_extendqisi2
 528 00b2 41F0B001 		orr	r1, r1, #176
 529 00b6 2846     		mov	r0, r5
 530 00b8 FFF7FEFF 		bl	u8x8_cad_SendCmd
 531              	.LVL69:
 387:..\..\..\..\..\..\Dev\Library embedded l2c display\u8g2\csrc/u8x8_d_ssd1309.c ****       c *= 8;
 532              		.loc 1 387 0
 533 00bc 3E79     		ldrb	r6, [r7, #4]	@ zero_extendqisi2
 534              	.LVL70:
 388:..\..\..\..\..\..\Dev\Library embedded l2c display\u8g2\csrc/u8x8_d_ssd1309.c ****       ptr = ((u8x8_tile_t *)arg_ptr)->tile_ptr;
 535              		.loc 1 388 0
 536 00be F600     		lsls	r6, r6, #3
 537              	.LVL71:
 538 00c0 F6B2     		uxtb	r6, r6
 539              	.LVL72:
 389:..\..\..\..\..\..\Dev\Library embedded l2c display\u8g2\csrc/u8x8_d_ssd1309.c **** 
 540              		.loc 1 389 0
 541 00c2 3F68     		ldr	r7, [r7]
 542              	.LVL73:
 391:..\..\..\..\..\..\Dev\Library embedded l2c display\u8g2\csrc/u8x8_d_ssd1309.c ****       {
 543              		.loc 1 391 0
 544 00c4 06EB0803 		add	r3, r6, r8
 545 00c8 732B     		cmp	r3, #115
 546 00ca 02D9     		bls	.L43
 547              	.LVL74:
 394:..\..\..\..\..\..\Dev\Library embedded l2c display\u8g2\csrc/u8x8_d_ssd1309.c ****       }
 548              		.loc 1 394 0
 549 00cc C8F17306 		rsb	r6, r8, #115
 550 00d0 F6B2     		uxtb	r6, r6
 551              	.LVL75:
 552              	.L43:
 398:..\..\..\..\..\..\Dev\Library embedded l2c display\u8g2\csrc/u8x8_d_ssd1309.c ****         arg_int--;
 553              		.loc 1 398 0 discriminator 1
 554 00d2 3A46     		mov	r2, r7
 555 00d4 3146     		mov	r1, r6
 556 00d6 2846     		mov	r0, r5
 557 00d8 FFF7FEFF 		bl	u8x8_cad_SendData
 558              	.LVL76:
 399:..\..\..\..\..\..\Dev\Library embedded l2c display\u8g2\csrc/u8x8_d_ssd1309.c ****       } while( arg_int > 0 );
 559              		.loc 1 399 0 discriminator 1
 560 00dc 621E     		subs	r2, r4, #1
 561              	.LVL77:
 400:..\..\..\..\..\..\Dev\Library embedded l2c display\u8g2\csrc/u8x8_d_ssd1309.c **** 
 562              		.loc 1 400 0 discriminator 1
 563 00de 12F0FF04 		ands	r4, r2, #255
 564 00e2 F6D1     		bne	.L43
 402:..\..\..\..\..\..\Dev\Library embedded l2c display\u8g2\csrc/u8x8_d_ssd1309.c ****       break;
 565              		.loc 1 402 0
ARM GAS  C:\Users\Abude\AppData\Local\Temp\ccTGQkLk.s 			page 19


 566 00e4 2846     		mov	r0, r5
 567 00e6 FFF7FEFF 		bl	u8x8_cad_EndTransfer
 568              	.LVL78:
 569              		.loc 1 407 0
 570 00ea 0120     		movs	r0, #1
 403:..\..\..\..\..\..\Dev\Library embedded l2c display\u8g2\csrc/u8x8_d_ssd1309.c ****     default:
 571              		.loc 1 403 0
 572 00ec BDE8F081 		pop	{r4, r5, r6, r7, r8, pc}
 573              	.LVL79:
 574              	.L44:
 405:..\..\..\..\..\..\Dev\Library embedded l2c display\u8g2\csrc/u8x8_d_ssd1309.c ****   }
 575              		.loc 1 405 0
 576 00f0 0020     		movs	r0, #0
 577              	.LVL80:
 408:..\..\..\..\..\..\Dev\Library embedded l2c display\u8g2\csrc/u8x8_d_ssd1309.c **** }                                                                     
 578              		.loc 1 408 0
 579 00f2 BDE8F081 		pop	{r4, r5, r6, r7, r8, pc}
 580              	.LVL81:
 581              	.L47:
 582 00f6 00BF     		.align	2
 583              	.L46:
 584 00f8 10000000 		.word	.LANCHOR0+16
 585 00fc 18000000 		.word	.LANCHOR0+24
 586 0100 7C000000 		.word	.LANCHOR0+124
 587 0104 B0000000 		.word	.LANCHOR0+176
 588              		.cfi_endproc
 589              	.LFE3:
 590              		.size	u8x8_d_ssd1306_102x64_ea_oleds102, .-u8x8_d_ssd1306_102x64_ea_oleds102
 591              		.section	.rodata
 592              		.align	2
 593              		.set	.LANCHOR0,. + 0
 594              		.type	u8x8_d_ssd1309_powersave0_seq, %object
 595              		.size	u8x8_d_ssd1309_powersave0_seq, 5
 596              	u8x8_d_ssd1309_powersave0_seq:
 597 0000 18       		.byte	24
 598 0001 15       		.byte	21
 599 0002 AF       		.byte	-81
 600 0003 19       		.byte	25
 601 0004 FF       		.byte	-1
 602 0005 000000   		.space	3
 603              		.type	u8x8_d_ssd1309_powersave1_seq, %object
 604              		.size	u8x8_d_ssd1309_powersave1_seq, 5
 605              	u8x8_d_ssd1309_powersave1_seq:
 606 0008 18       		.byte	24
 607 0009 15       		.byte	21
 608 000a AE       		.byte	-82
 609 000b 19       		.byte	25
 610 000c FF       		.byte	-1
 611 000d 000000   		.space	3
 612              		.type	u8x8_d_ssd1309_128x64_flip0_seq, %object
 613              		.size	u8x8_d_ssd1309_128x64_flip0_seq, 7
 614              	u8x8_d_ssd1309_128x64_flip0_seq:
 615 0010 18       		.byte	24
 616 0011 15       		.byte	21
 617 0012 A1       		.byte	-95
 618 0013 15       		.byte	21
 619 0014 C8       		.byte	-56
ARM GAS  C:\Users\Abude\AppData\Local\Temp\ccTGQkLk.s 			page 20


 620 0015 19       		.byte	25
 621 0016 FF       		.byte	-1
 622 0017 00       		.space	1
 623              		.type	u8x8_d_ssd1309_128x64_flip1_seq, %object
 624              		.size	u8x8_d_ssd1309_128x64_flip1_seq, 7
 625              	u8x8_d_ssd1309_128x64_flip1_seq:
 626 0018 18       		.byte	24
 627 0019 15       		.byte	21
 628 001a A0       		.byte	-96
 629 001b 15       		.byte	21
 630 001c C0       		.byte	-64
 631 001d 19       		.byte	25
 632 001e FF       		.byte	-1
 633 001f 00       		.space	1
 634              		.type	u8x8_d_ssd1309_128x64_noname_init_seq, %object
 635              		.size	u8x8_d_ssd1309_128x64_noname_init_seq, 41
 636              	u8x8_d_ssd1309_128x64_noname_init_seq:
 637 0020 18       		.byte	24
 638 0021 15       		.byte	21
 639 0022 AE       		.byte	-82
 640 0023 15       		.byte	21
 641 0024 D5       		.byte	-43
 642 0025 16       		.byte	22
 643 0026 A0       		.byte	-96
 644 0027 15       		.byte	21
 645 0028 40       		.byte	64
 646 0029 15       		.byte	21
 647 002a 20       		.byte	32
 648 002b 16       		.byte	22
 649 002c 02       		.byte	2
 650 002d 15       		.byte	21
 651 002e A1       		.byte	-95
 652 002f 15       		.byte	21
 653 0030 C8       		.byte	-56
 654 0031 15       		.byte	21
 655 0032 DA       		.byte	-38
 656 0033 16       		.byte	22
 657 0034 12       		.byte	18
 658 0035 15       		.byte	21
 659 0036 81       		.byte	-127
 660 0037 16       		.byte	22
 661 0038 6F       		.byte	111
 662 0039 15       		.byte	21
 663 003a D9       		.byte	-39
 664 003b 16       		.byte	22
 665 003c D3       		.byte	-45
 666 003d 15       		.byte	21
 667 003e DB       		.byte	-37
 668 003f 16       		.byte	22
 669 0040 20       		.byte	32
 670 0041 15       		.byte	21
 671 0042 2E       		.byte	46
 672 0043 15       		.byte	21
 673 0044 A4       		.byte	-92
 674 0045 15       		.byte	21
 675 0046 A6       		.byte	-90
 676 0047 19       		.byte	25
ARM GAS  C:\Users\Abude\AppData\Local\Temp\ccTGQkLk.s 			page 21


 677 0048 FF       		.byte	-1
 678 0049 000000   		.space	3
 679              		.type	u8x8_ssd1309_128x64_noname2_display_info, %object
 680              		.size	u8x8_ssd1309_128x64_noname2_display_info, 24
 681              	u8x8_ssd1309_128x64_noname2_display_info:
 682 004c 00       		.byte	0
 683 004d 01       		.byte	1
 684 004e 14       		.byte	20
 685 004f 0A       		.byte	10
 686 0050 64       		.byte	100
 687 0051 64       		.byte	100
 688 0052 32       		.byte	50
 689 0053 32       		.byte	50
 690 0054 00093D00 		.word	4000000
 691 0058 00       		.byte	0
 692 0059 04       		.byte	4
 693 005a 28       		.byte	40
 694 005b 96       		.byte	-106
 695 005c 10       		.byte	16
 696 005d 08       		.byte	8
 697 005e 02       		.byte	2
 698 005f 02       		.byte	2
 699 0060 8000     		.short	128
 700 0062 4000     		.short	64
 701              		.type	u8x8_ssd1309_128x64_noname0_display_info, %object
 702              		.size	u8x8_ssd1309_128x64_noname0_display_info, 24
 703              	u8x8_ssd1309_128x64_noname0_display_info:
 704 0064 00       		.byte	0
 705 0065 01       		.byte	1
 706 0066 14       		.byte	20
 707 0067 0A       		.byte	10
 708 0068 64       		.byte	100
 709 0069 64       		.byte	100
 710 006a 32       		.byte	50
 711 006b 32       		.byte	50
 712 006c 00093D00 		.word	4000000
 713 0070 00       		.byte	0
 714 0071 04       		.byte	4
 715 0072 28       		.byte	40
 716 0073 96       		.byte	-106
 717 0074 10       		.byte	16
 718 0075 08       		.byte	8
 719 0076 00       		.byte	0
 720 0077 00       		.byte	0
 721 0078 8000     		.short	128
 722 007a 4000     		.short	64
 723              		.type	u8x8_d_ssd1309_102x64_ea_oleds102_init_seq, %object
 724              		.size	u8x8_d_ssd1309_102x64_ea_oleds102_init_seq, 49
 725              	u8x8_d_ssd1309_102x64_ea_oleds102_init_seq:
 726 007c 18       		.byte	24
 727 007d 15       		.byte	21
 728 007e 40       		.byte	64
 729 007f 15       		.byte	21
 730 0080 A0       		.byte	-96
 731 0081 15       		.byte	21
 732 0082 C0       		.byte	-64
 733 0083 15       		.byte	21
ARM GAS  C:\Users\Abude\AppData\Local\Temp\ccTGQkLk.s 			page 22


 734 0084 2E       		.byte	46
 735 0085 15       		.byte	21
 736 0086 8D       		.byte	-115
 737 0087 16       		.byte	22
 738 0088 95       		.byte	-107
 739 0089 15       		.byte	21
 740 008a 20       		.byte	32
 741 008b 16       		.byte	22
 742 008c 02       		.byte	2
 743 008d 15       		.byte	21
 744 008e 81       		.byte	-127
 745 008f 16       		.byte	22
 746 0090 FF       		.byte	-1
 747 0091 15       		.byte	21
 748 0092 D5       		.byte	-43
 749 0093 16       		.byte	22
 750 0094 40       		.byte	64
 751 0095 15       		.byte	21
 752 0096 D9       		.byte	-39
 753 0097 16       		.byte	22
 754 0098 F1       		.byte	-15
 755 0099 15       		.byte	21
 756 009a AD       		.byte	-83
 757 009b 16       		.byte	22
 758 009c 30       		.byte	48
 759 009d 15       		.byte	21
 760 009e 21       		.byte	33
 761 009f 16       		.byte	22
 762 00a0 0D       		.byte	13
 763 00a1 16       		.byte	22
 764 00a2 72       		.byte	114
 765 00a3 15       		.byte	21
 766 00a4 22       		.byte	34
 767 00a5 16       		.byte	22
 768 00a6 00       		.byte	0
 769 00a7 16       		.byte	22
 770 00a8 3F       		.byte	63
 771 00a9 15       		.byte	21
 772 00aa AF       		.byte	-81
 773 00ab 19       		.byte	25
 774 00ac FF       		.byte	-1
 775 00ad 000000   		.space	3
 776              		.type	u8x8_ssd1309_102x64_ea_oleds102_display_info, %object
 777              		.size	u8x8_ssd1309_102x64_ea_oleds102_display_info, 24
 778              	u8x8_ssd1309_102x64_ea_oleds102_display_info:
 779 00b0 00       		.byte	0
 780 00b1 01       		.byte	1
 781 00b2 14       		.byte	20
 782 00b3 0A       		.byte	10
 783 00b4 64       		.byte	100
 784 00b5 64       		.byte	100
 785 00b6 32       		.byte	50
 786 00b7 32       		.byte	50
 787 00b8 00093D00 		.word	4000000
 788 00bc 00       		.byte	0
 789 00bd 04       		.byte	4
 790 00be 28       		.byte	40
ARM GAS  C:\Users\Abude\AppData\Local\Temp\ccTGQkLk.s 			page 23


 791 00bf 96       		.byte	-106
 792 00c0 0D       		.byte	13
 793 00c1 08       		.byte	8
 794 00c2 0D       		.byte	13
 795 00c3 0D       		.byte	13
 796 00c4 6600     		.short	102
 797 00c6 4000     		.short	64
 798              		.text
 799              	.Letext0:
 800              		.file 2 "c:\\program files (x86)\\cypress\\psoc creator\\4.4\\psoc creator\\import\\gnu\\arm\\5.4.
 801              		.file 3 "c:\\program files (x86)\\cypress\\psoc creator\\4.4\\psoc creator\\import\\gnu\\arm\\5.4.
 802              		.file 4 "c:\\dev\\library embedded l2c display\\u8g2\\csrc\\u8x8.h"