ARM GAS  C:\Users\Abude\AppData\Local\Temp\ccotp7Re.s 			page 1


   1              		.syntax unified
   2              		.cpu cortex-m3
   3              		.fpu softvfp
   4              		.eabi_attribute 20, 1
   5              		.eabi_attribute 21, 1
   6              		.eabi_attribute 23, 3
   7              		.eabi_attribute 24, 1
   8              		.eabi_attribute 25, 1
   9              		.eabi_attribute 26, 1
  10              		.eabi_attribute 30, 1
  11              		.eabi_attribute 34, 1
  12              		.eabi_attribute 18, 4
  13              		.thumb
  14              		.syntax unified
  15              		.file	"u8x8_8x8.c"
  16              		.text
  17              	.Ltext0:
  18              		.cfi_sections	.debug_frame
  19              		.section	.text.u8x8_get_glyph_data,"ax",%progbits
  20              		.align	2
  21              		.thumb
  22              		.thumb_func
  23              		.type	u8x8_get_glyph_data, %function
  24              	u8x8_get_glyph_data:
  25              	.LFB1:
  26              		.file 1 "..\\..\\..\\..\\..\\..\\Dev\\Library embedded l2c display\\u8g2\\csrc\\u8x8_8x8.c"
   1:..\..\..\..\..\..\Dev\Library embedded l2c display\u8g2\csrc/u8x8_8x8.c **** /*
   2:..\..\..\..\..\..\Dev\Library embedded l2c display\u8g2\csrc/u8x8_8x8.c **** 
   3:..\..\..\..\..\..\Dev\Library embedded l2c display\u8g2\csrc/u8x8_8x8.c ****   u8x8_8x8.c
   4:..\..\..\..\..\..\Dev\Library embedded l2c display\u8g2\csrc/u8x8_8x8.c ****   
   5:..\..\..\..\..\..\Dev\Library embedded l2c display\u8g2\csrc/u8x8_8x8.c ****   font procedures, directly interfaces display procedures
   6:..\..\..\..\..\..\Dev\Library embedded l2c display\u8g2\csrc/u8x8_8x8.c ****   
   7:..\..\..\..\..\..\Dev\Library embedded l2c display\u8g2\csrc/u8x8_8x8.c ****   Universal 8bit Graphics Library (https://github.com/olikraus/u8g2/)
   8:..\..\..\..\..\..\Dev\Library embedded l2c display\u8g2\csrc/u8x8_8x8.c **** 
   9:..\..\..\..\..\..\Dev\Library embedded l2c display\u8g2\csrc/u8x8_8x8.c ****   Copyright (c) 2016, olikraus@gmail.com
  10:..\..\..\..\..\..\Dev\Library embedded l2c display\u8g2\csrc/u8x8_8x8.c ****   All rights reserved.
  11:..\..\..\..\..\..\Dev\Library embedded l2c display\u8g2\csrc/u8x8_8x8.c **** 
  12:..\..\..\..\..\..\Dev\Library embedded l2c display\u8g2\csrc/u8x8_8x8.c ****   Redistribution and use in source and binary forms, with or without modification, 
  13:..\..\..\..\..\..\Dev\Library embedded l2c display\u8g2\csrc/u8x8_8x8.c ****   are permitted provided that the following conditions are met:
  14:..\..\..\..\..\..\Dev\Library embedded l2c display\u8g2\csrc/u8x8_8x8.c **** 
  15:..\..\..\..\..\..\Dev\Library embedded l2c display\u8g2\csrc/u8x8_8x8.c ****   * Redistributions of source code must retain the above copyright notice, this list 
  16:..\..\..\..\..\..\Dev\Library embedded l2c display\u8g2\csrc/u8x8_8x8.c ****     of conditions and the following disclaimer.
  17:..\..\..\..\..\..\Dev\Library embedded l2c display\u8g2\csrc/u8x8_8x8.c ****     
  18:..\..\..\..\..\..\Dev\Library embedded l2c display\u8g2\csrc/u8x8_8x8.c ****   * Redistributions in binary form must reproduce the above copyright notice, this 
  19:..\..\..\..\..\..\Dev\Library embedded l2c display\u8g2\csrc/u8x8_8x8.c ****     list of conditions and the following disclaimer in the documentation and/or other 
  20:..\..\..\..\..\..\Dev\Library embedded l2c display\u8g2\csrc/u8x8_8x8.c ****     materials provided with the distribution.
  21:..\..\..\..\..\..\Dev\Library embedded l2c display\u8g2\csrc/u8x8_8x8.c **** 
  22:..\..\..\..\..\..\Dev\Library embedded l2c display\u8g2\csrc/u8x8_8x8.c ****   THIS SOFTWARE IS PROVIDED BY THE COPYRIGHT HOLDERS AND 
  23:..\..\..\..\..\..\Dev\Library embedded l2c display\u8g2\csrc/u8x8_8x8.c ****   CONTRIBUTORS "AS IS" AND ANY EXPRESS OR IMPLIED WARRANTIES, 
  24:..\..\..\..\..\..\Dev\Library embedded l2c display\u8g2\csrc/u8x8_8x8.c ****   INCLUDING, BUT NOT LIMITED TO, THE IMPLIED WARRANTIES OF 
  25:..\..\..\..\..\..\Dev\Library embedded l2c display\u8g2\csrc/u8x8_8x8.c ****   MERCHANTABILITY AND FITNESS FOR A PARTICULAR PURPOSE ARE 
  26:..\..\..\..\..\..\Dev\Library embedded l2c display\u8g2\csrc/u8x8_8x8.c ****   DISCLAIMED. IN NO EVENT SHALL THE COPYRIGHT HOLDER OR 
  27:..\..\..\..\..\..\Dev\Library embedded l2c display\u8g2\csrc/u8x8_8x8.c ****   CONTRIBUTORS BE LIABLE FOR ANY DIRECT, INDIRECT, INCIDENTAL, 
  28:..\..\..\..\..\..\Dev\Library embedded l2c display\u8g2\csrc/u8x8_8x8.c ****   SPECIAL, EXEMPLARY, OR CONSEQUENTIAL DAMAGES (INCLUDING, BUT 
  29:..\..\..\..\..\..\Dev\Library embedded l2c display\u8g2\csrc/u8x8_8x8.c ****   NOT LIMITED TO, PROCUREMENT OF SUBSTITUTE GOODS OR SERVICES; 
  30:..\..\..\..\..\..\Dev\Library embedded l2c display\u8g2\csrc/u8x8_8x8.c ****   LOSS OF USE, DATA, OR PROFITS; OR BUSINESS INTERRUPTION) HOWEVER 
  31:..\..\..\..\..\..\Dev\Library embedded l2c display\u8g2\csrc/u8x8_8x8.c ****   CAUSED AND ON ANY THEORY OF LIABILITY, WHETHER IN CONTRACT, 
ARM GAS  C:\Users\Abude\AppData\Local\Temp\ccotp7Re.s 			page 2


  32:..\..\..\..\..\..\Dev\Library embedded l2c display\u8g2\csrc/u8x8_8x8.c ****   STRICT LIABILITY, OR TORT (INCLUDING NEGLIGENCE OR OTHERWISE) 
  33:..\..\..\..\..\..\Dev\Library embedded l2c display\u8g2\csrc/u8x8_8x8.c ****   ARISING IN ANY WAY OUT OF THE USE OF THIS SOFTWARE, EVEN IF 
  34:..\..\..\..\..\..\Dev\Library embedded l2c display\u8g2\csrc/u8x8_8x8.c ****   ADVISED OF THE POSSIBILITY OF SUCH DAMAGE.    
  35:..\..\..\..\..\..\Dev\Library embedded l2c display\u8g2\csrc/u8x8_8x8.c **** 
  36:..\..\..\..\..\..\Dev\Library embedded l2c display\u8g2\csrc/u8x8_8x8.c **** */
  37:..\..\..\..\..\..\Dev\Library embedded l2c display\u8g2\csrc/u8x8_8x8.c **** 
  38:..\..\..\..\..\..\Dev\Library embedded l2c display\u8g2\csrc/u8x8_8x8.c **** #include "u8x8.h"
  39:..\..\..\..\..\..\Dev\Library embedded l2c display\u8g2\csrc/u8x8_8x8.c **** 
  40:..\..\..\..\..\..\Dev\Library embedded l2c display\u8g2\csrc/u8x8_8x8.c **** #if defined(ESP8266)
  41:..\..\..\..\..\..\Dev\Library embedded l2c display\u8g2\csrc/u8x8_8x8.c **** uint8_t u8x8_pgm_read_esp(const uint8_t * addr) 
  42:..\..\..\..\..\..\Dev\Library embedded l2c display\u8g2\csrc/u8x8_8x8.c **** {
  43:..\..\..\..\..\..\Dev\Library embedded l2c display\u8g2\csrc/u8x8_8x8.c ****     uint32_t bytes;
  44:..\..\..\..\..\..\Dev\Library embedded l2c display\u8g2\csrc/u8x8_8x8.c ****     bytes = *(uint32_t*)((uint32_t)addr & ~3);
  45:..\..\..\..\..\..\Dev\Library embedded l2c display\u8g2\csrc/u8x8_8x8.c ****     return ((uint8_t*)&bytes)[(uint32_t)addr & 3];
  46:..\..\..\..\..\..\Dev\Library embedded l2c display\u8g2\csrc/u8x8_8x8.c **** }
  47:..\..\..\..\..\..\Dev\Library embedded l2c display\u8g2\csrc/u8x8_8x8.c **** #endif
  48:..\..\..\..\..\..\Dev\Library embedded l2c display\u8g2\csrc/u8x8_8x8.c **** 
  49:..\..\..\..\..\..\Dev\Library embedded l2c display\u8g2\csrc/u8x8_8x8.c **** 
  50:..\..\..\..\..\..\Dev\Library embedded l2c display\u8g2\csrc/u8x8_8x8.c **** void u8x8_SetFont(u8x8_t *u8x8, const uint8_t *font_8x8)
  51:..\..\..\..\..\..\Dev\Library embedded l2c display\u8g2\csrc/u8x8_8x8.c **** {
  52:..\..\..\..\..\..\Dev\Library embedded l2c display\u8g2\csrc/u8x8_8x8.c ****   u8x8->font = font_8x8;
  53:..\..\..\..\..\..\Dev\Library embedded l2c display\u8g2\csrc/u8x8_8x8.c **** }
  54:..\..\..\..\..\..\Dev\Library embedded l2c display\u8g2\csrc/u8x8_8x8.c **** 
  55:..\..\..\..\..\..\Dev\Library embedded l2c display\u8g2\csrc/u8x8_8x8.c **** /*
  56:..\..\..\..\..\..\Dev\Library embedded l2c display\u8g2\csrc/u8x8_8x8.c ****  Args:
  57:..\..\..\..\..\..\Dev\Library embedded l2c display\u8g2\csrc/u8x8_8x8.c ****    u8x8: ptr to u8x8 structure
  58:..\..\..\..\..\..\Dev\Library embedded l2c display\u8g2\csrc/u8x8_8x8.c ****    encoding: glyph for which the data is requested (must be between 0 and 255)
  59:..\..\..\..\..\..\Dev\Library embedded l2c display\u8g2\csrc/u8x8_8x8.c ****    buf: pointer to 8 bytes
  60:..\..\..\..\..\..\Dev\Library embedded l2c display\u8g2\csrc/u8x8_8x8.c **** */
  61:..\..\..\..\..\..\Dev\Library embedded l2c display\u8g2\csrc/u8x8_8x8.c **** static void u8x8_get_glyph_data(u8x8_t *u8x8, uint8_t encoding, uint8_t *buf, uint8_t tile_offset) 
  62:..\..\..\..\..\..\Dev\Library embedded l2c display\u8g2\csrc/u8x8_8x8.c **** static void u8x8_get_glyph_data(u8x8_t *u8x8, uint8_t encoding, uint8_t *buf, uint8_t tile_offset) 
  63:..\..\..\..\..\..\Dev\Library embedded l2c display\u8g2\csrc/u8x8_8x8.c **** {
  27              		.loc 1 63 0
  28              		.cfi_startproc
  29              		@ args = 0, pretend = 0, frame = 0
  30              		@ frame_needed = 0, uses_anonymous_args = 0
  31              	.LVL0:
  32 0000 F0B5     		push	{r4, r5, r6, r7, lr}
  33              		.cfi_def_cfa_offset 20
  34              		.cfi_offset 4, -20
  35              		.cfi_offset 5, -16
  36              		.cfi_offset 6, -12
  37              		.cfi_offset 7, -8
  38              		.cfi_offset 14, -4
  64:..\..\..\..\..\..\Dev\Library embedded l2c display\u8g2\csrc/u8x8_8x8.c ****   uint8_t first, last, tiles, i;
  65:..\..\..\..\..\..\Dev\Library embedded l2c display\u8g2\csrc/u8x8_8x8.c ****   uint16_t offset;
  66:..\..\..\..\..\..\Dev\Library embedded l2c display\u8g2\csrc/u8x8_8x8.c ****   first = u8x8_pgm_read(u8x8->font+0);
  39              		.loc 1 66 0
  40 0002 C569     		ldr	r5, [r0, #28]
  41 0004 2E78     		ldrb	r6, [r5]	@ zero_extendqisi2
  42              	.LVL1:
  67:..\..\..\..\..\..\Dev\Library embedded l2c display\u8g2\csrc/u8x8_8x8.c ****   last = u8x8_pgm_read(u8x8->font+1);
  43              		.loc 1 67 0
  44 0006 95F801E0 		ldrb	lr, [r5, #1]	@ zero_extendqisi2
  45              	.LVL2:
  68:..\..\..\..\..\..\Dev\Library embedded l2c display\u8g2\csrc/u8x8_8x8.c ****   tiles = u8x8_pgm_read(u8x8->font+2);		/* new 2019 format */
  46              		.loc 1 68 0
ARM GAS  C:\Users\Abude\AppData\Local\Temp\ccotp7Re.s 			page 3


  47 000a AF78     		ldrb	r7, [r5, #2]	@ zero_extendqisi2
  48              	.LVL3:
  69:..\..\..\..\..\..\Dev\Library embedded l2c display\u8g2\csrc/u8x8_8x8.c ****   tiles *= u8x8_pgm_read(u8x8->font+3);	/* new 2019 format */
  49              		.loc 1 69 0
  50 000c EC78     		ldrb	r4, [r5, #3]	@ zero_extendqisi2
  51 000e 04FB07F4 		mul	r4, r4, r7
  52              	.LVL4:
  70:..\..\..\..\..\..\Dev\Library embedded l2c display\u8g2\csrc/u8x8_8x8.c ****   
  71:..\..\..\..\..\..\Dev\Library embedded l2c display\u8g2\csrc/u8x8_8x8.c ****   /* get the glyph bitmap from the font */
  72:..\..\..\..\..\..\Dev\Library embedded l2c display\u8g2\csrc/u8x8_8x8.c ****   if ( first <= encoding && encoding <= last )
  53              		.loc 1 72 0
  54 0012 8E42     		cmp	r6, r1
  55 0014 1ED8     		bhi	.L10
  56 0016 E4B2     		uxtb	r4, r4
  57              		.loc 1 72 0 is_stmt 0 discriminator 1
  58 0018 8E45     		cmp	lr, r1
  59 001a 1DD3     		bcc	.L11
  60              	.LVL5:
  73:..\..\..\..\..\..\Dev\Library embedded l2c display\u8g2\csrc/u8x8_8x8.c ****   {
  74:..\..\..\..\..\..\Dev\Library embedded l2c display\u8g2\csrc/u8x8_8x8.c ****     offset = encoding;
  75:..\..\..\..\..\..\Dev\Library embedded l2c display\u8g2\csrc/u8x8_8x8.c ****     offset -= first;
  61              		.loc 1 75 0 is_stmt 1
  62 001c 891B     		subs	r1, r1, r6
  63              	.LVL6:
  64 001e 89B2     		uxth	r1, r1
  65              	.LVL7:
  76:..\..\..\..\..\..\Dev\Library embedded l2c display\u8g2\csrc/u8x8_8x8.c ****     offset *= tiles;		/* new 2019 format */
  66              		.loc 1 76 0
  67 0020 04FB01F4 		mul	r4, r4, r1
  68              	.LVL8:
  69 0024 A4B2     		uxth	r4, r4
  70              	.LVL9:
  77:..\..\..\..\..\..\Dev\Library embedded l2c display\u8g2\csrc/u8x8_8x8.c ****     offset += tile_offset;	/* new 2019 format */
  71              		.loc 1 77 0
  72 0026 2344     		add	r3, r3, r4
  73              	.LVL10:
  74 0028 9BB2     		uxth	r3, r3
  75              	.LVL11:
  78:..\..\..\..\..\..\Dev\Library embedded l2c display\u8g2\csrc/u8x8_8x8.c ****     offset *= 8;
  76              		.loc 1 78 0
  77 002a DB00     		lsls	r3, r3, #3
  78              	.LVL12:
  79 002c 9BB2     		uxth	r3, r3
  80              	.LVL13:
  79:..\..\..\..\..\..\Dev\Library embedded l2c display\u8g2\csrc/u8x8_8x8.c ****     offset +=4;			/* changed from 2 to 4, new 2019 format */
  81              		.loc 1 79 0
  82 002e 0433     		adds	r3, r3, #4
  83              	.LVL14:
  84 0030 9BB2     		uxth	r3, r3
  85              	.LVL15:
  80:..\..\..\..\..\..\Dev\Library embedded l2c display\u8g2\csrc/u8x8_8x8.c ****     for( i = 0; i < 8; i++ )
  86              		.loc 1 80 0
  87 0032 0021     		movs	r1, #0
  88 0034 06E0     		b	.L3
  89              	.LVL16:
  90              	.L4:
  81:..\..\..\..\..\..\Dev\Library embedded l2c display\u8g2\csrc/u8x8_8x8.c ****     {
ARM GAS  C:\Users\Abude\AppData\Local\Temp\ccotp7Re.s 			page 4


  82:..\..\..\..\..\..\Dev\Library embedded l2c display\u8g2\csrc/u8x8_8x8.c ****       buf[i] = u8x8_pgm_read(u8x8->font+offset);
  91              		.loc 1 82 0 discriminator 3
  92 0036 C469     		ldr	r4, [r0, #28]
  93 0038 E45C     		ldrb	r4, [r4, r3]	@ zero_extendqisi2
  94 003a 5454     		strb	r4, [r2, r1]
  83:..\..\..\..\..\..\Dev\Library embedded l2c display\u8g2\csrc/u8x8_8x8.c ****       offset++;
  95              		.loc 1 83 0 discriminator 3
  96 003c 0133     		adds	r3, r3, #1
  97              	.LVL17:
  98 003e 9BB2     		uxth	r3, r3
  99              	.LVL18:
  80:..\..\..\..\..\..\Dev\Library embedded l2c display\u8g2\csrc/u8x8_8x8.c ****     for( i = 0; i < 8; i++ )
 100              		.loc 1 80 0 discriminator 3
 101 0040 0131     		adds	r1, r1, #1
 102              	.LVL19:
 103 0042 C9B2     		uxtb	r1, r1
 104              	.LVL20:
 105              	.L3:
  80:..\..\..\..\..\..\Dev\Library embedded l2c display\u8g2\csrc/u8x8_8x8.c ****     for( i = 0; i < 8; i++ )
 106              		.loc 1 80 0 is_stmt 0 discriminator 1
 107 0044 0729     		cmp	r1, #7
 108 0046 F6D9     		bls	.L4
 109 0048 09E0     		b	.L5
 110              	.LVL21:
 111              	.L6:
  84:..\..\..\..\..\..\Dev\Library embedded l2c display\u8g2\csrc/u8x8_8x8.c ****     }
  85:..\..\..\..\..\..\Dev\Library embedded l2c display\u8g2\csrc/u8x8_8x8.c ****   }
  86:..\..\..\..\..\..\Dev\Library embedded l2c display\u8g2\csrc/u8x8_8x8.c ****   else
  87:..\..\..\..\..\..\Dev\Library embedded l2c display\u8g2\csrc/u8x8_8x8.c ****   {
  88:..\..\..\..\..\..\Dev\Library embedded l2c display\u8g2\csrc/u8x8_8x8.c ****     for( i = 0; i < 8; i++ )
  89:..\..\..\..\..\..\Dev\Library embedded l2c display\u8g2\csrc/u8x8_8x8.c ****     {
  90:..\..\..\..\..\..\Dev\Library embedded l2c display\u8g2\csrc/u8x8_8x8.c ****       buf[i] = 0;
 112              		.loc 1 90 0 is_stmt 1 discriminator 3
 113 004a 0021     		movs	r1, #0
 114 004c D154     		strb	r1, [r2, r3]
  88:..\..\..\..\..\..\Dev\Library embedded l2c display\u8g2\csrc/u8x8_8x8.c ****     {
 115              		.loc 1 88 0 discriminator 3
 116 004e 0133     		adds	r3, r3, #1
 117              	.LVL22:
 118 0050 DBB2     		uxtb	r3, r3
 119              	.LVL23:
 120 0052 02E0     		b	.L2
 121              	.LVL24:
 122              	.L10:
 123 0054 0023     		movs	r3, #0
 124              	.LVL25:
 125 0056 00E0     		b	.L2
 126              	.LVL26:
 127              	.L11:
 128 0058 0023     		movs	r3, #0
 129              	.LVL27:
 130              	.L2:
  88:..\..\..\..\..\..\Dev\Library embedded l2c display\u8g2\csrc/u8x8_8x8.c ****     {
 131              		.loc 1 88 0 is_stmt 0 discriminator 1
 132 005a 072B     		cmp	r3, #7
 133 005c F5D9     		bls	.L6
 134              	.LVL28:
ARM GAS  C:\Users\Abude\AppData\Local\Temp\ccotp7Re.s 			page 5


 135              	.L5:
  91:..\..\..\..\..\..\Dev\Library embedded l2c display\u8g2\csrc/u8x8_8x8.c ****     }
  92:..\..\..\..\..\..\Dev\Library embedded l2c display\u8g2\csrc/u8x8_8x8.c ****   }
  93:..\..\..\..\..\..\Dev\Library embedded l2c display\u8g2\csrc/u8x8_8x8.c ****   
  94:..\..\..\..\..\..\Dev\Library embedded l2c display\u8g2\csrc/u8x8_8x8.c ****   /* invert the bitmap if required */
  95:..\..\..\..\..\..\Dev\Library embedded l2c display\u8g2\csrc/u8x8_8x8.c ****   if ( u8x8->is_font_inverse_mode )
 136              		.loc 1 95 0 is_stmt 1
 137 005e 90F82330 		ldrb	r3, [r0, #35]	@ zero_extendqisi2
 138 0062 33B9     		cbnz	r3, .L12
 139 0064 F0BD     		pop	{r4, r5, r6, r7, pc}
 140              	.LVL29:
 141              	.L9:
  96:..\..\..\..\..\..\Dev\Library embedded l2c display\u8g2\csrc/u8x8_8x8.c ****   {
  97:..\..\..\..\..\..\Dev\Library embedded l2c display\u8g2\csrc/u8x8_8x8.c ****     for( i = 0; i < 8; i++ )
  98:..\..\..\..\..\..\Dev\Library embedded l2c display\u8g2\csrc/u8x8_8x8.c ****     {
  99:..\..\..\..\..\..\Dev\Library embedded l2c display\u8g2\csrc/u8x8_8x8.c ****       buf[i] ^= 255;
 142              		.loc 1 99 0 discriminator 3
 143 0066 D15C     		ldrb	r1, [r2, r3]	@ zero_extendqisi2
 144 0068 C943     		mvns	r1, r1
 145 006a D154     		strb	r1, [r2, r3]
  97:..\..\..\..\..\..\Dev\Library embedded l2c display\u8g2\csrc/u8x8_8x8.c ****     {
 146              		.loc 1 97 0 discriminator 3
 147 006c 0133     		adds	r3, r3, #1
 148              	.LVL30:
 149 006e DBB2     		uxtb	r3, r3
 150              	.LVL31:
 151 0070 00E0     		b	.L7
 152              	.LVL32:
 153              	.L12:
 154 0072 0023     		movs	r3, #0
 155              	.L7:
 156              	.LVL33:
  97:..\..\..\..\..\..\Dev\Library embedded l2c display\u8g2\csrc/u8x8_8x8.c ****     {
 157              		.loc 1 97 0 is_stmt 0 discriminator 1
 158 0074 072B     		cmp	r3, #7
 159 0076 F6D9     		bls	.L9
 160 0078 F0BD     		pop	{r4, r5, r6, r7, pc}
 161              		.cfi_endproc
 162              	.LFE1:
 163              		.size	u8x8_get_glyph_data, .-u8x8_get_glyph_data
 164 007a 00BF     		.section	.text.u8x8_upscale_buf,"ax",%progbits
 165              		.align	2
 166              		.thumb
 167              		.thumb_func
 168              		.type	u8x8_upscale_buf, %function
 169              	u8x8_upscale_buf:
 170              	.LFB4:
 100:..\..\..\..\..\..\Dev\Library embedded l2c display\u8g2\csrc/u8x8_8x8.c ****     }
 101:..\..\..\..\..\..\Dev\Library embedded l2c display\u8g2\csrc/u8x8_8x8.c ****   }
 102:..\..\..\..\..\..\Dev\Library embedded l2c display\u8g2\csrc/u8x8_8x8.c ****   
 103:..\..\..\..\..\..\Dev\Library embedded l2c display\u8g2\csrc/u8x8_8x8.c **** }
 104:..\..\..\..\..\..\Dev\Library embedded l2c display\u8g2\csrc/u8x8_8x8.c **** 
 105:..\..\..\..\..\..\Dev\Library embedded l2c display\u8g2\csrc/u8x8_8x8.c **** void u8x8_DrawGlyph(u8x8_t *u8x8, uint8_t x, uint8_t y, uint8_t encoding)
 106:..\..\..\..\..\..\Dev\Library embedded l2c display\u8g2\csrc/u8x8_8x8.c **** {
 107:..\..\..\..\..\..\Dev\Library embedded l2c display\u8g2\csrc/u8x8_8x8.c ****   uint8_t th = u8x8_pgm_read(u8x8->font+2);		/* new 2019 format */
 108:..\..\..\..\..\..\Dev\Library embedded l2c display\u8g2\csrc/u8x8_8x8.c ****   uint8_t tv = u8x8_pgm_read(u8x8->font+3);	/* new 2019 format */
 109:..\..\..\..\..\..\Dev\Library embedded l2c display\u8g2\csrc/u8x8_8x8.c ****   uint8_t xx, tile;
ARM GAS  C:\Users\Abude\AppData\Local\Temp\ccotp7Re.s 			page 6


 110:..\..\..\..\..\..\Dev\Library embedded l2c display\u8g2\csrc/u8x8_8x8.c ****   uint8_t buf[8];
 111:..\..\..\..\..\..\Dev\Library embedded l2c display\u8g2\csrc/u8x8_8x8.c ****   th += x;
 112:..\..\..\..\..\..\Dev\Library embedded l2c display\u8g2\csrc/u8x8_8x8.c ****   tv += y;
 113:..\..\..\..\..\..\Dev\Library embedded l2c display\u8g2\csrc/u8x8_8x8.c ****   tile = 0;
 114:..\..\..\..\..\..\Dev\Library embedded l2c display\u8g2\csrc/u8x8_8x8.c ****   do
 115:..\..\..\..\..\..\Dev\Library embedded l2c display\u8g2\csrc/u8x8_8x8.c ****   {
 116:..\..\..\..\..\..\Dev\Library embedded l2c display\u8g2\csrc/u8x8_8x8.c ****     xx = x;
 117:..\..\..\..\..\..\Dev\Library embedded l2c display\u8g2\csrc/u8x8_8x8.c ****     do
 118:..\..\..\..\..\..\Dev\Library embedded l2c display\u8g2\csrc/u8x8_8x8.c ****     {
 119:..\..\..\..\..\..\Dev\Library embedded l2c display\u8g2\csrc/u8x8_8x8.c ****       u8x8_get_glyph_data(u8x8, encoding, buf, tile);
 120:..\..\..\..\..\..\Dev\Library embedded l2c display\u8g2\csrc/u8x8_8x8.c ****       u8x8_DrawTile(u8x8, xx, y, 1, buf);
 121:..\..\..\..\..\..\Dev\Library embedded l2c display\u8g2\csrc/u8x8_8x8.c ****       tile++;
 122:..\..\..\..\..\..\Dev\Library embedded l2c display\u8g2\csrc/u8x8_8x8.c ****       xx++;
 123:..\..\..\..\..\..\Dev\Library embedded l2c display\u8g2\csrc/u8x8_8x8.c ****     } while( xx < th );
 124:..\..\..\..\..\..\Dev\Library embedded l2c display\u8g2\csrc/u8x8_8x8.c ****     y++;
 125:..\..\..\..\..\..\Dev\Library embedded l2c display\u8g2\csrc/u8x8_8x8.c ****   } while( y < tv );
 126:..\..\..\..\..\..\Dev\Library embedded l2c display\u8g2\csrc/u8x8_8x8.c **** }
 127:..\..\..\..\..\..\Dev\Library embedded l2c display\u8g2\csrc/u8x8_8x8.c **** 
 128:..\..\..\..\..\..\Dev\Library embedded l2c display\u8g2\csrc/u8x8_8x8.c **** 
 129:..\..\..\..\..\..\Dev\Library embedded l2c display\u8g2\csrc/u8x8_8x8.c **** /*
 130:..\..\..\..\..\..\Dev\Library embedded l2c display\u8g2\csrc/u8x8_8x8.c ****   Source: http://graphics.stanford.edu/~seander/bithacks.html
 131:..\..\..\..\..\..\Dev\Library embedded l2c display\u8g2\csrc/u8x8_8x8.c **** 	Section: Interleave bits by Binary Magic Numbers 
 132:..\..\..\..\..\..\Dev\Library embedded l2c display\u8g2\csrc/u8x8_8x8.c ****    Original codes is here:
 133:..\..\..\..\..\..\Dev\Library embedded l2c display\u8g2\csrc/u8x8_8x8.c **** 		static const unsigned int B[] = {0x55555555, 0x33333333, 0x0F0F0F0F, 0x00FF00FF};
 134:..\..\..\..\..\..\Dev\Library embedded l2c display\u8g2\csrc/u8x8_8x8.c **** 		static const unsigned int S[] = {1, 2, 4, 8};
 135:..\..\..\..\..\..\Dev\Library embedded l2c display\u8g2\csrc/u8x8_8x8.c **** 
 136:..\..\..\..\..\..\Dev\Library embedded l2c display\u8g2\csrc/u8x8_8x8.c **** 		unsigned int x; // Interleave lower 16 bits of x and y, so the bits of x
 137:..\..\..\..\..\..\Dev\Library embedded l2c display\u8g2\csrc/u8x8_8x8.c **** 		unsigned int y; // are in the even positions and bits from y in the odd;
 138:..\..\..\..\..\..\Dev\Library embedded l2c display\u8g2\csrc/u8x8_8x8.c **** 		unsigned int z; // z gets the resulting 32-bit Morton Number.  
 139:..\..\..\..\..\..\Dev\Library embedded l2c display\u8g2\csrc/u8x8_8x8.c **** 				// x and y must initially be less than 65536.
 140:..\..\..\..\..\..\Dev\Library embedded l2c display\u8g2\csrc/u8x8_8x8.c **** 
 141:..\..\..\..\..\..\Dev\Library embedded l2c display\u8g2\csrc/u8x8_8x8.c **** 		x = (x | (x << S[3])) & B[3];
 142:..\..\..\..\..\..\Dev\Library embedded l2c display\u8g2\csrc/u8x8_8x8.c **** 		x = (x | (x << S[2])) & B[2];
 143:..\..\..\..\..\..\Dev\Library embedded l2c display\u8g2\csrc/u8x8_8x8.c **** 		x = (x | (x << S[1])) & B[1];
 144:..\..\..\..\..\..\Dev\Library embedded l2c display\u8g2\csrc/u8x8_8x8.c **** 		x = (x | (x << S[0])) & B[0];
 145:..\..\..\..\..\..\Dev\Library embedded l2c display\u8g2\csrc/u8x8_8x8.c **** 
 146:..\..\..\..\..\..\Dev\Library embedded l2c display\u8g2\csrc/u8x8_8x8.c **** 		y = (y | (y << S[3])) & B[3];
 147:..\..\..\..\..\..\Dev\Library embedded l2c display\u8g2\csrc/u8x8_8x8.c **** 		y = (y | (y << S[2])) & B[2];
 148:..\..\..\..\..\..\Dev\Library embedded l2c display\u8g2\csrc/u8x8_8x8.c **** 		y = (y | (y << S[1])) & B[1];
 149:..\..\..\..\..\..\Dev\Library embedded l2c display\u8g2\csrc/u8x8_8x8.c **** 		y = (y | (y << S[0])) & B[0];
 150:..\..\..\..\..\..\Dev\Library embedded l2c display\u8g2\csrc/u8x8_8x8.c **** 
 151:..\..\..\..\..\..\Dev\Library embedded l2c display\u8g2\csrc/u8x8_8x8.c **** 		z = x | (y << 1);
 152:..\..\..\..\..\..\Dev\Library embedded l2c display\u8g2\csrc/u8x8_8x8.c **** */
 153:..\..\..\..\..\..\Dev\Library embedded l2c display\u8g2\csrc/u8x8_8x8.c **** uint16_t u8x8_upscale_byte(uint8_t x) 
 154:..\..\..\..\..\..\Dev\Library embedded l2c display\u8g2\csrc/u8x8_8x8.c **** {
 155:..\..\..\..\..\..\Dev\Library embedded l2c display\u8g2\csrc/u8x8_8x8.c **** 	uint16_t y = x;
 156:..\..\..\..\..\..\Dev\Library embedded l2c display\u8g2\csrc/u8x8_8x8.c **** 	y |= (y << 4);		// x = (x | (x << S[2])) & B[2];
 157:..\..\..\..\..\..\Dev\Library embedded l2c display\u8g2\csrc/u8x8_8x8.c **** 	y &= 0x0f0f;
 158:..\..\..\..\..\..\Dev\Library embedded l2c display\u8g2\csrc/u8x8_8x8.c **** 	y |= (y << 2);		// x = (x | (x << S[1])) & B[1];
 159:..\..\..\..\..\..\Dev\Library embedded l2c display\u8g2\csrc/u8x8_8x8.c **** 	y &= 0x3333;
 160:..\..\..\..\..\..\Dev\Library embedded l2c display\u8g2\csrc/u8x8_8x8.c **** 	y |= (y << 1);		// x = (x | (x << S[0])) & B[0];
 161:..\..\..\..\..\..\Dev\Library embedded l2c display\u8g2\csrc/u8x8_8x8.c **** 	y &= 0x5555;
 162:..\..\..\..\..\..\Dev\Library embedded l2c display\u8g2\csrc/u8x8_8x8.c ****   
 163:..\..\..\..\..\..\Dev\Library embedded l2c display\u8g2\csrc/u8x8_8x8.c **** 	y |= (y << 1);		// z = x | (y << 1);
 164:..\..\..\..\..\..\Dev\Library embedded l2c display\u8g2\csrc/u8x8_8x8.c **** 	return y;
 165:..\..\..\..\..\..\Dev\Library embedded l2c display\u8g2\csrc/u8x8_8x8.c **** }
 166:..\..\..\..\..\..\Dev\Library embedded l2c display\u8g2\csrc/u8x8_8x8.c **** 
ARM GAS  C:\Users\Abude\AppData\Local\Temp\ccotp7Re.s 			page 7


 167:..\..\..\..\..\..\Dev\Library embedded l2c display\u8g2\csrc/u8x8_8x8.c **** static void u8x8_upscale_buf(uint8_t *src, uint8_t *dest) U8X8_NOINLINE;
 168:..\..\..\..\..\..\Dev\Library embedded l2c display\u8g2\csrc/u8x8_8x8.c **** static void u8x8_upscale_buf(uint8_t *src, uint8_t *dest)
 169:..\..\..\..\..\..\Dev\Library embedded l2c display\u8g2\csrc/u8x8_8x8.c **** {
 171              		.loc 1 169 0 is_stmt 1
 172              		.cfi_startproc
 173              		@ args = 0, pretend = 0, frame = 0
 174              		@ frame_needed = 0, uses_anonymous_args = 0
 175              		@ link register save eliminated.
 176              	.LVL34:
 177 0000 30B4     		push	{r4, r5}
 178              		.cfi_def_cfa_offset 8
 179              		.cfi_offset 4, -8
 180              		.cfi_offset 5, -4
 181              	.LVL35:
 170:..\..\..\..\..\..\Dev\Library embedded l2c display\u8g2\csrc/u8x8_8x8.c ****   uint8_t i = 4;  
 182              		.loc 1 170 0
 183 0002 0423     		movs	r3, #4
 184              	.LVL36:
 185              	.L15:
 171:..\..\..\..\..\..\Dev\Library embedded l2c display\u8g2\csrc/u8x8_8x8.c ****   do 
 172:..\..\..\..\..\..\Dev\Library embedded l2c display\u8g2\csrc/u8x8_8x8.c ****   {
 173:..\..\..\..\..\..\Dev\Library embedded l2c display\u8g2\csrc/u8x8_8x8.c ****     *dest++ = *src;
 186              		.loc 1 173 0 discriminator 1
 187 0004 0446     		mov	r4, r0
 188 0006 14F8015B 		ldrb	r5, [r4], #1	@ zero_extendqisi2
 189 000a 0A46     		mov	r2, r1
 190 000c 02F8025B 		strb	r5, [r2], #2
 191              	.LVL37:
 174:..\..\..\..\..\..\Dev\Library embedded l2c display\u8g2\csrc/u8x8_8x8.c ****     *dest++ = *src++;
 192              		.loc 1 174 0 discriminator 1
 193 0010 0078     		ldrb	r0, [r0]	@ zero_extendqisi2
 194 0012 4870     		strb	r0, [r1, #1]
 175:..\..\..\..\..\..\Dev\Library embedded l2c display\u8g2\csrc/u8x8_8x8.c ****     i--;
 195              		.loc 1 175 0 discriminator 1
 196 0014 013B     		subs	r3, r3, #1
 197              	.LVL38:
 174:..\..\..\..\..\..\Dev\Library embedded l2c display\u8g2\csrc/u8x8_8x8.c ****     *dest++ = *src++;
 198              		.loc 1 174 0 discriminator 1
 199 0016 2046     		mov	r0, r4
 200 0018 1146     		mov	r1, r2
 176:..\..\..\..\..\..\Dev\Library embedded l2c display\u8g2\csrc/u8x8_8x8.c ****   } while( i > 0 );
 201              		.loc 1 176 0 discriminator 1
 202 001a 13F0FF03 		ands	r3, r3, #255
 203              	.LVL39:
 204 001e F1D1     		bne	.L15
 177:..\..\..\..\..\..\Dev\Library embedded l2c display\u8g2\csrc/u8x8_8x8.c **** }
 205              		.loc 1 177 0
 206 0020 30BC     		pop	{r4, r5}
 207              		.cfi_restore 5
 208              		.cfi_restore 4
 209              		.cfi_def_cfa_offset 0
 210              	.LVL40:
 211 0022 7047     		bx	lr
 212              		.cfi_endproc
 213              	.LFE4:
 214              		.size	u8x8_upscale_buf, .-u8x8_upscale_buf
 215              		.section	.text.u8x8_ascii_next,"ax",%progbits
ARM GAS  C:\Users\Abude\AppData\Local\Temp\ccotp7Re.s 			page 8


 216              		.align	2
 217              		.global	u8x8_ascii_next
 218              		.thumb
 219              		.thumb_func
 220              		.type	u8x8_ascii_next, %function
 221              	u8x8_ascii_next:
 222              	.LFB10:
 178:..\..\..\..\..\..\Dev\Library embedded l2c display\u8g2\csrc/u8x8_8x8.c **** 
 179:..\..\..\..\..\..\Dev\Library embedded l2c display\u8g2\csrc/u8x8_8x8.c **** static void u8x8_draw_2x2_subglyph(u8x8_t *u8x8, uint8_t x, uint8_t y, uint8_t encoding, uint8_t ti
 180:..\..\..\..\..\..\Dev\Library embedded l2c display\u8g2\csrc/u8x8_8x8.c **** {
 181:..\..\..\..\..\..\Dev\Library embedded l2c display\u8g2\csrc/u8x8_8x8.c ****   uint8_t i;
 182:..\..\..\..\..\..\Dev\Library embedded l2c display\u8g2\csrc/u8x8_8x8.c ****   uint16_t t;
 183:..\..\..\..\..\..\Dev\Library embedded l2c display\u8g2\csrc/u8x8_8x8.c ****   uint8_t buf[8];
 184:..\..\..\..\..\..\Dev\Library embedded l2c display\u8g2\csrc/u8x8_8x8.c ****   uint8_t buf1[8];
 185:..\..\..\..\..\..\Dev\Library embedded l2c display\u8g2\csrc/u8x8_8x8.c ****   uint8_t buf2[8];
 186:..\..\..\..\..\..\Dev\Library embedded l2c display\u8g2\csrc/u8x8_8x8.c ****   u8x8_get_glyph_data(u8x8, encoding, buf, tile);
 187:..\..\..\..\..\..\Dev\Library embedded l2c display\u8g2\csrc/u8x8_8x8.c ****   for( i = 0; i < 8; i ++ )
 188:..\..\..\..\..\..\Dev\Library embedded l2c display\u8g2\csrc/u8x8_8x8.c ****   {
 189:..\..\..\..\..\..\Dev\Library embedded l2c display\u8g2\csrc/u8x8_8x8.c ****       t = u8x8_upscale_byte(buf[i]);
 190:..\..\..\..\..\..\Dev\Library embedded l2c display\u8g2\csrc/u8x8_8x8.c ****       buf1[i] = t >> 8;
 191:..\..\..\..\..\..\Dev\Library embedded l2c display\u8g2\csrc/u8x8_8x8.c ****       buf2[i] = t & 255;
 192:..\..\..\..\..\..\Dev\Library embedded l2c display\u8g2\csrc/u8x8_8x8.c ****   }
 193:..\..\..\..\..\..\Dev\Library embedded l2c display\u8g2\csrc/u8x8_8x8.c ****   u8x8_upscale_buf(buf2, buf);
 194:..\..\..\..\..\..\Dev\Library embedded l2c display\u8g2\csrc/u8x8_8x8.c ****   u8x8_DrawTile(u8x8, x, y, 1, buf);
 195:..\..\..\..\..\..\Dev\Library embedded l2c display\u8g2\csrc/u8x8_8x8.c ****   
 196:..\..\..\..\..\..\Dev\Library embedded l2c display\u8g2\csrc/u8x8_8x8.c ****   u8x8_upscale_buf(buf2+4, buf);
 197:..\..\..\..\..\..\Dev\Library embedded l2c display\u8g2\csrc/u8x8_8x8.c ****   u8x8_DrawTile(u8x8, x+1, y, 1, buf);
 198:..\..\..\..\..\..\Dev\Library embedded l2c display\u8g2\csrc/u8x8_8x8.c ****   
 199:..\..\..\..\..\..\Dev\Library embedded l2c display\u8g2\csrc/u8x8_8x8.c ****   u8x8_upscale_buf(buf1, buf);
 200:..\..\..\..\..\..\Dev\Library embedded l2c display\u8g2\csrc/u8x8_8x8.c ****   u8x8_DrawTile(u8x8, x, y+1, 1, buf);
 201:..\..\..\..\..\..\Dev\Library embedded l2c display\u8g2\csrc/u8x8_8x8.c ****   
 202:..\..\..\..\..\..\Dev\Library embedded l2c display\u8g2\csrc/u8x8_8x8.c ****   u8x8_upscale_buf(buf1+4, buf);
 203:..\..\..\..\..\..\Dev\Library embedded l2c display\u8g2\csrc/u8x8_8x8.c ****   u8x8_DrawTile(u8x8, x+1, y+1, 1, buf);  
 204:..\..\..\..\..\..\Dev\Library embedded l2c display\u8g2\csrc/u8x8_8x8.c **** }
 205:..\..\..\..\..\..\Dev\Library embedded l2c display\u8g2\csrc/u8x8_8x8.c **** 
 206:..\..\..\..\..\..\Dev\Library embedded l2c display\u8g2\csrc/u8x8_8x8.c **** 
 207:..\..\..\..\..\..\Dev\Library embedded l2c display\u8g2\csrc/u8x8_8x8.c **** void u8x8_Draw2x2Glyph(u8x8_t *u8x8, uint8_t x, uint8_t y, uint8_t encoding)
 208:..\..\..\..\..\..\Dev\Library embedded l2c display\u8g2\csrc/u8x8_8x8.c **** {
 209:..\..\..\..\..\..\Dev\Library embedded l2c display\u8g2\csrc/u8x8_8x8.c ****   uint8_t th = u8x8_pgm_read(u8x8->font+2);		/* new 2019 format */
 210:..\..\..\..\..\..\Dev\Library embedded l2c display\u8g2\csrc/u8x8_8x8.c ****   uint8_t tv = u8x8_pgm_read(u8x8->font+3);	/* new 2019 format */
 211:..\..\..\..\..\..\Dev\Library embedded l2c display\u8g2\csrc/u8x8_8x8.c ****   uint8_t xx, tile;
 212:..\..\..\..\..\..\Dev\Library embedded l2c display\u8g2\csrc/u8x8_8x8.c ****   th *= 2;
 213:..\..\..\..\..\..\Dev\Library embedded l2c display\u8g2\csrc/u8x8_8x8.c ****   th += x;
 214:..\..\..\..\..\..\Dev\Library embedded l2c display\u8g2\csrc/u8x8_8x8.c ****   tv *= 2;
 215:..\..\..\..\..\..\Dev\Library embedded l2c display\u8g2\csrc/u8x8_8x8.c ****   tv += y;
 216:..\..\..\..\..\..\Dev\Library embedded l2c display\u8g2\csrc/u8x8_8x8.c ****   tile = 0;
 217:..\..\..\..\..\..\Dev\Library embedded l2c display\u8g2\csrc/u8x8_8x8.c ****   do
 218:..\..\..\..\..\..\Dev\Library embedded l2c display\u8g2\csrc/u8x8_8x8.c ****   {
 219:..\..\..\..\..\..\Dev\Library embedded l2c display\u8g2\csrc/u8x8_8x8.c ****     xx = x;
 220:..\..\..\..\..\..\Dev\Library embedded l2c display\u8g2\csrc/u8x8_8x8.c ****     do
 221:..\..\..\..\..\..\Dev\Library embedded l2c display\u8g2\csrc/u8x8_8x8.c ****     {
 222:..\..\..\..\..\..\Dev\Library embedded l2c display\u8g2\csrc/u8x8_8x8.c ****       u8x8_draw_2x2_subglyph(u8x8, xx, y, encoding, tile);
 223:..\..\..\..\..\..\Dev\Library embedded l2c display\u8g2\csrc/u8x8_8x8.c ****       tile++;
 224:..\..\..\..\..\..\Dev\Library embedded l2c display\u8g2\csrc/u8x8_8x8.c ****       xx+=2;
 225:..\..\..\..\..\..\Dev\Library embedded l2c display\u8g2\csrc/u8x8_8x8.c ****     } while( xx < th );
 226:..\..\..\..\..\..\Dev\Library embedded l2c display\u8g2\csrc/u8x8_8x8.c ****     y+=2;
 227:..\..\..\..\..\..\Dev\Library embedded l2c display\u8g2\csrc/u8x8_8x8.c ****   } while( y < tv );  
ARM GAS  C:\Users\Abude\AppData\Local\Temp\ccotp7Re.s 			page 9


 228:..\..\..\..\..\..\Dev\Library embedded l2c display\u8g2\csrc/u8x8_8x8.c **** }
 229:..\..\..\..\..\..\Dev\Library embedded l2c display\u8g2\csrc/u8x8_8x8.c **** 
 230:..\..\..\..\..\..\Dev\Library embedded l2c display\u8g2\csrc/u8x8_8x8.c **** /* https://github.com/olikraus/u8g2/issues/474 */
 231:..\..\..\..\..\..\Dev\Library embedded l2c display\u8g2\csrc/u8x8_8x8.c **** static void u8x8_draw_1x2_subglyph(u8x8_t *u8x8, uint8_t x, uint8_t y, uint8_t encoding, uint8_t ti
 232:..\..\..\..\..\..\Dev\Library embedded l2c display\u8g2\csrc/u8x8_8x8.c **** {
 233:..\..\..\..\..\..\Dev\Library embedded l2c display\u8g2\csrc/u8x8_8x8.c ****   uint8_t i;
 234:..\..\..\..\..\..\Dev\Library embedded l2c display\u8g2\csrc/u8x8_8x8.c ****   uint16_t t;
 235:..\..\..\..\..\..\Dev\Library embedded l2c display\u8g2\csrc/u8x8_8x8.c ****   uint8_t buf[8];
 236:..\..\..\..\..\..\Dev\Library embedded l2c display\u8g2\csrc/u8x8_8x8.c ****   uint8_t buf1[8];
 237:..\..\..\..\..\..\Dev\Library embedded l2c display\u8g2\csrc/u8x8_8x8.c ****   uint8_t buf2[8];
 238:..\..\..\..\..\..\Dev\Library embedded l2c display\u8g2\csrc/u8x8_8x8.c ****   u8x8_get_glyph_data(u8x8, encoding, buf, tile);
 239:..\..\..\..\..\..\Dev\Library embedded l2c display\u8g2\csrc/u8x8_8x8.c ****   for( i = 0; i < 8; i ++ )
 240:..\..\..\..\..\..\Dev\Library embedded l2c display\u8g2\csrc/u8x8_8x8.c ****   {
 241:..\..\..\..\..\..\Dev\Library embedded l2c display\u8g2\csrc/u8x8_8x8.c ****       t = u8x8_upscale_byte(buf[i]);
 242:..\..\..\..\..\..\Dev\Library embedded l2c display\u8g2\csrc/u8x8_8x8.c ****       buf1[i] = t >> 8;
 243:..\..\..\..\..\..\Dev\Library embedded l2c display\u8g2\csrc/u8x8_8x8.c ****       buf2[i] = t & 255;
 244:..\..\..\..\..\..\Dev\Library embedded l2c display\u8g2\csrc/u8x8_8x8.c ****   }
 245:..\..\..\..\..\..\Dev\Library embedded l2c display\u8g2\csrc/u8x8_8x8.c ****   u8x8_DrawTile(u8x8, x,   y, 1, buf2);
 246:..\..\..\..\..\..\Dev\Library embedded l2c display\u8g2\csrc/u8x8_8x8.c ****   u8x8_DrawTile(u8x8, x, y+1, 1, buf1);
 247:..\..\..\..\..\..\Dev\Library embedded l2c display\u8g2\csrc/u8x8_8x8.c **** }
 248:..\..\..\..\..\..\Dev\Library embedded l2c display\u8g2\csrc/u8x8_8x8.c **** 
 249:..\..\..\..\..\..\Dev\Library embedded l2c display\u8g2\csrc/u8x8_8x8.c **** void u8x8_Draw1x2Glyph(u8x8_t *u8x8, uint8_t x, uint8_t y, uint8_t encoding)
 250:..\..\..\..\..\..\Dev\Library embedded l2c display\u8g2\csrc/u8x8_8x8.c **** {
 251:..\..\..\..\..\..\Dev\Library embedded l2c display\u8g2\csrc/u8x8_8x8.c ****   uint8_t th = u8x8_pgm_read(u8x8->font+2);		/* new 2019 format */
 252:..\..\..\..\..\..\Dev\Library embedded l2c display\u8g2\csrc/u8x8_8x8.c ****   uint8_t tv = u8x8_pgm_read(u8x8->font+3);	/* new 2019 format */
 253:..\..\..\..\..\..\Dev\Library embedded l2c display\u8g2\csrc/u8x8_8x8.c ****   uint8_t xx, tile;
 254:..\..\..\..\..\..\Dev\Library embedded l2c display\u8g2\csrc/u8x8_8x8.c ****   th += x;
 255:..\..\..\..\..\..\Dev\Library embedded l2c display\u8g2\csrc/u8x8_8x8.c ****   tv *= 2;
 256:..\..\..\..\..\..\Dev\Library embedded l2c display\u8g2\csrc/u8x8_8x8.c ****   tv += y;
 257:..\..\..\..\..\..\Dev\Library embedded l2c display\u8g2\csrc/u8x8_8x8.c ****   tile = 0;
 258:..\..\..\..\..\..\Dev\Library embedded l2c display\u8g2\csrc/u8x8_8x8.c ****   do
 259:..\..\..\..\..\..\Dev\Library embedded l2c display\u8g2\csrc/u8x8_8x8.c ****   {
 260:..\..\..\..\..\..\Dev\Library embedded l2c display\u8g2\csrc/u8x8_8x8.c ****     xx = x;
 261:..\..\..\..\..\..\Dev\Library embedded l2c display\u8g2\csrc/u8x8_8x8.c ****     do
 262:..\..\..\..\..\..\Dev\Library embedded l2c display\u8g2\csrc/u8x8_8x8.c ****     {
 263:..\..\..\..\..\..\Dev\Library embedded l2c display\u8g2\csrc/u8x8_8x8.c ****       u8x8_draw_1x2_subglyph(u8x8, xx, y, encoding, tile);
 264:..\..\..\..\..\..\Dev\Library embedded l2c display\u8g2\csrc/u8x8_8x8.c ****       tile++;
 265:..\..\..\..\..\..\Dev\Library embedded l2c display\u8g2\csrc/u8x8_8x8.c ****       xx++;
 266:..\..\..\..\..\..\Dev\Library embedded l2c display\u8g2\csrc/u8x8_8x8.c ****     } while( xx < th );
 267:..\..\..\..\..\..\Dev\Library embedded l2c display\u8g2\csrc/u8x8_8x8.c ****     y+=2;
 268:..\..\..\..\..\..\Dev\Library embedded l2c display\u8g2\csrc/u8x8_8x8.c ****   } while( y < tv );  
 269:..\..\..\..\..\..\Dev\Library embedded l2c display\u8g2\csrc/u8x8_8x8.c **** }
 270:..\..\..\..\..\..\Dev\Library embedded l2c display\u8g2\csrc/u8x8_8x8.c **** 
 271:..\..\..\..\..\..\Dev\Library embedded l2c display\u8g2\csrc/u8x8_8x8.c **** /*
 272:..\..\..\..\..\..\Dev\Library embedded l2c display\u8g2\csrc/u8x8_8x8.c **** source: https://en.wikipedia.org/wiki/UTF-8
 273:..\..\..\..\..\..\Dev\Library embedded l2c display\u8g2\csrc/u8x8_8x8.c **** Bits	from 		to			bytes	Byte 1 		Byte 2 		Byte 3 		Byte 4 		Byte 5 		Byte 6
 274:..\..\..\..\..\..\Dev\Library embedded l2c display\u8g2\csrc/u8x8_8x8.c ****   7 	U+0000 		U+007F 		1 		0xxxxxxx
 275:..\..\..\..\..\..\Dev\Library embedded l2c display\u8g2\csrc/u8x8_8x8.c **** 11 	U+0080 		U+07FF 		2 		110xxxxx 	10xxxxxx
 276:..\..\..\..\..\..\Dev\Library embedded l2c display\u8g2\csrc/u8x8_8x8.c **** 16 	U+0800 		U+FFFF 		3 		1110xxxx 	10xxxxxx 	10xxxxxx
 277:..\..\..\..\..\..\Dev\Library embedded l2c display\u8g2\csrc/u8x8_8x8.c **** 21 	U+10000 	U+1FFFFF 	4 		11110xxx 	10xxxxxx 	10xxxxxx 	10xxxxxx
 278:..\..\..\..\..\..\Dev\Library embedded l2c display\u8g2\csrc/u8x8_8x8.c **** 26 	U+200000 	U+3FFFFFF 	5 		111110xx 	10xxxxxx 	10xxxxxx 	10xxxxxx 	10xxxxxx
 279:..\..\..\..\..\..\Dev\Library embedded l2c display\u8g2\csrc/u8x8_8x8.c **** 31 	U+4000000 	U+7FFFFFFF 	6 		1111110x 	10xxxxxx 	10xxxxxx 	10xxxxxx 	10xxxxxx 	10xxxxxx  
 280:..\..\..\..\..\..\Dev\Library embedded l2c display\u8g2\csrc/u8x8_8x8.c **** 
 281:..\..\..\..\..\..\Dev\Library embedded l2c display\u8g2\csrc/u8x8_8x8.c **** 
 282:..\..\..\..\..\..\Dev\Library embedded l2c display\u8g2\csrc/u8x8_8x8.c **** */
 283:..\..\..\..\..\..\Dev\Library embedded l2c display\u8g2\csrc/u8x8_8x8.c **** 
 284:..\..\..\..\..\..\Dev\Library embedded l2c display\u8g2\csrc/u8x8_8x8.c **** /* reset the internal state machine */
ARM GAS  C:\Users\Abude\AppData\Local\Temp\ccotp7Re.s 			page 10


 285:..\..\..\..\..\..\Dev\Library embedded l2c display\u8g2\csrc/u8x8_8x8.c **** void u8x8_utf8_init(u8x8_t *u8x8)
 286:..\..\..\..\..\..\Dev\Library embedded l2c display\u8g2\csrc/u8x8_8x8.c **** {
 287:..\..\..\..\..\..\Dev\Library embedded l2c display\u8g2\csrc/u8x8_8x8.c ****   u8x8->utf8_state = 0;	/* also reset during u8x8_SetupDefaults() */
 288:..\..\..\..\..\..\Dev\Library embedded l2c display\u8g2\csrc/u8x8_8x8.c **** }
 289:..\..\..\..\..\..\Dev\Library embedded l2c display\u8g2\csrc/u8x8_8x8.c **** 
 290:..\..\..\..\..\..\Dev\Library embedded l2c display\u8g2\csrc/u8x8_8x8.c **** uint16_t u8x8_ascii_next(U8X8_UNUSED u8x8_t *u8x8, uint8_t b)
 291:..\..\..\..\..\..\Dev\Library embedded l2c display\u8g2\csrc/u8x8_8x8.c **** {
 223              		.loc 1 291 0
 224              		.cfi_startproc
 225              		@ args = 0, pretend = 0, frame = 0
 226              		@ frame_needed = 0, uses_anonymous_args = 0
 227              		@ link register save eliminated.
 228              	.LVL41:
 292:..\..\..\..\..\..\Dev\Library embedded l2c display\u8g2\csrc/u8x8_8x8.c ****   if ( b == 0 || b == '\n' ) /* '\n' terminates the string to support the string list procedures */
 229              		.loc 1 292 0
 230 0000 19B1     		cbz	r1, .L19
 231              		.loc 1 292 0 is_stmt 0 discriminator 1
 232 0002 0A29     		cmp	r1, #10
 233 0004 04D0     		beq	.L20
 293:..\..\..\..\..\..\Dev\Library embedded l2c display\u8g2\csrc/u8x8_8x8.c ****     return 0x0ffff;	/* end of string detected*/
 294:..\..\..\..\..\..\Dev\Library embedded l2c display\u8g2\csrc/u8x8_8x8.c ****   return b;
 234              		.loc 1 294 0 is_stmt 1
 235 0006 88B2     		uxth	r0, r1
 236              	.LVL42:
 237 0008 7047     		bx	lr
 238              	.LVL43:
 239              	.L19:
 293:..\..\..\..\..\..\Dev\Library embedded l2c display\u8g2\csrc/u8x8_8x8.c ****     return 0x0ffff;	/* end of string detected*/
 240              		.loc 1 293 0
 241 000a 4FF6FF70 		movw	r0, #65535
 242              	.LVL44:
 243 000e 7047     		bx	lr
 244              	.LVL45:
 245              	.L20:
 246 0010 4FF6FF70 		movw	r0, #65535
 247              	.LVL46:
 295:..\..\..\..\..\..\Dev\Library embedded l2c display\u8g2\csrc/u8x8_8x8.c **** }
 248              		.loc 1 295 0
 249 0014 7047     		bx	lr
 250              		.cfi_endproc
 251              	.LFE10:
 252              		.size	u8x8_ascii_next, .-u8x8_ascii_next
 253 0016 00BF     		.section	.text.u8x8_utf8_next,"ax",%progbits
 254              		.align	2
 255              		.global	u8x8_utf8_next
 256              		.thumb
 257              		.thumb_func
 258              		.type	u8x8_utf8_next, %function
 259              	u8x8_utf8_next:
 260              	.LFB11:
 296:..\..\..\..\..\..\Dev\Library embedded l2c display\u8g2\csrc/u8x8_8x8.c **** 
 297:..\..\..\..\..\..\Dev\Library embedded l2c display\u8g2\csrc/u8x8_8x8.c **** /*
 298:..\..\..\..\..\..\Dev\Library embedded l2c display\u8g2\csrc/u8x8_8x8.c ****   pass a byte from an utf8 encoded string to the utf8 decoder state machine
 299:..\..\..\..\..\..\Dev\Library embedded l2c display\u8g2\csrc/u8x8_8x8.c ****   returns 
 300:..\..\..\..\..\..\Dev\Library embedded l2c display\u8g2\csrc/u8x8_8x8.c ****     0x0fffe: no glyph, just continue
 301:..\..\..\..\..\..\Dev\Library embedded l2c display\u8g2\csrc/u8x8_8x8.c ****     0x0ffff: end of string
 302:..\..\..\..\..\..\Dev\Library embedded l2c display\u8g2\csrc/u8x8_8x8.c ****     anything else: The decoded encoding
ARM GAS  C:\Users\Abude\AppData\Local\Temp\ccotp7Re.s 			page 11


 303:..\..\..\..\..\..\Dev\Library embedded l2c display\u8g2\csrc/u8x8_8x8.c **** */
 304:..\..\..\..\..\..\Dev\Library embedded l2c display\u8g2\csrc/u8x8_8x8.c **** uint16_t u8x8_utf8_next(u8x8_t *u8x8, uint8_t b)
 305:..\..\..\..\..\..\Dev\Library embedded l2c display\u8g2\csrc/u8x8_8x8.c **** {
 261              		.loc 1 305 0
 262              		.cfi_startproc
 263              		@ args = 0, pretend = 0, frame = 0
 264              		@ frame_needed = 0, uses_anonymous_args = 0
 265              		@ link register save eliminated.
 266              	.LVL47:
 306:..\..\..\..\..\..\Dev\Library embedded l2c display\u8g2\csrc/u8x8_8x8.c ****   if ( b == 0 || b == '\n' )	/* '\n' terminates the string to support the string list procedures */
 267              		.loc 1 306 0
 268 0000 0029     		cmp	r1, #0
 269 0002 43D0     		beq	.L30
 270 0004 0A46     		mov	r2, r1
 271              		.loc 1 306 0 is_stmt 0 discriminator 1
 272 0006 0A29     		cmp	r1, #10
 273 0008 43D0     		beq	.L31
 307:..\..\..\..\..\..\Dev\Library embedded l2c display\u8g2\csrc/u8x8_8x8.c ****     return 0x0ffff;	/* end of string detected, pending UTF8 is discarded */
 308:..\..\..\..\..\..\Dev\Library embedded l2c display\u8g2\csrc/u8x8_8x8.c ****   if ( u8x8->utf8_state == 0 )
 274              		.loc 1 308 0 is_stmt 1
 275 000a 90F82630 		ldrb	r3, [r0, #38]	@ zero_extendqisi2
 276 000e 6BBB     		cbnz	r3, .L23
 309:..\..\..\..\..\..\Dev\Library embedded l2c display\u8g2\csrc/u8x8_8x8.c ****   {
 310:..\..\..\..\..\..\Dev\Library embedded l2c display\u8g2\csrc/u8x8_8x8.c ****     if ( b >= 0xfc )	/* 6 byte sequence */
 277              		.loc 1 310 0
 278 0010 FB29     		cmp	r1, #251
 279 0012 05D9     		bls	.L24
 311:..\..\..\..\..\..\Dev\Library embedded l2c display\u8g2\csrc/u8x8_8x8.c ****     {
 312:..\..\..\..\..\..\Dev\Library embedded l2c display\u8g2\csrc/u8x8_8x8.c ****       u8x8->utf8_state = 5;
 280              		.loc 1 312 0
 281 0014 0523     		movs	r3, #5
 282 0016 80F82630 		strb	r3, [r0, #38]
 313:..\..\..\..\..\..\Dev\Library embedded l2c display\u8g2\csrc/u8x8_8x8.c ****       b &= 1;
 283              		.loc 1 313 0
 284 001a 01F00103 		and	r3, r1, #1
 285              	.LVL48:
 286 001e 21E0     		b	.L25
 287              	.LVL49:
 288              	.L24:
 314:..\..\..\..\..\..\Dev\Library embedded l2c display\u8g2\csrc/u8x8_8x8.c ****     }
 315:..\..\..\..\..\..\Dev\Library embedded l2c display\u8g2\csrc/u8x8_8x8.c ****     else if ( b >= 0xf8 )
 289              		.loc 1 315 0
 290 0020 F729     		cmp	r1, #247
 291 0022 05D9     		bls	.L26
 316:..\..\..\..\..\..\Dev\Library embedded l2c display\u8g2\csrc/u8x8_8x8.c ****     {
 317:..\..\..\..\..\..\Dev\Library embedded l2c display\u8g2\csrc/u8x8_8x8.c ****       u8x8->utf8_state = 4;
 292              		.loc 1 317 0
 293 0024 0423     		movs	r3, #4
 294 0026 80F82630 		strb	r3, [r0, #38]
 318:..\..\..\..\..\..\Dev\Library embedded l2c display\u8g2\csrc/u8x8_8x8.c ****       b &= 3;
 295              		.loc 1 318 0
 296 002a 01F00303 		and	r3, r1, #3
 297              	.LVL50:
 298 002e 19E0     		b	.L25
 299              	.LVL51:
 300              	.L26:
 319:..\..\..\..\..\..\Dev\Library embedded l2c display\u8g2\csrc/u8x8_8x8.c ****     }
ARM GAS  C:\Users\Abude\AppData\Local\Temp\ccotp7Re.s 			page 12


 320:..\..\..\..\..\..\Dev\Library embedded l2c display\u8g2\csrc/u8x8_8x8.c ****     else if ( b >= 0xf0 )
 301              		.loc 1 320 0
 302 0030 EF29     		cmp	r1, #239
 303 0032 05D9     		bls	.L27
 321:..\..\..\..\..\..\Dev\Library embedded l2c display\u8g2\csrc/u8x8_8x8.c ****     {
 322:..\..\..\..\..\..\Dev\Library embedded l2c display\u8g2\csrc/u8x8_8x8.c ****       u8x8->utf8_state = 3;
 304              		.loc 1 322 0
 305 0034 0323     		movs	r3, #3
 306 0036 80F82630 		strb	r3, [r0, #38]
 323:..\..\..\..\..\..\Dev\Library embedded l2c display\u8g2\csrc/u8x8_8x8.c ****       b &= 7;      
 307              		.loc 1 323 0
 308 003a 01F00703 		and	r3, r1, #7
 309              	.LVL52:
 310 003e 11E0     		b	.L25
 311              	.LVL53:
 312              	.L27:
 324:..\..\..\..\..\..\Dev\Library embedded l2c display\u8g2\csrc/u8x8_8x8.c ****     }
 325:..\..\..\..\..\..\Dev\Library embedded l2c display\u8g2\csrc/u8x8_8x8.c ****     else if ( b >= 0xe0 )
 313              		.loc 1 325 0
 314 0040 DF29     		cmp	r1, #223
 315 0042 05D9     		bls	.L28
 326:..\..\..\..\..\..\Dev\Library embedded l2c display\u8g2\csrc/u8x8_8x8.c ****     {
 327:..\..\..\..\..\..\Dev\Library embedded l2c display\u8g2\csrc/u8x8_8x8.c ****       u8x8->utf8_state = 2;
 316              		.loc 1 327 0
 317 0044 0223     		movs	r3, #2
 318 0046 80F82630 		strb	r3, [r0, #38]
 328:..\..\..\..\..\..\Dev\Library embedded l2c display\u8g2\csrc/u8x8_8x8.c ****       b &= 15;
 319              		.loc 1 328 0
 320 004a 01F00F03 		and	r3, r1, #15
 321              	.LVL54:
 322 004e 09E0     		b	.L25
 323              	.LVL55:
 324              	.L28:
 329:..\..\..\..\..\..\Dev\Library embedded l2c display\u8g2\csrc/u8x8_8x8.c ****     }
 330:..\..\..\..\..\..\Dev\Library embedded l2c display\u8g2\csrc/u8x8_8x8.c ****     else if ( b >= 0xc0 )
 325              		.loc 1 330 0
 326 0050 BF29     		cmp	r1, #191
 327 0052 05D9     		bls	.L29
 331:..\..\..\..\..\..\Dev\Library embedded l2c display\u8g2\csrc/u8x8_8x8.c ****     {
 332:..\..\..\..\..\..\Dev\Library embedded l2c display\u8g2\csrc/u8x8_8x8.c ****       u8x8->utf8_state = 1;
 328              		.loc 1 332 0
 329 0054 0123     		movs	r3, #1
 330 0056 80F82630 		strb	r3, [r0, #38]
 333:..\..\..\..\..\..\Dev\Library embedded l2c display\u8g2\csrc/u8x8_8x8.c ****       b &= 0x01f;
 331              		.loc 1 333 0
 332 005a 01F01F03 		and	r3, r1, #31
 333              	.LVL56:
 334 005e 01E0     		b	.L25
 335              	.LVL57:
 336              	.L29:
 334:..\..\..\..\..\..\Dev\Library embedded l2c display\u8g2\csrc/u8x8_8x8.c ****     }
 335:..\..\..\..\..\..\Dev\Library embedded l2c display\u8g2\csrc/u8x8_8x8.c ****     else
 336:..\..\..\..\..\..\Dev\Library embedded l2c display\u8g2\csrc/u8x8_8x8.c ****     {
 337:..\..\..\..\..\..\Dev\Library embedded l2c display\u8g2\csrc/u8x8_8x8.c ****       /* do nothing, just use the value as encoding */
 338:..\..\..\..\..\..\Dev\Library embedded l2c display\u8g2\csrc/u8x8_8x8.c ****       return b;
 337              		.loc 1 338 0
 338 0060 8BB2     		uxth	r3, r1
ARM GAS  C:\Users\Abude\AppData\Local\Temp\ccotp7Re.s 			page 13


 339 0062 18E0     		b	.L33
 340              	.LVL58:
 341              	.L25:
 339:..\..\..\..\..\..\Dev\Library embedded l2c display\u8g2\csrc/u8x8_8x8.c ****     }
 340:..\..\..\..\..\..\Dev\Library embedded l2c display\u8g2\csrc/u8x8_8x8.c ****     u8x8->encoding = b;
 342              		.loc 1 340 0
 343 0064 0384     		strh	r3, [r0, #32]	@ movhi
 341:..\..\..\..\..\..\Dev\Library embedded l2c display\u8g2\csrc/u8x8_8x8.c ****     return 0x0fffe;
 344              		.loc 1 341 0
 345 0066 4FF6FE73 		movw	r3, #65534
 346              	.LVL59:
 347 006a 14E0     		b	.L33
 348              	.LVL60:
 349              	.L23:
 305:..\..\..\..\..\..\Dev\Library embedded l2c display\u8g2\csrc/u8x8_8x8.c ****   if ( b == 0 || b == '\n' )	/* '\n' terminates the string to support the string list procedures */
 350              		.loc 1 305 0
 351 006c 10B4     		push	{r4}
 352              		.cfi_def_cfa_offset 4
 353              		.cfi_offset 4, -4
 342:..\..\..\..\..\..\Dev\Library embedded l2c display\u8g2\csrc/u8x8_8x8.c ****   }
 343:..\..\..\..\..\..\Dev\Library embedded l2c display\u8g2\csrc/u8x8_8x8.c ****   else
 344:..\..\..\..\..\..\Dev\Library embedded l2c display\u8g2\csrc/u8x8_8x8.c ****   {
 345:..\..\..\..\..\..\Dev\Library embedded l2c display\u8g2\csrc/u8x8_8x8.c ****     u8x8->utf8_state--;
 354              		.loc 1 345 0
 355 006e 013B     		subs	r3, r3, #1
 356 0070 D9B2     		uxtb	r1, r3
 357              	.LVL61:
 358 0072 80F82610 		strb	r1, [r0, #38]
 346:..\..\..\..\..\..\Dev\Library embedded l2c display\u8g2\csrc/u8x8_8x8.c ****     /* The case b < 0x080 (an illegal UTF8 encoding) is not checked here. */
 347:..\..\..\..\..\..\Dev\Library embedded l2c display\u8g2\csrc/u8x8_8x8.c ****     u8x8->encoding<<=6;
 359              		.loc 1 347 0
 360 0076 038C     		ldrh	r3, [r0, #32]
 361 0078 9B01     		lsls	r3, r3, #6
 362 007a 9CB2     		uxth	r4, r3
 348:..\..\..\..\..\..\Dev\Library embedded l2c display\u8g2\csrc/u8x8_8x8.c ****     b &= 0x03f;
 363              		.loc 1 348 0
 364 007c 02F03F03 		and	r3, r2, #63
 365              	.LVL62:
 349:..\..\..\..\..\..\Dev\Library embedded l2c display\u8g2\csrc/u8x8_8x8.c ****     u8x8->encoding |= b;
 366              		.loc 1 349 0
 367 0080 2343     		orrs	r3, r3, r4
 368              	.LVL63:
 369 0082 0384     		strh	r3, [r0, #32]	@ movhi
 350:..\..\..\..\..\..\Dev\Library embedded l2c display\u8g2\csrc/u8x8_8x8.c ****     if ( u8x8->utf8_state != 0 )
 370              		.loc 1 350 0
 371 0084 49B1     		cbz	r1, .L22
 351:..\..\..\..\..\..\Dev\Library embedded l2c display\u8g2\csrc/u8x8_8x8.c ****       return 0x0fffe;	/* nothing to do yet */
 372              		.loc 1 351 0
 373 0086 4FF6FE73 		movw	r3, #65534
 374 008a 06E0     		b	.L22
 375              	.LVL64:
 376              	.L30:
 377              		.cfi_def_cfa_offset 0
 378              		.cfi_restore 4
 307:..\..\..\..\..\..\Dev\Library embedded l2c display\u8g2\csrc/u8x8_8x8.c ****   if ( u8x8->utf8_state == 0 )
 379              		.loc 1 307 0
 380 008c 4FF6FF73 		movw	r3, #65535
ARM GAS  C:\Users\Abude\AppData\Local\Temp\ccotp7Re.s 			page 14


 381 0090 01E0     		b	.L33
 382              	.L31:
 383 0092 4FF6FF73 		movw	r3, #65535
 384              	.LVL65:
 385              	.L33:
 352:..\..\..\..\..\..\Dev\Library embedded l2c display\u8g2\csrc/u8x8_8x8.c ****   }
 353:..\..\..\..\..\..\Dev\Library embedded l2c display\u8g2\csrc/u8x8_8x8.c ****   return u8x8->encoding;
 354:..\..\..\..\..\..\Dev\Library embedded l2c display\u8g2\csrc/u8x8_8x8.c **** }
 386              		.loc 1 354 0
 387 0096 1846     		mov	r0, r3
 388              	.LVL66:
 389 0098 7047     		bx	lr
 390              	.LVL67:
 391              	.L22:
 392              		.cfi_def_cfa_offset 4
 393              		.cfi_offset 4, -4
 394 009a 1846     		mov	r0, r3
 395              	.LVL68:
 396 009c 10BC     		pop	{r4}
 397              		.cfi_restore 4
 398              		.cfi_def_cfa_offset 0
 399 009e 7047     		bx	lr
 400              		.cfi_endproc
 401              	.LFE11:
 402              		.size	u8x8_utf8_next, .-u8x8_utf8_next
 403              		.section	.text.u8x8_SetFont,"ax",%progbits
 404              		.align	2
 405              		.global	u8x8_SetFont
 406              		.thumb
 407              		.thumb_func
 408              		.type	u8x8_SetFont, %function
 409              	u8x8_SetFont:
 410              	.LFB0:
  51:..\..\..\..\..\..\Dev\Library embedded l2c display\u8g2\csrc/u8x8_8x8.c ****   u8x8->font = font_8x8;
 411              		.loc 1 51 0
 412              		.cfi_startproc
 413              		@ args = 0, pretend = 0, frame = 0
 414              		@ frame_needed = 0, uses_anonymous_args = 0
 415              		@ link register save eliminated.
 416              	.LVL69:
  52:..\..\..\..\..\..\Dev\Library embedded l2c display\u8g2\csrc/u8x8_8x8.c **** }
 417              		.loc 1 52 0
 418 0000 C161     		str	r1, [r0, #28]
 419 0002 7047     		bx	lr
 420              		.cfi_endproc
 421              	.LFE0:
 422              		.size	u8x8_SetFont, .-u8x8_SetFont
 423              		.section	.text.u8x8_DrawGlyph,"ax",%progbits
 424              		.align	2
 425              		.global	u8x8_DrawGlyph
 426              		.thumb
 427              		.thumb_func
 428              		.type	u8x8_DrawGlyph, %function
 429              	u8x8_DrawGlyph:
 430              	.LFB2:
 106:..\..\..\..\..\..\Dev\Library embedded l2c display\u8g2\csrc/u8x8_8x8.c ****   uint8_t th = u8x8_pgm_read(u8x8->font+2);		/* new 2019 format */
 431              		.loc 1 106 0
ARM GAS  C:\Users\Abude\AppData\Local\Temp\ccotp7Re.s 			page 15


 432              		.cfi_startproc
 433              		@ args = 0, pretend = 0, frame = 16
 434              		@ frame_needed = 0, uses_anonymous_args = 0
 435              	.LVL70:
 436 0000 2DE9F04F 		push	{r4, r5, r6, r7, r8, r9, r10, fp, lr}
 437              		.cfi_def_cfa_offset 36
 438              		.cfi_offset 4, -36
 439              		.cfi_offset 5, -32
 440              		.cfi_offset 6, -28
 441              		.cfi_offset 7, -24
 442              		.cfi_offset 8, -20
 443              		.cfi_offset 9, -16
 444              		.cfi_offset 10, -12
 445              		.cfi_offset 11, -8
 446              		.cfi_offset 14, -4
 447 0004 87B0     		sub	sp, sp, #28
 448              		.cfi_def_cfa_offset 64
 449 0006 0746     		mov	r7, r0
 450 0008 0391     		str	r1, [sp, #12]
 451 000a 9046     		mov	r8, r2
 452 000c 9A46     		mov	r10, r3
 107:..\..\..\..\..\..\Dev\Library embedded l2c display\u8g2\csrc/u8x8_8x8.c ****   uint8_t tv = u8x8_pgm_read(u8x8->font+3);	/* new 2019 format */
 453              		.loc 1 107 0
 454 000e C369     		ldr	r3, [r0, #28]
 455              	.LVL71:
 456 0010 93F80290 		ldrb	r9, [r3, #2]	@ zero_extendqisi2
 457              	.LVL72:
 108:..\..\..\..\..\..\Dev\Library embedded l2c display\u8g2\csrc/u8x8_8x8.c ****   uint8_t xx, tile;
 458              		.loc 1 108 0
 459 0014 93F803B0 		ldrb	fp, [r3, #3]	@ zero_extendqisi2
 460              	.LVL73:
 111:..\..\..\..\..\..\Dev\Library embedded l2c display\u8g2\csrc/u8x8_8x8.c ****   tv += y;
 461              		.loc 1 111 0
 462 0018 8944     		add	r9, r9, r1
 463              	.LVL74:
 464 001a 5FFA89F9 		uxtb	r9, r9
 465              	.LVL75:
 112:..\..\..\..\..\..\Dev\Library embedded l2c display\u8g2\csrc/u8x8_8x8.c ****   tile = 0;
 466              		.loc 1 112 0
 467 001e 9344     		add	fp, fp, r2
 468              	.LVL76:
 469 0020 5FFA8BFB 		uxtb	fp, fp
 470              	.LVL77:
 113:..\..\..\..\..\..\Dev\Library embedded l2c display\u8g2\csrc/u8x8_8x8.c ****   do
 471              		.loc 1 113 0
 472 0024 0025     		movs	r5, #0
 473              	.LVL78:
 474              	.L37:
 116:..\..\..\..\..\..\Dev\Library embedded l2c display\u8g2\csrc/u8x8_8x8.c ****     do
 475              		.loc 1 116 0
 476 0026 039C     		ldr	r4, [sp, #12]
 477              	.LVL79:
 478              	.L36:
 119:..\..\..\..\..\..\Dev\Library embedded l2c display\u8g2\csrc/u8x8_8x8.c ****       u8x8_DrawTile(u8x8, xx, y, 1, buf);
 479              		.loc 1 119 0 discriminator 1
 480 0028 04AE     		add	r6, sp, #16
 481 002a 2B46     		mov	r3, r5
ARM GAS  C:\Users\Abude\AppData\Local\Temp\ccotp7Re.s 			page 16


 482 002c 3246     		mov	r2, r6
 483 002e 5146     		mov	r1, r10
 484 0030 3846     		mov	r0, r7
 485 0032 FFF7FEFF 		bl	u8x8_get_glyph_data
 486              	.LVL80:
 120:..\..\..\..\..\..\Dev\Library embedded l2c display\u8g2\csrc/u8x8_8x8.c ****       tile++;
 487              		.loc 1 120 0 discriminator 1
 488 0036 0096     		str	r6, [sp]
 489 0038 0123     		movs	r3, #1
 490 003a 4246     		mov	r2, r8
 491 003c 2146     		mov	r1, r4
 492 003e 3846     		mov	r0, r7
 493 0040 FFF7FEFF 		bl	u8x8_DrawTile
 494              	.LVL81:
 121:..\..\..\..\..\..\Dev\Library embedded l2c display\u8g2\csrc/u8x8_8x8.c ****       xx++;
 495              		.loc 1 121 0 discriminator 1
 496 0044 0135     		adds	r5, r5, #1
 497              	.LVL82:
 498 0046 EDB2     		uxtb	r5, r5
 499              	.LVL83:
 122:..\..\..\..\..\..\Dev\Library embedded l2c display\u8g2\csrc/u8x8_8x8.c ****     } while( xx < th );
 500              		.loc 1 122 0 discriminator 1
 501 0048 0134     		adds	r4, r4, #1
 502              	.LVL84:
 503 004a E4B2     		uxtb	r4, r4
 504              	.LVL85:
 123:..\..\..\..\..\..\Dev\Library embedded l2c display\u8g2\csrc/u8x8_8x8.c ****     y++;
 505              		.loc 1 123 0 discriminator 1
 506 004c A145     		cmp	r9, r4
 507 004e EBD8     		bhi	.L36
 124:..\..\..\..\..\..\Dev\Library embedded l2c display\u8g2\csrc/u8x8_8x8.c ****   } while( y < tv );
 508              		.loc 1 124 0
 509 0050 08F10108 		add	r8, r8, #1
 510              	.LVL86:
 511 0054 5FFA88F8 		uxtb	r8, r8
 512              	.LVL87:
 125:..\..\..\..\..\..\Dev\Library embedded l2c display\u8g2\csrc/u8x8_8x8.c **** }
 513              		.loc 1 125 0
 514 0058 C345     		cmp	fp, r8
 515 005a E4D8     		bhi	.L37
 126:..\..\..\..\..\..\Dev\Library embedded l2c display\u8g2\csrc/u8x8_8x8.c **** 
 516              		.loc 1 126 0
 517 005c 07B0     		add	sp, sp, #28
 518              		.cfi_def_cfa_offset 36
 519              		@ sp needed
 520 005e BDE8F08F 		pop	{r4, r5, r6, r7, r8, r9, r10, fp, pc}
 521              		.cfi_endproc
 522              	.LFE2:
 523              		.size	u8x8_DrawGlyph, .-u8x8_DrawGlyph
 524 0062 00BF     		.section	.text.u8x8_upscale_byte,"ax",%progbits
 525              		.align	2
 526              		.global	u8x8_upscale_byte
 527              		.thumb
 528              		.thumb_func
 529              		.type	u8x8_upscale_byte, %function
 530              	u8x8_upscale_byte:
 531              	.LFB3:
ARM GAS  C:\Users\Abude\AppData\Local\Temp\ccotp7Re.s 			page 17


 154:..\..\..\..\..\..\Dev\Library embedded l2c display\u8g2\csrc/u8x8_8x8.c **** 	uint16_t y = x;
 532              		.loc 1 154 0
 533              		.cfi_startproc
 534              		@ args = 0, pretend = 0, frame = 0
 535              		@ frame_needed = 0, uses_anonymous_args = 0
 536              		@ link register save eliminated.
 537              	.LVL88:
 156:..\..\..\..\..\..\Dev\Library embedded l2c display\u8g2\csrc/u8x8_8x8.c **** 	y &= 0x0f0f;
 538              		.loc 1 156 0
 539 0000 40EA0010 		orr	r0, r0, r0, lsl #4
 540              	.LVL89:
 157:..\..\..\..\..\..\Dev\Library embedded l2c display\u8g2\csrc/u8x8_8x8.c **** 	y |= (y << 2);		// x = (x | (x << S[1])) & B[1];
 541              		.loc 1 157 0
 542 0004 20F0F000 		bic	r0, r0, #240
 543              	.LVL90:
 544 0008 0005     		lsls	r0, r0, #20
 545 000a 000D     		lsrs	r0, r0, #20
 546              	.LVL91:
 158:..\..\..\..\..\..\Dev\Library embedded l2c display\u8g2\csrc/u8x8_8x8.c **** 	y &= 0x3333;
 547              		.loc 1 158 0
 548 000c 40EA8000 		orr	r0, r0, r0, lsl #2
 549              	.LVL92:
 159:..\..\..\..\..\..\Dev\Library embedded l2c display\u8g2\csrc/u8x8_8x8.c **** 	y |= (y << 1);		// x = (x | (x << S[0])) & B[0];
 550              		.loc 1 159 0
 551 0010 20F44C60 		bic	r0, r0, #3264
 552              	.LVL93:
 553 0014 20F00C00 		bic	r0, r0, #12
 554 0018 8004     		lsls	r0, r0, #18
 555 001a 800C     		lsrs	r0, r0, #18
 556              	.LVL94:
 160:..\..\..\..\..\..\Dev\Library embedded l2c display\u8g2\csrc/u8x8_8x8.c **** 	y &= 0x5555;
 557              		.loc 1 160 0
 558 001c 40EA4000 		orr	r0, r0, r0, lsl #1
 559              	.LVL95:
 161:..\..\..\..\..\..\Dev\Library embedded l2c display\u8g2\csrc/u8x8_8x8.c ****   
 560              		.loc 1 161 0
 561 0020 20F42A50 		bic	r0, r0, #10880
 562              	.LVL96:
 563 0024 20F02A00 		bic	r0, r0, #42
 564 0028 4004     		lsls	r0, r0, #17
 565 002a 400C     		lsrs	r0, r0, #17
 566              	.LVL97:
 165:..\..\..\..\..\..\Dev\Library embedded l2c display\u8g2\csrc/u8x8_8x8.c **** 
 567              		.loc 1 165 0
 568 002c 40EA4000 		orr	r0, r0, r0, lsl #1
 569              	.LVL98:
 570 0030 7047     		bx	lr
 571              		.cfi_endproc
 572              	.LFE3:
 573              		.size	u8x8_upscale_byte, .-u8x8_upscale_byte
 574 0032 00BF     		.section	.text.u8x8_draw_2x2_subglyph,"ax",%progbits
 575              		.align	2
 576              		.thumb
 577              		.thumb_func
 578              		.type	u8x8_draw_2x2_subglyph, %function
 579              	u8x8_draw_2x2_subglyph:
 580              	.LFB5:
ARM GAS  C:\Users\Abude\AppData\Local\Temp\ccotp7Re.s 			page 18


 180:..\..\..\..\..\..\Dev\Library embedded l2c display\u8g2\csrc/u8x8_8x8.c ****   uint8_t i;
 581              		.loc 1 180 0
 582              		.cfi_startproc
 583              		@ args = 4, pretend = 0, frame = 24
 584              		@ frame_needed = 0, uses_anonymous_args = 0
 585              	.LVL99:
 586 0000 2DE9F041 		push	{r4, r5, r6, r7, r8, lr}
 587              		.cfi_def_cfa_offset 24
 588              		.cfi_offset 4, -24
 589              		.cfi_offset 5, -20
 590              		.cfi_offset 6, -16
 591              		.cfi_offset 7, -12
 592              		.cfi_offset 8, -8
 593              		.cfi_offset 14, -4
 594 0004 88B0     		sub	sp, sp, #32
 595              		.cfi_def_cfa_offset 56
 596 0006 0746     		mov	r7, r0
 597 0008 8846     		mov	r8, r1
 598 000a 1646     		mov	r6, r2
 599 000c 1946     		mov	r1, r3
 600              	.LVL100:
 186:..\..\..\..\..\..\Dev\Library embedded l2c display\u8g2\csrc/u8x8_8x8.c ****   for( i = 0; i < 8; i ++ )
 601              		.loc 1 186 0
 602 000e 9DF83830 		ldrb	r3, [sp, #56]	@ zero_extendqisi2
 603              	.LVL101:
 604 0012 06AA     		add	r2, sp, #24
 605              	.LVL102:
 606 0014 FFF7FEFF 		bl	u8x8_get_glyph_data
 607              	.LVL103:
 187:..\..\..\..\..\..\Dev\Library embedded l2c display\u8g2\csrc/u8x8_8x8.c ****   {
 608              		.loc 1 187 0
 609 0018 0024     		movs	r4, #0
 610 001a 0CE0     		b	.L41
 611              	.LVL104:
 612              	.L42:
 189:..\..\..\..\..\..\Dev\Library embedded l2c display\u8g2\csrc/u8x8_8x8.c ****       buf1[i] = t >> 8;
 613              		.loc 1 189 0 discriminator 3
 614 001c 08AB     		add	r3, sp, #32
 615 001e 1D19     		adds	r5, r3, r4
 616 0020 15F8080C 		ldrb	r0, [r5, #-8]	@ zero_extendqisi2
 617 0024 FFF7FEFF 		bl	u8x8_upscale_byte
 618              	.LVL105:
 190:..\..\..\..\..\..\Dev\Library embedded l2c display\u8g2\csrc/u8x8_8x8.c ****       buf2[i] = t & 255;
 619              		.loc 1 190 0 discriminator 3
 620 0028 030A     		lsrs	r3, r0, #8
 621 002a 05F8103C 		strb	r3, [r5, #-16]
 191:..\..\..\..\..\..\Dev\Library embedded l2c display\u8g2\csrc/u8x8_8x8.c ****   }
 622              		.loc 1 191 0 discriminator 3
 623 002e 05F8180C 		strb	r0, [r5, #-24]
 187:..\..\..\..\..\..\Dev\Library embedded l2c display\u8g2\csrc/u8x8_8x8.c ****   {
 624              		.loc 1 187 0 discriminator 3
 625 0032 0134     		adds	r4, r4, #1
 626              	.LVL106:
 627 0034 E4B2     		uxtb	r4, r4
 628              	.LVL107:
 629              	.L41:
 187:..\..\..\..\..\..\Dev\Library embedded l2c display\u8g2\csrc/u8x8_8x8.c ****   {
ARM GAS  C:\Users\Abude\AppData\Local\Temp\ccotp7Re.s 			page 19


 630              		.loc 1 187 0 is_stmt 0 discriminator 1
 631 0036 072C     		cmp	r4, #7
 632 0038 F0D9     		bls	.L42
 193:..\..\..\..\..\..\Dev\Library embedded l2c display\u8g2\csrc/u8x8_8x8.c ****   u8x8_DrawTile(u8x8, x, y, 1, buf);
 633              		.loc 1 193 0 is_stmt 1
 634 003a 06AC     		add	r4, sp, #24
 635              	.LVL108:
 636 003c 2146     		mov	r1, r4
 637 003e 02A8     		add	r0, sp, #8
 638 0040 FFF7FEFF 		bl	u8x8_upscale_buf
 639              	.LVL109:
 194:..\..\..\..\..\..\Dev\Library embedded l2c display\u8g2\csrc/u8x8_8x8.c ****   
 640              		.loc 1 194 0
 641 0044 0094     		str	r4, [sp]
 642 0046 0123     		movs	r3, #1
 643 0048 3246     		mov	r2, r6
 644 004a 4146     		mov	r1, r8
 645 004c 3846     		mov	r0, r7
 646 004e FFF7FEFF 		bl	u8x8_DrawTile
 647              	.LVL110:
 196:..\..\..\..\..\..\Dev\Library embedded l2c display\u8g2\csrc/u8x8_8x8.c ****   u8x8_DrawTile(u8x8, x+1, y, 1, buf);
 648              		.loc 1 196 0
 649 0052 2146     		mov	r1, r4
 650 0054 03A8     		add	r0, sp, #12
 651 0056 FFF7FEFF 		bl	u8x8_upscale_buf
 652              	.LVL111:
 197:..\..\..\..\..\..\Dev\Library embedded l2c display\u8g2\csrc/u8x8_8x8.c ****   
 653              		.loc 1 197 0
 654 005a 08F10105 		add	r5, r8, #1
 655 005e EDB2     		uxtb	r5, r5
 656 0060 0094     		str	r4, [sp]
 657 0062 0123     		movs	r3, #1
 658 0064 3246     		mov	r2, r6
 659 0066 2946     		mov	r1, r5
 660 0068 3846     		mov	r0, r7
 661 006a FFF7FEFF 		bl	u8x8_DrawTile
 662              	.LVL112:
 199:..\..\..\..\..\..\Dev\Library embedded l2c display\u8g2\csrc/u8x8_8x8.c ****   u8x8_DrawTile(u8x8, x, y+1, 1, buf);
 663              		.loc 1 199 0
 664 006e 2146     		mov	r1, r4
 665 0070 04A8     		add	r0, sp, #16
 666 0072 FFF7FEFF 		bl	u8x8_upscale_buf
 667              	.LVL113:
 200:..\..\..\..\..\..\Dev\Library embedded l2c display\u8g2\csrc/u8x8_8x8.c ****   
 668              		.loc 1 200 0
 669 0076 0136     		adds	r6, r6, #1
 670 0078 F6B2     		uxtb	r6, r6
 671 007a 0094     		str	r4, [sp]
 672 007c 0123     		movs	r3, #1
 673 007e 3246     		mov	r2, r6
 674 0080 4146     		mov	r1, r8
 675 0082 3846     		mov	r0, r7
 676 0084 FFF7FEFF 		bl	u8x8_DrawTile
 677              	.LVL114:
 202:..\..\..\..\..\..\Dev\Library embedded l2c display\u8g2\csrc/u8x8_8x8.c ****   u8x8_DrawTile(u8x8, x+1, y+1, 1, buf);  
 678              		.loc 1 202 0
 679 0088 2146     		mov	r1, r4
ARM GAS  C:\Users\Abude\AppData\Local\Temp\ccotp7Re.s 			page 20


 680 008a 05A8     		add	r0, sp, #20
 681 008c FFF7FEFF 		bl	u8x8_upscale_buf
 682              	.LVL115:
 203:..\..\..\..\..\..\Dev\Library embedded l2c display\u8g2\csrc/u8x8_8x8.c **** }
 683              		.loc 1 203 0
 684 0090 0094     		str	r4, [sp]
 685 0092 0123     		movs	r3, #1
 686 0094 3246     		mov	r2, r6
 687 0096 2946     		mov	r1, r5
 688 0098 3846     		mov	r0, r7
 689 009a FFF7FEFF 		bl	u8x8_DrawTile
 690              	.LVL116:
 204:..\..\..\..\..\..\Dev\Library embedded l2c display\u8g2\csrc/u8x8_8x8.c **** 
 691              		.loc 1 204 0
 692 009e 08B0     		add	sp, sp, #32
 693              		.cfi_def_cfa_offset 24
 694              		@ sp needed
 695 00a0 BDE8F081 		pop	{r4, r5, r6, r7, r8, pc}
 696              		.cfi_endproc
 697              	.LFE5:
 698              		.size	u8x8_draw_2x2_subglyph, .-u8x8_draw_2x2_subglyph
 699              		.section	.text.u8x8_draw_1x2_subglyph,"ax",%progbits
 700              		.align	2
 701              		.thumb
 702              		.thumb_func
 703              		.type	u8x8_draw_1x2_subglyph, %function
 704              	u8x8_draw_1x2_subglyph:
 705              	.LFB7:
 232:..\..\..\..\..\..\Dev\Library embedded l2c display\u8g2\csrc/u8x8_8x8.c ****   uint8_t i;
 706              		.loc 1 232 0
 707              		.cfi_startproc
 708              		@ args = 4, pretend = 0, frame = 24
 709              		@ frame_needed = 0, uses_anonymous_args = 0
 710              	.LVL117:
 711 0000 2DE9F041 		push	{r4, r5, r6, r7, r8, lr}
 712              		.cfi_def_cfa_offset 24
 713              		.cfi_offset 4, -24
 714              		.cfi_offset 5, -20
 715              		.cfi_offset 6, -16
 716              		.cfi_offset 7, -12
 717              		.cfi_offset 8, -8
 718              		.cfi_offset 14, -4
 719 0004 88B0     		sub	sp, sp, #32
 720              		.cfi_def_cfa_offset 56
 721 0006 0746     		mov	r7, r0
 722 0008 8846     		mov	r8, r1
 723 000a 1646     		mov	r6, r2
 724 000c 1946     		mov	r1, r3
 725              	.LVL118:
 238:..\..\..\..\..\..\Dev\Library embedded l2c display\u8g2\csrc/u8x8_8x8.c ****   for( i = 0; i < 8; i ++ )
 726              		.loc 1 238 0
 727 000e 9DF83830 		ldrb	r3, [sp, #56]	@ zero_extendqisi2
 728              	.LVL119:
 729 0012 06AA     		add	r2, sp, #24
 730              	.LVL120:
 731 0014 FFF7FEFF 		bl	u8x8_get_glyph_data
 732              	.LVL121:
ARM GAS  C:\Users\Abude\AppData\Local\Temp\ccotp7Re.s 			page 21


 239:..\..\..\..\..\..\Dev\Library embedded l2c display\u8g2\csrc/u8x8_8x8.c ****   {
 733              		.loc 1 239 0
 734 0018 0024     		movs	r4, #0
 735 001a 0CE0     		b	.L45
 736              	.LVL122:
 737              	.L46:
 241:..\..\..\..\..\..\Dev\Library embedded l2c display\u8g2\csrc/u8x8_8x8.c ****       buf1[i] = t >> 8;
 738              		.loc 1 241 0 discriminator 3
 739 001c 08AB     		add	r3, sp, #32
 740 001e 1D19     		adds	r5, r3, r4
 741 0020 15F8080C 		ldrb	r0, [r5, #-8]	@ zero_extendqisi2
 742 0024 FFF7FEFF 		bl	u8x8_upscale_byte
 743              	.LVL123:
 242:..\..\..\..\..\..\Dev\Library embedded l2c display\u8g2\csrc/u8x8_8x8.c ****       buf2[i] = t & 255;
 744              		.loc 1 242 0 discriminator 3
 745 0028 030A     		lsrs	r3, r0, #8
 746 002a 05F8103C 		strb	r3, [r5, #-16]
 243:..\..\..\..\..\..\Dev\Library embedded l2c display\u8g2\csrc/u8x8_8x8.c ****   }
 747              		.loc 1 243 0 discriminator 3
 748 002e 05F8180C 		strb	r0, [r5, #-24]
 239:..\..\..\..\..\..\Dev\Library embedded l2c display\u8g2\csrc/u8x8_8x8.c ****   {
 749              		.loc 1 239 0 discriminator 3
 750 0032 0134     		adds	r4, r4, #1
 751              	.LVL124:
 752 0034 E4B2     		uxtb	r4, r4
 753              	.LVL125:
 754              	.L45:
 239:..\..\..\..\..\..\Dev\Library embedded l2c display\u8g2\csrc/u8x8_8x8.c ****   {
 755              		.loc 1 239 0 is_stmt 0 discriminator 1
 756 0036 072C     		cmp	r4, #7
 757 0038 F0D9     		bls	.L46
 245:..\..\..\..\..\..\Dev\Library embedded l2c display\u8g2\csrc/u8x8_8x8.c ****   u8x8_DrawTile(u8x8, x, y+1, 1, buf1);
 758              		.loc 1 245 0 is_stmt 1
 759 003a 02AB     		add	r3, sp, #8
 760 003c 0093     		str	r3, [sp]
 761 003e 0123     		movs	r3, #1
 762 0040 3246     		mov	r2, r6
 763 0042 4146     		mov	r1, r8
 764 0044 3846     		mov	r0, r7
 765 0046 FFF7FEFF 		bl	u8x8_DrawTile
 766              	.LVL126:
 246:..\..\..\..\..\..\Dev\Library embedded l2c display\u8g2\csrc/u8x8_8x8.c **** }
 767              		.loc 1 246 0
 768 004a 721C     		adds	r2, r6, #1
 769 004c 04AB     		add	r3, sp, #16
 770 004e 0093     		str	r3, [sp]
 771 0050 0123     		movs	r3, #1
 772 0052 D2B2     		uxtb	r2, r2
 773 0054 4146     		mov	r1, r8
 774 0056 3846     		mov	r0, r7
 775 0058 FFF7FEFF 		bl	u8x8_DrawTile
 776              	.LVL127:
 247:..\..\..\..\..\..\Dev\Library embedded l2c display\u8g2\csrc/u8x8_8x8.c **** 
 777              		.loc 1 247 0
 778 005c 08B0     		add	sp, sp, #32
 779              		.cfi_def_cfa_offset 24
 780              		@ sp needed
ARM GAS  C:\Users\Abude\AppData\Local\Temp\ccotp7Re.s 			page 22


 781 005e BDE8F081 		pop	{r4, r5, r6, r7, r8, pc}
 782              		.cfi_endproc
 783              	.LFE7:
 784              		.size	u8x8_draw_1x2_subglyph, .-u8x8_draw_1x2_subglyph
 785 0062 00BF     		.section	.text.u8x8_Draw2x2Glyph,"ax",%progbits
 786              		.align	2
 787              		.global	u8x8_Draw2x2Glyph
 788              		.thumb
 789              		.thumb_func
 790              		.type	u8x8_Draw2x2Glyph, %function
 791              	u8x8_Draw2x2Glyph:
 792              	.LFB6:
 208:..\..\..\..\..\..\Dev\Library embedded l2c display\u8g2\csrc/u8x8_8x8.c ****   uint8_t th = u8x8_pgm_read(u8x8->font+2);		/* new 2019 format */
 793              		.loc 1 208 0
 794              		.cfi_startproc
 795              		@ args = 0, pretend = 0, frame = 0
 796              		@ frame_needed = 0, uses_anonymous_args = 0
 797              	.LVL128:
 798 0000 2DE9F04F 		push	{r4, r5, r6, r7, r8, r9, r10, fp, lr}
 799              		.cfi_def_cfa_offset 36
 800              		.cfi_offset 4, -36
 801              		.cfi_offset 5, -32
 802              		.cfi_offset 6, -28
 803              		.cfi_offset 7, -24
 804              		.cfi_offset 8, -20
 805              		.cfi_offset 9, -16
 806              		.cfi_offset 10, -12
 807              		.cfi_offset 11, -8
 808              		.cfi_offset 14, -4
 809 0004 83B0     		sub	sp, sp, #12
 810              		.cfi_def_cfa_offset 48
 811 0006 8046     		mov	r8, r0
 812 0008 8B46     		mov	fp, r1
 813 000a 1646     		mov	r6, r2
 814 000c 9946     		mov	r9, r3
 209:..\..\..\..\..\..\Dev\Library embedded l2c display\u8g2\csrc/u8x8_8x8.c ****   uint8_t tv = u8x8_pgm_read(u8x8->font+3);	/* new 2019 format */
 815              		.loc 1 209 0
 816 000e C369     		ldr	r3, [r0, #28]
 817              	.LVL129:
 818 0010 9F78     		ldrb	r7, [r3, #2]	@ zero_extendqisi2
 819              	.LVL130:
 210:..\..\..\..\..\..\Dev\Library embedded l2c display\u8g2\csrc/u8x8_8x8.c ****   uint8_t xx, tile;
 820              		.loc 1 210 0
 821 0012 93F803A0 		ldrb	r10, [r3, #3]	@ zero_extendqisi2
 822              	.LVL131:
 212:..\..\..\..\..\..\Dev\Library embedded l2c display\u8g2\csrc/u8x8_8x8.c ****   th += x;
 823              		.loc 1 212 0
 824 0016 7F00     		lsls	r7, r7, #1
 825              	.LVL132:
 826 0018 FFB2     		uxtb	r7, r7
 827              	.LVL133:
 213:..\..\..\..\..\..\Dev\Library embedded l2c display\u8g2\csrc/u8x8_8x8.c ****   tv *= 2;
 828              		.loc 1 213 0
 829 001a 0F44     		add	r7, r7, r1
 830              	.LVL134:
 831 001c FFB2     		uxtb	r7, r7
 832              	.LVL135:
ARM GAS  C:\Users\Abude\AppData\Local\Temp\ccotp7Re.s 			page 23


 214:..\..\..\..\..\..\Dev\Library embedded l2c display\u8g2\csrc/u8x8_8x8.c ****   tv += y;
 833              		.loc 1 214 0
 834 001e 4FEA4A0A 		lsl	r10, r10, #1
 835              	.LVL136:
 836 0022 5FFA8AFA 		uxtb	r10, r10
 837              	.LVL137:
 215:..\..\..\..\..\..\Dev\Library embedded l2c display\u8g2\csrc/u8x8_8x8.c ****   tile = 0;
 838              		.loc 1 215 0
 839 0026 9244     		add	r10, r10, r2
 840              	.LVL138:
 841 0028 5FFA8AFA 		uxtb	r10, r10
 842              	.LVL139:
 216:..\..\..\..\..\..\Dev\Library embedded l2c display\u8g2\csrc/u8x8_8x8.c ****   do
 843              		.loc 1 216 0
 844 002c 0025     		movs	r5, #0
 845              	.LVL140:
 846              	.L50:
 219:..\..\..\..\..\..\Dev\Library embedded l2c display\u8g2\csrc/u8x8_8x8.c ****     do
 847              		.loc 1 219 0
 848 002e 5C46     		mov	r4, fp
 849              	.LVL141:
 850              	.L49:
 222:..\..\..\..\..\..\Dev\Library embedded l2c display\u8g2\csrc/u8x8_8x8.c ****       tile++;
 851              		.loc 1 222 0 discriminator 1
 852 0030 0095     		str	r5, [sp]
 853 0032 4B46     		mov	r3, r9
 854 0034 3246     		mov	r2, r6
 855 0036 2146     		mov	r1, r4
 856 0038 4046     		mov	r0, r8
 857 003a FFF7FEFF 		bl	u8x8_draw_2x2_subglyph
 858              	.LVL142:
 223:..\..\..\..\..\..\Dev\Library embedded l2c display\u8g2\csrc/u8x8_8x8.c ****       xx+=2;
 859              		.loc 1 223 0 discriminator 1
 860 003e 0135     		adds	r5, r5, #1
 861              	.LVL143:
 862 0040 EDB2     		uxtb	r5, r5
 863              	.LVL144:
 224:..\..\..\..\..\..\Dev\Library embedded l2c display\u8g2\csrc/u8x8_8x8.c ****     } while( xx < th );
 864              		.loc 1 224 0 discriminator 1
 865 0042 0234     		adds	r4, r4, #2
 866              	.LVL145:
 867 0044 E4B2     		uxtb	r4, r4
 868              	.LVL146:
 225:..\..\..\..\..\..\Dev\Library embedded l2c display\u8g2\csrc/u8x8_8x8.c ****     y+=2;
 869              		.loc 1 225 0 discriminator 1
 870 0046 A742     		cmp	r7, r4
 871 0048 F2D8     		bhi	.L49
 226:..\..\..\..\..\..\Dev\Library embedded l2c display\u8g2\csrc/u8x8_8x8.c ****   } while( y < tv );  
 872              		.loc 1 226 0
 873 004a 0236     		adds	r6, r6, #2
 874              	.LVL147:
 875 004c F6B2     		uxtb	r6, r6
 876              	.LVL148:
 227:..\..\..\..\..\..\Dev\Library embedded l2c display\u8g2\csrc/u8x8_8x8.c **** }
 877              		.loc 1 227 0
 878 004e B245     		cmp	r10, r6
 879 0050 EDD8     		bhi	.L50
ARM GAS  C:\Users\Abude\AppData\Local\Temp\ccotp7Re.s 			page 24


 228:..\..\..\..\..\..\Dev\Library embedded l2c display\u8g2\csrc/u8x8_8x8.c **** 
 880              		.loc 1 228 0
 881 0052 03B0     		add	sp, sp, #12
 882              		.cfi_def_cfa_offset 36
 883              		@ sp needed
 884 0054 BDE8F08F 		pop	{r4, r5, r6, r7, r8, r9, r10, fp, pc}
 885              		.cfi_endproc
 886              	.LFE6:
 887              		.size	u8x8_Draw2x2Glyph, .-u8x8_Draw2x2Glyph
 888              		.section	.text.u8x8_Draw1x2Glyph,"ax",%progbits
 889              		.align	2
 890              		.global	u8x8_Draw1x2Glyph
 891              		.thumb
 892              		.thumb_func
 893              		.type	u8x8_Draw1x2Glyph, %function
 894              	u8x8_Draw1x2Glyph:
 895              	.LFB8:
 250:..\..\..\..\..\..\Dev\Library embedded l2c display\u8g2\csrc/u8x8_8x8.c ****   uint8_t th = u8x8_pgm_read(u8x8->font+2);		/* new 2019 format */
 896              		.loc 1 250 0
 897              		.cfi_startproc
 898              		@ args = 0, pretend = 0, frame = 0
 899              		@ frame_needed = 0, uses_anonymous_args = 0
 900              	.LVL149:
 901 0000 2DE9F04F 		push	{r4, r5, r6, r7, r8, r9, r10, fp, lr}
 902              		.cfi_def_cfa_offset 36
 903              		.cfi_offset 4, -36
 904              		.cfi_offset 5, -32
 905              		.cfi_offset 6, -28
 906              		.cfi_offset 7, -24
 907              		.cfi_offset 8, -20
 908              		.cfi_offset 9, -16
 909              		.cfi_offset 10, -12
 910              		.cfi_offset 11, -8
 911              		.cfi_offset 14, -4
 912 0004 83B0     		sub	sp, sp, #12
 913              		.cfi_def_cfa_offset 48
 914 0006 8046     		mov	r8, r0
 915 0008 8B46     		mov	fp, r1
 916 000a 1646     		mov	r6, r2
 917 000c 9946     		mov	r9, r3
 251:..\..\..\..\..\..\Dev\Library embedded l2c display\u8g2\csrc/u8x8_8x8.c ****   uint8_t tv = u8x8_pgm_read(u8x8->font+3);	/* new 2019 format */
 918              		.loc 1 251 0
 919 000e C369     		ldr	r3, [r0, #28]
 920              	.LVL150:
 921 0010 9F78     		ldrb	r7, [r3, #2]	@ zero_extendqisi2
 922              	.LVL151:
 252:..\..\..\..\..\..\Dev\Library embedded l2c display\u8g2\csrc/u8x8_8x8.c ****   uint8_t xx, tile;
 923              		.loc 1 252 0
 924 0012 93F803A0 		ldrb	r10, [r3, #3]	@ zero_extendqisi2
 925              	.LVL152:
 254:..\..\..\..\..\..\Dev\Library embedded l2c display\u8g2\csrc/u8x8_8x8.c ****   tv *= 2;
 926              		.loc 1 254 0
 927 0016 0F44     		add	r7, r7, r1
 928              	.LVL153:
 929 0018 FFB2     		uxtb	r7, r7
 930              	.LVL154:
 255:..\..\..\..\..\..\Dev\Library embedded l2c display\u8g2\csrc/u8x8_8x8.c ****   tv += y;
ARM GAS  C:\Users\Abude\AppData\Local\Temp\ccotp7Re.s 			page 25


 931              		.loc 1 255 0
 932 001a 4FEA4A0A 		lsl	r10, r10, #1
 933              	.LVL155:
 934 001e 5FFA8AFA 		uxtb	r10, r10
 935              	.LVL156:
 256:..\..\..\..\..\..\Dev\Library embedded l2c display\u8g2\csrc/u8x8_8x8.c ****   tile = 0;
 936              		.loc 1 256 0
 937 0022 9244     		add	r10, r10, r2
 938              	.LVL157:
 939 0024 5FFA8AFA 		uxtb	r10, r10
 940              	.LVL158:
 257:..\..\..\..\..\..\Dev\Library embedded l2c display\u8g2\csrc/u8x8_8x8.c ****   do
 941              		.loc 1 257 0
 942 0028 0025     		movs	r5, #0
 943              	.LVL159:
 944              	.L54:
 260:..\..\..\..\..\..\Dev\Library embedded l2c display\u8g2\csrc/u8x8_8x8.c ****     do
 945              		.loc 1 260 0
 946 002a 5C46     		mov	r4, fp
 947              	.LVL160:
 948              	.L53:
 263:..\..\..\..\..\..\Dev\Library embedded l2c display\u8g2\csrc/u8x8_8x8.c ****       tile++;
 949              		.loc 1 263 0 discriminator 1
 950 002c 0095     		str	r5, [sp]
 951 002e 4B46     		mov	r3, r9
 952 0030 3246     		mov	r2, r6
 953 0032 2146     		mov	r1, r4
 954 0034 4046     		mov	r0, r8
 955 0036 FFF7FEFF 		bl	u8x8_draw_1x2_subglyph
 956              	.LVL161:
 264:..\..\..\..\..\..\Dev\Library embedded l2c display\u8g2\csrc/u8x8_8x8.c ****       xx++;
 957              		.loc 1 264 0 discriminator 1
 958 003a 0135     		adds	r5, r5, #1
 959              	.LVL162:
 960 003c EDB2     		uxtb	r5, r5
 961              	.LVL163:
 265:..\..\..\..\..\..\Dev\Library embedded l2c display\u8g2\csrc/u8x8_8x8.c ****     } while( xx < th );
 962              		.loc 1 265 0 discriminator 1
 963 003e 0134     		adds	r4, r4, #1
 964              	.LVL164:
 965 0040 E4B2     		uxtb	r4, r4
 966              	.LVL165:
 266:..\..\..\..\..\..\Dev\Library embedded l2c display\u8g2\csrc/u8x8_8x8.c ****     y+=2;
 967              		.loc 1 266 0 discriminator 1
 968 0042 A742     		cmp	r7, r4
 969 0044 F2D8     		bhi	.L53
 267:..\..\..\..\..\..\Dev\Library embedded l2c display\u8g2\csrc/u8x8_8x8.c ****   } while( y < tv );  
 970              		.loc 1 267 0
 971 0046 0236     		adds	r6, r6, #2
 972              	.LVL166:
 973 0048 F6B2     		uxtb	r6, r6
 974              	.LVL167:
 268:..\..\..\..\..\..\Dev\Library embedded l2c display\u8g2\csrc/u8x8_8x8.c **** }
 975              		.loc 1 268 0
 976 004a B245     		cmp	r10, r6
 977 004c EDD8     		bhi	.L54
 269:..\..\..\..\..\..\Dev\Library embedded l2c display\u8g2\csrc/u8x8_8x8.c **** 
ARM GAS  C:\Users\Abude\AppData\Local\Temp\ccotp7Re.s 			page 26


 978              		.loc 1 269 0
 979 004e 03B0     		add	sp, sp, #12
 980              		.cfi_def_cfa_offset 36
 981              		@ sp needed
 982 0050 BDE8F08F 		pop	{r4, r5, r6, r7, r8, r9, r10, fp, pc}
 983              		.cfi_endproc
 984              	.LFE8:
 985              		.size	u8x8_Draw1x2Glyph, .-u8x8_Draw1x2Glyph
 986              		.section	.text.u8x8_utf8_init,"ax",%progbits
 987              		.align	2
 988              		.global	u8x8_utf8_init
 989              		.thumb
 990              		.thumb_func
 991              		.type	u8x8_utf8_init, %function
 992              	u8x8_utf8_init:
 993              	.LFB9:
 286:..\..\..\..\..\..\Dev\Library embedded l2c display\u8g2\csrc/u8x8_8x8.c ****   u8x8->utf8_state = 0;	/* also reset during u8x8_SetupDefaults() */
 994              		.loc 1 286 0
 995              		.cfi_startproc
 996              		@ args = 0, pretend = 0, frame = 0
 997              		@ frame_needed = 0, uses_anonymous_args = 0
 998              		@ link register save eliminated.
 999              	.LVL168:
 287:..\..\..\..\..\..\Dev\Library embedded l2c display\u8g2\csrc/u8x8_8x8.c **** }
 1000              		.loc 1 287 0
 1001 0000 0023     		movs	r3, #0
 1002 0002 80F82630 		strb	r3, [r0, #38]
 1003 0006 7047     		bx	lr
 1004              		.cfi_endproc
 1005              	.LFE9:
 1006              		.size	u8x8_utf8_init, .-u8x8_utf8_init
 1007              		.section	.text.u8x8_draw_string,"ax",%progbits
 1008              		.align	2
 1009              		.thumb
 1010              		.thumb_func
 1011              		.type	u8x8_draw_string, %function
 1012              	u8x8_draw_string:
 1013              	.LFB12:
 355:..\..\..\..\..\..\Dev\Library embedded l2c display\u8g2\csrc/u8x8_8x8.c **** 
 356:..\..\..\..\..\..\Dev\Library embedded l2c display\u8g2\csrc/u8x8_8x8.c **** 
 357:..\..\..\..\..\..\Dev\Library embedded l2c display\u8g2\csrc/u8x8_8x8.c **** 
 358:..\..\..\..\..\..\Dev\Library embedded l2c display\u8g2\csrc/u8x8_8x8.c **** static uint8_t u8x8_draw_string(u8x8_t *u8x8, uint8_t x, uint8_t y, const char *s) U8X8_NOINLINE;
 359:..\..\..\..\..\..\Dev\Library embedded l2c display\u8g2\csrc/u8x8_8x8.c **** static uint8_t u8x8_draw_string(u8x8_t *u8x8, uint8_t x, uint8_t y, const char *s)
 360:..\..\..\..\..\..\Dev\Library embedded l2c display\u8g2\csrc/u8x8_8x8.c **** {
 1014              		.loc 1 360 0
 1015              		.cfi_startproc
 1016              		@ args = 0, pretend = 0, frame = 0
 1017              		@ frame_needed = 0, uses_anonymous_args = 0
 1018              	.LVL169:
 1019 0000 2DE9F843 		push	{r3, r4, r5, r6, r7, r8, r9, lr}
 1020              		.cfi_def_cfa_offset 32
 1021              		.cfi_offset 3, -32
 1022              		.cfi_offset 4, -28
 1023              		.cfi_offset 5, -24
 1024              		.cfi_offset 6, -20
 1025              		.cfi_offset 7, -16
 1026              		.cfi_offset 8, -12
ARM GAS  C:\Users\Abude\AppData\Local\Temp\ccotp7Re.s 			page 27


 1027              		.cfi_offset 9, -8
 1028              		.cfi_offset 14, -4
 1029 0004 0546     		mov	r5, r0
 1030 0006 0E46     		mov	r6, r1
 1031 0008 9146     		mov	r9, r2
 1032 000a 1C46     		mov	r4, r3
 1033              	.LVL170:
 361:..\..\..\..\..\..\Dev\Library embedded l2c display\u8g2\csrc/u8x8_8x8.c ****   uint16_t e;
 362:..\..\..\..\..\..\Dev\Library embedded l2c display\u8g2\csrc/u8x8_8x8.c ****   uint8_t cnt = 0;
 363:..\..\..\..\..\..\Dev\Library embedded l2c display\u8g2\csrc/u8x8_8x8.c ****   uint8_t th = u8x8_pgm_read(u8x8->font+2);		/* new 2019 format */
 1034              		.loc 1 363 0
 1035 000c C369     		ldr	r3, [r0, #28]
 1036              	.LVL171:
 1037 000e 93F80280 		ldrb	r8, [r3, #2]	@ zero_extendqisi2
 1038              	.LVL172:
 364:..\..\..\..\..\..\Dev\Library embedded l2c display\u8g2\csrc/u8x8_8x8.c **** 
 365:..\..\..\..\..\..\Dev\Library embedded l2c display\u8g2\csrc/u8x8_8x8.c ****   u8x8_utf8_init(u8x8);
 1039              		.loc 1 365 0
 1040 0012 FFF7FEFF 		bl	u8x8_utf8_init
 1041              	.LVL173:
 362:..\..\..\..\..\..\Dev\Library embedded l2c display\u8g2\csrc/u8x8_8x8.c ****   uint8_t th = u8x8_pgm_read(u8x8->font+2);		/* new 2019 format */
 1042              		.loc 1 362 0
 1043 0016 0027     		movs	r7, #0
 1044              	.LVL174:
 1045              	.L58:
 366:..\..\..\..\..\..\Dev\Library embedded l2c display\u8g2\csrc/u8x8_8x8.c ****   for(;;)
 367:..\..\..\..\..\..\Dev\Library embedded l2c display\u8g2\csrc/u8x8_8x8.c ****   {
 368:..\..\..\..\..\..\Dev\Library embedded l2c display\u8g2\csrc/u8x8_8x8.c ****     e = u8x8->next_cb(u8x8, (uint8_t)*s);
 1046              		.loc 1 368 0
 1047 0018 6B68     		ldr	r3, [r5, #4]
 1048 001a 2178     		ldrb	r1, [r4]	@ zero_extendqisi2
 1049 001c 2846     		mov	r0, r5
 1050 001e 9847     		blx	r3
 1051              	.LVL175:
 369:..\..\..\..\..\..\Dev\Library embedded l2c display\u8g2\csrc/u8x8_8x8.c ****     if ( e == 0x0ffff )
 1052              		.loc 1 369 0
 1053 0020 4FF6FF73 		movw	r3, #65535
 1054 0024 9842     		cmp	r0, r3
 1055 0026 0FD0     		beq	.L59
 370:..\..\..\..\..\..\Dev\Library embedded l2c display\u8g2\csrc/u8x8_8x8.c ****       break;
 371:..\..\..\..\..\..\Dev\Library embedded l2c display\u8g2\csrc/u8x8_8x8.c ****     s++;
 1056              		.loc 1 371 0
 1057 0028 0134     		adds	r4, r4, #1
 1058              	.LVL176:
 372:..\..\..\..\..\..\Dev\Library embedded l2c display\u8g2\csrc/u8x8_8x8.c ****     if ( e != 0x0fffe )
 1059              		.loc 1 372 0
 1060 002a 4FF6FE73 		movw	r3, #65534
 1061 002e 9842     		cmp	r0, r3
 1062 0030 F2D0     		beq	.L58
 373:..\..\..\..\..\..\Dev\Library embedded l2c display\u8g2\csrc/u8x8_8x8.c ****     {
 374:..\..\..\..\..\..\Dev\Library embedded l2c display\u8g2\csrc/u8x8_8x8.c ****       u8x8_DrawGlyph(u8x8, x, y, e);
 1063              		.loc 1 374 0
 1064 0032 C3B2     		uxtb	r3, r0
 1065 0034 4A46     		mov	r2, r9
 1066 0036 3146     		mov	r1, r6
 1067 0038 2846     		mov	r0, r5
 1068              	.LVL177:
ARM GAS  C:\Users\Abude\AppData\Local\Temp\ccotp7Re.s 			page 28


 1069 003a FFF7FEFF 		bl	u8x8_DrawGlyph
 1070              	.LVL178:
 375:..\..\..\..\..\..\Dev\Library embedded l2c display\u8g2\csrc/u8x8_8x8.c ****       x+=th;
 1071              		.loc 1 375 0
 1072 003e 4644     		add	r6, r6, r8
 1073              	.LVL179:
 1074 0040 F6B2     		uxtb	r6, r6
 1075              	.LVL180:
 376:..\..\..\..\..\..\Dev\Library embedded l2c display\u8g2\csrc/u8x8_8x8.c ****       cnt++;
 1076              		.loc 1 376 0
 1077 0042 0137     		adds	r7, r7, #1
 1078              	.LVL181:
 1079 0044 FFB2     		uxtb	r7, r7
 1080              	.LVL182:
 1081 0046 E7E7     		b	.L58
 1082              	.LVL183:
 1083              	.L59:
 377:..\..\..\..\..\..\Dev\Library embedded l2c display\u8g2\csrc/u8x8_8x8.c ****     }
 378:..\..\..\..\..\..\Dev\Library embedded l2c display\u8g2\csrc/u8x8_8x8.c ****   }
 379:..\..\..\..\..\..\Dev\Library embedded l2c display\u8g2\csrc/u8x8_8x8.c ****   return cnt;
 380:..\..\..\..\..\..\Dev\Library embedded l2c display\u8g2\csrc/u8x8_8x8.c **** }
 1084              		.loc 1 380 0
 1085 0048 3846     		mov	r0, r7
 1086              	.LVL184:
 1087 004a BDE8F883 		pop	{r3, r4, r5, r6, r7, r8, r9, pc}
 1088              		.cfi_endproc
 1089              	.LFE12:
 1090              		.size	u8x8_draw_string, .-u8x8_draw_string
 1091 004e 00BF     		.section	.text.u8x8_draw_2x2_string,"ax",%progbits
 1092              		.align	2
 1093              		.thumb
 1094              		.thumb_func
 1095              		.type	u8x8_draw_2x2_string, %function
 1096              	u8x8_draw_2x2_string:
 1097              	.LFB15:
 381:..\..\..\..\..\..\Dev\Library embedded l2c display\u8g2\csrc/u8x8_8x8.c **** 
 382:..\..\..\..\..\..\Dev\Library embedded l2c display\u8g2\csrc/u8x8_8x8.c **** 
 383:..\..\..\..\..\..\Dev\Library embedded l2c display\u8g2\csrc/u8x8_8x8.c **** uint8_t u8x8_DrawString(u8x8_t *u8x8, uint8_t x, uint8_t y, const char *s)
 384:..\..\..\..\..\..\Dev\Library embedded l2c display\u8g2\csrc/u8x8_8x8.c **** {
 385:..\..\..\..\..\..\Dev\Library embedded l2c display\u8g2\csrc/u8x8_8x8.c ****   u8x8->next_cb = u8x8_ascii_next;
 386:..\..\..\..\..\..\Dev\Library embedded l2c display\u8g2\csrc/u8x8_8x8.c ****   return u8x8_draw_string(u8x8, x, y, s);
 387:..\..\..\..\..\..\Dev\Library embedded l2c display\u8g2\csrc/u8x8_8x8.c **** }
 388:..\..\..\..\..\..\Dev\Library embedded l2c display\u8g2\csrc/u8x8_8x8.c **** 
 389:..\..\..\..\..\..\Dev\Library embedded l2c display\u8g2\csrc/u8x8_8x8.c **** uint8_t u8x8_DrawUTF8(u8x8_t *u8x8, uint8_t x, uint8_t y, const char *s)
 390:..\..\..\..\..\..\Dev\Library embedded l2c display\u8g2\csrc/u8x8_8x8.c **** {
 391:..\..\..\..\..\..\Dev\Library embedded l2c display\u8g2\csrc/u8x8_8x8.c ****   u8x8->next_cb = u8x8_utf8_next;
 392:..\..\..\..\..\..\Dev\Library embedded l2c display\u8g2\csrc/u8x8_8x8.c ****   return u8x8_draw_string(u8x8, x, y, s);
 393:..\..\..\..\..\..\Dev\Library embedded l2c display\u8g2\csrc/u8x8_8x8.c **** }
 394:..\..\..\..\..\..\Dev\Library embedded l2c display\u8g2\csrc/u8x8_8x8.c **** 
 395:..\..\..\..\..\..\Dev\Library embedded l2c display\u8g2\csrc/u8x8_8x8.c **** 
 396:..\..\..\..\..\..\Dev\Library embedded l2c display\u8g2\csrc/u8x8_8x8.c **** 
 397:..\..\..\..\..\..\Dev\Library embedded l2c display\u8g2\csrc/u8x8_8x8.c **** static uint8_t u8x8_draw_2x2_string(u8x8_t *u8x8, uint8_t x, uint8_t y, const char *s) U8X8_NOINLIN
 398:..\..\..\..\..\..\Dev\Library embedded l2c display\u8g2\csrc/u8x8_8x8.c **** static uint8_t u8x8_draw_2x2_string(u8x8_t *u8x8, uint8_t x, uint8_t y, const char *s)
 399:..\..\..\..\..\..\Dev\Library embedded l2c display\u8g2\csrc/u8x8_8x8.c **** {
 1098              		.loc 1 399 0
 1099              		.cfi_startproc
 1100              		@ args = 0, pretend = 0, frame = 0
ARM GAS  C:\Users\Abude\AppData\Local\Temp\ccotp7Re.s 			page 29


 1101              		@ frame_needed = 0, uses_anonymous_args = 0
 1102              	.LVL185:
 1103 0000 2DE9F843 		push	{r3, r4, r5, r6, r7, r8, r9, lr}
 1104              		.cfi_def_cfa_offset 32
 1105              		.cfi_offset 3, -32
 1106              		.cfi_offset 4, -28
 1107              		.cfi_offset 5, -24
 1108              		.cfi_offset 6, -20
 1109              		.cfi_offset 7, -16
 1110              		.cfi_offset 8, -12
 1111              		.cfi_offset 9, -8
 1112              		.cfi_offset 14, -4
 1113 0004 0546     		mov	r5, r0
 1114 0006 0E46     		mov	r6, r1
 1115 0008 9146     		mov	r9, r2
 1116 000a 1C46     		mov	r4, r3
 1117              	.LVL186:
 400:..\..\..\..\..\..\Dev\Library embedded l2c display\u8g2\csrc/u8x8_8x8.c ****   uint16_t e;
 401:..\..\..\..\..\..\Dev\Library embedded l2c display\u8g2\csrc/u8x8_8x8.c ****   uint8_t cnt = 0;
 402:..\..\..\..\..\..\Dev\Library embedded l2c display\u8g2\csrc/u8x8_8x8.c ****   uint8_t th = u8x8_pgm_read(u8x8->font+2);	/* new 2019 format */
 1118              		.loc 1 402 0
 1119 000c C369     		ldr	r3, [r0, #28]
 1120              	.LVL187:
 1121 000e 93F80280 		ldrb	r8, [r3, #2]	@ zero_extendqisi2
 1122              	.LVL188:
 403:..\..\..\..\..\..\Dev\Library embedded l2c display\u8g2\csrc/u8x8_8x8.c ****   
 404:..\..\..\..\..\..\Dev\Library embedded l2c display\u8g2\csrc/u8x8_8x8.c ****   th <<= 1;
 1123              		.loc 1 404 0
 1124 0012 4FEA4808 		lsl	r8, r8, #1
 1125              	.LVL189:
 1126 0016 5FFA88F8 		uxtb	r8, r8
 1127              	.LVL190:
 405:..\..\..\..\..\..\Dev\Library embedded l2c display\u8g2\csrc/u8x8_8x8.c ****   
 406:..\..\..\..\..\..\Dev\Library embedded l2c display\u8g2\csrc/u8x8_8x8.c ****   u8x8_utf8_init(u8x8);
 1128              		.loc 1 406 0
 1129 001a FFF7FEFF 		bl	u8x8_utf8_init
 1130              	.LVL191:
 401:..\..\..\..\..\..\Dev\Library embedded l2c display\u8g2\csrc/u8x8_8x8.c ****   uint8_t th = u8x8_pgm_read(u8x8->font+2);	/* new 2019 format */
 1131              		.loc 1 401 0
 1132 001e 0027     		movs	r7, #0
 1133              	.LVL192:
 1134              	.L63:
 407:..\..\..\..\..\..\Dev\Library embedded l2c display\u8g2\csrc/u8x8_8x8.c ****   for(;;)
 408:..\..\..\..\..\..\Dev\Library embedded l2c display\u8g2\csrc/u8x8_8x8.c ****   {
 409:..\..\..\..\..\..\Dev\Library embedded l2c display\u8g2\csrc/u8x8_8x8.c ****     e = u8x8->next_cb(u8x8, (uint8_t)*s);
 1135              		.loc 1 409 0
 1136 0020 6B68     		ldr	r3, [r5, #4]
 1137 0022 2178     		ldrb	r1, [r4]	@ zero_extendqisi2
 1138 0024 2846     		mov	r0, r5
 1139 0026 9847     		blx	r3
 1140              	.LVL193:
 410:..\..\..\..\..\..\Dev\Library embedded l2c display\u8g2\csrc/u8x8_8x8.c ****     if ( e == 0x0ffff )
 1141              		.loc 1 410 0
 1142 0028 4FF6FF73 		movw	r3, #65535
 1143 002c 9842     		cmp	r0, r3
 1144 002e 0FD0     		beq	.L64
 411:..\..\..\..\..\..\Dev\Library embedded l2c display\u8g2\csrc/u8x8_8x8.c ****       break;
ARM GAS  C:\Users\Abude\AppData\Local\Temp\ccotp7Re.s 			page 30


 412:..\..\..\..\..\..\Dev\Library embedded l2c display\u8g2\csrc/u8x8_8x8.c ****     s++;
 1145              		.loc 1 412 0
 1146 0030 0134     		adds	r4, r4, #1
 1147              	.LVL194:
 413:..\..\..\..\..\..\Dev\Library embedded l2c display\u8g2\csrc/u8x8_8x8.c ****     if ( e != 0x0fffe )
 1148              		.loc 1 413 0
 1149 0032 4FF6FE73 		movw	r3, #65534
 1150 0036 9842     		cmp	r0, r3
 1151 0038 F2D0     		beq	.L63
 414:..\..\..\..\..\..\Dev\Library embedded l2c display\u8g2\csrc/u8x8_8x8.c ****     {
 415:..\..\..\..\..\..\Dev\Library embedded l2c display\u8g2\csrc/u8x8_8x8.c ****       u8x8_Draw2x2Glyph(u8x8, x, y, e);
 1152              		.loc 1 415 0
 1153 003a C3B2     		uxtb	r3, r0
 1154 003c 4A46     		mov	r2, r9
 1155 003e 3146     		mov	r1, r6
 1156 0040 2846     		mov	r0, r5
 1157              	.LVL195:
 1158 0042 FFF7FEFF 		bl	u8x8_Draw2x2Glyph
 1159              	.LVL196:
 416:..\..\..\..\..\..\Dev\Library embedded l2c display\u8g2\csrc/u8x8_8x8.c ****       x+=th;
 1160              		.loc 1 416 0
 1161 0046 4644     		add	r6, r6, r8
 1162              	.LVL197:
 1163 0048 F6B2     		uxtb	r6, r6
 1164              	.LVL198:
 417:..\..\..\..\..\..\Dev\Library embedded l2c display\u8g2\csrc/u8x8_8x8.c ****       cnt++;
 1165              		.loc 1 417 0
 1166 004a 0137     		adds	r7, r7, #1
 1167              	.LVL199:
 1168 004c FFB2     		uxtb	r7, r7
 1169              	.LVL200:
 1170 004e E7E7     		b	.L63
 1171              	.LVL201:
 1172              	.L64:
 418:..\..\..\..\..\..\Dev\Library embedded l2c display\u8g2\csrc/u8x8_8x8.c ****     }
 419:..\..\..\..\..\..\Dev\Library embedded l2c display\u8g2\csrc/u8x8_8x8.c ****   }
 420:..\..\..\..\..\..\Dev\Library embedded l2c display\u8g2\csrc/u8x8_8x8.c ****   return cnt;
 421:..\..\..\..\..\..\Dev\Library embedded l2c display\u8g2\csrc/u8x8_8x8.c **** }
 1173              		.loc 1 421 0
 1174 0050 3846     		mov	r0, r7
 1175              	.LVL202:
 1176 0052 BDE8F883 		pop	{r3, r4, r5, r6, r7, r8, r9, pc}
 1177              		.cfi_endproc
 1178              	.LFE15:
 1179              		.size	u8x8_draw_2x2_string, .-u8x8_draw_2x2_string
 1180 0056 00BF     		.section	.text.u8x8_draw_1x2_string,"ax",%progbits
 1181              		.align	2
 1182              		.thumb
 1183              		.thumb_func
 1184              		.type	u8x8_draw_1x2_string, %function
 1185              	u8x8_draw_1x2_string:
 1186              	.LFB18:
 422:..\..\..\..\..\..\Dev\Library embedded l2c display\u8g2\csrc/u8x8_8x8.c **** 
 423:..\..\..\..\..\..\Dev\Library embedded l2c display\u8g2\csrc/u8x8_8x8.c **** 
 424:..\..\..\..\..\..\Dev\Library embedded l2c display\u8g2\csrc/u8x8_8x8.c **** uint8_t u8x8_Draw2x2String(u8x8_t *u8x8, uint8_t x, uint8_t y, const char *s)
 425:..\..\..\..\..\..\Dev\Library embedded l2c display\u8g2\csrc/u8x8_8x8.c **** {
 426:..\..\..\..\..\..\Dev\Library embedded l2c display\u8g2\csrc/u8x8_8x8.c ****   u8x8->next_cb = u8x8_ascii_next;
ARM GAS  C:\Users\Abude\AppData\Local\Temp\ccotp7Re.s 			page 31


 427:..\..\..\..\..\..\Dev\Library embedded l2c display\u8g2\csrc/u8x8_8x8.c ****   return u8x8_draw_2x2_string(u8x8, x, y, s);
 428:..\..\..\..\..\..\Dev\Library embedded l2c display\u8g2\csrc/u8x8_8x8.c **** }
 429:..\..\..\..\..\..\Dev\Library embedded l2c display\u8g2\csrc/u8x8_8x8.c **** 
 430:..\..\..\..\..\..\Dev\Library embedded l2c display\u8g2\csrc/u8x8_8x8.c **** uint8_t u8x8_Draw2x2UTF8(u8x8_t *u8x8, uint8_t x, uint8_t y, const char *s)
 431:..\..\..\..\..\..\Dev\Library embedded l2c display\u8g2\csrc/u8x8_8x8.c **** {
 432:..\..\..\..\..\..\Dev\Library embedded l2c display\u8g2\csrc/u8x8_8x8.c ****   u8x8->next_cb = u8x8_utf8_next;
 433:..\..\..\..\..\..\Dev\Library embedded l2c display\u8g2\csrc/u8x8_8x8.c ****   return u8x8_draw_2x2_string(u8x8, x, y, s);
 434:..\..\..\..\..\..\Dev\Library embedded l2c display\u8g2\csrc/u8x8_8x8.c **** }
 435:..\..\..\..\..\..\Dev\Library embedded l2c display\u8g2\csrc/u8x8_8x8.c **** 
 436:..\..\..\..\..\..\Dev\Library embedded l2c display\u8g2\csrc/u8x8_8x8.c **** 
 437:..\..\..\..\..\..\Dev\Library embedded l2c display\u8g2\csrc/u8x8_8x8.c **** 
 438:..\..\..\..\..\..\Dev\Library embedded l2c display\u8g2\csrc/u8x8_8x8.c **** static uint8_t u8x8_draw_1x2_string(u8x8_t *u8x8, uint8_t x, uint8_t y, const char *s) U8X8_NOINLIN
 439:..\..\..\..\..\..\Dev\Library embedded l2c display\u8g2\csrc/u8x8_8x8.c **** static uint8_t u8x8_draw_1x2_string(u8x8_t *u8x8, uint8_t x, uint8_t y, const char *s)
 440:..\..\..\..\..\..\Dev\Library embedded l2c display\u8g2\csrc/u8x8_8x8.c **** {  
 1187              		.loc 1 440 0
 1188              		.cfi_startproc
 1189              		@ args = 0, pretend = 0, frame = 0
 1190              		@ frame_needed = 0, uses_anonymous_args = 0
 1191              	.LVL203:
 1192 0000 2DE9F843 		push	{r3, r4, r5, r6, r7, r8, r9, lr}
 1193              		.cfi_def_cfa_offset 32
 1194              		.cfi_offset 3, -32
 1195              		.cfi_offset 4, -28
 1196              		.cfi_offset 5, -24
 1197              		.cfi_offset 6, -20
 1198              		.cfi_offset 7, -16
 1199              		.cfi_offset 8, -12
 1200              		.cfi_offset 9, -8
 1201              		.cfi_offset 14, -4
 1202 0004 0546     		mov	r5, r0
 1203 0006 0E46     		mov	r6, r1
 1204 0008 9146     		mov	r9, r2
 1205 000a 1C46     		mov	r4, r3
 1206              	.LVL204:
 441:..\..\..\..\..\..\Dev\Library embedded l2c display\u8g2\csrc/u8x8_8x8.c ****   uint16_t e;
 442:..\..\..\..\..\..\Dev\Library embedded l2c display\u8g2\csrc/u8x8_8x8.c ****   uint8_t cnt = 0;
 443:..\..\..\..\..\..\Dev\Library embedded l2c display\u8g2\csrc/u8x8_8x8.c ****   uint8_t th = u8x8_pgm_read(u8x8->font+2);	/* new 2019 format */
 1207              		.loc 1 443 0
 1208 000c C369     		ldr	r3, [r0, #28]
 1209              	.LVL205:
 1210 000e 93F80280 		ldrb	r8, [r3, #2]	@ zero_extendqisi2
 1211              	.LVL206:
 444:..\..\..\..\..\..\Dev\Library embedded l2c display\u8g2\csrc/u8x8_8x8.c ****   u8x8_utf8_init(u8x8);
 1212              		.loc 1 444 0
 1213 0012 FFF7FEFF 		bl	u8x8_utf8_init
 1214              	.LVL207:
 442:..\..\..\..\..\..\Dev\Library embedded l2c display\u8g2\csrc/u8x8_8x8.c ****   uint8_t th = u8x8_pgm_read(u8x8->font+2);	/* new 2019 format */
 1215              		.loc 1 442 0
 1216 0016 0027     		movs	r7, #0
 1217              	.LVL208:
 1218              	.L68:
 445:..\..\..\..\..\..\Dev\Library embedded l2c display\u8g2\csrc/u8x8_8x8.c ****   for(;;)
 446:..\..\..\..\..\..\Dev\Library embedded l2c display\u8g2\csrc/u8x8_8x8.c ****   {
 447:..\..\..\..\..\..\Dev\Library embedded l2c display\u8g2\csrc/u8x8_8x8.c ****     e = u8x8->next_cb(u8x8, (uint8_t)*s);
 1219              		.loc 1 447 0
 1220 0018 6B68     		ldr	r3, [r5, #4]
 1221 001a 2178     		ldrb	r1, [r4]	@ zero_extendqisi2
ARM GAS  C:\Users\Abude\AppData\Local\Temp\ccotp7Re.s 			page 32


 1222 001c 2846     		mov	r0, r5
 1223 001e 9847     		blx	r3
 1224              	.LVL209:
 448:..\..\..\..\..\..\Dev\Library embedded l2c display\u8g2\csrc/u8x8_8x8.c ****     if ( e == 0x0ffff )
 1225              		.loc 1 448 0
 1226 0020 4FF6FF73 		movw	r3, #65535
 1227 0024 9842     		cmp	r0, r3
 1228 0026 0FD0     		beq	.L69
 449:..\..\..\..\..\..\Dev\Library embedded l2c display\u8g2\csrc/u8x8_8x8.c ****       break;
 450:..\..\..\..\..\..\Dev\Library embedded l2c display\u8g2\csrc/u8x8_8x8.c ****     s++;
 1229              		.loc 1 450 0
 1230 0028 0134     		adds	r4, r4, #1
 1231              	.LVL210:
 451:..\..\..\..\..\..\Dev\Library embedded l2c display\u8g2\csrc/u8x8_8x8.c ****     if ( e != 0x0fffe )
 1232              		.loc 1 451 0
 1233 002a 4FF6FE73 		movw	r3, #65534
 1234 002e 9842     		cmp	r0, r3
 1235 0030 F2D0     		beq	.L68
 452:..\..\..\..\..\..\Dev\Library embedded l2c display\u8g2\csrc/u8x8_8x8.c ****     {
 453:..\..\..\..\..\..\Dev\Library embedded l2c display\u8g2\csrc/u8x8_8x8.c ****       u8x8_Draw1x2Glyph(u8x8, x, y, e);
 1236              		.loc 1 453 0
 1237 0032 C3B2     		uxtb	r3, r0
 1238 0034 4A46     		mov	r2, r9
 1239 0036 3146     		mov	r1, r6
 1240 0038 2846     		mov	r0, r5
 1241              	.LVL211:
 1242 003a FFF7FEFF 		bl	u8x8_Draw1x2Glyph
 1243              	.LVL212:
 454:..\..\..\..\..\..\Dev\Library embedded l2c display\u8g2\csrc/u8x8_8x8.c ****       x+=th;
 1244              		.loc 1 454 0
 1245 003e 4644     		add	r6, r6, r8
 1246              	.LVL213:
 1247 0040 F6B2     		uxtb	r6, r6
 1248              	.LVL214:
 455:..\..\..\..\..\..\Dev\Library embedded l2c display\u8g2\csrc/u8x8_8x8.c ****       cnt++;
 1249              		.loc 1 455 0
 1250 0042 0137     		adds	r7, r7, #1
 1251              	.LVL215:
 1252 0044 FFB2     		uxtb	r7, r7
 1253              	.LVL216:
 1254 0046 E7E7     		b	.L68
 1255              	.LVL217:
 1256              	.L69:
 456:..\..\..\..\..\..\Dev\Library embedded l2c display\u8g2\csrc/u8x8_8x8.c ****     }
 457:..\..\..\..\..\..\Dev\Library embedded l2c display\u8g2\csrc/u8x8_8x8.c ****   }
 458:..\..\..\..\..\..\Dev\Library embedded l2c display\u8g2\csrc/u8x8_8x8.c ****   return cnt;
 459:..\..\..\..\..\..\Dev\Library embedded l2c display\u8g2\csrc/u8x8_8x8.c **** }
 1257              		.loc 1 459 0
 1258 0048 3846     		mov	r0, r7
 1259              	.LVL218:
 1260 004a BDE8F883 		pop	{r3, r4, r5, r6, r7, r8, r9, pc}
 1261              		.cfi_endproc
 1262              	.LFE18:
 1263              		.size	u8x8_draw_1x2_string, .-u8x8_draw_1x2_string
 1264 004e 00BF     		.section	.text.u8x8_DrawString,"ax",%progbits
 1265              		.align	2
 1266              		.global	u8x8_DrawString
ARM GAS  C:\Users\Abude\AppData\Local\Temp\ccotp7Re.s 			page 33


 1267              		.thumb
 1268              		.thumb_func
 1269              		.type	u8x8_DrawString, %function
 1270              	u8x8_DrawString:
 1271              	.LFB13:
 384:..\..\..\..\..\..\Dev\Library embedded l2c display\u8g2\csrc/u8x8_8x8.c ****   u8x8->next_cb = u8x8_ascii_next;
 1272              		.loc 1 384 0
 1273              		.cfi_startproc
 1274              		@ args = 0, pretend = 0, frame = 0
 1275              		@ frame_needed = 0, uses_anonymous_args = 0
 1276              	.LVL219:
 1277 0000 10B5     		push	{r4, lr}
 1278              		.cfi_def_cfa_offset 8
 1279              		.cfi_offset 4, -8
 1280              		.cfi_offset 14, -4
 385:..\..\..\..\..\..\Dev\Library embedded l2c display\u8g2\csrc/u8x8_8x8.c ****   return u8x8_draw_string(u8x8, x, y, s);
 1281              		.loc 1 385 0
 1282 0002 024C     		ldr	r4, .L74
 1283 0004 4460     		str	r4, [r0, #4]
 386:..\..\..\..\..\..\Dev\Library embedded l2c display\u8g2\csrc/u8x8_8x8.c **** }
 1284              		.loc 1 386 0
 1285 0006 FFF7FEFF 		bl	u8x8_draw_string
 1286              	.LVL220:
 387:..\..\..\..\..\..\Dev\Library embedded l2c display\u8g2\csrc/u8x8_8x8.c **** 
 1287              		.loc 1 387 0
 1288 000a 10BD     		pop	{r4, pc}
 1289              	.L75:
 1290              		.align	2
 1291              	.L74:
 1292 000c 00000000 		.word	u8x8_ascii_next
 1293              		.cfi_endproc
 1294              	.LFE13:
 1295              		.size	u8x8_DrawString, .-u8x8_DrawString
 1296              		.section	.text.u8x8_DrawUTF8,"ax",%progbits
 1297              		.align	2
 1298              		.global	u8x8_DrawUTF8
 1299              		.thumb
 1300              		.thumb_func
 1301              		.type	u8x8_DrawUTF8, %function
 1302              	u8x8_DrawUTF8:
 1303              	.LFB14:
 390:..\..\..\..\..\..\Dev\Library embedded l2c display\u8g2\csrc/u8x8_8x8.c ****   u8x8->next_cb = u8x8_utf8_next;
 1304              		.loc 1 390 0
 1305              		.cfi_startproc
 1306              		@ args = 0, pretend = 0, frame = 0
 1307              		@ frame_needed = 0, uses_anonymous_args = 0
 1308              	.LVL221:
 1309 0000 10B5     		push	{r4, lr}
 1310              		.cfi_def_cfa_offset 8
 1311              		.cfi_offset 4, -8
 1312              		.cfi_offset 14, -4
 391:..\..\..\..\..\..\Dev\Library embedded l2c display\u8g2\csrc/u8x8_8x8.c ****   return u8x8_draw_string(u8x8, x, y, s);
 1313              		.loc 1 391 0
 1314 0002 024C     		ldr	r4, .L78
 1315 0004 4460     		str	r4, [r0, #4]
 392:..\..\..\..\..\..\Dev\Library embedded l2c display\u8g2\csrc/u8x8_8x8.c **** }
 1316              		.loc 1 392 0
ARM GAS  C:\Users\Abude\AppData\Local\Temp\ccotp7Re.s 			page 34


 1317 0006 FFF7FEFF 		bl	u8x8_draw_string
 1318              	.LVL222:
 393:..\..\..\..\..\..\Dev\Library embedded l2c display\u8g2\csrc/u8x8_8x8.c **** 
 1319              		.loc 1 393 0
 1320 000a 10BD     		pop	{r4, pc}
 1321              	.L79:
 1322              		.align	2
 1323              	.L78:
 1324 000c 00000000 		.word	u8x8_utf8_next
 1325              		.cfi_endproc
 1326              	.LFE14:
 1327              		.size	u8x8_DrawUTF8, .-u8x8_DrawUTF8
 1328              		.section	.text.u8x8_Draw2x2String,"ax",%progbits
 1329              		.align	2
 1330              		.global	u8x8_Draw2x2String
 1331              		.thumb
 1332              		.thumb_func
 1333              		.type	u8x8_Draw2x2String, %function
 1334              	u8x8_Draw2x2String:
 1335              	.LFB16:
 425:..\..\..\..\..\..\Dev\Library embedded l2c display\u8g2\csrc/u8x8_8x8.c ****   u8x8->next_cb = u8x8_ascii_next;
 1336              		.loc 1 425 0
 1337              		.cfi_startproc
 1338              		@ args = 0, pretend = 0, frame = 0
 1339              		@ frame_needed = 0, uses_anonymous_args = 0
 1340              	.LVL223:
 1341 0000 10B5     		push	{r4, lr}
 1342              		.cfi_def_cfa_offset 8
 1343              		.cfi_offset 4, -8
 1344              		.cfi_offset 14, -4
 426:..\..\..\..\..\..\Dev\Library embedded l2c display\u8g2\csrc/u8x8_8x8.c ****   return u8x8_draw_2x2_string(u8x8, x, y, s);
 1345              		.loc 1 426 0
 1346 0002 024C     		ldr	r4, .L82
 1347 0004 4460     		str	r4, [r0, #4]
 427:..\..\..\..\..\..\Dev\Library embedded l2c display\u8g2\csrc/u8x8_8x8.c **** }
 1348              		.loc 1 427 0
 1349 0006 FFF7FEFF 		bl	u8x8_draw_2x2_string
 1350              	.LVL224:
 428:..\..\..\..\..\..\Dev\Library embedded l2c display\u8g2\csrc/u8x8_8x8.c **** 
 1351              		.loc 1 428 0
 1352 000a 10BD     		pop	{r4, pc}
 1353              	.L83:
 1354              		.align	2
 1355              	.L82:
 1356 000c 00000000 		.word	u8x8_ascii_next
 1357              		.cfi_endproc
 1358              	.LFE16:
 1359              		.size	u8x8_Draw2x2String, .-u8x8_Draw2x2String
 1360              		.section	.text.u8x8_Draw2x2UTF8,"ax",%progbits
 1361              		.align	2
 1362              		.global	u8x8_Draw2x2UTF8
 1363              		.thumb
 1364              		.thumb_func
 1365              		.type	u8x8_Draw2x2UTF8, %function
 1366              	u8x8_Draw2x2UTF8:
 1367              	.LFB17:
 431:..\..\..\..\..\..\Dev\Library embedded l2c display\u8g2\csrc/u8x8_8x8.c ****   u8x8->next_cb = u8x8_utf8_next;
ARM GAS  C:\Users\Abude\AppData\Local\Temp\ccotp7Re.s 			page 35


 1368              		.loc 1 431 0
 1369              		.cfi_startproc
 1370              		@ args = 0, pretend = 0, frame = 0
 1371              		@ frame_needed = 0, uses_anonymous_args = 0
 1372              	.LVL225:
 1373 0000 10B5     		push	{r4, lr}
 1374              		.cfi_def_cfa_offset 8
 1375              		.cfi_offset 4, -8
 1376              		.cfi_offset 14, -4
 432:..\..\..\..\..\..\Dev\Library embedded l2c display\u8g2\csrc/u8x8_8x8.c ****   return u8x8_draw_2x2_string(u8x8, x, y, s);
 1377              		.loc 1 432 0
 1378 0002 024C     		ldr	r4, .L86
 1379 0004 4460     		str	r4, [r0, #4]
 433:..\..\..\..\..\..\Dev\Library embedded l2c display\u8g2\csrc/u8x8_8x8.c **** }
 1380              		.loc 1 433 0
 1381 0006 FFF7FEFF 		bl	u8x8_draw_2x2_string
 1382              	.LVL226:
 434:..\..\..\..\..\..\Dev\Library embedded l2c display\u8g2\csrc/u8x8_8x8.c **** 
 1383              		.loc 1 434 0
 1384 000a 10BD     		pop	{r4, pc}
 1385              	.L87:
 1386              		.align	2
 1387              	.L86:
 1388 000c 00000000 		.word	u8x8_utf8_next
 1389              		.cfi_endproc
 1390              	.LFE17:
 1391              		.size	u8x8_Draw2x2UTF8, .-u8x8_Draw2x2UTF8
 1392              		.section	.text.u8x8_Draw1x2String,"ax",%progbits
 1393              		.align	2
 1394              		.global	u8x8_Draw1x2String
 1395              		.thumb
 1396              		.thumb_func
 1397              		.type	u8x8_Draw1x2String, %function
 1398              	u8x8_Draw1x2String:
 1399              	.LFB19:
 460:..\..\..\..\..\..\Dev\Library embedded l2c display\u8g2\csrc/u8x8_8x8.c **** 
 461:..\..\..\..\..\..\Dev\Library embedded l2c display\u8g2\csrc/u8x8_8x8.c **** 
 462:..\..\..\..\..\..\Dev\Library embedded l2c display\u8g2\csrc/u8x8_8x8.c **** uint8_t u8x8_Draw1x2String(u8x8_t *u8x8, uint8_t x, uint8_t y, const char *s)
 463:..\..\..\..\..\..\Dev\Library embedded l2c display\u8g2\csrc/u8x8_8x8.c **** {
 1400              		.loc 1 463 0
 1401              		.cfi_startproc
 1402              		@ args = 0, pretend = 0, frame = 0
 1403              		@ frame_needed = 0, uses_anonymous_args = 0
 1404              	.LVL227:
 1405 0000 10B5     		push	{r4, lr}
 1406              		.cfi_def_cfa_offset 8
 1407              		.cfi_offset 4, -8
 1408              		.cfi_offset 14, -4
 464:..\..\..\..\..\..\Dev\Library embedded l2c display\u8g2\csrc/u8x8_8x8.c ****   u8x8->next_cb = u8x8_ascii_next;
 1409              		.loc 1 464 0
 1410 0002 024C     		ldr	r4, .L90
 1411 0004 4460     		str	r4, [r0, #4]
 465:..\..\..\..\..\..\Dev\Library embedded l2c display\u8g2\csrc/u8x8_8x8.c ****   return u8x8_draw_1x2_string(u8x8, x, y, s);
 1412              		.loc 1 465 0
 1413 0006 FFF7FEFF 		bl	u8x8_draw_1x2_string
 1414              	.LVL228:
 466:..\..\..\..\..\..\Dev\Library embedded l2c display\u8g2\csrc/u8x8_8x8.c **** }
ARM GAS  C:\Users\Abude\AppData\Local\Temp\ccotp7Re.s 			page 36


 1415              		.loc 1 466 0
 1416 000a 10BD     		pop	{r4, pc}
 1417              	.L91:
 1418              		.align	2
 1419              	.L90:
 1420 000c 00000000 		.word	u8x8_ascii_next
 1421              		.cfi_endproc
 1422              	.LFE19:
 1423              		.size	u8x8_Draw1x2String, .-u8x8_Draw1x2String
 1424              		.section	.text.u8x8_Draw1x2UTF8,"ax",%progbits
 1425              		.align	2
 1426              		.global	u8x8_Draw1x2UTF8
 1427              		.thumb
 1428              		.thumb_func
 1429              		.type	u8x8_Draw1x2UTF8, %function
 1430              	u8x8_Draw1x2UTF8:
 1431              	.LFB20:
 467:..\..\..\..\..\..\Dev\Library embedded l2c display\u8g2\csrc/u8x8_8x8.c **** 
 468:..\..\..\..\..\..\Dev\Library embedded l2c display\u8g2\csrc/u8x8_8x8.c **** uint8_t u8x8_Draw1x2UTF8(u8x8_t *u8x8, uint8_t x, uint8_t y, const char *s)
 469:..\..\..\..\..\..\Dev\Library embedded l2c display\u8g2\csrc/u8x8_8x8.c **** {
 1432              		.loc 1 469 0
 1433              		.cfi_startproc
 1434              		@ args = 0, pretend = 0, frame = 0
 1435              		@ frame_needed = 0, uses_anonymous_args = 0
 1436              	.LVL229:
 1437 0000 10B5     		push	{r4, lr}
 1438              		.cfi_def_cfa_offset 8
 1439              		.cfi_offset 4, -8
 1440              		.cfi_offset 14, -4
 470:..\..\..\..\..\..\Dev\Library embedded l2c display\u8g2\csrc/u8x8_8x8.c ****   u8x8->next_cb = u8x8_utf8_next;
 1441              		.loc 1 470 0
 1442 0002 024C     		ldr	r4, .L94
 1443 0004 4460     		str	r4, [r0, #4]
 471:..\..\..\..\..\..\Dev\Library embedded l2c display\u8g2\csrc/u8x8_8x8.c ****   return u8x8_draw_1x2_string(u8x8, x, y, s);
 1444              		.loc 1 471 0
 1445 0006 FFF7FEFF 		bl	u8x8_draw_1x2_string
 1446              	.LVL230:
 472:..\..\..\..\..\..\Dev\Library embedded l2c display\u8g2\csrc/u8x8_8x8.c **** }
 1447              		.loc 1 472 0
 1448 000a 10BD     		pop	{r4, pc}
 1449              	.L95:
 1450              		.align	2
 1451              	.L94:
 1452 000c 00000000 		.word	u8x8_utf8_next
 1453              		.cfi_endproc
 1454              	.LFE20:
 1455              		.size	u8x8_Draw1x2UTF8, .-u8x8_Draw1x2UTF8
 1456              		.section	.text.u8x8_GetUTF8Len,"ax",%progbits
 1457              		.align	2
 1458              		.global	u8x8_GetUTF8Len
 1459              		.thumb
 1460              		.thumb_func
 1461              		.type	u8x8_GetUTF8Len, %function
 1462              	u8x8_GetUTF8Len:
 1463              	.LFB21:
 473:..\..\..\..\..\..\Dev\Library embedded l2c display\u8g2\csrc/u8x8_8x8.c **** 
 474:..\..\..\..\..\..\Dev\Library embedded l2c display\u8g2\csrc/u8x8_8x8.c **** 
ARM GAS  C:\Users\Abude\AppData\Local\Temp\ccotp7Re.s 			page 37


 475:..\..\..\..\..\..\Dev\Library embedded l2c display\u8g2\csrc/u8x8_8x8.c **** 
 476:..\..\..\..\..\..\Dev\Library embedded l2c display\u8g2\csrc/u8x8_8x8.c **** uint8_t u8x8_GetUTF8Len(u8x8_t *u8x8, const char *s)
 477:..\..\..\..\..\..\Dev\Library embedded l2c display\u8g2\csrc/u8x8_8x8.c **** {
 1464              		.loc 1 477 0
 1465              		.cfi_startproc
 1466              		@ args = 0, pretend = 0, frame = 0
 1467              		@ frame_needed = 0, uses_anonymous_args = 0
 1468              	.LVL231:
 1469 0000 70B5     		push	{r4, r5, r6, lr}
 1470              		.cfi_def_cfa_offset 16
 1471              		.cfi_offset 4, -16
 1472              		.cfi_offset 5, -12
 1473              		.cfi_offset 6, -8
 1474              		.cfi_offset 14, -4
 1475 0002 0646     		mov	r6, r0
 1476 0004 0C46     		mov	r4, r1
 1477              	.LVL232:
 478:..\..\..\..\..\..\Dev\Library embedded l2c display\u8g2\csrc/u8x8_8x8.c ****   uint16_t e;
 479:..\..\..\..\..\..\Dev\Library embedded l2c display\u8g2\csrc/u8x8_8x8.c ****   uint8_t cnt = 0;
 480:..\..\..\..\..\..\Dev\Library embedded l2c display\u8g2\csrc/u8x8_8x8.c ****   u8x8_utf8_init(u8x8);
 1478              		.loc 1 480 0
 1479 0006 FFF7FEFF 		bl	u8x8_utf8_init
 1480              	.LVL233:
 479:..\..\..\..\..\..\Dev\Library embedded l2c display\u8g2\csrc/u8x8_8x8.c ****   u8x8_utf8_init(u8x8);
 1481              		.loc 1 479 0
 1482 000a 0025     		movs	r5, #0
 1483              	.LVL234:
 1484              	.L97:
 481:..\..\..\..\..\..\Dev\Library embedded l2c display\u8g2\csrc/u8x8_8x8.c ****   for(;;)
 482:..\..\..\..\..\..\Dev\Library embedded l2c display\u8g2\csrc/u8x8_8x8.c ****   {
 483:..\..\..\..\..\..\Dev\Library embedded l2c display\u8g2\csrc/u8x8_8x8.c ****     e = u8x8_utf8_next(u8x8, *s);
 1485              		.loc 1 483 0
 1486 000c 2178     		ldrb	r1, [r4]	@ zero_extendqisi2
 1487 000e 3046     		mov	r0, r6
 1488 0010 FFF7FEFF 		bl	u8x8_utf8_next
 1489              	.LVL235:
 484:..\..\..\..\..\..\Dev\Library embedded l2c display\u8g2\csrc/u8x8_8x8.c ****     if ( e == 0x0ffff )
 1490              		.loc 1 484 0
 1491 0014 4FF6FF73 		movw	r3, #65535
 1492 0018 9842     		cmp	r0, r3
 1493 001a 07D0     		beq	.L98
 485:..\..\..\..\..\..\Dev\Library embedded l2c display\u8g2\csrc/u8x8_8x8.c ****       break;
 486:..\..\..\..\..\..\Dev\Library embedded l2c display\u8g2\csrc/u8x8_8x8.c ****     s++;
 1494              		.loc 1 486 0
 1495 001c 0134     		adds	r4, r4, #1
 1496              	.LVL236:
 487:..\..\..\..\..\..\Dev\Library embedded l2c display\u8g2\csrc/u8x8_8x8.c ****     if ( e != 0x0fffe )
 1497              		.loc 1 487 0
 1498 001e 4FF6FE73 		movw	r3, #65534
 1499 0022 9842     		cmp	r0, r3
 1500 0024 F2D0     		beq	.L97
 488:..\..\..\..\..\..\Dev\Library embedded l2c display\u8g2\csrc/u8x8_8x8.c ****       cnt++;
 1501              		.loc 1 488 0
 1502 0026 0135     		adds	r5, r5, #1
 1503              	.LVL237:
 1504 0028 EDB2     		uxtb	r5, r5
 1505              	.LVL238:
ARM GAS  C:\Users\Abude\AppData\Local\Temp\ccotp7Re.s 			page 38


 1506 002a EFE7     		b	.L97
 1507              	.L98:
 489:..\..\..\..\..\..\Dev\Library embedded l2c display\u8g2\csrc/u8x8_8x8.c ****   }
 490:..\..\..\..\..\..\Dev\Library embedded l2c display\u8g2\csrc/u8x8_8x8.c ****   return cnt;
 491:..\..\..\..\..\..\Dev\Library embedded l2c display\u8g2\csrc/u8x8_8x8.c **** }
 1508              		.loc 1 491 0
 1509 002c 2846     		mov	r0, r5
 1510              	.LVL239:
 1511 002e 70BD     		pop	{r4, r5, r6, pc}
 1512              		.cfi_endproc
 1513              	.LFE21:
 1514              		.size	u8x8_GetUTF8Len, .-u8x8_GetUTF8Len
 1515              		.text
 1516              	.Letext0:
 1517              		.file 2 "c:\\program files (x86)\\cypress\\psoc creator\\4.4\\psoc creator\\import\\gnu\\arm\\5.4.
 1518              		.file 3 "c:\\program files (x86)\\cypress\\psoc creator\\4.4\\psoc creator\\import\\gnu\\arm\\5.4.
 1519              		.file 4 "c:\\dev\\library embedded l2c display\\u8g2\\csrc\\u8x8.h"