ARM GAS  C:\Users\Abude\AppData\Local\Temp\ccU6fSit.s 			page 1


   1              		.syntax unified
   2              		.cpu cortex-m3
   3              		.fpu softvfp
   4              		.eabi_attribute 20, 1
   5              		.eabi_attribute 21, 1
   6              		.eabi_attribute 23, 3
   7              		.eabi_attribute 24, 1
   8              		.eabi_attribute 25, 1
   9              		.eabi_attribute 26, 1
  10              		.eabi_attribute 30, 1
  11              		.eabi_attribute 34, 1
  12              		.eabi_attribute 18, 4
  13              		.thumb
  14              		.syntax unified
  15              		.file	"u8x8_d_uc1617.c"
  16              		.text
  17              	.Ltext0:
  18              		.cfi_sections	.debug_frame
  19              		.section	.text.u8x8_upscale_4bit,"ax",%progbits
  20              		.align	2
  21              		.thumb
  22              		.thumb_func
  23              		.type	u8x8_upscale_4bit, %function
  24              	u8x8_upscale_4bit:
  25              	.LFB0:
  26              		.file 1 "..\\..\\..\\..\\..\\..\\Dev\\Library embedded l2c display\\u8g2\\csrc\\u8x8_d_uc1617.c"
   1:..\..\..\..\..\..\Dev\Library embedded l2c display\u8g2\csrc/u8x8_d_uc1617.c **** /*
   2:..\..\..\..\..\..\Dev\Library embedded l2c display\u8g2\csrc/u8x8_d_uc1617.c **** 
   3:..\..\..\..\..\..\Dev\Library embedded l2c display\u8g2\csrc/u8x8_d_uc1617.c ****   u8x8_d_uc1617.c
   4:..\..\..\..\..\..\Dev\Library embedded l2c display\u8g2\csrc/u8x8_d_uc1617.c ****   
   5:..\..\..\..\..\..\Dev\Library embedded l2c display\u8g2\csrc/u8x8_d_uc1617.c ****   Universal 8bit Graphics Library (https://github.com/olikraus/u8g2/)
   6:..\..\..\..\..\..\Dev\Library embedded l2c display\u8g2\csrc/u8x8_d_uc1617.c **** 
   7:..\..\..\..\..\..\Dev\Library embedded l2c display\u8g2\csrc/u8x8_d_uc1617.c ****   Copyright (c) 2017, olikraus@gmail.com
   8:..\..\..\..\..\..\Dev\Library embedded l2c display\u8g2\csrc/u8x8_d_uc1617.c ****   All rights reserved.
   9:..\..\..\..\..\..\Dev\Library embedded l2c display\u8g2\csrc/u8x8_d_uc1617.c **** 
  10:..\..\..\..\..\..\Dev\Library embedded l2c display\u8g2\csrc/u8x8_d_uc1617.c ****   Redistribution and use in source and binary forms, with or without modification, 
  11:..\..\..\..\..\..\Dev\Library embedded l2c display\u8g2\csrc/u8x8_d_uc1617.c ****   are permitted provided that the following conditions are met:
  12:..\..\..\..\..\..\Dev\Library embedded l2c display\u8g2\csrc/u8x8_d_uc1617.c **** 
  13:..\..\..\..\..\..\Dev\Library embedded l2c display\u8g2\csrc/u8x8_d_uc1617.c ****   * Redistributions of source code must retain the above copyright notice, this list 
  14:..\..\..\..\..\..\Dev\Library embedded l2c display\u8g2\csrc/u8x8_d_uc1617.c ****     of conditions and the following disclaimer.
  15:..\..\..\..\..\..\Dev\Library embedded l2c display\u8g2\csrc/u8x8_d_uc1617.c ****     
  16:..\..\..\..\..\..\Dev\Library embedded l2c display\u8g2\csrc/u8x8_d_uc1617.c ****   * Redistributions in binary form must reproduce the above copyright notice, this 
  17:..\..\..\..\..\..\Dev\Library embedded l2c display\u8g2\csrc/u8x8_d_uc1617.c ****     list of conditions and the following disclaimer in the documentation and/or other 
  18:..\..\..\..\..\..\Dev\Library embedded l2c display\u8g2\csrc/u8x8_d_uc1617.c ****     materials provided with the distribution.
  19:..\..\..\..\..\..\Dev\Library embedded l2c display\u8g2\csrc/u8x8_d_uc1617.c **** 
  20:..\..\..\..\..\..\Dev\Library embedded l2c display\u8g2\csrc/u8x8_d_uc1617.c ****   THIS SOFTWARE IS PROVIDED BY THE COPYRIGHT HOLDERS AND 
  21:..\..\..\..\..\..\Dev\Library embedded l2c display\u8g2\csrc/u8x8_d_uc1617.c ****   CONTRIBUTORS "AS IS" AND ANY EXPRESS OR IMPLIED WARRANTIES, 
  22:..\..\..\..\..\..\Dev\Library embedded l2c display\u8g2\csrc/u8x8_d_uc1617.c ****   INCLUDING, BUT NOT LIMITED TO, THE IMPLIED WARRANTIES OF 
  23:..\..\..\..\..\..\Dev\Library embedded l2c display\u8g2\csrc/u8x8_d_uc1617.c ****   MERCHANTABILITY AND FITNESS FOR A PARTICULAR PURPOSE ARE 
  24:..\..\..\..\..\..\Dev\Library embedded l2c display\u8g2\csrc/u8x8_d_uc1617.c ****   DISCLAIMED. IN NO EVENT SHALL THE COPYRIGHT HOLDER OR 
  25:..\..\..\..\..\..\Dev\Library embedded l2c display\u8g2\csrc/u8x8_d_uc1617.c ****   CONTRIBUTORS BE LIABLE FOR ANY DIRECT, INDIRECT, INCIDENTAL, 
  26:..\..\..\..\..\..\Dev\Library embedded l2c display\u8g2\csrc/u8x8_d_uc1617.c ****   SPECIAL, EXEMPLARY, OR CONSEQUENTIAL DAMAGES (INCLUDING, BUT 
  27:..\..\..\..\..\..\Dev\Library embedded l2c display\u8g2\csrc/u8x8_d_uc1617.c ****   NOT LIMITED TO, PROCUREMENT OF SUBSTITUTE GOODS OR SERVICES; 
  28:..\..\..\..\..\..\Dev\Library embedded l2c display\u8g2\csrc/u8x8_d_uc1617.c ****   LOSS OF USE, DATA, OR PROFITS; OR BUSINESS INTERRUPTION) HOWEVER 
  29:..\..\..\..\..\..\Dev\Library embedded l2c display\u8g2\csrc/u8x8_d_uc1617.c ****   CAUSED AND ON ANY THEORY OF LIABILITY, WHETHER IN CONTRACT, 
  30:..\..\..\..\..\..\Dev\Library embedded l2c display\u8g2\csrc/u8x8_d_uc1617.c ****   STRICT LIABILITY, OR TORT (INCLUDING NEGLIGENCE OR OTHERWISE) 
  31:..\..\..\..\..\..\Dev\Library embedded l2c display\u8g2\csrc/u8x8_d_uc1617.c ****   ARISING IN ANY WAY OUT OF THE USE OF THIS SOFTWARE, EVEN IF 
ARM GAS  C:\Users\Abude\AppData\Local\Temp\ccU6fSit.s 			page 2


  32:..\..\..\..\..\..\Dev\Library embedded l2c display\u8g2\csrc/u8x8_d_uc1617.c ****   ADVISED OF THE POSSIBILITY OF SUCH DAMAGE.  
  33:..\..\..\..\..\..\Dev\Library embedded l2c display\u8g2\csrc/u8x8_d_uc1617.c **** 
  34:..\..\..\..\..\..\Dev\Library embedded l2c display\u8g2\csrc/u8x8_d_uc1617.c **** 
  35:..\..\..\..\..\..\Dev\Library embedded l2c display\u8g2\csrc/u8x8_d_uc1617.c **** */
  36:..\..\..\..\..\..\Dev\Library embedded l2c display\u8g2\csrc/u8x8_d_uc1617.c **** #include "u8x8.h"
  37:..\..\..\..\..\..\Dev\Library embedded l2c display\u8g2\csrc/u8x8_d_uc1617.c **** 
  38:..\..\..\..\..\..\Dev\Library embedded l2c display\u8g2\csrc/u8x8_d_uc1617.c **** 
  39:..\..\..\..\..\..\Dev\Library embedded l2c display\u8g2\csrc/u8x8_d_uc1617.c **** 
  40:..\..\..\..\..\..\Dev\Library embedded l2c display\u8g2\csrc/u8x8_d_uc1617.c **** 
  41:..\..\..\..\..\..\Dev\Library embedded l2c display\u8g2\csrc/u8x8_d_uc1617.c **** 
  42:..\..\..\..\..\..\Dev\Library embedded l2c display\u8g2\csrc/u8x8_d_uc1617.c **** static const uint8_t u8x8_d_uc1617_powersave0_seq[] = {
  43:..\..\..\..\..\..\Dev\Library embedded l2c display\u8g2\csrc/u8x8_d_uc1617.c ****   U8X8_START_TRANSFER(),             	/* enable chip, delay is part of the transfer start */
  44:..\..\..\..\..\..\Dev\Library embedded l2c display\u8g2\csrc/u8x8_d_uc1617.c ****   //U8X8_C(0x0ad),            			/* display enable BW Mode*/
  45:..\..\..\..\..\..\Dev\Library embedded l2c display\u8g2\csrc/u8x8_d_uc1617.c ****   U8X8_C(0x0af),            			/* display enable GS Mode*/
  46:..\..\..\..\..\..\Dev\Library embedded l2c display\u8g2\csrc/u8x8_d_uc1617.c ****   U8X8_END_TRANSFER(),             	/* disable chip */
  47:..\..\..\..\..\..\Dev\Library embedded l2c display\u8g2\csrc/u8x8_d_uc1617.c ****   U8X8_END()             			/* end of sequence */
  48:..\..\..\..\..\..\Dev\Library embedded l2c display\u8g2\csrc/u8x8_d_uc1617.c **** };
  49:..\..\..\..\..\..\Dev\Library embedded l2c display\u8g2\csrc/u8x8_d_uc1617.c **** 
  50:..\..\..\..\..\..\Dev\Library embedded l2c display\u8g2\csrc/u8x8_d_uc1617.c **** static const uint8_t u8x8_d_uc1617_powersave1_seq[] = {
  51:..\..\..\..\..\..\Dev\Library embedded l2c display\u8g2\csrc/u8x8_d_uc1617.c ****   U8X8_START_TRANSFER(),             	/* enable chip, delay is part of the transfer start */
  52:..\..\..\..\..\..\Dev\Library embedded l2c display\u8g2\csrc/u8x8_d_uc1617.c ****   U8X8_C(0x0ac),		                /* display off, enter sleep mode */
  53:..\..\..\..\..\..\Dev\Library embedded l2c display\u8g2\csrc/u8x8_d_uc1617.c ****   U8X8_END_TRANSFER(),             	/* disable chip */
  54:..\..\..\..\..\..\Dev\Library embedded l2c display\u8g2\csrc/u8x8_d_uc1617.c ****   U8X8_END()             			/* end of sequence */
  55:..\..\..\..\..\..\Dev\Library embedded l2c display\u8g2\csrc/u8x8_d_uc1617.c **** };
  56:..\..\..\..\..\..\Dev\Library embedded l2c display\u8g2\csrc/u8x8_d_uc1617.c **** 
  57:..\..\..\..\..\..\Dev\Library embedded l2c display\u8g2\csrc/u8x8_d_uc1617.c **** static const uint8_t u8x8_d_uc1617_flip0_seq[] = {
  58:..\..\..\..\..\..\Dev\Library embedded l2c display\u8g2\csrc/u8x8_d_uc1617.c ****   U8X8_START_TRANSFER(),             	/* enable chip, delay is part of the transfer start */
  59:..\..\..\..\..\..\Dev\Library embedded l2c display\u8g2\csrc/u8x8_d_uc1617.c ****   U8X8_C(0x0c0),            	/* LCD Mapping */
  60:..\..\..\..\..\..\Dev\Library embedded l2c display\u8g2\csrc/u8x8_d_uc1617.c ****   U8X8_END_TRANSFER(),             	/* disable chip */
  61:..\..\..\..\..\..\Dev\Library embedded l2c display\u8g2\csrc/u8x8_d_uc1617.c ****   U8X8_END()             			/* end of sequence */
  62:..\..\..\..\..\..\Dev\Library embedded l2c display\u8g2\csrc/u8x8_d_uc1617.c **** };
  63:..\..\..\..\..\..\Dev\Library embedded l2c display\u8g2\csrc/u8x8_d_uc1617.c **** 
  64:..\..\..\..\..\..\Dev\Library embedded l2c display\u8g2\csrc/u8x8_d_uc1617.c **** static const uint8_t u8x8_d_uc1617_flip1_seq[] = {
  65:..\..\..\..\..\..\Dev\Library embedded l2c display\u8g2\csrc/u8x8_d_uc1617.c ****   U8X8_START_TRANSFER(),             	/* enable chip, delay is part of the transfer start */
  66:..\..\..\..\..\..\Dev\Library embedded l2c display\u8g2\csrc/u8x8_d_uc1617.c ****   U8X8_C(0x0c6),            	/* LCD Mapping */
  67:..\..\..\..\..\..\Dev\Library embedded l2c display\u8g2\csrc/u8x8_d_uc1617.c ****   U8X8_END_TRANSFER(),             	/* disable chip */
  68:..\..\..\..\..\..\Dev\Library embedded l2c display\u8g2\csrc/u8x8_d_uc1617.c ****   U8X8_END()             			/* end of sequence */
  69:..\..\..\..\..\..\Dev\Library embedded l2c display\u8g2\csrc/u8x8_d_uc1617.c **** };
  70:..\..\..\..\..\..\Dev\Library embedded l2c display\u8g2\csrc/u8x8_d_uc1617.c **** 
  71:..\..\..\..\..\..\Dev\Library embedded l2c display\u8g2\csrc/u8x8_d_uc1617.c **** 
  72:..\..\..\..\..\..\Dev\Library embedded l2c display\u8g2\csrc/u8x8_d_uc1617.c **** //static uint8_t u8x8_upscale_4bit(uint8_t x) U8X8_NOINLINE;
  73:..\..\..\..\..\..\Dev\Library embedded l2c display\u8g2\csrc/u8x8_d_uc1617.c **** static uint8_t u8x8_upscale_4bit(uint8_t x) 
  74:..\..\..\..\..\..\Dev\Library embedded l2c display\u8g2\csrc/u8x8_d_uc1617.c **** {
  27              		.loc 1 74 0
  28              		.cfi_startproc
  29              		@ args = 0, pretend = 0, frame = 0
  30              		@ frame_needed = 0, uses_anonymous_args = 0
  31              		@ link register save eliminated.
  32              	.LVL0:
  75:..\..\..\..\..\..\Dev\Library embedded l2c display\u8g2\csrc/u8x8_d_uc1617.c **** 	uint8_t y = x;
  76:..\..\..\..\..\..\Dev\Library embedded l2c display\u8g2\csrc/u8x8_d_uc1617.c **** 	y |= (y << 4);		// x = (x | (x << S[2])) & B[2];
  77:..\..\..\..\..\..\Dev\Library embedded l2c display\u8g2\csrc/u8x8_d_uc1617.c **** 	y &= 0x0f;
  33              		.loc 1 77 0
  34 0000 00F00F00 		and	r0, r0, #15
  35              	.LVL1:
  78:..\..\..\..\..\..\Dev\Library embedded l2c display\u8g2\csrc/u8x8_d_uc1617.c **** 	y |= (y << 2);		// x = (x | (x << S[1])) & B[1];
  36              		.loc 1 78 0
ARM GAS  C:\Users\Abude\AppData\Local\Temp\ccU6fSit.s 			page 3


  37 0004 40EA8000 		orr	r0, r0, r0, lsl #2
  38              	.LVL2:
  79:..\..\..\..\..\..\Dev\Library embedded l2c display\u8g2\csrc/u8x8_d_uc1617.c **** 	y &= 0x33;
  39              		.loc 1 79 0
  40 0008 00F03300 		and	r0, r0, #51
  41              	.LVL3:
  80:..\..\..\..\..\..\Dev\Library embedded l2c display\u8g2\csrc/u8x8_d_uc1617.c **** 	y |= (y << 1);		// x = (x | (x << S[0])) & B[0];
  42              		.loc 1 80 0
  43 000c 40EA4000 		orr	r0, r0, r0, lsl #1
  44              	.LVL4:
  81:..\..\..\..\..\..\Dev\Library embedded l2c display\u8g2\csrc/u8x8_d_uc1617.c **** 	y &= 0x55;
  45              		.loc 1 81 0
  46 0010 00F05500 		and	r0, r0, #85
  47              	.LVL5:
  82:..\..\..\..\..\..\Dev\Library embedded l2c display\u8g2\csrc/u8x8_d_uc1617.c ****   
  83:..\..\..\..\..\..\Dev\Library embedded l2c display\u8g2\csrc/u8x8_d_uc1617.c **** 	y |= (y << 1);		// z = x | (y << 1);
  84:..\..\..\..\..\..\Dev\Library embedded l2c display\u8g2\csrc/u8x8_d_uc1617.c **** 	return y;
  85:..\..\..\..\..\..\Dev\Library embedded l2c display\u8g2\csrc/u8x8_d_uc1617.c **** }
  48              		.loc 1 85 0
  49 0014 40EA4000 		orr	r0, r0, r0, lsl #1
  50              	.LVL6:
  51 0018 7047     		bx	lr
  52              		.cfi_endproc
  53              	.LFE0:
  54              		.size	u8x8_upscale_4bit, .-u8x8_upscale_4bit
  55 001a 00BF     		.section	.text.u8x8_convert_tile_for_uc1617_lower4bit,"ax",%progbits
  56              		.align	2
  57              		.thumb
  58              		.thumb_func
  59              		.type	u8x8_convert_tile_for_uc1617_lower4bit, %function
  60              	u8x8_convert_tile_for_uc1617_lower4bit:
  61              	.LFB1:
  86:..\..\..\..\..\..\Dev\Library embedded l2c display\u8g2\csrc/u8x8_d_uc1617.c **** 
  87:..\..\..\..\..\..\Dev\Library embedded l2c display\u8g2\csrc/u8x8_d_uc1617.c **** static uint8_t u8x8_uc1617_tile_half_buffer[8];
  88:..\..\..\..\..\..\Dev\Library embedded l2c display\u8g2\csrc/u8x8_d_uc1617.c **** 
  89:..\..\..\..\..\..\Dev\Library embedded l2c display\u8g2\csrc/u8x8_d_uc1617.c **** static uint8_t *u8x8_convert_tile_for_uc1617_lower4bit(uint8_t *t)
  90:..\..\..\..\..\..\Dev\Library embedded l2c display\u8g2\csrc/u8x8_d_uc1617.c **** {
  62              		.loc 1 90 0
  63              		.cfi_startproc
  64              		@ args = 0, pretend = 0, frame = 0
  65              		@ frame_needed = 0, uses_anonymous_args = 0
  66              	.LVL7:
  67 0000 F8B5     		push	{r3, r4, r5, r6, r7, lr}
  68              		.cfi_def_cfa_offset 24
  69              		.cfi_offset 3, -24
  70              		.cfi_offset 4, -20
  71              		.cfi_offset 5, -16
  72              		.cfi_offset 6, -12
  73              		.cfi_offset 7, -8
  74              		.cfi_offset 14, -4
  75              	.LVL8:
  91:..\..\..\..\..\..\Dev\Library embedded l2c display\u8g2\csrc/u8x8_d_uc1617.c ****   uint8_t i;
  92:..\..\..\..\..\..\Dev\Library embedded l2c display\u8g2\csrc/u8x8_d_uc1617.c ****   uint8_t *pbuf = u8x8_uc1617_tile_half_buffer;
  76              		.loc 1 92 0
  77 0002 084D     		ldr	r5, .L6
  93:..\..\..\..\..\..\Dev\Library embedded l2c display\u8g2\csrc/u8x8_d_uc1617.c **** 
  94:..\..\..\..\..\..\Dev\Library embedded l2c display\u8g2\csrc/u8x8_d_uc1617.c ****   for( i = 0; i < 8; i++ )
ARM GAS  C:\Users\Abude\AppData\Local\Temp\ccU6fSit.s 			page 4


  78              		.loc 1 94 0
  79 0004 0024     		movs	r4, #0
  80 0006 09E0     		b	.L3
  81              	.LVL9:
  82              	.L4:
  95:..\..\..\..\..\..\Dev\Library embedded l2c display\u8g2\csrc/u8x8_d_uc1617.c ****   {
  96:..\..\..\..\..\..\Dev\Library embedded l2c display\u8g2\csrc/u8x8_d_uc1617.c ****     *pbuf++ = u8x8_upscale_4bit(*t++);
  83              		.loc 1 96 0 discriminator 3
  84 0008 6F1C     		adds	r7, r5, #1
  85              	.LVL10:
  86 000a 461C     		adds	r6, r0, #1
  87              	.LVL11:
  88 000c 0078     		ldrb	r0, [r0]	@ zero_extendqisi2
  89 000e FFF7FEFF 		bl	u8x8_upscale_4bit
  90              	.LVL12:
  91 0012 2870     		strb	r0, [r5]
  94:..\..\..\..\..\..\Dev\Library embedded l2c display\u8g2\csrc/u8x8_d_uc1617.c ****   {
  92              		.loc 1 94 0 discriminator 3
  93 0014 0134     		adds	r4, r4, #1
  94              	.LVL13:
  95 0016 E4B2     		uxtb	r4, r4
  96              	.LVL14:
  97              		.loc 1 96 0 discriminator 3
  98 0018 3D46     		mov	r5, r7
  99 001a 3046     		mov	r0, r6
 100              	.LVL15:
 101              	.L3:
  94:..\..\..\..\..\..\Dev\Library embedded l2c display\u8g2\csrc/u8x8_d_uc1617.c ****   {
 102              		.loc 1 94 0 discriminator 1
 103 001c 072C     		cmp	r4, #7
 104 001e F3D9     		bls	.L4
  97:..\..\..\..\..\..\Dev\Library embedded l2c display\u8g2\csrc/u8x8_d_uc1617.c ****   }
  98:..\..\..\..\..\..\Dev\Library embedded l2c display\u8g2\csrc/u8x8_d_uc1617.c ****   return u8x8_uc1617_tile_half_buffer;
  99:..\..\..\..\..\..\Dev\Library embedded l2c display\u8g2\csrc/u8x8_d_uc1617.c **** }
 105              		.loc 1 99 0
 106 0020 0048     		ldr	r0, .L6
 107              	.LVL16:
 108 0022 F8BD     		pop	{r3, r4, r5, r6, r7, pc}
 109              	.LVL17:
 110              	.L7:
 111              		.align	2
 112              	.L6:
 113 0024 00000000 		.word	.LANCHOR0
 114              		.cfi_endproc
 115              	.LFE1:
 116              		.size	u8x8_convert_tile_for_uc1617_lower4bit, .-u8x8_convert_tile_for_uc1617_lower4bit
 117              		.section	.text.u8x8_convert_tile_for_uc1617_upper4bit,"ax",%progbits
 118              		.align	2
 119              		.thumb
 120              		.thumb_func
 121              		.type	u8x8_convert_tile_for_uc1617_upper4bit, %function
 122              	u8x8_convert_tile_for_uc1617_upper4bit:
 123              	.LFB2:
 100:..\..\..\..\..\..\Dev\Library embedded l2c display\u8g2\csrc/u8x8_d_uc1617.c **** 
 101:..\..\..\..\..\..\Dev\Library embedded l2c display\u8g2\csrc/u8x8_d_uc1617.c **** static uint8_t *u8x8_convert_tile_for_uc1617_upper4bit(uint8_t *t)
 102:..\..\..\..\..\..\Dev\Library embedded l2c display\u8g2\csrc/u8x8_d_uc1617.c **** {
 124              		.loc 1 102 0
ARM GAS  C:\Users\Abude\AppData\Local\Temp\ccU6fSit.s 			page 5


 125              		.cfi_startproc
 126              		@ args = 0, pretend = 0, frame = 0
 127              		@ frame_needed = 0, uses_anonymous_args = 0
 128              	.LVL18:
 129 0000 F8B5     		push	{r3, r4, r5, r6, r7, lr}
 130              		.cfi_def_cfa_offset 24
 131              		.cfi_offset 3, -24
 132              		.cfi_offset 4, -20
 133              		.cfi_offset 5, -16
 134              		.cfi_offset 6, -12
 135              		.cfi_offset 7, -8
 136              		.cfi_offset 14, -4
 137              	.LVL19:
 103:..\..\..\..\..\..\Dev\Library embedded l2c display\u8g2\csrc/u8x8_d_uc1617.c ****   uint8_t i;
 104:..\..\..\..\..\..\Dev\Library embedded l2c display\u8g2\csrc/u8x8_d_uc1617.c ****   uint8_t *pbuf = u8x8_uc1617_tile_half_buffer;
 138              		.loc 1 104 0
 139 0002 094D     		ldr	r5, .L12
 105:..\..\..\..\..\..\Dev\Library embedded l2c display\u8g2\csrc/u8x8_d_uc1617.c **** 
 106:..\..\..\..\..\..\Dev\Library embedded l2c display\u8g2\csrc/u8x8_d_uc1617.c ****   for( i = 0; i < 8; i++ )
 140              		.loc 1 106 0
 141 0004 0024     		movs	r4, #0
 142 0006 0AE0     		b	.L9
 143              	.LVL20:
 144              	.L10:
 107:..\..\..\..\..\..\Dev\Library embedded l2c display\u8g2\csrc/u8x8_d_uc1617.c ****   {
 108:..\..\..\..\..\..\Dev\Library embedded l2c display\u8g2\csrc/u8x8_d_uc1617.c ****     *pbuf++ = u8x8_upscale_4bit((*t++)>>4);
 145              		.loc 1 108 0 discriminator 3
 146 0008 6F1C     		adds	r7, r5, #1
 147              	.LVL21:
 148 000a 461C     		adds	r6, r0, #1
 149              	.LVL22:
 150 000c 0078     		ldrb	r0, [r0]	@ zero_extendqisi2
 151 000e 0009     		lsrs	r0, r0, #4
 152 0010 FFF7FEFF 		bl	u8x8_upscale_4bit
 153              	.LVL23:
 154 0014 2870     		strb	r0, [r5]
 106:..\..\..\..\..\..\Dev\Library embedded l2c display\u8g2\csrc/u8x8_d_uc1617.c ****   {
 155              		.loc 1 106 0 discriminator 3
 156 0016 0134     		adds	r4, r4, #1
 157              	.LVL24:
 158 0018 E4B2     		uxtb	r4, r4
 159              	.LVL25:
 160              		.loc 1 108 0 discriminator 3
 161 001a 3D46     		mov	r5, r7
 162 001c 3046     		mov	r0, r6
 163              	.LVL26:
 164              	.L9:
 106:..\..\..\..\..\..\Dev\Library embedded l2c display\u8g2\csrc/u8x8_d_uc1617.c ****   {
 165              		.loc 1 106 0 discriminator 1
 166 001e 072C     		cmp	r4, #7
 167 0020 F2D9     		bls	.L10
 109:..\..\..\..\..\..\Dev\Library embedded l2c display\u8g2\csrc/u8x8_d_uc1617.c ****   }
 110:..\..\..\..\..\..\Dev\Library embedded l2c display\u8g2\csrc/u8x8_d_uc1617.c ****   return u8x8_uc1617_tile_half_buffer;
 111:..\..\..\..\..\..\Dev\Library embedded l2c display\u8g2\csrc/u8x8_d_uc1617.c **** }
 168              		.loc 1 111 0
 169 0022 0148     		ldr	r0, .L12
 170              	.LVL27:
ARM GAS  C:\Users\Abude\AppData\Local\Temp\ccU6fSit.s 			page 6


 171 0024 F8BD     		pop	{r3, r4, r5, r6, r7, pc}
 172              	.LVL28:
 173              	.L13:
 174 0026 00BF     		.align	2
 175              	.L12:
 176 0028 00000000 		.word	.LANCHOR0
 177              		.cfi_endproc
 178              	.LFE2:
 179              		.size	u8x8_convert_tile_for_uc1617_upper4bit, .-u8x8_convert_tile_for_uc1617_upper4bit
 180              		.section	.text.u8x8_d_uc1617_common,"ax",%progbits
 181              		.align	2
 182              		.global	u8x8_d_uc1617_common
 183              		.thumb
 184              		.thumb_func
 185              		.type	u8x8_d_uc1617_common, %function
 186              	u8x8_d_uc1617_common:
 187              	.LFB3:
 112:..\..\..\..\..\..\Dev\Library embedded l2c display\u8g2\csrc/u8x8_d_uc1617.c **** 
 113:..\..\..\..\..\..\Dev\Library embedded l2c display\u8g2\csrc/u8x8_d_uc1617.c **** #ifdef NOT_USED
 114:..\..\..\..\..\..\Dev\Library embedded l2c display\u8g2\csrc/u8x8_d_uc1617.c **** static uint8_t *u8x8_convert_tile_for_uc1617(uint8_t *t)
 115:..\..\..\..\..\..\Dev\Library embedded l2c display\u8g2\csrc/u8x8_d_uc1617.c **** {
 116:..\..\..\..\..\..\Dev\Library embedded l2c display\u8g2\csrc/u8x8_d_uc1617.c ****   uint8_t i;
 117:..\..\..\..\..\..\Dev\Library embedded l2c display\u8g2\csrc/u8x8_d_uc1617.c ****   uint16_t r;
 118:..\..\..\..\..\..\Dev\Library embedded l2c display\u8g2\csrc/u8x8_d_uc1617.c ****   static uint8_t buf[16];
 119:..\..\..\..\..\..\Dev\Library embedded l2c display\u8g2\csrc/u8x8_d_uc1617.c ****   uint8_t *pbuf = buf;
 120:..\..\..\..\..\..\Dev\Library embedded l2c display\u8g2\csrc/u8x8_d_uc1617.c **** 
 121:..\..\..\..\..\..\Dev\Library embedded l2c display\u8g2\csrc/u8x8_d_uc1617.c ****   for( i = 0; i < 8; i++ )
 122:..\..\..\..\..\..\Dev\Library embedded l2c display\u8g2\csrc/u8x8_d_uc1617.c ****   {
 123:..\..\..\..\..\..\Dev\Library embedded l2c display\u8g2\csrc/u8x8_d_uc1617.c ****     r = u8x8_upscale_byte(*t++);
 124:..\..\..\..\..\..\Dev\Library embedded l2c display\u8g2\csrc/u8x8_d_uc1617.c ****     *pbuf = r & 255;
 125:..\..\..\..\..\..\Dev\Library embedded l2c display\u8g2\csrc/u8x8_d_uc1617.c ****     r >>= 8;
 126:..\..\..\..\..\..\Dev\Library embedded l2c display\u8g2\csrc/u8x8_d_uc1617.c ****     pbuf+=8;
 127:..\..\..\..\..\..\Dev\Library embedded l2c display\u8g2\csrc/u8x8_d_uc1617.c ****     *pbuf = r;
 128:..\..\..\..\..\..\Dev\Library embedded l2c display\u8g2\csrc/u8x8_d_uc1617.c ****     pbuf-=7;
 129:..\..\..\..\..\..\Dev\Library embedded l2c display\u8g2\csrc/u8x8_d_uc1617.c ****   }
 130:..\..\..\..\..\..\Dev\Library embedded l2c display\u8g2\csrc/u8x8_d_uc1617.c ****   return buf;
 131:..\..\..\..\..\..\Dev\Library embedded l2c display\u8g2\csrc/u8x8_d_uc1617.c **** }
 132:..\..\..\..\..\..\Dev\Library embedded l2c display\u8g2\csrc/u8x8_d_uc1617.c **** #endif
 133:..\..\..\..\..\..\Dev\Library embedded l2c display\u8g2\csrc/u8x8_d_uc1617.c **** 
 134:..\..\..\..\..\..\Dev\Library embedded l2c display\u8g2\csrc/u8x8_d_uc1617.c **** 
 135:..\..\..\..\..\..\Dev\Library embedded l2c display\u8g2\csrc/u8x8_d_uc1617.c **** uint8_t u8x8_d_uc1617_common(u8x8_t *u8x8, uint8_t msg, uint8_t arg_int, void *arg_ptr)
 136:..\..\..\..\..\..\Dev\Library embedded l2c display\u8g2\csrc/u8x8_d_uc1617.c **** {
 188              		.loc 1 136 0
 189              		.cfi_startproc
 190              		@ args = 0, pretend = 0, frame = 0
 191              		@ frame_needed = 0, uses_anonymous_args = 0
 192              	.LVL29:
 193 0000 2DE9F047 		push	{r4, r5, r6, r7, r8, r9, r10, lr}
 194              		.cfi_def_cfa_offset 32
 195              		.cfi_offset 4, -32
 196              		.cfi_offset 5, -28
 197              		.cfi_offset 6, -24
 198              		.cfi_offset 7, -20
 199              		.cfi_offset 8, -16
 200              		.cfi_offset 9, -12
 201              		.cfi_offset 10, -8
 202              		.cfi_offset 14, -4
ARM GAS  C:\Users\Abude\AppData\Local\Temp\ccU6fSit.s 			page 7


 203 0004 0646     		mov	r6, r0
 204 0006 1746     		mov	r7, r2
 205 0008 9846     		mov	r8, r3
 137:..\..\..\..\..\..\Dev\Library embedded l2c display\u8g2\csrc/u8x8_d_uc1617.c ****   uint8_t x, y, c, a;
 138:..\..\..\..\..\..\Dev\Library embedded l2c display\u8g2\csrc/u8x8_d_uc1617.c ****   uint8_t *ptr;
 139:..\..\..\..\..\..\Dev\Library embedded l2c display\u8g2\csrc/u8x8_d_uc1617.c ****   switch(msg)
 206              		.loc 1 139 0
 207 000a 0B39     		subs	r1, r1, #11
 208              	.LVL30:
 209 000c 0429     		cmp	r1, #4
 210 000e 00F2A580 		bhi	.L27
 211 0012 DFE801F0 		tbb	[pc, r1]
 212              	.LVL31:
 213              	.L17:
 214 0016 71       		.byte	(.L16-.L17)/2
 215 0017 A3       		.byte	(.L27-.L17)/2
 216 0018 7E       		.byte	(.L18-.L17)/2
 217 0019 93       		.byte	(.L19-.L17)/2
 218 001a 03       		.byte	(.L20-.L17)/2
 219 001b 00       		.p2align 1
 220              	.L20:
 140:..\..\..\..\..\..\Dev\Library embedded l2c display\u8g2\csrc/u8x8_d_uc1617.c ****   {
 141:..\..\..\..\..\..\Dev\Library embedded l2c display\u8g2\csrc/u8x8_d_uc1617.c ****     case U8X8_MSG_DISPLAY_DRAW_TILE:
 142:..\..\..\..\..\..\Dev\Library embedded l2c display\u8g2\csrc/u8x8_d_uc1617.c ****       u8x8_cad_StartTransfer(u8x8);
 221              		.loc 1 142 0
 222 001c FFF7FEFF 		bl	u8x8_cad_StartTransfer
 223              	.LVL32:
 143:..\..\..\..\..\..\Dev\Library embedded l2c display\u8g2\csrc/u8x8_d_uc1617.c ****     
 144:..\..\..\..\..\..\Dev\Library embedded l2c display\u8g2\csrc/u8x8_d_uc1617.c **** 
 145:..\..\..\..\..\..\Dev\Library embedded l2c display\u8g2\csrc/u8x8_d_uc1617.c **** 
 146:..\..\..\..\..\..\Dev\Library embedded l2c display\u8g2\csrc/u8x8_d_uc1617.c ****       y = ((u8x8_tile_t *)arg_ptr)->y_pos;
 224              		.loc 1 146 0
 225 0020 98F80690 		ldrb	r9, [r8, #6]	@ zero_extendqisi2
 226              	.LVL33:
 147:..\..\..\..\..\..\Dev\Library embedded l2c display\u8g2\csrc/u8x8_d_uc1617.c ****       y*=2;
 227              		.loc 1 147 0
 228 0024 4FEA4909 		lsl	r9, r9, #1
 229              	.LVL34:
 230 0028 5FFA89F9 		uxtb	r9, r9
 231              	.LVL35:
 148:..\..\..\..\..\..\Dev\Library embedded l2c display\u8g2\csrc/u8x8_d_uc1617.c **** 
 149:..\..\..\..\..\..\Dev\Library embedded l2c display\u8g2\csrc/u8x8_d_uc1617.c ****       x = ((u8x8_tile_t *)arg_ptr)->x_pos;
 232              		.loc 1 149 0
 233 002c 98F80540 		ldrb	r4, [r8, #5]	@ zero_extendqisi2
 234              	.LVL36:
 150:..\..\..\..\..\..\Dev\Library embedded l2c display\u8g2\csrc/u8x8_d_uc1617.c ****       x *= 8;
 235              		.loc 1 150 0
 236 0030 E400     		lsls	r4, r4, #3
 237              	.LVL37:
 238 0032 E4B2     		uxtb	r4, r4
 239              	.LVL38:
 151:..\..\..\..\..\..\Dev\Library embedded l2c display\u8g2\csrc/u8x8_d_uc1617.c ****       x += u8x8->x_offset;
 240              		.loc 1 151 0
 241 0034 96F82230 		ldrb	r3, [r6, #34]	@ zero_extendqisi2
 242 0038 1C44     		add	r4, r4, r3
 243              	.LVL39:
 244 003a E4B2     		uxtb	r4, r4
ARM GAS  C:\Users\Abude\AppData\Local\Temp\ccU6fSit.s 			page 8


 245              	.LVL40:
 152:..\..\..\..\..\..\Dev\Library embedded l2c display\u8g2\csrc/u8x8_d_uc1617.c ****       u8x8_cad_SendCmd(u8x8, 0x060 | (x&15));
 246              		.loc 1 152 0
 247 003c 04F00F01 		and	r1, r4, #15
 248 0040 41F06001 		orr	r1, r1, #96
 249 0044 3046     		mov	r0, r6
 250 0046 FFF7FEFF 		bl	u8x8_cad_SendCmd
 251              	.LVL41:
 153:..\..\..\..\..\..\Dev\Library embedded l2c display\u8g2\csrc/u8x8_d_uc1617.c ****       u8x8_cad_SendCmd(u8x8, 0x070 | (x>>4)); 
 252              		.loc 1 153 0
 253 004a 2109     		lsrs	r1, r4, #4
 254 004c 41F07001 		orr	r1, r1, #112
 255 0050 3046     		mov	r0, r6
 256 0052 FFF7FEFF 		bl	u8x8_cad_SendCmd
 257              	.LVL42:
 154:..\..\..\..\..\..\Dev\Library embedded l2c display\u8g2\csrc/u8x8_d_uc1617.c ****       u8x8_cad_SendCmd(u8x8, 0x00 | (y));
 258              		.loc 1 154 0
 259 0056 4946     		mov	r1, r9
 260 0058 3046     		mov	r0, r6
 261 005a FFF7FEFF 		bl	u8x8_cad_SendCmd
 262              	.LVL43:
 155:..\..\..\..\..\..\Dev\Library embedded l2c display\u8g2\csrc/u8x8_d_uc1617.c **** 
 156:..\..\..\..\..\..\Dev\Library embedded l2c display\u8g2\csrc/u8x8_d_uc1617.c **** #ifdef NOT_REQUIRED
 157:..\..\..\..\..\..\Dev\Library embedded l2c display\u8g2\csrc/u8x8_d_uc1617.c ****       u8x8_cad_SendCmd(u8x8, 0xf8 );	/* disable window */
 158:..\..\..\..\..\..\Dev\Library embedded l2c display\u8g2\csrc/u8x8_d_uc1617.c ****       u8x8_cad_SendCmd(u8x8, 0xf4 );	/* page start */
 159:..\..\..\..\..\..\Dev\Library embedded l2c display\u8g2\csrc/u8x8_d_uc1617.c ****       u8x8_cad_SendCmd(u8x8, y );	
 160:..\..\..\..\..\..\Dev\Library embedded l2c display\u8g2\csrc/u8x8_d_uc1617.c ****       u8x8_cad_SendCmd(u8x8, 0xf5 );	/* x start */
 161:..\..\..\..\..\..\Dev\Library embedded l2c display\u8g2\csrc/u8x8_d_uc1617.c ****       u8x8_cad_SendCmd(u8x8, x );	
 162:..\..\..\..\..\..\Dev\Library embedded l2c display\u8g2\csrc/u8x8_d_uc1617.c ****       u8x8_cad_SendCmd(u8x8, 0xf6 );	/* page end */
 163:..\..\..\..\..\..\Dev\Library embedded l2c display\u8g2\csrc/u8x8_d_uc1617.c ****       u8x8_cad_SendCmd(u8x8, y );	
 164:..\..\..\..\..\..\Dev\Library embedded l2c display\u8g2\csrc/u8x8_d_uc1617.c ****       u8x8_cad_SendCmd(u8x8, 0xf7 );	/* x end */
 165:..\..\..\..\..\..\Dev\Library embedded l2c display\u8g2\csrc/u8x8_d_uc1617.c ****       u8x8_cad_SendCmd(u8x8, 127 );	
 166:..\..\..\..\..\..\Dev\Library embedded l2c display\u8g2\csrc/u8x8_d_uc1617.c ****       u8x8_cad_SendCmd(u8x8, 0xf9 );	/* enable window  */
 167:..\..\..\..\..\..\Dev\Library embedded l2c display\u8g2\csrc/u8x8_d_uc1617.c **** #endif
 168:..\..\..\..\..\..\Dev\Library embedded l2c display\u8g2\csrc/u8x8_d_uc1617.c **** 
 169:..\..\..\..\..\..\Dev\Library embedded l2c display\u8g2\csrc/u8x8_d_uc1617.c ****       a = arg_int;
 263              		.loc 1 169 0
 264 005e BA46     		mov	r10, r7
 265              	.LVL44:
 266              	.L22:
 170:..\..\..\..\..\..\Dev\Library embedded l2c display\u8g2\csrc/u8x8_d_uc1617.c ****       do
 171:..\..\..\..\..\..\Dev\Library embedded l2c display\u8g2\csrc/u8x8_d_uc1617.c ****       {
 172:..\..\..\..\..\..\Dev\Library embedded l2c display\u8g2\csrc/u8x8_d_uc1617.c **** 	c = ((u8x8_tile_t *)arg_ptr)->cnt;
 267              		.loc 1 172 0
 268 0060 98F80440 		ldrb	r4, [r8, #4]	@ zero_extendqisi2
 269              	.LVL45:
 173:..\..\..\..\..\..\Dev\Library embedded l2c display\u8g2\csrc/u8x8_d_uc1617.c **** 	ptr = ((u8x8_tile_t *)arg_ptr)->tile_ptr;
 270              		.loc 1 173 0
 271 0064 D8F80050 		ldr	r5, [r8]
 272              	.LVL46:
 273              	.L21:
 174:..\..\..\..\..\..\Dev\Library embedded l2c display\u8g2\csrc/u8x8_d_uc1617.c **** 	do
 175:..\..\..\..\..\..\Dev\Library embedded l2c display\u8g2\csrc/u8x8_d_uc1617.c **** 	{
 176:..\..\..\..\..\..\Dev\Library embedded l2c display\u8g2\csrc/u8x8_d_uc1617.c **** 	  u8x8_cad_SendData(u8x8, 8, u8x8_convert_tile_for_uc1617_lower4bit(ptr));
 274              		.loc 1 176 0 discriminator 1
 275 0068 2846     		mov	r0, r5
 276 006a FFF7FEFF 		bl	u8x8_convert_tile_for_uc1617_lower4bit
ARM GAS  C:\Users\Abude\AppData\Local\Temp\ccU6fSit.s 			page 9


 277              	.LVL47:
 278 006e 0246     		mov	r2, r0
 279 0070 0821     		movs	r1, #8
 280 0072 3046     		mov	r0, r6
 281 0074 FFF7FEFF 		bl	u8x8_cad_SendData
 282              	.LVL48:
 177:..\..\..\..\..\..\Dev\Library embedded l2c display\u8g2\csrc/u8x8_d_uc1617.c **** 	  ptr += 8;
 283              		.loc 1 177 0 discriminator 1
 284 0078 0835     		adds	r5, r5, #8
 285              	.LVL49:
 178:..\..\..\..\..\..\Dev\Library embedded l2c display\u8g2\csrc/u8x8_d_uc1617.c **** 	  x += 8;
 179:..\..\..\..\..\..\Dev\Library embedded l2c display\u8g2\csrc/u8x8_d_uc1617.c **** 	  c--;
 286              		.loc 1 179 0 discriminator 1
 287 007a 631E     		subs	r3, r4, #1
 288              	.LVL50:
 180:..\..\..\..\..\..\Dev\Library embedded l2c display\u8g2\csrc/u8x8_d_uc1617.c **** 	} while( c > 0 );	
 289              		.loc 1 180 0 discriminator 1
 290 007c 13F0FF04 		ands	r4, r3, #255
 291 0080 F2D1     		bne	.L21
 181:..\..\..\..\..\..\Dev\Library embedded l2c display\u8g2\csrc/u8x8_d_uc1617.c **** 	a--;
 292              		.loc 1 181 0
 293 0082 0AF1FF33 		add	r3, r10, #-1
 294              	.LVL51:
 182:..\..\..\..\..\..\Dev\Library embedded l2c display\u8g2\csrc/u8x8_d_uc1617.c ****       } while( a > 0 );
 295              		.loc 1 182 0
 296 0086 13F0FF0A 		ands	r10, r3, #255
 297 008a E9D1     		bne	.L22
 183:..\..\..\..\..\..\Dev\Library embedded l2c display\u8g2\csrc/u8x8_d_uc1617.c **** 
 184:..\..\..\..\..\..\Dev\Library embedded l2c display\u8g2\csrc/u8x8_d_uc1617.c ****       x = ((u8x8_tile_t *)arg_ptr)->x_pos;
 298              		.loc 1 184 0
 299 008c 98F80540 		ldrb	r4, [r8, #5]	@ zero_extendqisi2
 300              	.LVL52:
 185:..\..\..\..\..\..\Dev\Library embedded l2c display\u8g2\csrc/u8x8_d_uc1617.c ****       x *= 8;
 301              		.loc 1 185 0
 302 0090 E400     		lsls	r4, r4, #3
 303              	.LVL53:
 304 0092 E4B2     		uxtb	r4, r4
 305              	.LVL54:
 186:..\..\..\..\..\..\Dev\Library embedded l2c display\u8g2\csrc/u8x8_d_uc1617.c ****       x += u8x8->x_offset;
 306              		.loc 1 186 0
 307 0094 96F82230 		ldrb	r3, [r6, #34]	@ zero_extendqisi2
 308              	.LVL55:
 309 0098 1C44     		add	r4, r4, r3
 310              	.LVL56:
 311 009a E4B2     		uxtb	r4, r4
 312              	.LVL57:
 187:..\..\..\..\..\..\Dev\Library embedded l2c display\u8g2\csrc/u8x8_d_uc1617.c ****       u8x8_cad_SendCmd(u8x8, 0x060 | (x&15));
 313              		.loc 1 187 0
 314 009c 04F00F01 		and	r1, r4, #15
 315 00a0 41F06001 		orr	r1, r1, #96
 316 00a4 3046     		mov	r0, r6
 317 00a6 FFF7FEFF 		bl	u8x8_cad_SendCmd
 318              	.LVL58:
 188:..\..\..\..\..\..\Dev\Library embedded l2c display\u8g2\csrc/u8x8_d_uc1617.c ****       u8x8_cad_SendCmd(u8x8, 0x070 | (x>>4));    
 319              		.loc 1 188 0
 320 00aa 2109     		lsrs	r1, r4, #4
 321 00ac 41F07001 		orr	r1, r1, #112
ARM GAS  C:\Users\Abude\AppData\Local\Temp\ccU6fSit.s 			page 10


 322 00b0 3046     		mov	r0, r6
 323 00b2 FFF7FEFF 		bl	u8x8_cad_SendCmd
 324              	.LVL59:
 189:..\..\..\..\..\..\Dev\Library embedded l2c display\u8g2\csrc/u8x8_d_uc1617.c ****       u8x8_cad_SendCmd(u8x8, 0x00 | (y+1));
 325              		.loc 1 189 0
 326 00b6 09F10101 		add	r1, r9, #1
 327 00ba C9B2     		uxtb	r1, r1
 328 00bc 3046     		mov	r0, r6
 329 00be FFF7FEFF 		bl	u8x8_cad_SendCmd
 330              	.LVL60:
 331              	.L24:
 190:..\..\..\..\..\..\Dev\Library embedded l2c display\u8g2\csrc/u8x8_d_uc1617.c ****       a = arg_int;
 191:..\..\..\..\..\..\Dev\Library embedded l2c display\u8g2\csrc/u8x8_d_uc1617.c ****       do
 192:..\..\..\..\..\..\Dev\Library embedded l2c display\u8g2\csrc/u8x8_d_uc1617.c ****       {
 193:..\..\..\..\..\..\Dev\Library embedded l2c display\u8g2\csrc/u8x8_d_uc1617.c **** 	c = ((u8x8_tile_t *)arg_ptr)->cnt;
 332              		.loc 1 193 0
 333 00c2 98F80440 		ldrb	r4, [r8, #4]	@ zero_extendqisi2
 334              	.LVL61:
 194:..\..\..\..\..\..\Dev\Library embedded l2c display\u8g2\csrc/u8x8_d_uc1617.c **** 	ptr = ((u8x8_tile_t *)arg_ptr)->tile_ptr;
 335              		.loc 1 194 0
 336 00c6 D8F80050 		ldr	r5, [r8]
 337              	.LVL62:
 338              	.L23:
 195:..\..\..\..\..\..\Dev\Library embedded l2c display\u8g2\csrc/u8x8_d_uc1617.c **** 	do
 196:..\..\..\..\..\..\Dev\Library embedded l2c display\u8g2\csrc/u8x8_d_uc1617.c **** 	{
 197:..\..\..\..\..\..\Dev\Library embedded l2c display\u8g2\csrc/u8x8_d_uc1617.c **** 	  u8x8_cad_SendData(u8x8, 8, u8x8_convert_tile_for_uc1617_upper4bit(ptr));
 339              		.loc 1 197 0 discriminator 1
 340 00ca 2846     		mov	r0, r5
 341 00cc FFF7FEFF 		bl	u8x8_convert_tile_for_uc1617_upper4bit
 342              	.LVL63:
 343 00d0 0246     		mov	r2, r0
 344 00d2 0821     		movs	r1, #8
 345 00d4 3046     		mov	r0, r6
 346 00d6 FFF7FEFF 		bl	u8x8_cad_SendData
 347              	.LVL64:
 198:..\..\..\..\..\..\Dev\Library embedded l2c display\u8g2\csrc/u8x8_d_uc1617.c **** 	  ptr += 8;
 348              		.loc 1 198 0 discriminator 1
 349 00da 0835     		adds	r5, r5, #8
 350              	.LVL65:
 199:..\..\..\..\..\..\Dev\Library embedded l2c display\u8g2\csrc/u8x8_d_uc1617.c **** 	  x += 8;
 200:..\..\..\..\..\..\Dev\Library embedded l2c display\u8g2\csrc/u8x8_d_uc1617.c **** 	  c--;
 351              		.loc 1 200 0 discriminator 1
 352 00dc 631E     		subs	r3, r4, #1
 353              	.LVL66:
 201:..\..\..\..\..\..\Dev\Library embedded l2c display\u8g2\csrc/u8x8_d_uc1617.c **** 	} while( c > 0 );	
 354              		.loc 1 201 0 discriminator 1
 355 00de 13F0FF04 		ands	r4, r3, #255
 356 00e2 F2D1     		bne	.L23
 202:..\..\..\..\..\..\Dev\Library embedded l2c display\u8g2\csrc/u8x8_d_uc1617.c **** 	a--;
 357              		.loc 1 202 0
 358 00e4 013F     		subs	r7, r7, #1
 359              	.LVL67:
 203:..\..\..\..\..\..\Dev\Library embedded l2c display\u8g2\csrc/u8x8_d_uc1617.c ****       } while( a > 0 );
 360              		.loc 1 203 0
 361 00e6 17F0FF07 		ands	r7, r7, #255
 362              	.LVL68:
 363 00ea EAD1     		bne	.L24
ARM GAS  C:\Users\Abude\AppData\Local\Temp\ccU6fSit.s 			page 11


 204:..\..\..\..\..\..\Dev\Library embedded l2c display\u8g2\csrc/u8x8_d_uc1617.c ****           
 205:..\..\..\..\..\..\Dev\Library embedded l2c display\u8g2\csrc/u8x8_d_uc1617.c ****       u8x8_cad_EndTransfer(u8x8);
 364              		.loc 1 205 0
 365 00ec 3046     		mov	r0, r6
 366 00ee FFF7FEFF 		bl	u8x8_cad_EndTransfer
 367              	.LVL69:
 206:..\..\..\..\..\..\Dev\Library embedded l2c display\u8g2\csrc/u8x8_d_uc1617.c ****       break;
 207:..\..\..\..\..\..\Dev\Library embedded l2c display\u8g2\csrc/u8x8_d_uc1617.c ****     case U8X8_MSG_DISPLAY_SET_POWER_SAVE:
 208:..\..\..\..\..\..\Dev\Library embedded l2c display\u8g2\csrc/u8x8_d_uc1617.c ****       if ( arg_int == 0 )
 209:..\..\..\..\..\..\Dev\Library embedded l2c display\u8g2\csrc/u8x8_d_uc1617.c **** 	u8x8_cad_SendSequence(u8x8, u8x8_d_uc1617_powersave0_seq);
 210:..\..\..\..\..\..\Dev\Library embedded l2c display\u8g2\csrc/u8x8_d_uc1617.c ****       else
 211:..\..\..\..\..\..\Dev\Library embedded l2c display\u8g2\csrc/u8x8_d_uc1617.c **** 	u8x8_cad_SendSequence(u8x8, u8x8_d_uc1617_powersave1_seq);
 212:..\..\..\..\..\..\Dev\Library embedded l2c display\u8g2\csrc/u8x8_d_uc1617.c ****       break;
 213:..\..\..\..\..\..\Dev\Library embedded l2c display\u8g2\csrc/u8x8_d_uc1617.c ****     case U8X8_MSG_DISPLAY_SET_FLIP_MODE:
 214:..\..\..\..\..\..\Dev\Library embedded l2c display\u8g2\csrc/u8x8_d_uc1617.c ****       if ( arg_int == 0 )
 215:..\..\..\..\..\..\Dev\Library embedded l2c display\u8g2\csrc/u8x8_d_uc1617.c ****       {
 216:..\..\..\..\..\..\Dev\Library embedded l2c display\u8g2\csrc/u8x8_d_uc1617.c **** 	u8x8_cad_SendSequence(u8x8, u8x8_d_uc1617_flip0_seq);
 217:..\..\..\..\..\..\Dev\Library embedded l2c display\u8g2\csrc/u8x8_d_uc1617.c **** 	u8x8->x_offset = u8x8->display_info->default_x_offset;
 218:..\..\..\..\..\..\Dev\Library embedded l2c display\u8g2\csrc/u8x8_d_uc1617.c ****       }
 219:..\..\..\..\..\..\Dev\Library embedded l2c display\u8g2\csrc/u8x8_d_uc1617.c ****       else
 220:..\..\..\..\..\..\Dev\Library embedded l2c display\u8g2\csrc/u8x8_d_uc1617.c ****       {
 221:..\..\..\..\..\..\Dev\Library embedded l2c display\u8g2\csrc/u8x8_d_uc1617.c **** 	u8x8_cad_SendSequence(u8x8, u8x8_d_uc1617_flip1_seq);
 222:..\..\..\..\..\..\Dev\Library embedded l2c display\u8g2\csrc/u8x8_d_uc1617.c **** 	u8x8->x_offset = u8x8->display_info->flipmode_x_offset;
 223:..\..\..\..\..\..\Dev\Library embedded l2c display\u8g2\csrc/u8x8_d_uc1617.c ****       }	
 224:..\..\..\..\..\..\Dev\Library embedded l2c display\u8g2\csrc/u8x8_d_uc1617.c ****       break;
 225:..\..\..\..\..\..\Dev\Library embedded l2c display\u8g2\csrc/u8x8_d_uc1617.c **** #ifdef U8X8_WITH_SET_CONTRAST
 226:..\..\..\..\..\..\Dev\Library embedded l2c display\u8g2\csrc/u8x8_d_uc1617.c ****     case U8X8_MSG_DISPLAY_SET_CONTRAST:
 227:..\..\..\..\..\..\Dev\Library embedded l2c display\u8g2\csrc/u8x8_d_uc1617.c ****       u8x8_cad_StartTransfer(u8x8);
 228:..\..\..\..\..\..\Dev\Library embedded l2c display\u8g2\csrc/u8x8_d_uc1617.c ****       u8x8_cad_SendCmd(u8x8, 0x081 );
 229:..\..\..\..\..\..\Dev\Library embedded l2c display\u8g2\csrc/u8x8_d_uc1617.c ****       u8x8_cad_SendArg(u8x8, arg_int  );	/* uc1617 has range from 0 to 255 */
 230:..\..\..\..\..\..\Dev\Library embedded l2c display\u8g2\csrc/u8x8_d_uc1617.c ****       u8x8_cad_EndTransfer(u8x8);
 231:..\..\..\..\..\..\Dev\Library embedded l2c display\u8g2\csrc/u8x8_d_uc1617.c ****       break;
 232:..\..\..\..\..\..\Dev\Library embedded l2c display\u8g2\csrc/u8x8_d_uc1617.c **** #endif
 233:..\..\..\..\..\..\Dev\Library embedded l2c display\u8g2\csrc/u8x8_d_uc1617.c ****     default:
 234:..\..\..\..\..\..\Dev\Library embedded l2c display\u8g2\csrc/u8x8_d_uc1617.c ****       return 0;
 235:..\..\..\..\..\..\Dev\Library embedded l2c display\u8g2\csrc/u8x8_d_uc1617.c ****   }
 236:..\..\..\..\..\..\Dev\Library embedded l2c display\u8g2\csrc/u8x8_d_uc1617.c ****   return 1;
 368              		.loc 1 236 0
 369 00f2 0120     		movs	r0, #1
 206:..\..\..\..\..\..\Dev\Library embedded l2c display\u8g2\csrc/u8x8_d_uc1617.c ****       break;
 370              		.loc 1 206 0
 371 00f4 BDE8F087 		pop	{r4, r5, r6, r7, r8, r9, r10, pc}
 372              	.LVL70:
 373              	.L16:
 208:..\..\..\..\..\..\Dev\Library embedded l2c display\u8g2\csrc/u8x8_d_uc1617.c **** 	u8x8_cad_SendSequence(u8x8, u8x8_d_uc1617_powersave0_seq);
 374              		.loc 1 208 0
 375 00f8 2AB9     		cbnz	r2, .L25
 209:..\..\..\..\..\..\Dev\Library embedded l2c display\u8g2\csrc/u8x8_d_uc1617.c ****       else
 376              		.loc 1 209 0
 377 00fa 1A49     		ldr	r1, .L29
 378 00fc FFF7FEFF 		bl	u8x8_cad_SendSequence
 379              	.LVL71:
 380              		.loc 1 236 0
 381 0100 0120     		movs	r0, #1
 382 0102 BDE8F087 		pop	{r4, r5, r6, r7, r8, r9, r10, pc}
 383              	.LVL72:
 384              	.L25:
ARM GAS  C:\Users\Abude\AppData\Local\Temp\ccU6fSit.s 			page 12


 211:..\..\..\..\..\..\Dev\Library embedded l2c display\u8g2\csrc/u8x8_d_uc1617.c ****       break;
 385              		.loc 1 211 0
 386 0106 1849     		ldr	r1, .L29+4
 387 0108 FFF7FEFF 		bl	u8x8_cad_SendSequence
 388              	.LVL73:
 389              		.loc 1 236 0
 390 010c 0120     		movs	r0, #1
 391 010e BDE8F087 		pop	{r4, r5, r6, r7, r8, r9, r10, pc}
 392              	.LVL74:
 393              	.L18:
 214:..\..\..\..\..\..\Dev\Library embedded l2c display\u8g2\csrc/u8x8_d_uc1617.c ****       {
 394              		.loc 1 214 0
 395 0112 4AB9     		cbnz	r2, .L26
 216:..\..\..\..\..\..\Dev\Library embedded l2c display\u8g2\csrc/u8x8_d_uc1617.c **** 	u8x8->x_offset = u8x8->display_info->default_x_offset;
 396              		.loc 1 216 0
 397 0114 1549     		ldr	r1, .L29+8
 398 0116 FFF7FEFF 		bl	u8x8_cad_SendSequence
 399              	.LVL75:
 217:..\..\..\..\..\..\Dev\Library embedded l2c display\u8g2\csrc/u8x8_d_uc1617.c ****       }
 400              		.loc 1 217 0
 401 011a 3368     		ldr	r3, [r6]
 402 011c 9B7C     		ldrb	r3, [r3, #18]	@ zero_extendqisi2
 403 011e 86F82230 		strb	r3, [r6, #34]
 404              		.loc 1 236 0
 405 0122 0120     		movs	r0, #1
 406 0124 BDE8F087 		pop	{r4, r5, r6, r7, r8, r9, r10, pc}
 407              	.LVL76:
 408              	.L26:
 221:..\..\..\..\..\..\Dev\Library embedded l2c display\u8g2\csrc/u8x8_d_uc1617.c **** 	u8x8->x_offset = u8x8->display_info->flipmode_x_offset;
 409              		.loc 1 221 0
 410 0128 1149     		ldr	r1, .L29+12
 411 012a FFF7FEFF 		bl	u8x8_cad_SendSequence
 412              	.LVL77:
 222:..\..\..\..\..\..\Dev\Library embedded l2c display\u8g2\csrc/u8x8_d_uc1617.c ****       }	
 413              		.loc 1 222 0
 414 012e 3368     		ldr	r3, [r6]
 415 0130 DB7C     		ldrb	r3, [r3, #19]	@ zero_extendqisi2
 416 0132 86F82230 		strb	r3, [r6, #34]
 417              		.loc 1 236 0
 418 0136 0120     		movs	r0, #1
 419 0138 BDE8F087 		pop	{r4, r5, r6, r7, r8, r9, r10, pc}
 420              	.LVL78:
 421              	.L19:
 227:..\..\..\..\..\..\Dev\Library embedded l2c display\u8g2\csrc/u8x8_d_uc1617.c ****       u8x8_cad_SendCmd(u8x8, 0x081 );
 422              		.loc 1 227 0
 423 013c FFF7FEFF 		bl	u8x8_cad_StartTransfer
 424              	.LVL79:
 228:..\..\..\..\..\..\Dev\Library embedded l2c display\u8g2\csrc/u8x8_d_uc1617.c ****       u8x8_cad_SendArg(u8x8, arg_int  );	/* uc1617 has range from 0 to 255 */
 425              		.loc 1 228 0
 426 0140 8121     		movs	r1, #129
 427 0142 3046     		mov	r0, r6
 428 0144 FFF7FEFF 		bl	u8x8_cad_SendCmd
 429              	.LVL80:
 229:..\..\..\..\..\..\Dev\Library embedded l2c display\u8g2\csrc/u8x8_d_uc1617.c ****       u8x8_cad_EndTransfer(u8x8);
 430              		.loc 1 229 0
 431 0148 3946     		mov	r1, r7
 432 014a 3046     		mov	r0, r6
ARM GAS  C:\Users\Abude\AppData\Local\Temp\ccU6fSit.s 			page 13


 433 014c FFF7FEFF 		bl	u8x8_cad_SendArg
 434              	.LVL81:
 230:..\..\..\..\..\..\Dev\Library embedded l2c display\u8g2\csrc/u8x8_d_uc1617.c ****       break;
 435              		.loc 1 230 0
 436 0150 3046     		mov	r0, r6
 437 0152 FFF7FEFF 		bl	u8x8_cad_EndTransfer
 438              	.LVL82:
 439              		.loc 1 236 0
 440 0156 0120     		movs	r0, #1
 231:..\..\..\..\..\..\Dev\Library embedded l2c display\u8g2\csrc/u8x8_d_uc1617.c **** #endif
 441              		.loc 1 231 0
 442 0158 BDE8F087 		pop	{r4, r5, r6, r7, r8, r9, r10, pc}
 443              	.LVL83:
 444              	.L27:
 234:..\..\..\..\..\..\Dev\Library embedded l2c display\u8g2\csrc/u8x8_d_uc1617.c ****   }
 445              		.loc 1 234 0
 446 015c 0020     		movs	r0, #0
 447              	.LVL84:
 237:..\..\..\..\..\..\Dev\Library embedded l2c display\u8g2\csrc/u8x8_d_uc1617.c **** }
 448              		.loc 1 237 0
 449 015e BDE8F087 		pop	{r4, r5, r6, r7, r8, r9, r10, pc}
 450              	.LVL85:
 451              	.L30:
 452 0162 00BF     		.align	2
 453              	.L29:
 454 0164 00000000 		.word	.LANCHOR1
 455 0168 08000000 		.word	.LANCHOR1+8
 456 016c 10000000 		.word	.LANCHOR1+16
 457 0170 18000000 		.word	.LANCHOR1+24
 458              		.cfi_endproc
 459              	.LFE3:
 460              		.size	u8x8_d_uc1617_common, .-u8x8_d_uc1617_common
 461              		.section	.text.u8x8_d_uc1617_jlx128128,"ax",%progbits
 462              		.align	2
 463              		.global	u8x8_d_uc1617_jlx128128
 464              		.thumb
 465              		.thumb_func
 466              		.type	u8x8_d_uc1617_jlx128128, %function
 467              	u8x8_d_uc1617_jlx128128:
 468              	.LFB4:
 238:..\..\..\..\..\..\Dev\Library embedded l2c display\u8g2\csrc/u8x8_d_uc1617.c **** 
 239:..\..\..\..\..\..\Dev\Library embedded l2c display\u8g2\csrc/u8x8_d_uc1617.c **** /*================================================*/
 240:..\..\..\..\..\..\Dev\Library embedded l2c display\u8g2\csrc/u8x8_d_uc1617.c **** /* JLX128128 */
 241:..\..\..\..\..\..\Dev\Library embedded l2c display\u8g2\csrc/u8x8_d_uc1617.c **** 
 242:..\..\..\..\..\..\Dev\Library embedded l2c display\u8g2\csrc/u8x8_d_uc1617.c **** static const uint8_t u8x8_d_uc1617_jlx128128_init_seq[] = {
 243:..\..\..\..\..\..\Dev\Library embedded l2c display\u8g2\csrc/u8x8_d_uc1617.c ****     
 244:..\..\..\..\..\..\Dev\Library embedded l2c display\u8g2\csrc/u8x8_d_uc1617.c ****   U8X8_START_TRANSFER(),             	/* enable chip, delay is part of the transfer start */
 245:..\..\..\..\..\..\Dev\Library embedded l2c display\u8g2\csrc/u8x8_d_uc1617.c ****   
 246:..\..\..\..\..\..\Dev\Library embedded l2c display\u8g2\csrc/u8x8_d_uc1617.c ****   U8X8_C(0x0e2),            			/* reset */
 247:..\..\..\..\..\..\Dev\Library embedded l2c display\u8g2\csrc/u8x8_d_uc1617.c ****   U8X8_DLY(10),
 248:..\..\..\..\..\..\Dev\Library embedded l2c display\u8g2\csrc/u8x8_d_uc1617.c ****   
 249:..\..\..\..\..\..\Dev\Library embedded l2c display\u8g2\csrc/u8x8_d_uc1617.c ****   //U8X8_D1(0x0ff),
 250:..\..\..\..\..\..\Dev\Library embedded l2c display\u8g2\csrc/u8x8_d_uc1617.c ****   U8X8_C(0x027),            			/* temperature compensation */
 251:..\..\..\..\..\..\Dev\Library embedded l2c display\u8g2\csrc/u8x8_d_uc1617.c ****   U8X8_C(0x02b),            			/* panel loading: 13-18nF */
 252:..\..\..\..\..\..\Dev\Library embedded l2c display\u8g2\csrc/u8x8_d_uc1617.c ****   
 253:..\..\..\..\..\..\Dev\Library embedded l2c display\u8g2\csrc/u8x8_d_uc1617.c ****   U8X8_C(0x02f),            			/* internal pump control */
 254:..\..\..\..\..\..\Dev\Library embedded l2c display\u8g2\csrc/u8x8_d_uc1617.c ****   U8X8_C(0x0eb),            			/* bias=1/11 */
ARM GAS  C:\Users\Abude\AppData\Local\Temp\ccU6fSit.s 			page 14


 255:..\..\..\..\..\..\Dev\Library embedded l2c display\u8g2\csrc/u8x8_d_uc1617.c ****   U8X8_CA(0x081, 0x028),		/* set contrast */
 256:..\..\..\..\..\..\Dev\Library embedded l2c display\u8g2\csrc/u8x8_d_uc1617.c ****   //U8X8_C(0x0a9),            			/* used in display datasheet, but cmd not described in controller 
 257:..\..\..\..\..\..\Dev\Library embedded l2c display\u8g2\csrc/u8x8_d_uc1617.c ****   
 258:..\..\..\..\..\..\Dev\Library embedded l2c display\u8g2\csrc/u8x8_d_uc1617.c ****   U8X8_CA(0x0f1, 0x07f),			/* set COM end */
 259:..\..\..\..\..\..\Dev\Library embedded l2c display\u8g2\csrc/u8x8_d_uc1617.c ****   U8X8_CA(0x0f2, 0x000),		/* display line start */
 260:..\..\..\..\..\..\Dev\Library embedded l2c display\u8g2\csrc/u8x8_d_uc1617.c ****   U8X8_CA(0x0f3, 127),			/* display line end */
 261:..\..\..\..\..\..\Dev\Library embedded l2c display\u8g2\csrc/u8x8_d_uc1617.c ****   U8X8_C(0x0a3),            			/* line rate */
 262:..\..\..\..\..\..\Dev\Library embedded l2c display\u8g2\csrc/u8x8_d_uc1617.c ****   
 263:..\..\..\..\..\..\Dev\Library embedded l2c display\u8g2\csrc/u8x8_d_uc1617.c ****   U8X8_C(0x0d3),            			/* */
 264:..\..\..\..\..\..\Dev\Library embedded l2c display\u8g2\csrc/u8x8_d_uc1617.c ****   U8X8_C(0x0d7),            			/* */
 265:..\..\..\..\..\..\Dev\Library embedded l2c display\u8g2\csrc/u8x8_d_uc1617.c ****   
 266:..\..\..\..\..\..\Dev\Library embedded l2c display\u8g2\csrc/u8x8_d_uc1617.c **** 
 267:..\..\..\..\..\..\Dev\Library embedded l2c display\u8g2\csrc/u8x8_d_uc1617.c ****   //U8X8_C(0x0a5),            			/* all pixel on */
 268:..\..\..\..\..\..\Dev\Library embedded l2c display\u8g2\csrc/u8x8_d_uc1617.c **** 
 269:..\..\..\..\..\..\Dev\Library embedded l2c display\u8g2\csrc/u8x8_d_uc1617.c ****   //U8X8_C(0x0d1),            			/* display pattern */  
 270:..\..\..\..\..\..\Dev\Library embedded l2c display\u8g2\csrc/u8x8_d_uc1617.c ****   U8X8_C(0x08b),            			/* auto increment */
 271:..\..\..\..\..\..\Dev\Library embedded l2c display\u8g2\csrc/u8x8_d_uc1617.c ****   U8X8_C(0x0c0),            	/* LCD Mapping */
 272:..\..\..\..\..\..\Dev\Library embedded l2c display\u8g2\csrc/u8x8_d_uc1617.c **** 
 273:..\..\..\..\..\..\Dev\Library embedded l2c display\u8g2\csrc/u8x8_d_uc1617.c ****   //U8X8_C(0x0ad),            			/* display enable BW Mode*/
 274:..\..\..\..\..\..\Dev\Library embedded l2c display\u8g2\csrc/u8x8_d_uc1617.c ****   //U8X8_C(0x0af),            			/* display enable GS Mode*/
 275:..\..\..\..\..\..\Dev\Library embedded l2c display\u8g2\csrc/u8x8_d_uc1617.c ****   
 276:..\..\..\..\..\..\Dev\Library embedded l2c display\u8g2\csrc/u8x8_d_uc1617.c ****   U8X8_END_TRANSFER(),             	/* disable chip */
 277:..\..\..\..\..\..\Dev\Library embedded l2c display\u8g2\csrc/u8x8_d_uc1617.c ****   U8X8_END()             			/* end of sequence */
 278:..\..\..\..\..\..\Dev\Library embedded l2c display\u8g2\csrc/u8x8_d_uc1617.c **** };
 279:..\..\..\..\..\..\Dev\Library embedded l2c display\u8g2\csrc/u8x8_d_uc1617.c **** 
 280:..\..\..\..\..\..\Dev\Library embedded l2c display\u8g2\csrc/u8x8_d_uc1617.c **** static const u8x8_display_info_t u8x8_uc1617_128x128_display_info =
 281:..\..\..\..\..\..\Dev\Library embedded l2c display\u8g2\csrc/u8x8_d_uc1617.c **** {
 282:..\..\..\..\..\..\Dev\Library embedded l2c display\u8g2\csrc/u8x8_d_uc1617.c ****   /* chip_enable_level = */ 0,
 283:..\..\..\..\..\..\Dev\Library embedded l2c display\u8g2\csrc/u8x8_d_uc1617.c ****   /* chip_disable_level = */ 1,
 284:..\..\..\..\..\..\Dev\Library embedded l2c display\u8g2\csrc/u8x8_d_uc1617.c ****   
 285:..\..\..\..\..\..\Dev\Library embedded l2c display\u8g2\csrc/u8x8_d_uc1617.c ****   /* post_chip_enable_wait_ns = */ 10,	/* uc1617 datasheet, page 54, actually 5 */
 286:..\..\..\..\..\..\Dev\Library embedded l2c display\u8g2\csrc/u8x8_d_uc1617.c ****   /* pre_chip_disable_wait_ns = */ 10,	/* uc1617 datasheet, page 54, actually 5 */
 287:..\..\..\..\..\..\Dev\Library embedded l2c display\u8g2\csrc/u8x8_d_uc1617.c ****   /* reset_pulse_width_ms = */ 10, 
 288:..\..\..\..\..\..\Dev\Library embedded l2c display\u8g2\csrc/u8x8_d_uc1617.c ****   /* post_reset_wait_ms = */ 20, 	/* uc1617 datasheet, page 56 */
 289:..\..\..\..\..\..\Dev\Library embedded l2c display\u8g2\csrc/u8x8_d_uc1617.c ****   /* sda_setup_time_ns = */ 24,		/* uc1617 datasheet, page 54 */
 290:..\..\..\..\..\..\Dev\Library embedded l2c display\u8g2\csrc/u8x8_d_uc1617.c ****   /* sck_pulse_width_ns = */ 45,	/* half of cycle time  uc1617 datasheet, page 54*/
 291:..\..\..\..\..\..\Dev\Library embedded l2c display\u8g2\csrc/u8x8_d_uc1617.c ****   /* sck_clock_hz = */ 8000000UL,	/* since Arduino 1.6.0, the SPI bus speed in Hz. Should be  10000
 292:..\..\..\..\..\..\Dev\Library embedded l2c display\u8g2\csrc/u8x8_d_uc1617.c ****   /* spi_mode = */ 0,		/* active high, rising edge */
 293:..\..\..\..\..\..\Dev\Library embedded l2c display\u8g2\csrc/u8x8_d_uc1617.c ****   /* i2c_bus_clock_100kHz = */ 4,
 294:..\..\..\..\..\..\Dev\Library embedded l2c display\u8g2\csrc/u8x8_d_uc1617.c ****   /* data_setup_time_ns = */ 30,	/* uc1617 datasheet, page 52 */
 295:..\..\..\..\..\..\Dev\Library embedded l2c display\u8g2\csrc/u8x8_d_uc1617.c ****   /* write_pulse_width_ns = */ 65,	/* uc1617 datasheet, page 52 */
 296:..\..\..\..\..\..\Dev\Library embedded l2c display\u8g2\csrc/u8x8_d_uc1617.c ****   /* tile_width = */ 16,		/* width of 16*8=128 pixel */
 297:..\..\..\..\..\..\Dev\Library embedded l2c display\u8g2\csrc/u8x8_d_uc1617.c ****   /* tile_hight = */ 16,
 298:..\..\..\..\..\..\Dev\Library embedded l2c display\u8g2\csrc/u8x8_d_uc1617.c ****   /* default_x_offset = */ 0,
 299:..\..\..\..\..\..\Dev\Library embedded l2c display\u8g2\csrc/u8x8_d_uc1617.c ****   /* flipmode_x_offset = */ 0,
 300:..\..\..\..\..\..\Dev\Library embedded l2c display\u8g2\csrc/u8x8_d_uc1617.c ****   /* pixel_width = */ 128,
 301:..\..\..\..\..\..\Dev\Library embedded l2c display\u8g2\csrc/u8x8_d_uc1617.c ****   /* pixel_height = */ 128
 302:..\..\..\..\..\..\Dev\Library embedded l2c display\u8g2\csrc/u8x8_d_uc1617.c **** };
 303:..\..\..\..\..\..\Dev\Library embedded l2c display\u8g2\csrc/u8x8_d_uc1617.c **** 
 304:..\..\..\..\..\..\Dev\Library embedded l2c display\u8g2\csrc/u8x8_d_uc1617.c **** uint8_t u8x8_d_uc1617_jlx128128(u8x8_t *u8x8, uint8_t msg, uint8_t arg_int, void *arg_ptr)
 305:..\..\..\..\..\..\Dev\Library embedded l2c display\u8g2\csrc/u8x8_d_uc1617.c **** {
 469              		.loc 1 305 0
 470              		.cfi_startproc
 471              		@ args = 0, pretend = 0, frame = 0
 472              		@ frame_needed = 0, uses_anonymous_args = 0
 473              	.LVL86:
 474 0000 38B5     		push	{r3, r4, r5, lr}
ARM GAS  C:\Users\Abude\AppData\Local\Temp\ccU6fSit.s 			page 15


 475              		.cfi_def_cfa_offset 16
 476              		.cfi_offset 3, -16
 477              		.cfi_offset 4, -12
 478              		.cfi_offset 5, -8
 479              		.cfi_offset 14, -4
 480 0002 0546     		mov	r5, r0
 481 0004 0C46     		mov	r4, r1
 306:..\..\..\..\..\..\Dev\Library embedded l2c display\u8g2\csrc/u8x8_d_uc1617.c ****   /* call common procedure first and handle messages there */
 307:..\..\..\..\..\..\Dev\Library embedded l2c display\u8g2\csrc/u8x8_d_uc1617.c ****   if ( u8x8_d_uc1617_common(u8x8, msg, arg_int, arg_ptr) == 0 )
 482              		.loc 1 307 0
 483 0006 FFF7FEFF 		bl	u8x8_d_uc1617_common
 484              	.LVL87:
 485 000a A0B9     		cbnz	r0, .L35
 486 000c 0346     		mov	r3, r0
 308:..\..\..\..\..\..\Dev\Library embedded l2c display\u8g2\csrc/u8x8_d_uc1617.c ****   {
 309:..\..\..\..\..\..\Dev\Library embedded l2c display\u8g2\csrc/u8x8_d_uc1617.c ****     /* msg not handled, then try here */
 310:..\..\..\..\..\..\Dev\Library embedded l2c display\u8g2\csrc/u8x8_d_uc1617.c ****     switch(msg)
 487              		.loc 1 310 0
 488 000e 092C     		cmp	r4, #9
 489 0010 02D0     		beq	.L33
 490 0012 0A2C     		cmp	r4, #10
 491 0014 06D0     		beq	.L34
 492 0016 0FE0     		b	.L32
 493              	.L33:
 311:..\..\..\..\..\..\Dev\Library embedded l2c display\u8g2\csrc/u8x8_d_uc1617.c ****     {
 312:..\..\..\..\..\..\Dev\Library embedded l2c display\u8g2\csrc/u8x8_d_uc1617.c ****       case U8X8_MSG_DISPLAY_SETUP_MEMORY:
 313:..\..\..\..\..\..\Dev\Library embedded l2c display\u8g2\csrc/u8x8_d_uc1617.c **** 	u8x8_d_helper_display_setup_memory(u8x8, &u8x8_uc1617_128x128_display_info);
 494              		.loc 1 313 0
 495 0018 0849     		ldr	r1, .L37
 496 001a 2846     		mov	r0, r5
 497 001c FFF7FEFF 		bl	u8x8_d_helper_display_setup_memory
 498              	.LVL88:
 314:..\..\..\..\..\..\Dev\Library embedded l2c display\u8g2\csrc/u8x8_d_uc1617.c **** 	break;
 315:..\..\..\..\..\..\Dev\Library embedded l2c display\u8g2\csrc/u8x8_d_uc1617.c ****       case U8X8_MSG_DISPLAY_INIT:
 316:..\..\..\..\..\..\Dev\Library embedded l2c display\u8g2\csrc/u8x8_d_uc1617.c **** 	u8x8_d_helper_display_init(u8x8);
 317:..\..\..\..\..\..\Dev\Library embedded l2c display\u8g2\csrc/u8x8_d_uc1617.c **** 	u8x8_cad_SendSequence(u8x8, u8x8_d_uc1617_jlx128128_init_seq);
 318:..\..\..\..\..\..\Dev\Library embedded l2c display\u8g2\csrc/u8x8_d_uc1617.c **** 	break;
 319:..\..\..\..\..\..\Dev\Library embedded l2c display\u8g2\csrc/u8x8_d_uc1617.c ****       default:
 320:..\..\..\..\..\..\Dev\Library embedded l2c display\u8g2\csrc/u8x8_d_uc1617.c **** 	return 0;		/* msg unknown */
 321:..\..\..\..\..\..\Dev\Library embedded l2c display\u8g2\csrc/u8x8_d_uc1617.c ****     }
 322:..\..\..\..\..\..\Dev\Library embedded l2c display\u8g2\csrc/u8x8_d_uc1617.c ****   }
 323:..\..\..\..\..\..\Dev\Library embedded l2c display\u8g2\csrc/u8x8_d_uc1617.c ****   return 1;
 499              		.loc 1 323 0
 500 0020 0123     		movs	r3, #1
 314:..\..\..\..\..\..\Dev\Library embedded l2c display\u8g2\csrc/u8x8_d_uc1617.c **** 	break;
 501              		.loc 1 314 0
 502 0022 09E0     		b	.L32
 503              	.L34:
 316:..\..\..\..\..\..\Dev\Library embedded l2c display\u8g2\csrc/u8x8_d_uc1617.c **** 	u8x8_cad_SendSequence(u8x8, u8x8_d_uc1617_jlx128128_init_seq);
 504              		.loc 1 316 0
 505 0024 2846     		mov	r0, r5
 506 0026 FFF7FEFF 		bl	u8x8_d_helper_display_init
 507              	.LVL89:
 317:..\..\..\..\..\..\Dev\Library embedded l2c display\u8g2\csrc/u8x8_d_uc1617.c **** 	break;
 508              		.loc 1 317 0
 509 002a 0549     		ldr	r1, .L37+4
 510 002c 2846     		mov	r0, r5
ARM GAS  C:\Users\Abude\AppData\Local\Temp\ccU6fSit.s 			page 16


 511 002e FFF7FEFF 		bl	u8x8_cad_SendSequence
 512              	.LVL90:
 513              		.loc 1 323 0
 514 0032 0123     		movs	r3, #1
 318:..\..\..\..\..\..\Dev\Library embedded l2c display\u8g2\csrc/u8x8_d_uc1617.c ****       default:
 515              		.loc 1 318 0
 516 0034 00E0     		b	.L32
 517              	.L35:
 518              		.loc 1 323 0
 519 0036 0123     		movs	r3, #1
 520              	.L32:
 324:..\..\..\..\..\..\Dev\Library embedded l2c display\u8g2\csrc/u8x8_d_uc1617.c **** }
 521              		.loc 1 324 0
 522 0038 1846     		mov	r0, r3
 523 003a 38BD     		pop	{r3, r4, r5, pc}
 524              	.LVL91:
 525              	.L38:
 526              		.align	2
 527              	.L37:
 528 003c 20000000 		.word	.LANCHOR1+32
 529 0040 38000000 		.word	.LANCHOR1+56
 530              		.cfi_endproc
 531              	.LFE4:
 532              		.size	u8x8_d_uc1617_jlx128128, .-u8x8_d_uc1617_jlx128128
 533              		.section	.rodata
 534              		.align	2
 535              		.set	.LANCHOR1,. + 0
 536              		.type	u8x8_d_uc1617_powersave0_seq, %object
 537              		.size	u8x8_d_uc1617_powersave0_seq, 5
 538              	u8x8_d_uc1617_powersave0_seq:
 539 0000 18       		.byte	24
 540 0001 15       		.byte	21
 541 0002 AF       		.byte	-81
 542 0003 19       		.byte	25
 543 0004 FF       		.byte	-1
 544 0005 000000   		.space	3
 545              		.type	u8x8_d_uc1617_powersave1_seq, %object
 546              		.size	u8x8_d_uc1617_powersave1_seq, 5
 547              	u8x8_d_uc1617_powersave1_seq:
 548 0008 18       		.byte	24
 549 0009 15       		.byte	21
 550 000a AC       		.byte	-84
 551 000b 19       		.byte	25
 552 000c FF       		.byte	-1
 553 000d 000000   		.space	3
 554              		.type	u8x8_d_uc1617_flip0_seq, %object
 555              		.size	u8x8_d_uc1617_flip0_seq, 5
 556              	u8x8_d_uc1617_flip0_seq:
 557 0010 18       		.byte	24
 558 0011 15       		.byte	21
 559 0012 C0       		.byte	-64
 560 0013 19       		.byte	25
 561 0014 FF       		.byte	-1
 562 0015 000000   		.space	3
 563              		.type	u8x8_d_uc1617_flip1_seq, %object
 564              		.size	u8x8_d_uc1617_flip1_seq, 5
 565              	u8x8_d_uc1617_flip1_seq:
ARM GAS  C:\Users\Abude\AppData\Local\Temp\ccU6fSit.s 			page 17


 566 0018 18       		.byte	24
 567 0019 15       		.byte	21
 568 001a C6       		.byte	-58
 569 001b 19       		.byte	25
 570 001c FF       		.byte	-1
 571 001d 000000   		.space	3
 572              		.type	u8x8_uc1617_128x128_display_info, %object
 573              		.size	u8x8_uc1617_128x128_display_info, 24
 574              	u8x8_uc1617_128x128_display_info:
 575 0020 00       		.byte	0
 576 0021 01       		.byte	1
 577 0022 0A       		.byte	10
 578 0023 0A       		.byte	10
 579 0024 0A       		.byte	10
 580 0025 14       		.byte	20
 581 0026 18       		.byte	24
 582 0027 2D       		.byte	45
 583 0028 00127A00 		.word	8000000
 584 002c 00       		.byte	0
 585 002d 04       		.byte	4
 586 002e 1E       		.byte	30
 587 002f 41       		.byte	65
 588 0030 10       		.byte	16
 589 0031 10       		.byte	16
 590 0032 00       		.byte	0
 591 0033 00       		.byte	0
 592 0034 8000     		.short	128
 593 0036 8000     		.short	128
 594              		.type	u8x8_d_uc1617_jlx128128_init_seq, %object
 595              		.size	u8x8_d_uc1617_jlx128128_init_seq, 41
 596              	u8x8_d_uc1617_jlx128128_init_seq:
 597 0038 18       		.byte	24
 598 0039 15       		.byte	21
 599 003a E2       		.byte	-30
 600 003b FE       		.byte	-2
 601 003c 0A       		.byte	10
 602 003d 15       		.byte	21
 603 003e 27       		.byte	39
 604 003f 15       		.byte	21
 605 0040 2B       		.byte	43
 606 0041 15       		.byte	21
 607 0042 2F       		.byte	47
 608 0043 15       		.byte	21
 609 0044 EB       		.byte	-21
 610 0045 15       		.byte	21
 611 0046 81       		.byte	-127
 612 0047 16       		.byte	22
 613 0048 28       		.byte	40
 614 0049 15       		.byte	21
 615 004a F1       		.byte	-15
 616 004b 16       		.byte	22
 617 004c 7F       		.byte	127
 618 004d 15       		.byte	21
 619 004e F2       		.byte	-14
 620 004f 16       		.byte	22
 621 0050 00       		.byte	0
 622 0051 15       		.byte	21
ARM GAS  C:\Users\Abude\AppData\Local\Temp\ccU6fSit.s 			page 18


 623 0052 F3       		.byte	-13
 624 0053 16       		.byte	22
 625 0054 7F       		.byte	127
 626 0055 15       		.byte	21
 627 0056 A3       		.byte	-93
 628 0057 15       		.byte	21
 629 0058 D3       		.byte	-45
 630 0059 15       		.byte	21
 631 005a D7       		.byte	-41
 632 005b 15       		.byte	21
 633 005c 8B       		.byte	-117
 634 005d 15       		.byte	21
 635 005e C0       		.byte	-64
 636 005f 19       		.byte	25
 637 0060 FF       		.byte	-1
 638              		.bss
 639              		.align	2
 640              		.set	.LANCHOR0,. + 0
 641              		.type	u8x8_uc1617_tile_half_buffer, %object
 642              		.size	u8x8_uc1617_tile_half_buffer, 8
 643              	u8x8_uc1617_tile_half_buffer:
 644 0000 00000000 		.space	8
 644      00000000 
 645              		.text
 646              	.Letext0:
 647              		.file 2 "c:\\program files (x86)\\cypress\\psoc creator\\4.4\\psoc creator\\import\\gnu\\arm\\5.4.
 648              		.file 3 "c:\\program files (x86)\\cypress\\psoc creator\\4.4\\psoc creator\\import\\gnu\\arm\\5.4.
 649              		.file 4 "c:\\dev\\library embedded l2c display\\u8g2\\csrc\\u8x8.h"