ARM GAS  C:\Users\Abude\AppData\Local\Temp\cc2Bz9Q6.s 			page 1


   1              		.syntax unified
   2              		.cpu cortex-m3
   3              		.fpu softvfp
   4              		.eabi_attribute 20, 1
   5              		.eabi_attribute 21, 1
   6              		.eabi_attribute 23, 3
   7              		.eabi_attribute 24, 1
   8              		.eabi_attribute 25, 1
   9              		.eabi_attribute 26, 1
  10              		.eabi_attribute 30, 1
  11              		.eabi_attribute 34, 1
  12              		.eabi_attribute 18, 4
  13              		.thumb
  14              		.syntax unified
  15              		.file	"u8x8_message.c"
  16              		.text
  17              	.Ltext0:
  18              		.cfi_sections	.debug_frame
  19              		.section	.text.u8x8_draw_button_line,"ax",%progbits
  20              		.align	2
  21              		.global	u8x8_draw_button_line
  22              		.thumb
  23              		.thumb_func
  24              		.type	u8x8_draw_button_line, %function
  25              	u8x8_draw_button_line:
  26              	.LFB0:
  27              		.file 1 "..\\..\\..\\..\\..\\..\\Dev\\Library embedded l2c display\\u8g2\\csrc\\u8x8_message.c"
   1:..\..\..\..\..\..\Dev\Library embedded l2c display\u8g2\csrc/u8x8_message.c **** /*
   2:..\..\..\..\..\..\Dev\Library embedded l2c display\u8g2\csrc/u8x8_message.c **** 
   3:..\..\..\..\..\..\Dev\Library embedded l2c display\u8g2\csrc/u8x8_message.c ****   u8x8_message.c
   4:..\..\..\..\..\..\Dev\Library embedded l2c display\u8g2\csrc/u8x8_message.c ****   
   5:..\..\..\..\..\..\Dev\Library embedded l2c display\u8g2\csrc/u8x8_message.c ****   Universal 8bit Graphics Library (https://github.com/olikraus/u8g2/)
   6:..\..\..\..\..\..\Dev\Library embedded l2c display\u8g2\csrc/u8x8_message.c **** 
   7:..\..\..\..\..\..\Dev\Library embedded l2c display\u8g2\csrc/u8x8_message.c ****   Copyright (c) 2016, olikraus@gmail.com
   8:..\..\..\..\..\..\Dev\Library embedded l2c display\u8g2\csrc/u8x8_message.c ****   All rights reserved.
   9:..\..\..\..\..\..\Dev\Library embedded l2c display\u8g2\csrc/u8x8_message.c **** 
  10:..\..\..\..\..\..\Dev\Library embedded l2c display\u8g2\csrc/u8x8_message.c ****   Redistribution and use in source and binary forms, with or without modification, 
  11:..\..\..\..\..\..\Dev\Library embedded l2c display\u8g2\csrc/u8x8_message.c ****   are permitted provided that the following conditions are met:
  12:..\..\..\..\..\..\Dev\Library embedded l2c display\u8g2\csrc/u8x8_message.c **** 
  13:..\..\..\..\..\..\Dev\Library embedded l2c display\u8g2\csrc/u8x8_message.c ****   * Redistributions of source code must retain the above copyright notice, this list 
  14:..\..\..\..\..\..\Dev\Library embedded l2c display\u8g2\csrc/u8x8_message.c ****     of conditions and the following disclaimer.
  15:..\..\..\..\..\..\Dev\Library embedded l2c display\u8g2\csrc/u8x8_message.c ****     
  16:..\..\..\..\..\..\Dev\Library embedded l2c display\u8g2\csrc/u8x8_message.c ****   * Redistributions in binary form must reproduce the above copyright notice, this 
  17:..\..\..\..\..\..\Dev\Library embedded l2c display\u8g2\csrc/u8x8_message.c ****     list of conditions and the following disclaimer in the documentation and/or other 
  18:..\..\..\..\..\..\Dev\Library embedded l2c display\u8g2\csrc/u8x8_message.c ****     materials provided with the distribution.
  19:..\..\..\..\..\..\Dev\Library embedded l2c display\u8g2\csrc/u8x8_message.c **** 
  20:..\..\..\..\..\..\Dev\Library embedded l2c display\u8g2\csrc/u8x8_message.c ****   THIS SOFTWARE IS PROVIDED BY THE COPYRIGHT HOLDERS AND 
  21:..\..\..\..\..\..\Dev\Library embedded l2c display\u8g2\csrc/u8x8_message.c ****   CONTRIBUTORS "AS IS" AND ANY EXPRESS OR IMPLIED WARRANTIES, 
  22:..\..\..\..\..\..\Dev\Library embedded l2c display\u8g2\csrc/u8x8_message.c ****   INCLUDING, BUT NOT LIMITED TO, THE IMPLIED WARRANTIES OF 
  23:..\..\..\..\..\..\Dev\Library embedded l2c display\u8g2\csrc/u8x8_message.c ****   MERCHANTABILITY AND FITNESS FOR A PARTICULAR PURPOSE ARE 
  24:..\..\..\..\..\..\Dev\Library embedded l2c display\u8g2\csrc/u8x8_message.c ****   DISCLAIMED. IN NO EVENT SHALL THE COPYRIGHT HOLDER OR 
  25:..\..\..\..\..\..\Dev\Library embedded l2c display\u8g2\csrc/u8x8_message.c ****   CONTRIBUTORS BE LIABLE FOR ANY DIRECT, INDIRECT, INCIDENTAL, 
  26:..\..\..\..\..\..\Dev\Library embedded l2c display\u8g2\csrc/u8x8_message.c ****   SPECIAL, EXEMPLARY, OR CONSEQUENTIAL DAMAGES (INCLUDING, BUT 
  27:..\..\..\..\..\..\Dev\Library embedded l2c display\u8g2\csrc/u8x8_message.c ****   NOT LIMITED TO, PROCUREMENT OF SUBSTITUTE GOODS OR SERVICES; 
  28:..\..\..\..\..\..\Dev\Library embedded l2c display\u8g2\csrc/u8x8_message.c ****   LOSS OF USE, DATA, OR PROFITS; OR BUSINESS INTERRUPTION) HOWEVER 
  29:..\..\..\..\..\..\Dev\Library embedded l2c display\u8g2\csrc/u8x8_message.c ****   CAUSED AND ON ANY THEORY OF LIABILITY, WHETHER IN CONTRACT, 
  30:..\..\..\..\..\..\Dev\Library embedded l2c display\u8g2\csrc/u8x8_message.c ****   STRICT LIABILITY, OR TORT (INCLUDING NEGLIGENCE OR OTHERWISE) 
ARM GAS  C:\Users\Abude\AppData\Local\Temp\cc2Bz9Q6.s 			page 2


  31:..\..\..\..\..\..\Dev\Library embedded l2c display\u8g2\csrc/u8x8_message.c ****   ARISING IN ANY WAY OUT OF THE USE OF THIS SOFTWARE, EVEN IF 
  32:..\..\..\..\..\..\Dev\Library embedded l2c display\u8g2\csrc/u8x8_message.c ****   ADVISED OF THE POSSIBILITY OF SUCH DAMAGE.  
  33:..\..\..\..\..\..\Dev\Library embedded l2c display\u8g2\csrc/u8x8_message.c ****   
  34:..\..\..\..\..\..\Dev\Library embedded l2c display\u8g2\csrc/u8x8_message.c **** */
  35:..\..\..\..\..\..\Dev\Library embedded l2c display\u8g2\csrc/u8x8_message.c **** 
  36:..\..\..\..\..\..\Dev\Library embedded l2c display\u8g2\csrc/u8x8_message.c **** #include "u8x8.h"
  37:..\..\..\..\..\..\Dev\Library embedded l2c display\u8g2\csrc/u8x8_message.c **** 
  38:..\..\..\..\..\..\Dev\Library embedded l2c display\u8g2\csrc/u8x8_message.c **** uint8_t u8x8_draw_button_line(u8x8_t *u8x8, uint8_t y, uint8_t w, uint8_t cursor, const char *s)
  39:..\..\..\..\..\..\Dev\Library embedded l2c display\u8g2\csrc/u8x8_message.c **** {
  28              		.loc 1 39 0
  29              		.cfi_startproc
  30              		@ args = 4, pretend = 0, frame = 0
  31              		@ frame_needed = 0, uses_anonymous_args = 0
  32              	.LVL0:
  33 0000 2DE9F84F 		push	{r3, r4, r5, r6, r7, r8, r9, r10, fp, lr}
  34              		.cfi_def_cfa_offset 40
  35              		.cfi_offset 3, -40
  36              		.cfi_offset 4, -36
  37              		.cfi_offset 5, -32
  38              		.cfi_offset 6, -28
  39              		.cfi_offset 7, -24
  40              		.cfi_offset 8, -20
  41              		.cfi_offset 9, -16
  42              		.cfi_offset 10, -12
  43              		.cfi_offset 11, -8
  44              		.cfi_offset 14, -4
  45 0004 0646     		mov	r6, r0
  46 0006 8946     		mov	r9, r1
  47 0008 1546     		mov	r5, r2
  48 000a 9A46     		mov	r10, r3
  49 000c DDF82880 		ldr	r8, [sp, #40]
  40:..\..\..\..\..\..\Dev\Library embedded l2c display\u8g2\csrc/u8x8_message.c ****   uint8_t i;
  41:..\..\..\..\..\..\Dev\Library embedded l2c display\u8g2\csrc/u8x8_message.c ****   uint8_t cnt;
  42:..\..\..\..\..\..\Dev\Library embedded l2c display\u8g2\csrc/u8x8_message.c ****   uint8_t total;
  43:..\..\..\..\..\..\Dev\Library embedded l2c display\u8g2\csrc/u8x8_message.c ****   uint8_t d;
  44:..\..\..\..\..\..\Dev\Library embedded l2c display\u8g2\csrc/u8x8_message.c ****   uint8_t x;
  45:..\..\..\..\..\..\Dev\Library embedded l2c display\u8g2\csrc/u8x8_message.c ****   cnt = u8x8_GetStringLineCnt(s);
  50              		.loc 1 45 0
  51 0010 4046     		mov	r0, r8
  52              	.LVL1:
  53 0012 FFF7FEFF 		bl	u8x8_GetStringLineCnt
  54              	.LVL2:
  55 0016 0746     		mov	r7, r0
  56              	.LVL3:
  46:..\..\..\..\..\..\Dev\Library embedded l2c display\u8g2\csrc/u8x8_message.c ****   
  47:..\..\..\..\..\..\Dev\Library embedded l2c display\u8g2\csrc/u8x8_message.c ****   /* calculate the width of the button */
  48:..\..\..\..\..\..\Dev\Library embedded l2c display\u8g2\csrc/u8x8_message.c ****   total = 0;
  57              		.loc 1 48 0
  58 0018 4FF0000B 		mov	fp, #0
  49:..\..\..\..\..\..\Dev\Library embedded l2c display\u8g2\csrc/u8x8_message.c ****   for( i = 0; i < cnt; i++ )
  59              		.loc 1 49 0
  60 001c 5C46     		mov	r4, fp
  61 001e 0CE0     		b	.L2
  62              	.LVL4:
  63              	.L3:
  50:..\..\..\..\..\..\Dev\Library embedded l2c display\u8g2\csrc/u8x8_message.c ****   {
  51:..\..\..\..\..\..\Dev\Library embedded l2c display\u8g2\csrc/u8x8_message.c ****     total += u8x8_GetUTF8Len(u8x8, u8x8_GetStringLineStart(i, s));
ARM GAS  C:\Users\Abude\AppData\Local\Temp\cc2Bz9Q6.s 			page 3


  64              		.loc 1 51 0 discriminator 3
  65 0020 4146     		mov	r1, r8
  66 0022 2046     		mov	r0, r4
  67 0024 FFF7FEFF 		bl	u8x8_GetStringLineStart
  68              	.LVL5:
  69 0028 0146     		mov	r1, r0
  70 002a 3046     		mov	r0, r6
  71 002c FFF7FEFF 		bl	u8x8_GetUTF8Len
  72              	.LVL6:
  73 0030 5844     		add	r0, r0, fp
  74 0032 5FFA80FB 		uxtb	fp, r0
  75              	.LVL7:
  49:..\..\..\..\..\..\Dev\Library embedded l2c display\u8g2\csrc/u8x8_message.c ****   for( i = 0; i < cnt; i++ )
  76              		.loc 1 49 0 discriminator 3
  77 0036 0134     		adds	r4, r4, #1
  78              	.LVL8:
  79 0038 E4B2     		uxtb	r4, r4
  80              	.LVL9:
  81              	.L2:
  49:..\..\..\..\..\..\Dev\Library embedded l2c display\u8g2\csrc/u8x8_message.c ****   for( i = 0; i < cnt; i++ )
  82              		.loc 1 49 0 is_stmt 0 discriminator 1
  83 003a BC42     		cmp	r4, r7
  84 003c F0D3     		bcc	.L3
  52:..\..\..\..\..\..\Dev\Library embedded l2c display\u8g2\csrc/u8x8_message.c ****   }
  53:..\..\..\..\..\..\Dev\Library embedded l2c display\u8g2\csrc/u8x8_message.c ****   total += (cnt-1);	/* had one space between the buttons */
  85              		.loc 1 53 0 is_stmt 1
  86 003e 0BEB0704 		add	r4, fp, r7
  87              	.LVL10:
  88 0042 E4B2     		uxtb	r4, r4
  89 0044 013C     		subs	r4, r4, #1
  90 0046 E4B2     		uxtb	r4, r4
  91              	.LVL11:
  54:..\..\..\..\..\..\Dev\Library embedded l2c display\u8g2\csrc/u8x8_message.c ****   
  55:..\..\..\..\..\..\Dev\Library embedded l2c display\u8g2\csrc/u8x8_message.c ****   /* calculate the left offset */
  56:..\..\..\..\..\..\Dev\Library embedded l2c display\u8g2\csrc/u8x8_message.c ****   d = 0;
  57:..\..\..\..\..\..\Dev\Library embedded l2c display\u8g2\csrc/u8x8_message.c ****   if ( total < w )
  92              		.loc 1 57 0
  93 0048 AC42     		cmp	r4, r5
  94 004a 03D2     		bcs	.L8
  95              	.LVL12:
  58:..\..\..\..\..\..\Dev\Library embedded l2c display\u8g2\csrc/u8x8_message.c ****   {
  59:..\..\..\..\..\..\Dev\Library embedded l2c display\u8g2\csrc/u8x8_message.c ****     d = w;
  60:..\..\..\..\..\..\Dev\Library embedded l2c display\u8g2\csrc/u8x8_message.c ****     d -= total;
  96              		.loc 1 60 0
  97 004c 2C1B     		subs	r4, r5, r4
  98              	.LVL13:
  61:..\..\..\..\..\..\Dev\Library embedded l2c display\u8g2\csrc/u8x8_message.c ****     d /= 2;
  99              		.loc 1 61 0
 100 004e C4F34604 		ubfx	r4, r4, #1, #7
 101              	.LVL14:
 102 0052 00E0     		b	.L4
 103              	.LVL15:
 104              	.L8:
  56:..\..\..\..\..\..\Dev\Library embedded l2c display\u8g2\csrc/u8x8_message.c ****   if ( total < w )
 105              		.loc 1 56 0
 106 0054 0024     		movs	r4, #0
 107              	.LVL16:
ARM GAS  C:\Users\Abude\AppData\Local\Temp\cc2Bz9Q6.s 			page 4


 108              	.L4:
  62:..\..\..\..\..\..\Dev\Library embedded l2c display\u8g2\csrc/u8x8_message.c ****   }
  63:..\..\..\..\..\..\Dev\Library embedded l2c display\u8g2\csrc/u8x8_message.c ****   
  64:..\..\..\..\..\..\Dev\Library embedded l2c display\u8g2\csrc/u8x8_message.c ****   /* draw the buttons */
  65:..\..\..\..\..\..\Dev\Library embedded l2c display\u8g2\csrc/u8x8_message.c ****   x = d;
  66:..\..\..\..\..\..\Dev\Library embedded l2c display\u8g2\csrc/u8x8_message.c ****   u8x8_SetInverseFont(u8x8, 0);
 109              		.loc 1 66 0
 110 0056 0025     		movs	r5, #0
 111 0058 86F82350 		strb	r5, [r6, #35]
 112              	.LVL17:
  67:..\..\..\..\..\..\Dev\Library embedded l2c display\u8g2\csrc/u8x8_message.c ****   for( i = 0; i < cnt; i++ )
 113              		.loc 1 67 0
 114 005c 1DE0     		b	.L5
 115              	.LVL18:
 116              	.L7:
  68:..\..\..\..\..\..\Dev\Library embedded l2c display\u8g2\csrc/u8x8_message.c ****   {
  69:..\..\..\..\..\..\Dev\Library embedded l2c display\u8g2\csrc/u8x8_message.c ****     if ( i == cursor )
 117              		.loc 1 69 0
 118 005e 5545     		cmp	r5, r10
 119 0060 02D1     		bne	.L6
  70:..\..\..\..\..\..\Dev\Library embedded l2c display\u8g2\csrc/u8x8_message.c ****       u8x8_SetInverseFont(u8x8, 1);
 120              		.loc 1 70 0
 121 0062 0123     		movs	r3, #1
 122 0064 86F82330 		strb	r3, [r6, #35]
 123              	.L6:
  71:..\..\..\..\..\..\Dev\Library embedded l2c display\u8g2\csrc/u8x8_message.c ****       
  72:..\..\..\..\..\..\Dev\Library embedded l2c display\u8g2\csrc/u8x8_message.c ****     x+=u8x8_DrawUTF8(u8x8, x, y, u8x8_GetStringLineStart(i, s));
 124              		.loc 1 72 0 discriminator 2
 125 0068 4146     		mov	r1, r8
 126 006a 2846     		mov	r0, r5
 127 006c FFF7FEFF 		bl	u8x8_GetStringLineStart
 128              	.LVL19:
 129 0070 0346     		mov	r3, r0
 130 0072 4A46     		mov	r2, r9
 131 0074 2146     		mov	r1, r4
 132 0076 3046     		mov	r0, r6
 133 0078 FFF7FEFF 		bl	u8x8_DrawUTF8
 134              	.LVL20:
 135 007c 2044     		add	r0, r0, r4
 136 007e C4B2     		uxtb	r4, r0
 137              	.LVL21:
  73:..\..\..\..\..\..\Dev\Library embedded l2c display\u8g2\csrc/u8x8_message.c ****     u8x8_SetInverseFont(u8x8, 0);
 138              		.loc 1 73 0 discriminator 2
 139 0080 0023     		movs	r3, #0
 140 0082 86F82330 		strb	r3, [r6, #35]
  74:..\..\..\..\..\..\Dev\Library embedded l2c display\u8g2\csrc/u8x8_message.c ****     x+=u8x8_DrawUTF8(u8x8, x, y, " ");
 141              		.loc 1 74 0 discriminator 2
 142 0086 074B     		ldr	r3, .L10
 143 0088 4A46     		mov	r2, r9
 144 008a 2146     		mov	r1, r4
 145 008c 3046     		mov	r0, r6
 146 008e FFF7FEFF 		bl	u8x8_DrawUTF8
 147              	.LVL22:
 148 0092 2044     		add	r0, r0, r4
 149 0094 C4B2     		uxtb	r4, r0
 150              	.LVL23:
  67:..\..\..\..\..\..\Dev\Library embedded l2c display\u8g2\csrc/u8x8_message.c ****   {
ARM GAS  C:\Users\Abude\AppData\Local\Temp\cc2Bz9Q6.s 			page 5


 151              		.loc 1 67 0 discriminator 2
 152 0096 0135     		adds	r5, r5, #1
 153              	.LVL24:
 154 0098 EDB2     		uxtb	r5, r5
 155              	.LVL25:
 156              	.L5:
  67:..\..\..\..\..\..\Dev\Library embedded l2c display\u8g2\csrc/u8x8_message.c ****   {
 157              		.loc 1 67 0 is_stmt 0 discriminator 1
 158 009a BD42     		cmp	r5, r7
 159 009c DFD3     		bcc	.L7
  75:..\..\..\..\..\..\Dev\Library embedded l2c display\u8g2\csrc/u8x8_message.c ****   }
  76:..\..\..\..\..\..\Dev\Library embedded l2c display\u8g2\csrc/u8x8_message.c ****   
  77:..\..\..\..\..\..\Dev\Library embedded l2c display\u8g2\csrc/u8x8_message.c ****   /* return the number of buttons */
  78:..\..\..\..\..\..\Dev\Library embedded l2c display\u8g2\csrc/u8x8_message.c ****   return cnt;
  79:..\..\..\..\..\..\Dev\Library embedded l2c display\u8g2\csrc/u8x8_message.c **** }
 160              		.loc 1 79 0 is_stmt 1
 161 009e 3846     		mov	r0, r7
 162 00a0 BDE8F88F 		pop	{r3, r4, r5, r6, r7, r8, r9, r10, fp, pc}
 163              	.LVL26:
 164              	.L11:
 165              		.align	2
 166              	.L10:
 167 00a4 00000000 		.word	.LC0
 168              		.cfi_endproc
 169              	.LFE0:
 170              		.size	u8x8_draw_button_line, .-u8x8_draw_button_line
 171              		.section	.text.u8x8_UserInterfaceMessage,"ax",%progbits
 172              		.align	2
 173              		.global	u8x8_UserInterfaceMessage
 174              		.thumb
 175              		.thumb_func
 176              		.type	u8x8_UserInterfaceMessage, %function
 177              	u8x8_UserInterfaceMessage:
 178              	.LFB1:
  80:..\..\..\..\..\..\Dev\Library embedded l2c display\u8g2\csrc/u8x8_message.c **** 
  81:..\..\..\..\..\..\Dev\Library embedded l2c display\u8g2\csrc/u8x8_message.c **** /*
  82:..\..\..\..\..\..\Dev\Library embedded l2c display\u8g2\csrc/u8x8_message.c ****   title1:	Multiple lines,separated by '\n'
  83:..\..\..\..\..\..\Dev\Library embedded l2c display\u8g2\csrc/u8x8_message.c ****   title2:	A single line/string which is terminated by '\0' or '\n' . "title2" accepts the return va
  84:..\..\..\..\..\..\Dev\Library embedded l2c display\u8g2\csrc/u8x8_message.c ****   title3:	Multiple lines,separated by '\n'
  85:..\..\..\..\..\..\Dev\Library embedded l2c display\u8g2\csrc/u8x8_message.c ****   buttons:	one more more buttons separated by '\n' and terminated with '\0'
  86:..\..\..\..\..\..\Dev\Library embedded l2c display\u8g2\csrc/u8x8_message.c **** */
  87:..\..\..\..\..\..\Dev\Library embedded l2c display\u8g2\csrc/u8x8_message.c **** 
  88:..\..\..\..\..\..\Dev\Library embedded l2c display\u8g2\csrc/u8x8_message.c **** uint8_t u8x8_UserInterfaceMessage(u8x8_t *u8x8, const char *title1, const char *title2, const char 
  89:..\..\..\..\..\..\Dev\Library embedded l2c display\u8g2\csrc/u8x8_message.c **** {
 179              		.loc 1 89 0
 180              		.cfi_startproc
 181              		@ args = 4, pretend = 0, frame = 0
 182              		@ frame_needed = 0, uses_anonymous_args = 0
 183              	.LVL27:
 184 0000 2DE9F043 		push	{r4, r5, r6, r7, r8, r9, lr}
 185              		.cfi_def_cfa_offset 28
 186              		.cfi_offset 4, -28
 187              		.cfi_offset 5, -24
 188              		.cfi_offset 6, -20
 189              		.cfi_offset 7, -16
 190              		.cfi_offset 8, -12
 191              		.cfi_offset 9, -8
ARM GAS  C:\Users\Abude\AppData\Local\Temp\cc2Bz9Q6.s 			page 6


 192              		.cfi_offset 14, -4
 193 0004 83B0     		sub	sp, sp, #12
 194              		.cfi_def_cfa_offset 40
 195 0006 0546     		mov	r5, r0
 196 0008 0E46     		mov	r6, r1
 197 000a 9046     		mov	r8, r2
 198 000c 9946     		mov	r9, r3
 199 000e 0A9F     		ldr	r7, [sp, #40]
 200              	.LVL28:
  90:..\..\..\..\..\..\Dev\Library embedded l2c display\u8g2\csrc/u8x8_message.c ****   uint8_t height;
  91:..\..\..\..\..\..\Dev\Library embedded l2c display\u8g2\csrc/u8x8_message.c ****   uint8_t y;
  92:..\..\..\..\..\..\Dev\Library embedded l2c display\u8g2\csrc/u8x8_message.c ****   uint8_t cursor = 0;
  93:..\..\..\..\..\..\Dev\Library embedded l2c display\u8g2\csrc/u8x8_message.c ****   uint8_t button_cnt;
  94:..\..\..\..\..\..\Dev\Library embedded l2c display\u8g2\csrc/u8x8_message.c ****   uint8_t event;
  95:..\..\..\..\..\..\Dev\Library embedded l2c display\u8g2\csrc/u8x8_message.c **** 
  96:..\..\..\..\..\..\Dev\Library embedded l2c display\u8g2\csrc/u8x8_message.c ****   u8x8_SetInverseFont(u8x8, 0);
 201              		.loc 1 96 0
 202 0010 0023     		movs	r3, #0
 203              	.LVL29:
 204 0012 80F82330 		strb	r3, [r0, #35]
 205              	.LVL30:
  97:..\..\..\..\..\..\Dev\Library embedded l2c display\u8g2\csrc/u8x8_message.c ****   
  98:..\..\..\..\..\..\Dev\Library embedded l2c display\u8g2\csrc/u8x8_message.c ****   /* calculate overall height of the message box */
  99:..\..\..\..\..\..\Dev\Library embedded l2c display\u8g2\csrc/u8x8_message.c ****   height = 1;	/* button line */
 100:..\..\..\..\..\..\Dev\Library embedded l2c display\u8g2\csrc/u8x8_message.c ****   height += u8x8_GetStringLineCnt(title1);
 206              		.loc 1 100 0
 207 0016 0846     		mov	r0, r1
 208              	.LVL31:
 209 0018 FFF7FEFF 		bl	u8x8_GetStringLineCnt
 210              	.LVL32:
 211 001c 441C     		adds	r4, r0, #1
 212 001e E4B2     		uxtb	r4, r4
 213              	.LVL33:
 101:..\..\..\..\..\..\Dev\Library embedded l2c display\u8g2\csrc/u8x8_message.c ****   if ( title2 != NULL )
 214              		.loc 1 101 0
 215 0020 B8F1000F 		cmp	r8, #0
 216 0024 01D0     		beq	.L13
 102:..\..\..\..\..\..\Dev\Library embedded l2c display\u8g2\csrc/u8x8_message.c ****     height ++;
 217              		.loc 1 102 0
 218 0026 0230     		adds	r0, r0, #2
 219 0028 C4B2     		uxtb	r4, r0
 220              	.LVL34:
 221              	.L13:
 103:..\..\..\..\..\..\Dev\Library embedded l2c display\u8g2\csrc/u8x8_message.c ****   height += u8x8_GetStringLineCnt(title3);
 222              		.loc 1 103 0
 223 002a 4846     		mov	r0, r9
 224 002c FFF7FEFF 		bl	u8x8_GetStringLineCnt
 225              	.LVL35:
 226 0030 2044     		add	r0, r0, r4
 227 0032 C0B2     		uxtb	r0, r0
 228              	.LVL36:
 104:..\..\..\..\..\..\Dev\Library embedded l2c display\u8g2\csrc/u8x8_message.c ****   
 105:..\..\..\..\..\..\Dev\Library embedded l2c display\u8g2\csrc/u8x8_message.c ****   /* calculate offset from top */
 106:..\..\..\..\..\..\Dev\Library embedded l2c display\u8g2\csrc/u8x8_message.c ****   y = 0;
 107:..\..\..\..\..\..\Dev\Library embedded l2c display\u8g2\csrc/u8x8_message.c ****   if ( height < u8x8_GetRows(u8x8)  )
 229              		.loc 1 107 0
 230 0034 2B68     		ldr	r3, [r5]
ARM GAS  C:\Users\Abude\AppData\Local\Temp\cc2Bz9Q6.s 			page 7


 231 0036 5C7C     		ldrb	r4, [r3, #17]	@ zero_extendqisi2
 232 0038 A042     		cmp	r0, r4
 233 003a 03D2     		bcs	.L25
 234              	.LVL37:
 108:..\..\..\..\..\..\Dev\Library embedded l2c display\u8g2\csrc/u8x8_message.c ****   {
 109:..\..\..\..\..\..\Dev\Library embedded l2c display\u8g2\csrc/u8x8_message.c ****     y = u8x8_GetRows(u8x8);
 110:..\..\..\..\..\..\Dev\Library embedded l2c display\u8g2\csrc/u8x8_message.c ****     y -= height;
 235              		.loc 1 110 0
 236 003c 241A     		subs	r4, r4, r0
 237              	.LVL38:
 111:..\..\..\..\..\..\Dev\Library embedded l2c display\u8g2\csrc/u8x8_message.c ****     y /= 2;
 238              		.loc 1 111 0
 239 003e C4F34604 		ubfx	r4, r4, #1, #7
 240              	.LVL39:
 241 0042 00E0     		b	.L14
 242              	.LVL40:
 243              	.L25:
 106:..\..\..\..\..\..\Dev\Library embedded l2c display\u8g2\csrc/u8x8_message.c ****   if ( height < u8x8_GetRows(u8x8)  )
 244              		.loc 1 106 0
 245 0044 0024     		movs	r4, #0
 246              	.LVL41:
 247              	.L14:
 112:..\..\..\..\..\..\Dev\Library embedded l2c display\u8g2\csrc/u8x8_message.c ****   }
 113:..\..\..\..\..\..\Dev\Library embedded l2c display\u8g2\csrc/u8x8_message.c **** 
 114:..\..\..\..\..\..\Dev\Library embedded l2c display\u8g2\csrc/u8x8_message.c ****   /* draw message box */
 115:..\..\..\..\..\..\Dev\Library embedded l2c display\u8g2\csrc/u8x8_message.c ****   
 116:..\..\..\..\..\..\Dev\Library embedded l2c display\u8g2\csrc/u8x8_message.c ****   u8x8_ClearDisplay(u8x8);   /* required, because not everything is filled */
 248              		.loc 1 116 0
 249 0046 2846     		mov	r0, r5
 250              	.LVL42:
 251 0048 FFF7FEFF 		bl	u8x8_ClearDisplay
 252              	.LVL43:
 117:..\..\..\..\..\..\Dev\Library embedded l2c display\u8g2\csrc/u8x8_message.c ****   
 118:..\..\..\..\..\..\Dev\Library embedded l2c display\u8g2\csrc/u8x8_message.c ****   y += u8x8_DrawUTF8Lines(u8x8, 0, y, u8x8_GetCols(u8x8), title1);
 253              		.loc 1 118 0
 254 004c 2B68     		ldr	r3, [r5]
 255 004e 1B7C     		ldrb	r3, [r3, #16]	@ zero_extendqisi2
 256 0050 0096     		str	r6, [sp]
 257 0052 2246     		mov	r2, r4
 258 0054 0021     		movs	r1, #0
 259 0056 2846     		mov	r0, r5
 260 0058 FFF7FEFF 		bl	u8x8_DrawUTF8Lines
 261              	.LVL44:
 262 005c 2044     		add	r0, r0, r4
 263 005e C6B2     		uxtb	r6, r0
 264              	.LVL45:
 119:..\..\..\..\..\..\Dev\Library embedded l2c display\u8g2\csrc/u8x8_message.c ****   if ( title2 != NULL )
 265              		.loc 1 119 0
 266 0060 B8F1000F 		cmp	r8, #0
 267 0064 0AD0     		beq	.L15
 120:..\..\..\..\..\..\Dev\Library embedded l2c display\u8g2\csrc/u8x8_message.c ****   {
 121:..\..\..\..\..\..\Dev\Library embedded l2c display\u8g2\csrc/u8x8_message.c ****     u8x8_DrawUTF8Line(u8x8, 0, y, u8x8_GetCols(u8x8), title2);
 268              		.loc 1 121 0
 269 0066 2B68     		ldr	r3, [r5]
 270 0068 1B7C     		ldrb	r3, [r3, #16]	@ zero_extendqisi2
 271 006a CDF80080 		str	r8, [sp]
 272 006e 3246     		mov	r2, r6
ARM GAS  C:\Users\Abude\AppData\Local\Temp\cc2Bz9Q6.s 			page 8


 273 0070 0021     		movs	r1, #0
 274 0072 2846     		mov	r0, r5
 275 0074 FFF7FEFF 		bl	u8x8_DrawUTF8Line
 276              	.LVL46:
 122:..\..\..\..\..\..\Dev\Library embedded l2c display\u8g2\csrc/u8x8_message.c ****     y++;
 277              		.loc 1 122 0
 278 0078 0136     		adds	r6, r6, #1
 279              	.LVL47:
 280 007a F6B2     		uxtb	r6, r6
 281              	.LVL48:
 282              	.L15:
 123:..\..\..\..\..\..\Dev\Library embedded l2c display\u8g2\csrc/u8x8_message.c ****   }
 124:..\..\..\..\..\..\Dev\Library embedded l2c display\u8g2\csrc/u8x8_message.c ****   y += u8x8_DrawUTF8Lines(u8x8, 0, y, u8x8_GetCols(u8x8), title3);
 283              		.loc 1 124 0
 284 007c 2B68     		ldr	r3, [r5]
 285 007e 1B7C     		ldrb	r3, [r3, #16]	@ zero_extendqisi2
 286 0080 CDF80090 		str	r9, [sp]
 287 0084 3246     		mov	r2, r6
 288 0086 0021     		movs	r1, #0
 289 0088 2846     		mov	r0, r5
 290 008a FFF7FEFF 		bl	u8x8_DrawUTF8Lines
 291              	.LVL49:
 292 008e 3044     		add	r0, r0, r6
 293 0090 C6B2     		uxtb	r6, r0
 294              	.LVL50:
 125:..\..\..\..\..\..\Dev\Library embedded l2c display\u8g2\csrc/u8x8_message.c **** 
 126:..\..\..\..\..\..\Dev\Library embedded l2c display\u8g2\csrc/u8x8_message.c ****   button_cnt = u8x8_draw_button_line(u8x8, y, u8x8_GetCols(u8x8), cursor, buttons);
 295              		.loc 1 126 0
 296 0092 2B68     		ldr	r3, [r5]
 297 0094 1A7C     		ldrb	r2, [r3, #16]	@ zero_extendqisi2
 298 0096 0097     		str	r7, [sp]
 299 0098 0023     		movs	r3, #0
 300 009a 3146     		mov	r1, r6
 301 009c 2846     		mov	r0, r5
 302 009e FFF7FEFF 		bl	u8x8_draw_button_line
 303              	.LVL51:
 304 00a2 8046     		mov	r8, r0
 305              	.LVL52:
  92:..\..\..\..\..\..\Dev\Library embedded l2c display\u8g2\csrc/u8x8_message.c ****   uint8_t button_cnt;
 306              		.loc 1 92 0
 307 00a4 0024     		movs	r4, #0
 308              	.LVL53:
 309              	.L16:
 127:..\..\..\..\..\..\Dev\Library embedded l2c display\u8g2\csrc/u8x8_message.c ****   
 128:..\..\..\..\..\..\Dev\Library embedded l2c display\u8g2\csrc/u8x8_message.c ****   for(;;)
 129:..\..\..\..\..\..\Dev\Library embedded l2c display\u8g2\csrc/u8x8_message.c ****   {
 130:..\..\..\..\..\..\Dev\Library embedded l2c display\u8g2\csrc/u8x8_message.c ****     event = u8x8_GetMenuEvent(u8x8);
 310              		.loc 1 130 0
 311 00a6 2846     		mov	r0, r5
 312 00a8 FFF7FEFF 		bl	u8x8_GetMenuEvent
 313              	.LVL54:
 131:..\..\..\..\..\..\Dev\Library embedded l2c display\u8g2\csrc/u8x8_message.c ****     if ( event == U8X8_MSG_GPIO_MENU_SELECT )
 314              		.loc 1 131 0
 315 00ac 5028     		cmp	r0, #80
 316 00ae 02D1     		bne	.L17
 132:..\..\..\..\..\..\Dev\Library embedded l2c display\u8g2\csrc/u8x8_message.c ****       return cursor+1;
 317              		.loc 1 132 0
ARM GAS  C:\Users\Abude\AppData\Local\Temp\cc2Bz9Q6.s 			page 9


 318 00b0 601C     		adds	r0, r4, #1
 319              	.LVL55:
 320 00b2 C0B2     		uxtb	r0, r0
 321 00b4 25E0     		b	.L18
 322              	.LVL56:
 323              	.L17:
 133:..\..\..\..\..\..\Dev\Library embedded l2c display\u8g2\csrc/u8x8_message.c ****     else if ( event == U8X8_MSG_GPIO_MENU_HOME )
 324              		.loc 1 133 0
 325 00b6 5328     		cmp	r0, #83
 326 00b8 22D0     		beq	.L26
 134:..\..\..\..\..\..\Dev\Library embedded l2c display\u8g2\csrc/u8x8_message.c ****       break;
 135:..\..\..\..\..\..\Dev\Library embedded l2c display\u8g2\csrc/u8x8_message.c ****     else if ( event == U8X8_MSG_GPIO_MENU_NEXT || event == U8X8_MSG_GPIO_MENU_UP )
 327              		.loc 1 135 0
 328 00ba 5128     		cmp	r0, #81
 329 00bc 01D0     		beq	.L19
 330              		.loc 1 135 0 is_stmt 0 discriminator 1
 331 00be 5428     		cmp	r0, #84
 332 00c0 0DD1     		bne	.L20
 333              	.L19:
 136:..\..\..\..\..\..\Dev\Library embedded l2c display\u8g2\csrc/u8x8_message.c ****     {
 137:..\..\..\..\..\..\Dev\Library embedded l2c display\u8g2\csrc/u8x8_message.c ****       cursor++;
 334              		.loc 1 137 0 is_stmt 1
 335 00c2 0134     		adds	r4, r4, #1
 336              	.LVL57:
 337 00c4 E4B2     		uxtb	r4, r4
 338              	.LVL58:
 138:..\..\..\..\..\..\Dev\Library embedded l2c display\u8g2\csrc/u8x8_message.c ****       if ( cursor >= button_cnt )
 339              		.loc 1 138 0
 340 00c6 A045     		cmp	r8, r4
 341 00c8 00D8     		bhi	.L21
 139:..\..\..\..\..\..\Dev\Library embedded l2c display\u8g2\csrc/u8x8_message.c **** 	cursor = 0;
 342              		.loc 1 139 0
 343 00ca 0024     		movs	r4, #0
 344              	.LVL59:
 345              	.L21:
 140:..\..\..\..\..\..\Dev\Library embedded l2c display\u8g2\csrc/u8x8_message.c ****       u8x8_draw_button_line(u8x8, y, u8x8_GetCols(u8x8), cursor, buttons);
 346              		.loc 1 140 0
 347 00cc 2B68     		ldr	r3, [r5]
 348 00ce 1A7C     		ldrb	r2, [r3, #16]	@ zero_extendqisi2
 349 00d0 0097     		str	r7, [sp]
 350 00d2 2346     		mov	r3, r4
 351 00d4 3146     		mov	r1, r6
 352 00d6 2846     		mov	r0, r5
 353              	.LVL60:
 354 00d8 FFF7FEFF 		bl	u8x8_draw_button_line
 355              	.LVL61:
 356 00dc E3E7     		b	.L16
 357              	.LVL62:
 358              	.L20:
 141:..\..\..\..\..\..\Dev\Library embedded l2c display\u8g2\csrc/u8x8_message.c ****     }
 142:..\..\..\..\..\..\Dev\Library embedded l2c display\u8g2\csrc/u8x8_message.c ****     else if ( event == U8X8_MSG_GPIO_MENU_PREV || event == U8X8_MSG_GPIO_MENU_DOWN  )
 359              		.loc 1 142 0
 360 00de 5228     		cmp	r0, #82
 361 00e0 01D0     		beq	.L23
 362              		.loc 1 142 0 is_stmt 0 discriminator 1
 363 00e2 5528     		cmp	r0, #85
 364 00e4 DFD1     		bne	.L16
ARM GAS  C:\Users\Abude\AppData\Local\Temp\cc2Bz9Q6.s 			page 10


 365              	.L23:
 143:..\..\..\..\..\..\Dev\Library embedded l2c display\u8g2\csrc/u8x8_message.c ****     {
 144:..\..\..\..\..\..\Dev\Library embedded l2c display\u8g2\csrc/u8x8_message.c ****       if ( cursor == 0 )
 366              		.loc 1 144 0 is_stmt 1
 367 00e6 04B9     		cbnz	r4, .L24
 145:..\..\..\..\..\..\Dev\Library embedded l2c display\u8g2\csrc/u8x8_message.c **** 	cursor = button_cnt;
 368              		.loc 1 145 0
 369 00e8 4446     		mov	r4, r8
 370              	.LVL63:
 371              	.L24:
 146:..\..\..\..\..\..\Dev\Library embedded l2c display\u8g2\csrc/u8x8_message.c ****       cursor--;
 372              		.loc 1 146 0
 373 00ea 013C     		subs	r4, r4, #1
 374              	.LVL64:
 375 00ec E4B2     		uxtb	r4, r4
 376              	.LVL65:
 147:..\..\..\..\..\..\Dev\Library embedded l2c display\u8g2\csrc/u8x8_message.c ****       u8x8_draw_button_line(u8x8, y, u8x8_GetCols(u8x8), cursor, buttons);
 377              		.loc 1 147 0
 378 00ee 2B68     		ldr	r3, [r5]
 379 00f0 1A7C     		ldrb	r2, [r3, #16]	@ zero_extendqisi2
 380 00f2 0097     		str	r7, [sp]
 381 00f4 2346     		mov	r3, r4
 382 00f6 3146     		mov	r1, r6
 383 00f8 2846     		mov	r0, r5
 384              	.LVL66:
 385 00fa FFF7FEFF 		bl	u8x8_draw_button_line
 386              	.LVL67:
 387 00fe D2E7     		b	.L16
 388              	.LVL68:
 389              	.L26:
 148:..\..\..\..\..\..\Dev\Library embedded l2c display\u8g2\csrc/u8x8_message.c ****     }    
 149:..\..\..\..\..\..\Dev\Library embedded l2c display\u8g2\csrc/u8x8_message.c ****   }  
 150:..\..\..\..\..\..\Dev\Library embedded l2c display\u8g2\csrc/u8x8_message.c ****   return 0;
 390              		.loc 1 150 0
 391 0100 0020     		movs	r0, #0
 392              	.LVL69:
 393              	.L18:
 151:..\..\..\..\..\..\Dev\Library embedded l2c display\u8g2\csrc/u8x8_message.c **** }
 394              		.loc 1 151 0
 395 0102 03B0     		add	sp, sp, #12
 396              		.cfi_def_cfa_offset 28
 397              		@ sp needed
 398 0104 BDE8F083 		pop	{r4, r5, r6, r7, r8, r9, pc}
 399              		.cfi_endproc
 400              	.LFE1:
 401              		.size	u8x8_UserInterfaceMessage, .-u8x8_UserInterfaceMessage
 402              		.section	.rodata.str1.4,"aMS",%progbits,1
 403              		.align	2
 404              	.LC0:
 405 0000 2000     		.ascii	" \000"
 406              		.text
 407              	.Letext0:
 408              		.file 2 "c:\\program files (x86)\\cypress\\psoc creator\\4.4\\psoc creator\\import\\gnu\\arm\\5.4.
 409              		.file 3 "c:\\program files (x86)\\cypress\\psoc creator\\4.4\\psoc creator\\import\\gnu\\arm\\5.4.
 410              		.file 4 "c:\\dev\\library embedded l2c display\\u8g2\\csrc\\u8x8.h"