ARM GAS  C:\Users\Abude\AppData\Local\Temp\cc8JZqu2.s 			page 1


   1              		.syntax unified
   2              		.cpu cortex-m3
   3              		.fpu softvfp
   4              		.eabi_attribute 20, 1
   5              		.eabi_attribute 21, 1
   6              		.eabi_attribute 23, 3
   7              		.eabi_attribute 24, 1
   8              		.eabi_attribute 25, 1
   9              		.eabi_attribute 26, 1
  10              		.eabi_attribute 30, 1
  11              		.eabi_attribute 34, 1
  12              		.eabi_attribute 18, 4
  13              		.thumb
  14              		.syntax unified
  15              		.file	"u8x8_d_uc1601.c"
  16              		.text
  17              	.Ltext0:
  18              		.cfi_sections	.debug_frame
  19              		.section	.text.u8x8_d_uc1601_128x32,"ax",%progbits
  20              		.align	2
  21              		.global	u8x8_d_uc1601_128x32
  22              		.thumb
  23              		.thumb_func
  24              		.type	u8x8_d_uc1601_128x32, %function
  25              	u8x8_d_uc1601_128x32:
  26              	.LFB0:
  27              		.file 1 "..\\..\\..\\..\\..\\..\\Dev\\Library embedded l2c display\\u8g2\\csrc\\u8x8_d_uc1601.c"
   1:..\..\..\..\..\..\Dev\Library embedded l2c display\u8g2\csrc/u8x8_d_uc1601.c **** /*
   2:..\..\..\..\..\..\Dev\Library embedded l2c display\u8g2\csrc/u8x8_d_uc1601.c **** 
   3:..\..\..\..\..\..\Dev\Library embedded l2c display\u8g2\csrc/u8x8_d_uc1601.c ****   u8x8_d_uc1601.c
   4:..\..\..\..\..\..\Dev\Library embedded l2c display\u8g2\csrc/u8x8_d_uc1601.c ****   
   5:..\..\..\..\..\..\Dev\Library embedded l2c display\u8g2\csrc/u8x8_d_uc1601.c ****   Universal 8bit Graphics Library (https://github.com/olikraus/u8g2/)
   6:..\..\..\..\..\..\Dev\Library embedded l2c display\u8g2\csrc/u8x8_d_uc1601.c **** 
   7:..\..\..\..\..\..\Dev\Library embedded l2c display\u8g2\csrc/u8x8_d_uc1601.c ****   Copyright (c) 2017, olikraus@gmail.com
   8:..\..\..\..\..\..\Dev\Library embedded l2c display\u8g2\csrc/u8x8_d_uc1601.c ****   All rights reserved.
   9:..\..\..\..\..\..\Dev\Library embedded l2c display\u8g2\csrc/u8x8_d_uc1601.c **** 
  10:..\..\..\..\..\..\Dev\Library embedded l2c display\u8g2\csrc/u8x8_d_uc1601.c ****   Redistribution and use in source and binary forms, with or without modification, 
  11:..\..\..\..\..\..\Dev\Library embedded l2c display\u8g2\csrc/u8x8_d_uc1601.c ****   are permitted provided that the following conditions are met:
  12:..\..\..\..\..\..\Dev\Library embedded l2c display\u8g2\csrc/u8x8_d_uc1601.c **** 
  13:..\..\..\..\..\..\Dev\Library embedded l2c display\u8g2\csrc/u8x8_d_uc1601.c ****   * Redistributions of source code must retain the above copyright notice, this list 
  14:..\..\..\..\..\..\Dev\Library embedded l2c display\u8g2\csrc/u8x8_d_uc1601.c ****     of conditions and the following disclaimer.
  15:..\..\..\..\..\..\Dev\Library embedded l2c display\u8g2\csrc/u8x8_d_uc1601.c ****     
  16:..\..\..\..\..\..\Dev\Library embedded l2c display\u8g2\csrc/u8x8_d_uc1601.c ****   * Redistributions in binary form must reproduce the above copyright notice, this 
  17:..\..\..\..\..\..\Dev\Library embedded l2c display\u8g2\csrc/u8x8_d_uc1601.c ****     list of conditions and the following disclaimer in the documentation and/or other 
  18:..\..\..\..\..\..\Dev\Library embedded l2c display\u8g2\csrc/u8x8_d_uc1601.c ****     materials provided with the distribution.
  19:..\..\..\..\..\..\Dev\Library embedded l2c display\u8g2\csrc/u8x8_d_uc1601.c **** 
  20:..\..\..\..\..\..\Dev\Library embedded l2c display\u8g2\csrc/u8x8_d_uc1601.c ****   THIS SOFTWARE IS PROVIDED BY THE COPYRIGHT HOLDERS AND 
  21:..\..\..\..\..\..\Dev\Library embedded l2c display\u8g2\csrc/u8x8_d_uc1601.c ****   CONTRIBUTORS "AS IS" AND ANY EXPRESS OR IMPLIED WARRANTIES, 
  22:..\..\..\..\..\..\Dev\Library embedded l2c display\u8g2\csrc/u8x8_d_uc1601.c ****   INCLUDING, BUT NOT LIMITED TO, THE IMPLIED WARRANTIES OF 
  23:..\..\..\..\..\..\Dev\Library embedded l2c display\u8g2\csrc/u8x8_d_uc1601.c ****   MERCHANTABILITY AND FITNESS FOR A PARTICULAR PURPOSE ARE 
  24:..\..\..\..\..\..\Dev\Library embedded l2c display\u8g2\csrc/u8x8_d_uc1601.c ****   DISCLAIMED. IN NO EVENT SHALL THE COPYRIGHT HOLDER OR 
  25:..\..\..\..\..\..\Dev\Library embedded l2c display\u8g2\csrc/u8x8_d_uc1601.c ****   CONTRIBUTORS BE LIABLE FOR ANY DIRECT, INDIRECT, INCIDENTAL, 
  26:..\..\..\..\..\..\Dev\Library embedded l2c display\u8g2\csrc/u8x8_d_uc1601.c ****   SPECIAL, EXEMPLARY, OR CONSEQUENTIAL DAMAGES (INCLUDING, BUT 
  27:..\..\..\..\..\..\Dev\Library embedded l2c display\u8g2\csrc/u8x8_d_uc1601.c ****   NOT LIMITED TO, PROCUREMENT OF SUBSTITUTE GOODS OR SERVICES; 
  28:..\..\..\..\..\..\Dev\Library embedded l2c display\u8g2\csrc/u8x8_d_uc1601.c ****   LOSS OF USE, DATA, OR PROFITS; OR BUSINESS INTERRUPTION) HOWEVER 
  29:..\..\..\..\..\..\Dev\Library embedded l2c display\u8g2\csrc/u8x8_d_uc1601.c ****   CAUSED AND ON ANY THEORY OF LIABILITY, WHETHER IN CONTRACT, 
  30:..\..\..\..\..\..\Dev\Library embedded l2c display\u8g2\csrc/u8x8_d_uc1601.c ****   STRICT LIABILITY, OR TORT (INCLUDING NEGLIGENCE OR OTHERWISE) 
ARM GAS  C:\Users\Abude\AppData\Local\Temp\cc8JZqu2.s 			page 2


  31:..\..\..\..\..\..\Dev\Library embedded l2c display\u8g2\csrc/u8x8_d_uc1601.c ****   ARISING IN ANY WAY OUT OF THE USE OF THIS SOFTWARE, EVEN IF 
  32:..\..\..\..\..\..\Dev\Library embedded l2c display\u8g2\csrc/u8x8_d_uc1601.c ****   ADVISED OF THE POSSIBILITY OF SUCH DAMAGE.  
  33:..\..\..\..\..\..\Dev\Library embedded l2c display\u8g2\csrc/u8x8_d_uc1601.c **** 
  34:..\..\..\..\..\..\Dev\Library embedded l2c display\u8g2\csrc/u8x8_d_uc1601.c ****   This is for the uc1601s controller
  35:..\..\..\..\..\..\Dev\Library embedded l2c display\u8g2\csrc/u8x8_d_uc1601.c ****   
  36:..\..\..\..\..\..\Dev\Library embedded l2c display\u8g2\csrc/u8x8_d_uc1601.c ****   
  37:..\..\..\..\..\..\Dev\Library embedded l2c display\u8g2\csrc/u8x8_d_uc1601.c **** */
  38:..\..\..\..\..\..\Dev\Library embedded l2c display\u8g2\csrc/u8x8_d_uc1601.c **** #include "u8x8.h"
  39:..\..\..\..\..\..\Dev\Library embedded l2c display\u8g2\csrc/u8x8_d_uc1601.c **** 
  40:..\..\..\..\..\..\Dev\Library embedded l2c display\u8g2\csrc/u8x8_d_uc1601.c **** 
  41:..\..\..\..\..\..\Dev\Library embedded l2c display\u8g2\csrc/u8x8_d_uc1601.c **** 
  42:..\..\..\..\..\..\Dev\Library embedded l2c display\u8g2\csrc/u8x8_d_uc1601.c **** 
  43:..\..\..\..\..\..\Dev\Library embedded l2c display\u8g2\csrc/u8x8_d_uc1601.c **** static const uint8_t u8x8_d_uc1601_128x32_powersave0_seq[] = {
  44:..\..\..\..\..\..\Dev\Library embedded l2c display\u8g2\csrc/u8x8_d_uc1601.c ****   U8X8_START_TRANSFER(),             	/* enable chip, delay is part of the transfer start */
  45:..\..\..\..\..\..\Dev\Library embedded l2c display\u8g2\csrc/u8x8_d_uc1601.c ****   U8X8_C(0x0af),		                /* display on */
  46:..\..\..\..\..\..\Dev\Library embedded l2c display\u8g2\csrc/u8x8_d_uc1601.c ****   U8X8_END_TRANSFER(),             	/* disable chip */
  47:..\..\..\..\..\..\Dev\Library embedded l2c display\u8g2\csrc/u8x8_d_uc1601.c ****   U8X8_END()             			/* end of sequence */
  48:..\..\..\..\..\..\Dev\Library embedded l2c display\u8g2\csrc/u8x8_d_uc1601.c **** };
  49:..\..\..\..\..\..\Dev\Library embedded l2c display\u8g2\csrc/u8x8_d_uc1601.c **** 
  50:..\..\..\..\..\..\Dev\Library embedded l2c display\u8g2\csrc/u8x8_d_uc1601.c **** static const uint8_t u8x8_d_uc1601_128x32_powersave1_seq[] = {
  51:..\..\..\..\..\..\Dev\Library embedded l2c display\u8g2\csrc/u8x8_d_uc1601.c ****   U8X8_START_TRANSFER(),             	/* enable chip, delay is part of the transfer start */
  52:..\..\..\..\..\..\Dev\Library embedded l2c display\u8g2\csrc/u8x8_d_uc1601.c ****   U8X8_C(0x0ae),		                /* display off */
  53:..\..\..\..\..\..\Dev\Library embedded l2c display\u8g2\csrc/u8x8_d_uc1601.c ****   U8X8_END_TRANSFER(),             	/* disable chip */
  54:..\..\..\..\..\..\Dev\Library embedded l2c display\u8g2\csrc/u8x8_d_uc1601.c ****   U8X8_END()             			/* end of sequence */
  55:..\..\..\..\..\..\Dev\Library embedded l2c display\u8g2\csrc/u8x8_d_uc1601.c **** };
  56:..\..\..\..\..\..\Dev\Library embedded l2c display\u8g2\csrc/u8x8_d_uc1601.c **** 
  57:..\..\..\..\..\..\Dev\Library embedded l2c display\u8g2\csrc/u8x8_d_uc1601.c **** static const uint8_t u8x8_d_uc1601_128x32_flip0_seq[] = {
  58:..\..\..\..\..\..\Dev\Library embedded l2c display\u8g2\csrc/u8x8_d_uc1601.c ****   U8X8_START_TRANSFER(),             	/* enable chip, delay is part of the transfer start */
  59:..\..\..\..\..\..\Dev\Library embedded l2c display\u8g2\csrc/u8x8_d_uc1601.c ****   U8X8_C(0x0c4),				/* bit 1: MX, bit 2: MY */
  60:..\..\..\..\..\..\Dev\Library embedded l2c display\u8g2\csrc/u8x8_d_uc1601.c ****   U8X8_C(0x060),		                /* set display start line to 32 */
  61:..\..\..\..\..\..\Dev\Library embedded l2c display\u8g2\csrc/u8x8_d_uc1601.c ****   U8X8_END_TRANSFER(),             	/* disable chip */
  62:..\..\..\..\..\..\Dev\Library embedded l2c display\u8g2\csrc/u8x8_d_uc1601.c ****   U8X8_END()             			/* end of sequence */
  63:..\..\..\..\..\..\Dev\Library embedded l2c display\u8g2\csrc/u8x8_d_uc1601.c **** };
  64:..\..\..\..\..\..\Dev\Library embedded l2c display\u8g2\csrc/u8x8_d_uc1601.c **** 
  65:..\..\..\..\..\..\Dev\Library embedded l2c display\u8g2\csrc/u8x8_d_uc1601.c **** static const uint8_t u8x8_d_uc1601_128x32_flip1_seq[] = {
  66:..\..\..\..\..\..\Dev\Library embedded l2c display\u8g2\csrc/u8x8_d_uc1601.c ****   U8X8_START_TRANSFER(),             	/* enable chip, delay is part of the transfer start */
  67:..\..\..\..\..\..\Dev\Library embedded l2c display\u8g2\csrc/u8x8_d_uc1601.c ****   U8X8_C(0x0c2),				/* bit 1: MX, bit 2: MY */
  68:..\..\..\..\..\..\Dev\Library embedded l2c display\u8g2\csrc/u8x8_d_uc1601.c ****   U8X8_C(0x040),		                /* set display start line to 0 */
  69:..\..\..\..\..\..\Dev\Library embedded l2c display\u8g2\csrc/u8x8_d_uc1601.c ****   U8X8_END_TRANSFER(),             	/* disable chip */
  70:..\..\..\..\..\..\Dev\Library embedded l2c display\u8g2\csrc/u8x8_d_uc1601.c ****   U8X8_END()             			/* end of sequence */
  71:..\..\..\..\..\..\Dev\Library embedded l2c display\u8g2\csrc/u8x8_d_uc1601.c **** };
  72:..\..\..\..\..\..\Dev\Library embedded l2c display\u8g2\csrc/u8x8_d_uc1601.c **** 
  73:..\..\..\..\..\..\Dev\Library embedded l2c display\u8g2\csrc/u8x8_d_uc1601.c **** 
  74:..\..\..\..\..\..\Dev\Library embedded l2c display\u8g2\csrc/u8x8_d_uc1601.c **** static const u8x8_display_info_t u8x8_uc1601_128x32_display_info =
  75:..\..\..\..\..\..\Dev\Library embedded l2c display\u8g2\csrc/u8x8_d_uc1601.c **** {
  76:..\..\..\..\..\..\Dev\Library embedded l2c display\u8g2\csrc/u8x8_d_uc1601.c ****   /* chip_enable_level = */ 0,
  77:..\..\..\..\..\..\Dev\Library embedded l2c display\u8g2\csrc/u8x8_d_uc1601.c ****   /* chip_disable_level = */ 1,
  78:..\..\..\..\..\..\Dev\Library embedded l2c display\u8g2\csrc/u8x8_d_uc1601.c ****   
  79:..\..\..\..\..\..\Dev\Library embedded l2c display\u8g2\csrc/u8x8_d_uc1601.c ****   /* post_chip_enable_wait_ns = */ 1,	/* uc1601 datasheet, page 46 */
  80:..\..\..\..\..\..\Dev\Library embedded l2c display\u8g2\csrc/u8x8_d_uc1601.c ****   /* pre_chip_disable_wait_ns = */ 5,	/* uc1601 datasheet, page 46 */
  81:..\..\..\..\..\..\Dev\Library embedded l2c display\u8g2\csrc/u8x8_d_uc1601.c ****   /* reset_pulse_width_ms = */ 1, 
  82:..\..\..\..\..\..\Dev\Library embedded l2c display\u8g2\csrc/u8x8_d_uc1601.c ****   /* post_reset_wait_ms = */ 6, 
  83:..\..\..\..\..\..\Dev\Library embedded l2c display\u8g2\csrc/u8x8_d_uc1601.c ****   /* sda_setup_time_ns = */ 12,		/* uc1601 datasheet, page 44 */
  84:..\..\..\..\..\..\Dev\Library embedded l2c display\u8g2\csrc/u8x8_d_uc1601.c ****   /* sck_pulse_width_ns = */ 15,	/* uc1601 datasheet, page 44 */
  85:..\..\..\..\..\..\Dev\Library embedded l2c display\u8g2\csrc/u8x8_d_uc1601.c ****   /* sck_clock_hz = */ 2000000UL,	/* */
  86:..\..\..\..\..\..\Dev\Library embedded l2c display\u8g2\csrc/u8x8_d_uc1601.c ****   /* spi_mode = */ 0,		/* active high, rising edge */
  87:..\..\..\..\..\..\Dev\Library embedded l2c display\u8g2\csrc/u8x8_d_uc1601.c ****   /* i2c_bus_clock_100kHz = */ 1,
ARM GAS  C:\Users\Abude\AppData\Local\Temp\cc8JZqu2.s 			page 3


  88:..\..\..\..\..\..\Dev\Library embedded l2c display\u8g2\csrc/u8x8_d_uc1601.c ****   /* data_setup_time_ns = */ 60,	/* uc1601 datasheet, page 43 */
  89:..\..\..\..\..\..\Dev\Library embedded l2c display\u8g2\csrc/u8x8_d_uc1601.c ****   /* write_pulse_width_ns = */ 80,	/* uc1601 datasheet, page 43 */
  90:..\..\..\..\..\..\Dev\Library embedded l2c display\u8g2\csrc/u8x8_d_uc1601.c ****   /* tile_width = */ 16,		
  91:..\..\..\..\..\..\Dev\Library embedded l2c display\u8g2\csrc/u8x8_d_uc1601.c ****   /* tile_hight = */ 4,
  92:..\..\..\..\..\..\Dev\Library embedded l2c display\u8g2\csrc/u8x8_d_uc1601.c ****   /* default_x_offset = */ 0,
  93:..\..\..\..\..\..\Dev\Library embedded l2c display\u8g2\csrc/u8x8_d_uc1601.c ****   /* flipmode_x_offset = */ 4,
  94:..\..\..\..\..\..\Dev\Library embedded l2c display\u8g2\csrc/u8x8_d_uc1601.c ****   /* pixel_width = */ 128,
  95:..\..\..\..\..\..\Dev\Library embedded l2c display\u8g2\csrc/u8x8_d_uc1601.c ****   /* pixel_height = */ 32
  96:..\..\..\..\..\..\Dev\Library embedded l2c display\u8g2\csrc/u8x8_d_uc1601.c **** };
  97:..\..\..\..\..\..\Dev\Library embedded l2c display\u8g2\csrc/u8x8_d_uc1601.c **** 
  98:..\..\..\..\..\..\Dev\Library embedded l2c display\u8g2\csrc/u8x8_d_uc1601.c **** static const uint8_t u8x8_d_uc1601_128x32_init_seq[] = {
  99:..\..\..\..\..\..\Dev\Library embedded l2c display\u8g2\csrc/u8x8_d_uc1601.c ****     
 100:..\..\..\..\..\..\Dev\Library embedded l2c display\u8g2\csrc/u8x8_d_uc1601.c ****   U8X8_START_TRANSFER(),             	/* enable chip, delay is part of the transfer start */
 101:..\..\..\..\..\..\Dev\Library embedded l2c display\u8g2\csrc/u8x8_d_uc1601.c ****   
 102:..\..\..\..\..\..\Dev\Library embedded l2c display\u8g2\csrc/u8x8_d_uc1601.c ****   U8X8_C(0x0e2),            			/* soft reset */
 103:..\..\..\..\..\..\Dev\Library embedded l2c display\u8g2\csrc/u8x8_d_uc1601.c ****   U8X8_C(0x0eb),            			/* LCD Bias: 0xe8: 6, 0xe9: 7, 0xea: 8, 0xeb: 9 */
 104:..\..\..\..\..\..\Dev\Library embedded l2c display\u8g2\csrc/u8x8_d_uc1601.c ****   //U8X8_C(0x023),            			/* 0x020...0x023 only for UC1601, not for UC1601s */
 105:..\..\..\..\..\..\Dev\Library embedded l2c display\u8g2\csrc/u8x8_d_uc1601.c **** 	
 106:..\..\..\..\..\..\Dev\Library embedded l2c display\u8g2\csrc/u8x8_d_uc1601.c **** 
 107:..\..\..\..\..\..\Dev\Library embedded l2c display\u8g2\csrc/u8x8_d_uc1601.c ****   //U8X8_C(0x02e),            			/* LCD Load + Internal Charge Pump (default: 0x2e) */
 108:..\..\..\..\..\..\Dev\Library embedded l2c display\u8g2\csrc/u8x8_d_uc1601.c ****   U8X8_C(0x024),		                /* Temperature Compenstation, default: 0x24 */
 109:..\..\..\..\..\..\Dev\Library embedded l2c display\u8g2\csrc/u8x8_d_uc1601.c ****   U8X8_C(0x089),		                /* RAM address ctrl, default: 0x89 */
 110:..\..\..\..\..\..\Dev\Library embedded l2c display\u8g2\csrc/u8x8_d_uc1601.c ****   U8X8_C(0x0c4),		                /* RAM mapping ctrl */
 111:..\..\..\..\..\..\Dev\Library embedded l2c display\u8g2\csrc/u8x8_d_uc1601.c ****   U8X8_C(0x0a0),		                /* Frame Rate, 0x0a0 or 0x0a1 */
 112:..\..\..\..\..\..\Dev\Library embedded l2c display\u8g2\csrc/u8x8_d_uc1601.c ****   U8X8_CA(0x081, 0x0df),		/* set contrast */
 113:..\..\..\..\..\..\Dev\Library embedded l2c display\u8g2\csrc/u8x8_d_uc1601.c ****   U8X8_C(0x02e),            			/* LCD Load + Internal Charge Pump (default: 0x2e) */	
 114:..\..\..\..\..\..\Dev\Library embedded l2c display\u8g2\csrc/u8x8_d_uc1601.c ****   U8X8_C(0x060),		                /* set display start line to 32 */
 115:..\..\..\..\..\..\Dev\Library embedded l2c display\u8g2\csrc/u8x8_d_uc1601.c ****   
 116:..\..\..\..\..\..\Dev\Library embedded l2c display\u8g2\csrc/u8x8_d_uc1601.c ****   U8X8_C(0x0a6),		                /* normal display */
 117:..\..\..\..\..\..\Dev\Library embedded l2c display\u8g2\csrc/u8x8_d_uc1601.c ****    
 118:..\..\..\..\..\..\Dev\Library embedded l2c display\u8g2\csrc/u8x8_d_uc1601.c ****   U8X8_END_TRANSFER(),             	/* disable chip */
 119:..\..\..\..\..\..\Dev\Library embedded l2c display\u8g2\csrc/u8x8_d_uc1601.c ****   U8X8_END()             			/* end of sequence */
 120:..\..\..\..\..\..\Dev\Library embedded l2c display\u8g2\csrc/u8x8_d_uc1601.c **** };
 121:..\..\..\..\..\..\Dev\Library embedded l2c display\u8g2\csrc/u8x8_d_uc1601.c **** 
 122:..\..\..\..\..\..\Dev\Library embedded l2c display\u8g2\csrc/u8x8_d_uc1601.c **** uint8_t u8x8_d_uc1601_128x32(u8x8_t *u8x8, uint8_t msg, uint8_t arg_int, void *arg_ptr)
 123:..\..\..\..\..\..\Dev\Library embedded l2c display\u8g2\csrc/u8x8_d_uc1601.c **** {
  28              		.loc 1 123 0
  29              		.cfi_startproc
  30              		@ args = 0, pretend = 0, frame = 0
  31              		@ frame_needed = 0, uses_anonymous_args = 0
  32              	.LVL0:
  33 0000 F8B5     		push	{r3, r4, r5, r6, r7, lr}
  34              		.cfi_def_cfa_offset 24
  35              		.cfi_offset 3, -24
  36              		.cfi_offset 4, -20
  37              		.cfi_offset 5, -16
  38              		.cfi_offset 6, -12
  39              		.cfi_offset 7, -8
  40              		.cfi_offset 14, -4
  41 0002 0546     		mov	r5, r0
  42 0004 1446     		mov	r4, r2
  43 0006 1F46     		mov	r7, r3
 124:..\..\..\..\..\..\Dev\Library embedded l2c display\u8g2\csrc/u8x8_d_uc1601.c ****   uint8_t x, c;
 125:..\..\..\..\..\..\Dev\Library embedded l2c display\u8g2\csrc/u8x8_d_uc1601.c ****   uint8_t *ptr;
 126:..\..\..\..\..\..\Dev\Library embedded l2c display\u8g2\csrc/u8x8_d_uc1601.c ****   switch(msg)
  44              		.loc 1 126 0
  45 0008 0939     		subs	r1, r1, #9
ARM GAS  C:\Users\Abude\AppData\Local\Temp\cc8JZqu2.s 			page 4


  46              	.LVL1:
  47 000a 0629     		cmp	r1, #6
  48 000c 6BD8     		bhi	.L13
  49 000e DFE801F0 		tbb	[pc, r1]
  50              	.LVL2:
  51              	.L4:
  52 0012 04       		.byte	(.L3-.L4)/2
  53 0013 09       		.byte	(.L5-.L4)/2
  54 0014 11       		.byte	(.L6-.L4)/2
  55 0015 6A       		.byte	(.L13-.L4)/2
  56 0016 1C       		.byte	(.L7-.L4)/2
  57 0017 2F       		.byte	(.L8-.L4)/2
  58 0018 3E       		.byte	(.L9-.L4)/2
  59 0019 00       		.p2align 1
  60              	.L3:
 127:..\..\..\..\..\..\Dev\Library embedded l2c display\u8g2\csrc/u8x8_d_uc1601.c ****   {
 128:..\..\..\..\..\..\Dev\Library embedded l2c display\u8g2\csrc/u8x8_d_uc1601.c ****     case U8X8_MSG_DISPLAY_SETUP_MEMORY:
 129:..\..\..\..\..\..\Dev\Library embedded l2c display\u8g2\csrc/u8x8_d_uc1601.c ****       u8x8_d_helper_display_setup_memory(u8x8, &u8x8_uc1601_128x32_display_info);
  61              		.loc 1 129 0
  62 001a 3449     		ldr	r1, .L15
  63 001c FFF7FEFF 		bl	u8x8_d_helper_display_setup_memory
  64              	.LVL3:
 130:..\..\..\..\..\..\Dev\Library embedded l2c display\u8g2\csrc/u8x8_d_uc1601.c ****       break;
 131:..\..\..\..\..\..\Dev\Library embedded l2c display\u8g2\csrc/u8x8_d_uc1601.c ****     case U8X8_MSG_DISPLAY_INIT:
 132:..\..\..\..\..\..\Dev\Library embedded l2c display\u8g2\csrc/u8x8_d_uc1601.c ****       u8x8_d_helper_display_init(u8x8);
 133:..\..\..\..\..\..\Dev\Library embedded l2c display\u8g2\csrc/u8x8_d_uc1601.c ****       u8x8_cad_SendSequence(u8x8, u8x8_d_uc1601_128x32_init_seq);
 134:..\..\..\..\..\..\Dev\Library embedded l2c display\u8g2\csrc/u8x8_d_uc1601.c ****       break;
 135:..\..\..\..\..\..\Dev\Library embedded l2c display\u8g2\csrc/u8x8_d_uc1601.c ****     case U8X8_MSG_DISPLAY_SET_POWER_SAVE:
 136:..\..\..\..\..\..\Dev\Library embedded l2c display\u8g2\csrc/u8x8_d_uc1601.c ****       if ( arg_int == 0 )
 137:..\..\..\..\..\..\Dev\Library embedded l2c display\u8g2\csrc/u8x8_d_uc1601.c **** 	u8x8_cad_SendSequence(u8x8, u8x8_d_uc1601_128x32_powersave0_seq);
 138:..\..\..\..\..\..\Dev\Library embedded l2c display\u8g2\csrc/u8x8_d_uc1601.c ****       else
 139:..\..\..\..\..\..\Dev\Library embedded l2c display\u8g2\csrc/u8x8_d_uc1601.c **** 	u8x8_cad_SendSequence(u8x8, u8x8_d_uc1601_128x32_powersave1_seq);
 140:..\..\..\..\..\..\Dev\Library embedded l2c display\u8g2\csrc/u8x8_d_uc1601.c ****       break;
 141:..\..\..\..\..\..\Dev\Library embedded l2c display\u8g2\csrc/u8x8_d_uc1601.c ****     case U8X8_MSG_DISPLAY_SET_FLIP_MODE:
 142:..\..\..\..\..\..\Dev\Library embedded l2c display\u8g2\csrc/u8x8_d_uc1601.c ****       if ( arg_int == 0 )
 143:..\..\..\..\..\..\Dev\Library embedded l2c display\u8g2\csrc/u8x8_d_uc1601.c ****       {
 144:..\..\..\..\..\..\Dev\Library embedded l2c display\u8g2\csrc/u8x8_d_uc1601.c **** 	u8x8_cad_SendSequence(u8x8, u8x8_d_uc1601_128x32_flip0_seq);
 145:..\..\..\..\..\..\Dev\Library embedded l2c display\u8g2\csrc/u8x8_d_uc1601.c **** 	u8x8->x_offset = u8x8->display_info->default_x_offset;
 146:..\..\..\..\..\..\Dev\Library embedded l2c display\u8g2\csrc/u8x8_d_uc1601.c ****       }
 147:..\..\..\..\..\..\Dev\Library embedded l2c display\u8g2\csrc/u8x8_d_uc1601.c ****       else
 148:..\..\..\..\..\..\Dev\Library embedded l2c display\u8g2\csrc/u8x8_d_uc1601.c ****       {
 149:..\..\..\..\..\..\Dev\Library embedded l2c display\u8g2\csrc/u8x8_d_uc1601.c **** 	u8x8_cad_SendSequence(u8x8, u8x8_d_uc1601_128x32_flip1_seq);
 150:..\..\..\..\..\..\Dev\Library embedded l2c display\u8g2\csrc/u8x8_d_uc1601.c **** 	u8x8->x_offset = u8x8->display_info->flipmode_x_offset;
 151:..\..\..\..\..\..\Dev\Library embedded l2c display\u8g2\csrc/u8x8_d_uc1601.c ****       }	
 152:..\..\..\..\..\..\Dev\Library embedded l2c display\u8g2\csrc/u8x8_d_uc1601.c ****       break;
 153:..\..\..\..\..\..\Dev\Library embedded l2c display\u8g2\csrc/u8x8_d_uc1601.c **** #ifdef U8X8_WITH_SET_CONTRAST
 154:..\..\..\..\..\..\Dev\Library embedded l2c display\u8g2\csrc/u8x8_d_uc1601.c ****     case U8X8_MSG_DISPLAY_SET_CONTRAST:
 155:..\..\..\..\..\..\Dev\Library embedded l2c display\u8g2\csrc/u8x8_d_uc1601.c ****       u8x8_cad_StartTransfer(u8x8);
 156:..\..\..\..\..\..\Dev\Library embedded l2c display\u8g2\csrc/u8x8_d_uc1601.c ****       u8x8_cad_SendCmd(u8x8, 0x081 );
 157:..\..\..\..\..\..\Dev\Library embedded l2c display\u8g2\csrc/u8x8_d_uc1601.c ****       u8x8_cad_SendArg(u8x8, arg_int );	/* uc1601 has range from 0 to 255 */
 158:..\..\..\..\..\..\Dev\Library embedded l2c display\u8g2\csrc/u8x8_d_uc1601.c ****       u8x8_cad_EndTransfer(u8x8);
 159:..\..\..\..\..\..\Dev\Library embedded l2c display\u8g2\csrc/u8x8_d_uc1601.c ****       break;
 160:..\..\..\..\..\..\Dev\Library embedded l2c display\u8g2\csrc/u8x8_d_uc1601.c **** #endif
 161:..\..\..\..\..\..\Dev\Library embedded l2c display\u8g2\csrc/u8x8_d_uc1601.c ****     case U8X8_MSG_DISPLAY_DRAW_TILE:
 162:..\..\..\..\..\..\Dev\Library embedded l2c display\u8g2\csrc/u8x8_d_uc1601.c ****       u8x8_cad_StartTransfer(u8x8);
 163:..\..\..\..\..\..\Dev\Library embedded l2c display\u8g2\csrc/u8x8_d_uc1601.c ****     
 164:..\..\..\..\..\..\Dev\Library embedded l2c display\u8g2\csrc/u8x8_d_uc1601.c ****       x = ((u8x8_tile_t *)arg_ptr)->x_pos;
ARM GAS  C:\Users\Abude\AppData\Local\Temp\cc8JZqu2.s 			page 5


 165:..\..\..\..\..\..\Dev\Library embedded l2c display\u8g2\csrc/u8x8_d_uc1601.c ****       x *= 8;
 166:..\..\..\..\..\..\Dev\Library embedded l2c display\u8g2\csrc/u8x8_d_uc1601.c ****       x += u8x8->x_offset;
 167:..\..\..\..\..\..\Dev\Library embedded l2c display\u8g2\csrc/u8x8_d_uc1601.c ****       u8x8_cad_SendCmd(u8x8, 0x010 | (x>>4) );
 168:..\..\..\..\..\..\Dev\Library embedded l2c display\u8g2\csrc/u8x8_d_uc1601.c ****       u8x8_cad_SendCmd(u8x8, 0x000 | ((x&15)));
 169:..\..\..\..\..\..\Dev\Library embedded l2c display\u8g2\csrc/u8x8_d_uc1601.c ****       u8x8_cad_SendCmd(u8x8, 0x0b0 | (((u8x8_tile_t *)arg_ptr)->y_pos));
 170:..\..\..\..\..\..\Dev\Library embedded l2c display\u8g2\csrc/u8x8_d_uc1601.c ****     
 171:..\..\..\..\..\..\Dev\Library embedded l2c display\u8g2\csrc/u8x8_d_uc1601.c ****       c = ((u8x8_tile_t *)arg_ptr)->cnt;
 172:..\..\..\..\..\..\Dev\Library embedded l2c display\u8g2\csrc/u8x8_d_uc1601.c ****       c *= 8;
 173:..\..\..\..\..\..\Dev\Library embedded l2c display\u8g2\csrc/u8x8_d_uc1601.c ****       ptr = ((u8x8_tile_t *)arg_ptr)->tile_ptr;
 174:..\..\..\..\..\..\Dev\Library embedded l2c display\u8g2\csrc/u8x8_d_uc1601.c ****       do
 175:..\..\..\..\..\..\Dev\Library embedded l2c display\u8g2\csrc/u8x8_d_uc1601.c ****       {
 176:..\..\..\..\..\..\Dev\Library embedded l2c display\u8g2\csrc/u8x8_d_uc1601.c **** 	u8x8_cad_SendData(u8x8, c, ptr);	/* note: SendData can not handle more than 255 bytes */
 177:..\..\..\..\..\..\Dev\Library embedded l2c display\u8g2\csrc/u8x8_d_uc1601.c **** 	arg_int--;
 178:..\..\..\..\..\..\Dev\Library embedded l2c display\u8g2\csrc/u8x8_d_uc1601.c ****       } while( arg_int > 0 );
 179:..\..\..\..\..\..\Dev\Library embedded l2c display\u8g2\csrc/u8x8_d_uc1601.c ****       
 180:..\..\..\..\..\..\Dev\Library embedded l2c display\u8g2\csrc/u8x8_d_uc1601.c ****       u8x8_cad_EndTransfer(u8x8);
 181:..\..\..\..\..\..\Dev\Library embedded l2c display\u8g2\csrc/u8x8_d_uc1601.c ****       break;
 182:..\..\..\..\..\..\Dev\Library embedded l2c display\u8g2\csrc/u8x8_d_uc1601.c ****     default:
 183:..\..\..\..\..\..\Dev\Library embedded l2c display\u8g2\csrc/u8x8_d_uc1601.c ****       return 0;
 184:..\..\..\..\..\..\Dev\Library embedded l2c display\u8g2\csrc/u8x8_d_uc1601.c ****   }
 185:..\..\..\..\..\..\Dev\Library embedded l2c display\u8g2\csrc/u8x8_d_uc1601.c ****   return 1;
  65              		.loc 1 185 0
  66 0020 0120     		movs	r0, #1
 130:..\..\..\..\..\..\Dev\Library embedded l2c display\u8g2\csrc/u8x8_d_uc1601.c ****       break;
  67              		.loc 1 130 0
  68 0022 F8BD     		pop	{r3, r4, r5, r6, r7, pc}
  69              	.LVL4:
  70              	.L5:
 132:..\..\..\..\..\..\Dev\Library embedded l2c display\u8g2\csrc/u8x8_d_uc1601.c ****       u8x8_cad_SendSequence(u8x8, u8x8_d_uc1601_128x32_init_seq);
  71              		.loc 1 132 0
  72 0024 FFF7FEFF 		bl	u8x8_d_helper_display_init
  73              	.LVL5:
 133:..\..\..\..\..\..\Dev\Library embedded l2c display\u8g2\csrc/u8x8_d_uc1601.c ****       break;
  74              		.loc 1 133 0
  75 0028 3149     		ldr	r1, .L15+4
  76 002a 2846     		mov	r0, r5
  77 002c FFF7FEFF 		bl	u8x8_cad_SendSequence
  78              	.LVL6:
  79              		.loc 1 185 0
  80 0030 0120     		movs	r0, #1
 134:..\..\..\..\..\..\Dev\Library embedded l2c display\u8g2\csrc/u8x8_d_uc1601.c ****     case U8X8_MSG_DISPLAY_SET_POWER_SAVE:
  81              		.loc 1 134 0
  82 0032 F8BD     		pop	{r3, r4, r5, r6, r7, pc}
  83              	.LVL7:
  84              	.L6:
 136:..\..\..\..\..\..\Dev\Library embedded l2c display\u8g2\csrc/u8x8_d_uc1601.c **** 	u8x8_cad_SendSequence(u8x8, u8x8_d_uc1601_128x32_powersave0_seq);
  85              		.loc 1 136 0
  86 0034 22B9     		cbnz	r2, .L10
 137:..\..\..\..\..\..\Dev\Library embedded l2c display\u8g2\csrc/u8x8_d_uc1601.c ****       else
  87              		.loc 1 137 0
  88 0036 2F49     		ldr	r1, .L15+8
  89 0038 FFF7FEFF 		bl	u8x8_cad_SendSequence
  90              	.LVL8:
  91              		.loc 1 185 0
  92 003c 0120     		movs	r0, #1
  93 003e F8BD     		pop	{r3, r4, r5, r6, r7, pc}
  94              	.LVL9:
ARM GAS  C:\Users\Abude\AppData\Local\Temp\cc8JZqu2.s 			page 6


  95              	.L10:
 139:..\..\..\..\..\..\Dev\Library embedded l2c display\u8g2\csrc/u8x8_d_uc1601.c ****       break;
  96              		.loc 1 139 0
  97 0040 2D49     		ldr	r1, .L15+12
  98 0042 FFF7FEFF 		bl	u8x8_cad_SendSequence
  99              	.LVL10:
 100              		.loc 1 185 0
 101 0046 0120     		movs	r0, #1
 102 0048 F8BD     		pop	{r3, r4, r5, r6, r7, pc}
 103              	.LVL11:
 104              	.L7:
 142:..\..\..\..\..\..\Dev\Library embedded l2c display\u8g2\csrc/u8x8_d_uc1601.c ****       {
 105              		.loc 1 142 0
 106 004a 42B9     		cbnz	r2, .L11
 144:..\..\..\..\..\..\Dev\Library embedded l2c display\u8g2\csrc/u8x8_d_uc1601.c **** 	u8x8->x_offset = u8x8->display_info->default_x_offset;
 107              		.loc 1 144 0
 108 004c 2B49     		ldr	r1, .L15+16
 109 004e FFF7FEFF 		bl	u8x8_cad_SendSequence
 110              	.LVL12:
 145:..\..\..\..\..\..\Dev\Library embedded l2c display\u8g2\csrc/u8x8_d_uc1601.c ****       }
 111              		.loc 1 145 0
 112 0052 2B68     		ldr	r3, [r5]
 113 0054 9B7C     		ldrb	r3, [r3, #18]	@ zero_extendqisi2
 114 0056 85F82230 		strb	r3, [r5, #34]
 115              		.loc 1 185 0
 116 005a 0120     		movs	r0, #1
 117 005c F8BD     		pop	{r3, r4, r5, r6, r7, pc}
 118              	.LVL13:
 119              	.L11:
 149:..\..\..\..\..\..\Dev\Library embedded l2c display\u8g2\csrc/u8x8_d_uc1601.c **** 	u8x8->x_offset = u8x8->display_info->flipmode_x_offset;
 120              		.loc 1 149 0
 121 005e 2849     		ldr	r1, .L15+20
 122 0060 FFF7FEFF 		bl	u8x8_cad_SendSequence
 123              	.LVL14:
 150:..\..\..\..\..\..\Dev\Library embedded l2c display\u8g2\csrc/u8x8_d_uc1601.c ****       }	
 124              		.loc 1 150 0
 125 0064 2B68     		ldr	r3, [r5]
 126 0066 DB7C     		ldrb	r3, [r3, #19]	@ zero_extendqisi2
 127 0068 85F82230 		strb	r3, [r5, #34]
 128              		.loc 1 185 0
 129 006c 0120     		movs	r0, #1
 130 006e F8BD     		pop	{r3, r4, r5, r6, r7, pc}
 131              	.LVL15:
 132              	.L8:
 155:..\..\..\..\..\..\Dev\Library embedded l2c display\u8g2\csrc/u8x8_d_uc1601.c ****       u8x8_cad_SendCmd(u8x8, 0x081 );
 133              		.loc 1 155 0
 134 0070 FFF7FEFF 		bl	u8x8_cad_StartTransfer
 135              	.LVL16:
 156:..\..\..\..\..\..\Dev\Library embedded l2c display\u8g2\csrc/u8x8_d_uc1601.c ****       u8x8_cad_SendArg(u8x8, arg_int );	/* uc1601 has range from 0 to 255 */
 136              		.loc 1 156 0
 137 0074 8121     		movs	r1, #129
 138 0076 2846     		mov	r0, r5
 139 0078 FFF7FEFF 		bl	u8x8_cad_SendCmd
 140              	.LVL17:
 157:..\..\..\..\..\..\Dev\Library embedded l2c display\u8g2\csrc/u8x8_d_uc1601.c ****       u8x8_cad_EndTransfer(u8x8);
 141              		.loc 1 157 0
 142 007c 2146     		mov	r1, r4
ARM GAS  C:\Users\Abude\AppData\Local\Temp\cc8JZqu2.s 			page 7


 143 007e 2846     		mov	r0, r5
 144 0080 FFF7FEFF 		bl	u8x8_cad_SendArg
 145              	.LVL18:
 158:..\..\..\..\..\..\Dev\Library embedded l2c display\u8g2\csrc/u8x8_d_uc1601.c ****       break;
 146              		.loc 1 158 0
 147 0084 2846     		mov	r0, r5
 148 0086 FFF7FEFF 		bl	u8x8_cad_EndTransfer
 149              	.LVL19:
 150              		.loc 1 185 0
 151 008a 0120     		movs	r0, #1
 159:..\..\..\..\..\..\Dev\Library embedded l2c display\u8g2\csrc/u8x8_d_uc1601.c **** #endif
 152              		.loc 1 159 0
 153 008c F8BD     		pop	{r3, r4, r5, r6, r7, pc}
 154              	.LVL20:
 155              	.L9:
 162:..\..\..\..\..\..\Dev\Library embedded l2c display\u8g2\csrc/u8x8_d_uc1601.c ****     
 156              		.loc 1 162 0
 157 008e FFF7FEFF 		bl	u8x8_cad_StartTransfer
 158              	.LVL21:
 164:..\..\..\..\..\..\Dev\Library embedded l2c display\u8g2\csrc/u8x8_d_uc1601.c ****       x *= 8;
 159              		.loc 1 164 0
 160 0092 7E79     		ldrb	r6, [r7, #5]	@ zero_extendqisi2
 161              	.LVL22:
 165:..\..\..\..\..\..\Dev\Library embedded l2c display\u8g2\csrc/u8x8_d_uc1601.c ****       x += u8x8->x_offset;
 162              		.loc 1 165 0
 163 0094 F600     		lsls	r6, r6, #3
 164              	.LVL23:
 165 0096 F6B2     		uxtb	r6, r6
 166              	.LVL24:
 166:..\..\..\..\..\..\Dev\Library embedded l2c display\u8g2\csrc/u8x8_d_uc1601.c ****       u8x8_cad_SendCmd(u8x8, 0x010 | (x>>4) );
 167              		.loc 1 166 0
 168 0098 95F82230 		ldrb	r3, [r5, #34]	@ zero_extendqisi2
 169 009c 1E44     		add	r6, r6, r3
 170              	.LVL25:
 171 009e F6B2     		uxtb	r6, r6
 172              	.LVL26:
 167:..\..\..\..\..\..\Dev\Library embedded l2c display\u8g2\csrc/u8x8_d_uc1601.c ****       u8x8_cad_SendCmd(u8x8, 0x000 | ((x&15)));
 173              		.loc 1 167 0
 174 00a0 3109     		lsrs	r1, r6, #4
 175 00a2 41F01001 		orr	r1, r1, #16
 176 00a6 2846     		mov	r0, r5
 177 00a8 FFF7FEFF 		bl	u8x8_cad_SendCmd
 178              	.LVL27:
 168:..\..\..\..\..\..\Dev\Library embedded l2c display\u8g2\csrc/u8x8_d_uc1601.c ****       u8x8_cad_SendCmd(u8x8, 0x0b0 | (((u8x8_tile_t *)arg_ptr)->y_pos));
 179              		.loc 1 168 0
 180 00ac 06F00F01 		and	r1, r6, #15
 181 00b0 2846     		mov	r0, r5
 182 00b2 FFF7FEFF 		bl	u8x8_cad_SendCmd
 183              	.LVL28:
 169:..\..\..\..\..\..\Dev\Library embedded l2c display\u8g2\csrc/u8x8_d_uc1601.c ****     
 184              		.loc 1 169 0
 185 00b6 B979     		ldrb	r1, [r7, #6]	@ zero_extendqisi2
 186 00b8 41F0B001 		orr	r1, r1, #176
 187 00bc 2846     		mov	r0, r5
 188 00be FFF7FEFF 		bl	u8x8_cad_SendCmd
 189              	.LVL29:
 171:..\..\..\..\..\..\Dev\Library embedded l2c display\u8g2\csrc/u8x8_d_uc1601.c ****       c *= 8;
ARM GAS  C:\Users\Abude\AppData\Local\Temp\cc8JZqu2.s 			page 8


 190              		.loc 1 171 0
 191 00c2 3E79     		ldrb	r6, [r7, #4]	@ zero_extendqisi2
 192              	.LVL30:
 172:..\..\..\..\..\..\Dev\Library embedded l2c display\u8g2\csrc/u8x8_d_uc1601.c ****       ptr = ((u8x8_tile_t *)arg_ptr)->tile_ptr;
 193              		.loc 1 172 0
 194 00c4 F600     		lsls	r6, r6, #3
 195              	.LVL31:
 196 00c6 F6B2     		uxtb	r6, r6
 197              	.LVL32:
 173:..\..\..\..\..\..\Dev\Library embedded l2c display\u8g2\csrc/u8x8_d_uc1601.c ****       do
 198              		.loc 1 173 0
 199 00c8 3F68     		ldr	r7, [r7]
 200              	.LVL33:
 201              	.L12:
 176:..\..\..\..\..\..\Dev\Library embedded l2c display\u8g2\csrc/u8x8_d_uc1601.c **** 	arg_int--;
 202              		.loc 1 176 0 discriminator 1
 203 00ca 3A46     		mov	r2, r7
 204 00cc 3146     		mov	r1, r6
 205 00ce 2846     		mov	r0, r5
 206 00d0 FFF7FEFF 		bl	u8x8_cad_SendData
 207              	.LVL34:
 177:..\..\..\..\..\..\Dev\Library embedded l2c display\u8g2\csrc/u8x8_d_uc1601.c ****       } while( arg_int > 0 );
 208              		.loc 1 177 0 discriminator 1
 209 00d4 621E     		subs	r2, r4, #1
 210              	.LVL35:
 178:..\..\..\..\..\..\Dev\Library embedded l2c display\u8g2\csrc/u8x8_d_uc1601.c ****       
 211              		.loc 1 178 0 discriminator 1
 212 00d6 12F0FF04 		ands	r4, r2, #255
 213 00da F6D1     		bne	.L12
 180:..\..\..\..\..\..\Dev\Library embedded l2c display\u8g2\csrc/u8x8_d_uc1601.c ****       break;
 214              		.loc 1 180 0
 215 00dc 2846     		mov	r0, r5
 216 00de FFF7FEFF 		bl	u8x8_cad_EndTransfer
 217              	.LVL36:
 218              		.loc 1 185 0
 219 00e2 0120     		movs	r0, #1
 181:..\..\..\..\..\..\Dev\Library embedded l2c display\u8g2\csrc/u8x8_d_uc1601.c ****     default:
 220              		.loc 1 181 0
 221 00e4 F8BD     		pop	{r3, r4, r5, r6, r7, pc}
 222              	.LVL37:
 223              	.L13:
 183:..\..\..\..\..\..\Dev\Library embedded l2c display\u8g2\csrc/u8x8_d_uc1601.c ****   }
 224              		.loc 1 183 0
 225 00e6 0020     		movs	r0, #0
 226              	.LVL38:
 186:..\..\..\..\..\..\Dev\Library embedded l2c display\u8g2\csrc/u8x8_d_uc1601.c **** }
 227              		.loc 1 186 0
 228 00e8 F8BD     		pop	{r3, r4, r5, r6, r7, pc}
 229              	.LVL39:
 230              	.L16:
 231 00ea 00BF     		.align	2
 232              	.L15:
 233 00ec 00000000 		.word	.LANCHOR0
 234 00f0 18000000 		.word	.LANCHOR0+24
 235 00f4 34000000 		.word	.LANCHOR0+52
 236 00f8 3C000000 		.word	.LANCHOR0+60
 237 00fc 44000000 		.word	.LANCHOR0+68
ARM GAS  C:\Users\Abude\AppData\Local\Temp\cc8JZqu2.s 			page 9


 238 0100 4C000000 		.word	.LANCHOR0+76
 239              		.cfi_endproc
 240              	.LFE0:
 241              		.size	u8x8_d_uc1601_128x32, .-u8x8_d_uc1601_128x32
 242              		.section	.text.u8x8_d_uc1601_128x64,"ax",%progbits
 243              		.align	2
 244              		.global	u8x8_d_uc1601_128x64
 245              		.thumb
 246              		.thumb_func
 247              		.type	u8x8_d_uc1601_128x64, %function
 248              	u8x8_d_uc1601_128x64:
 249              	.LFB1:
 187:..\..\..\..\..\..\Dev\Library embedded l2c display\u8g2\csrc/u8x8_d_uc1601.c **** 
 188:..\..\..\..\..\..\Dev\Library embedded l2c display\u8g2\csrc/u8x8_d_uc1601.c **** /* issue https://github.com/olikraus/u8g2/issues/1501 */
 189:..\..\..\..\..\..\Dev\Library embedded l2c display\u8g2\csrc/u8x8_d_uc1601.c **** 
 190:..\..\..\..\..\..\Dev\Library embedded l2c display\u8g2\csrc/u8x8_d_uc1601.c **** static const uint8_t u8x8_d_uc1601_128x64_init_seq[] = {
 191:..\..\..\..\..\..\Dev\Library embedded l2c display\u8g2\csrc/u8x8_d_uc1601.c ****     
 192:..\..\..\..\..\..\Dev\Library embedded l2c display\u8g2\csrc/u8x8_d_uc1601.c ****   U8X8_START_TRANSFER(),             	/* enable chip, delay is part of the transfer start */
 193:..\..\..\..\..\..\Dev\Library embedded l2c display\u8g2\csrc/u8x8_d_uc1601.c ****   
 194:..\..\..\..\..\..\Dev\Library embedded l2c display\u8g2\csrc/u8x8_d_uc1601.c ****   U8X8_C(0x0e2),            			/* soft reset */
 195:..\..\..\..\..\..\Dev\Library embedded l2c display\u8g2\csrc/u8x8_d_uc1601.c ****   U8X8_C(0x0eb),            			/* LCD Bias: 0xe8: 6, 0xe9: 7, 0xea: 8, 0xeb: 9 */
 196:..\..\..\..\..\..\Dev\Library embedded l2c display\u8g2\csrc/u8x8_d_uc1601.c ****   //U8X8_C(0x023),            			/* 0x020...0x023 only for UC1601, not for UC1601s */
 197:..\..\..\..\..\..\Dev\Library embedded l2c display\u8g2\csrc/u8x8_d_uc1601.c **** 	
 198:..\..\..\..\..\..\Dev\Library embedded l2c display\u8g2\csrc/u8x8_d_uc1601.c **** 
 199:..\..\..\..\..\..\Dev\Library embedded l2c display\u8g2\csrc/u8x8_d_uc1601.c ****   //U8X8_C(0x02e),            			/* LCD Load + Internal Charge Pump (default: 0x2e) */
 200:..\..\..\..\..\..\Dev\Library embedded l2c display\u8g2\csrc/u8x8_d_uc1601.c ****   U8X8_C(0x024),		                /* Temperature Compenstation, default: 0x24 */
 201:..\..\..\..\..\..\Dev\Library embedded l2c display\u8g2\csrc/u8x8_d_uc1601.c ****   U8X8_C(0x089),		                /* RAM address ctrl, default: 0x89 */
 202:..\..\..\..\..\..\Dev\Library embedded l2c display\u8g2\csrc/u8x8_d_uc1601.c ****   U8X8_C(0x0c4),		                /* RAM mapping ctrl */
 203:..\..\..\..\..\..\Dev\Library embedded l2c display\u8g2\csrc/u8x8_d_uc1601.c ****   U8X8_C(0x0a0),		                /* Frame Rate, 0x0a0 or 0x0a1 */
 204:..\..\..\..\..\..\Dev\Library embedded l2c display\u8g2\csrc/u8x8_d_uc1601.c ****   U8X8_CA(0x081, 0x0df),		/* set contrast */
 205:..\..\..\..\..\..\Dev\Library embedded l2c display\u8g2\csrc/u8x8_d_uc1601.c ****   U8X8_C(0x02e),            			/* LCD Load + Internal Charge Pump (default: 0x2e) */	
 206:..\..\..\..\..\..\Dev\Library embedded l2c display\u8g2\csrc/u8x8_d_uc1601.c ****   U8X8_C(0x040),		                /* set display start: See Issue 1501 */
 207:..\..\..\..\..\..\Dev\Library embedded l2c display\u8g2\csrc/u8x8_d_uc1601.c ****   
 208:..\..\..\..\..\..\Dev\Library embedded l2c display\u8g2\csrc/u8x8_d_uc1601.c ****   U8X8_C(0x0a6),		                /* normal display */
 209:..\..\..\..\..\..\Dev\Library embedded l2c display\u8g2\csrc/u8x8_d_uc1601.c ****    
 210:..\..\..\..\..\..\Dev\Library embedded l2c display\u8g2\csrc/u8x8_d_uc1601.c ****   U8X8_END_TRANSFER(),             	/* disable chip */
 211:..\..\..\..\..\..\Dev\Library embedded l2c display\u8g2\csrc/u8x8_d_uc1601.c ****   U8X8_END()             			/* end of sequence */
 212:..\..\..\..\..\..\Dev\Library embedded l2c display\u8g2\csrc/u8x8_d_uc1601.c **** };
 213:..\..\..\..\..\..\Dev\Library embedded l2c display\u8g2\csrc/u8x8_d_uc1601.c **** 
 214:..\..\..\..\..\..\Dev\Library embedded l2c display\u8g2\csrc/u8x8_d_uc1601.c **** static const u8x8_display_info_t u8x8_uc1601_128x64_display_info =
 215:..\..\..\..\..\..\Dev\Library embedded l2c display\u8g2\csrc/u8x8_d_uc1601.c **** {
 216:..\..\..\..\..\..\Dev\Library embedded l2c display\u8g2\csrc/u8x8_d_uc1601.c ****   /* chip_enable_level = */ 0,
 217:..\..\..\..\..\..\Dev\Library embedded l2c display\u8g2\csrc/u8x8_d_uc1601.c ****   /* chip_disable_level = */ 1,
 218:..\..\..\..\..\..\Dev\Library embedded l2c display\u8g2\csrc/u8x8_d_uc1601.c ****   
 219:..\..\..\..\..\..\Dev\Library embedded l2c display\u8g2\csrc/u8x8_d_uc1601.c ****   /* post_chip_enable_wait_ns = */ 1,	/* uc1601 datasheet, page 46 */
 220:..\..\..\..\..\..\Dev\Library embedded l2c display\u8g2\csrc/u8x8_d_uc1601.c ****   /* pre_chip_disable_wait_ns = */ 5,	/* uc1601 datasheet, page 46 */
 221:..\..\..\..\..\..\Dev\Library embedded l2c display\u8g2\csrc/u8x8_d_uc1601.c ****   /* reset_pulse_width_ms = */ 1, 
 222:..\..\..\..\..\..\Dev\Library embedded l2c display\u8g2\csrc/u8x8_d_uc1601.c ****   /* post_reset_wait_ms = */ 6, 
 223:..\..\..\..\..\..\Dev\Library embedded l2c display\u8g2\csrc/u8x8_d_uc1601.c ****   /* sda_setup_time_ns = */ 12,		/* uc1601 datasheet, page 44 */
 224:..\..\..\..\..\..\Dev\Library embedded l2c display\u8g2\csrc/u8x8_d_uc1601.c ****   /* sck_pulse_width_ns = */ 15,	/* uc1601 datasheet, page 44 */
 225:..\..\..\..\..\..\Dev\Library embedded l2c display\u8g2\csrc/u8x8_d_uc1601.c ****   /* sck_clock_hz = */ 2000000UL,	/* */
 226:..\..\..\..\..\..\Dev\Library embedded l2c display\u8g2\csrc/u8x8_d_uc1601.c ****   /* spi_mode = */ 0,		/* active high, rising edge */
 227:..\..\..\..\..\..\Dev\Library embedded l2c display\u8g2\csrc/u8x8_d_uc1601.c ****   /* i2c_bus_clock_100kHz = */ 1,
 228:..\..\..\..\..\..\Dev\Library embedded l2c display\u8g2\csrc/u8x8_d_uc1601.c ****   /* data_setup_time_ns = */ 60,	/* uc1601 datasheet, page 43 */
 229:..\..\..\..\..\..\Dev\Library embedded l2c display\u8g2\csrc/u8x8_d_uc1601.c ****   /* write_pulse_width_ns = */ 80,	/* uc1601 datasheet, page 43 */
 230:..\..\..\..\..\..\Dev\Library embedded l2c display\u8g2\csrc/u8x8_d_uc1601.c ****   /* tile_width = */ 16,		
 231:..\..\..\..\..\..\Dev\Library embedded l2c display\u8g2\csrc/u8x8_d_uc1601.c ****   /* tile_hight = */ 8,
ARM GAS  C:\Users\Abude\AppData\Local\Temp\cc8JZqu2.s 			page 10


 232:..\..\..\..\..\..\Dev\Library embedded l2c display\u8g2\csrc/u8x8_d_uc1601.c ****   /* default_x_offset = */ 2,
 233:..\..\..\..\..\..\Dev\Library embedded l2c display\u8g2\csrc/u8x8_d_uc1601.c ****   /* flipmode_x_offset = */ 4,  /* IS THIS CORRECT? */
 234:..\..\..\..\..\..\Dev\Library embedded l2c display\u8g2\csrc/u8x8_d_uc1601.c ****   /* pixel_width = */ 128,
 235:..\..\..\..\..\..\Dev\Library embedded l2c display\u8g2\csrc/u8x8_d_uc1601.c ****   /* pixel_height = */ 64
 236:..\..\..\..\..\..\Dev\Library embedded l2c display\u8g2\csrc/u8x8_d_uc1601.c **** };
 237:..\..\..\..\..\..\Dev\Library embedded l2c display\u8g2\csrc/u8x8_d_uc1601.c **** 
 238:..\..\..\..\..\..\Dev\Library embedded l2c display\u8g2\csrc/u8x8_d_uc1601.c **** uint8_t u8x8_d_uc1601_128x64(u8x8_t *u8x8, uint8_t msg, uint8_t arg_int, void *arg_ptr)
 239:..\..\..\..\..\..\Dev\Library embedded l2c display\u8g2\csrc/u8x8_d_uc1601.c **** {
 250              		.loc 1 239 0
 251              		.cfi_startproc
 252              		@ args = 0, pretend = 0, frame = 0
 253              		@ frame_needed = 0, uses_anonymous_args = 0
 254              	.LVL40:
 255 0000 F8B5     		push	{r3, r4, r5, r6, r7, lr}
 256              		.cfi_def_cfa_offset 24
 257              		.cfi_offset 3, -24
 258              		.cfi_offset 4, -20
 259              		.cfi_offset 5, -16
 260              		.cfi_offset 6, -12
 261              		.cfi_offset 7, -8
 262              		.cfi_offset 14, -4
 263 0002 0546     		mov	r5, r0
 264 0004 1446     		mov	r4, r2
 265 0006 1F46     		mov	r7, r3
 240:..\..\..\..\..\..\Dev\Library embedded l2c display\u8g2\csrc/u8x8_d_uc1601.c ****   uint8_t x, c;
 241:..\..\..\..\..\..\Dev\Library embedded l2c display\u8g2\csrc/u8x8_d_uc1601.c ****   uint8_t *ptr;
 242:..\..\..\..\..\..\Dev\Library embedded l2c display\u8g2\csrc/u8x8_d_uc1601.c ****   switch(msg)
 266              		.loc 1 242 0
 267 0008 0939     		subs	r1, r1, #9
 268              	.LVL41:
 269 000a 0629     		cmp	r1, #6
 270 000c 6BD8     		bhi	.L29
 271 000e DFE801F0 		tbb	[pc, r1]
 272              	.LVL42:
 273              	.L20:
 274 0012 04       		.byte	(.L19-.L20)/2
 275 0013 09       		.byte	(.L21-.L20)/2
 276 0014 11       		.byte	(.L22-.L20)/2
 277 0015 6A       		.byte	(.L29-.L20)/2
 278 0016 1C       		.byte	(.L23-.L20)/2
 279 0017 2F       		.byte	(.L24-.L20)/2
 280 0018 3E       		.byte	(.L25-.L20)/2
 281 0019 00       		.p2align 1
 282              	.L19:
 243:..\..\..\..\..\..\Dev\Library embedded l2c display\u8g2\csrc/u8x8_d_uc1601.c ****   {
 244:..\..\..\..\..\..\Dev\Library embedded l2c display\u8g2\csrc/u8x8_d_uc1601.c ****     case U8X8_MSG_DISPLAY_SETUP_MEMORY:
 245:..\..\..\..\..\..\Dev\Library embedded l2c display\u8g2\csrc/u8x8_d_uc1601.c ****       u8x8_d_helper_display_setup_memory(u8x8, &u8x8_uc1601_128x64_display_info);
 283              		.loc 1 245 0
 284 001a 3449     		ldr	r1, .L31
 285 001c FFF7FEFF 		bl	u8x8_d_helper_display_setup_memory
 286              	.LVL43:
 246:..\..\..\..\..\..\Dev\Library embedded l2c display\u8g2\csrc/u8x8_d_uc1601.c ****       break;
 247:..\..\..\..\..\..\Dev\Library embedded l2c display\u8g2\csrc/u8x8_d_uc1601.c ****     case U8X8_MSG_DISPLAY_INIT:
 248:..\..\..\..\..\..\Dev\Library embedded l2c display\u8g2\csrc/u8x8_d_uc1601.c ****       u8x8_d_helper_display_init(u8x8);
 249:..\..\..\..\..\..\Dev\Library embedded l2c display\u8g2\csrc/u8x8_d_uc1601.c ****       u8x8_cad_SendSequence(u8x8, u8x8_d_uc1601_128x64_init_seq);
 250:..\..\..\..\..\..\Dev\Library embedded l2c display\u8g2\csrc/u8x8_d_uc1601.c ****       break;
 251:..\..\..\..\..\..\Dev\Library embedded l2c display\u8g2\csrc/u8x8_d_uc1601.c ****     case U8X8_MSG_DISPLAY_SET_POWER_SAVE:
ARM GAS  C:\Users\Abude\AppData\Local\Temp\cc8JZqu2.s 			page 11


 252:..\..\..\..\..\..\Dev\Library embedded l2c display\u8g2\csrc/u8x8_d_uc1601.c ****       if ( arg_int == 0 )
 253:..\..\..\..\..\..\Dev\Library embedded l2c display\u8g2\csrc/u8x8_d_uc1601.c **** 	u8x8_cad_SendSequence(u8x8, u8x8_d_uc1601_128x32_powersave0_seq);
 254:..\..\..\..\..\..\Dev\Library embedded l2c display\u8g2\csrc/u8x8_d_uc1601.c ****       else
 255:..\..\..\..\..\..\Dev\Library embedded l2c display\u8g2\csrc/u8x8_d_uc1601.c **** 	u8x8_cad_SendSequence(u8x8, u8x8_d_uc1601_128x32_powersave1_seq);
 256:..\..\..\..\..\..\Dev\Library embedded l2c display\u8g2\csrc/u8x8_d_uc1601.c ****       break;
 257:..\..\..\..\..\..\Dev\Library embedded l2c display\u8g2\csrc/u8x8_d_uc1601.c ****     case U8X8_MSG_DISPLAY_SET_FLIP_MODE:
 258:..\..\..\..\..\..\Dev\Library embedded l2c display\u8g2\csrc/u8x8_d_uc1601.c ****       if ( arg_int == 0 )
 259:..\..\..\..\..\..\Dev\Library embedded l2c display\u8g2\csrc/u8x8_d_uc1601.c ****       {
 260:..\..\..\..\..\..\Dev\Library embedded l2c display\u8g2\csrc/u8x8_d_uc1601.c **** 	u8x8_cad_SendSequence(u8x8, u8x8_d_uc1601_128x32_flip0_seq);
 261:..\..\..\..\..\..\Dev\Library embedded l2c display\u8g2\csrc/u8x8_d_uc1601.c **** 	u8x8->x_offset = u8x8->display_info->default_x_offset;
 262:..\..\..\..\..\..\Dev\Library embedded l2c display\u8g2\csrc/u8x8_d_uc1601.c ****       }
 263:..\..\..\..\..\..\Dev\Library embedded l2c display\u8g2\csrc/u8x8_d_uc1601.c ****       else
 264:..\..\..\..\..\..\Dev\Library embedded l2c display\u8g2\csrc/u8x8_d_uc1601.c ****       {
 265:..\..\..\..\..\..\Dev\Library embedded l2c display\u8g2\csrc/u8x8_d_uc1601.c **** 	u8x8_cad_SendSequence(u8x8, u8x8_d_uc1601_128x32_flip1_seq);
 266:..\..\..\..\..\..\Dev\Library embedded l2c display\u8g2\csrc/u8x8_d_uc1601.c **** 	u8x8->x_offset = u8x8->display_info->flipmode_x_offset;
 267:..\..\..\..\..\..\Dev\Library embedded l2c display\u8g2\csrc/u8x8_d_uc1601.c ****       }	
 268:..\..\..\..\..\..\Dev\Library embedded l2c display\u8g2\csrc/u8x8_d_uc1601.c ****       break;
 269:..\..\..\..\..\..\Dev\Library embedded l2c display\u8g2\csrc/u8x8_d_uc1601.c **** #ifdef U8X8_WITH_SET_CONTRAST
 270:..\..\..\..\..\..\Dev\Library embedded l2c display\u8g2\csrc/u8x8_d_uc1601.c ****     case U8X8_MSG_DISPLAY_SET_CONTRAST:
 271:..\..\..\..\..\..\Dev\Library embedded l2c display\u8g2\csrc/u8x8_d_uc1601.c ****       u8x8_cad_StartTransfer(u8x8);
 272:..\..\..\..\..\..\Dev\Library embedded l2c display\u8g2\csrc/u8x8_d_uc1601.c ****       u8x8_cad_SendCmd(u8x8, 0x081 );
 273:..\..\..\..\..\..\Dev\Library embedded l2c display\u8g2\csrc/u8x8_d_uc1601.c ****       u8x8_cad_SendArg(u8x8, arg_int );	/* uc1601 has range from 0 to 255 */
 274:..\..\..\..\..\..\Dev\Library embedded l2c display\u8g2\csrc/u8x8_d_uc1601.c ****       u8x8_cad_EndTransfer(u8x8);
 275:..\..\..\..\..\..\Dev\Library embedded l2c display\u8g2\csrc/u8x8_d_uc1601.c ****       break;
 276:..\..\..\..\..\..\Dev\Library embedded l2c display\u8g2\csrc/u8x8_d_uc1601.c **** #endif
 277:..\..\..\..\..\..\Dev\Library embedded l2c display\u8g2\csrc/u8x8_d_uc1601.c ****     case U8X8_MSG_DISPLAY_DRAW_TILE:
 278:..\..\..\..\..\..\Dev\Library embedded l2c display\u8g2\csrc/u8x8_d_uc1601.c ****       u8x8_cad_StartTransfer(u8x8);
 279:..\..\..\..\..\..\Dev\Library embedded l2c display\u8g2\csrc/u8x8_d_uc1601.c ****     
 280:..\..\..\..\..\..\Dev\Library embedded l2c display\u8g2\csrc/u8x8_d_uc1601.c ****       x = ((u8x8_tile_t *)arg_ptr)->x_pos;
 281:..\..\..\..\..\..\Dev\Library embedded l2c display\u8g2\csrc/u8x8_d_uc1601.c ****       x *= 8;
 282:..\..\..\..\..\..\Dev\Library embedded l2c display\u8g2\csrc/u8x8_d_uc1601.c ****       x += u8x8->x_offset;
 283:..\..\..\..\..\..\Dev\Library embedded l2c display\u8g2\csrc/u8x8_d_uc1601.c ****       u8x8_cad_SendCmd(u8x8, 0x010 | (x>>4) );
 284:..\..\..\..\..\..\Dev\Library embedded l2c display\u8g2\csrc/u8x8_d_uc1601.c ****       u8x8_cad_SendCmd(u8x8, 0x000 | ((x&15)));
 285:..\..\..\..\..\..\Dev\Library embedded l2c display\u8g2\csrc/u8x8_d_uc1601.c ****       u8x8_cad_SendCmd(u8x8, 0x0b0 | (((u8x8_tile_t *)arg_ptr)->y_pos));
 286:..\..\..\..\..\..\Dev\Library embedded l2c display\u8g2\csrc/u8x8_d_uc1601.c ****     
 287:..\..\..\..\..\..\Dev\Library embedded l2c display\u8g2\csrc/u8x8_d_uc1601.c ****       c = ((u8x8_tile_t *)arg_ptr)->cnt;
 288:..\..\..\..\..\..\Dev\Library embedded l2c display\u8g2\csrc/u8x8_d_uc1601.c ****       c *= 8;
 289:..\..\..\..\..\..\Dev\Library embedded l2c display\u8g2\csrc/u8x8_d_uc1601.c ****       ptr = ((u8x8_tile_t *)arg_ptr)->tile_ptr;
 290:..\..\..\..\..\..\Dev\Library embedded l2c display\u8g2\csrc/u8x8_d_uc1601.c ****       do
 291:..\..\..\..\..\..\Dev\Library embedded l2c display\u8g2\csrc/u8x8_d_uc1601.c ****       {
 292:..\..\..\..\..\..\Dev\Library embedded l2c display\u8g2\csrc/u8x8_d_uc1601.c **** 	u8x8_cad_SendData(u8x8, c, ptr);	/* note: SendData can not handle more than 255 bytes */
 293:..\..\..\..\..\..\Dev\Library embedded l2c display\u8g2\csrc/u8x8_d_uc1601.c **** 	arg_int--;
 294:..\..\..\..\..\..\Dev\Library embedded l2c display\u8g2\csrc/u8x8_d_uc1601.c ****       } while( arg_int > 0 );
 295:..\..\..\..\..\..\Dev\Library embedded l2c display\u8g2\csrc/u8x8_d_uc1601.c ****       
 296:..\..\..\..\..\..\Dev\Library embedded l2c display\u8g2\csrc/u8x8_d_uc1601.c ****       u8x8_cad_EndTransfer(u8x8);
 297:..\..\..\..\..\..\Dev\Library embedded l2c display\u8g2\csrc/u8x8_d_uc1601.c ****       break;
 298:..\..\..\..\..\..\Dev\Library embedded l2c display\u8g2\csrc/u8x8_d_uc1601.c ****     default:
 299:..\..\..\..\..\..\Dev\Library embedded l2c display\u8g2\csrc/u8x8_d_uc1601.c ****       return 0;
 300:..\..\..\..\..\..\Dev\Library embedded l2c display\u8g2\csrc/u8x8_d_uc1601.c ****   }
 301:..\..\..\..\..\..\Dev\Library embedded l2c display\u8g2\csrc/u8x8_d_uc1601.c ****   return 1;
 287              		.loc 1 301 0
 288 0020 0120     		movs	r0, #1
 246:..\..\..\..\..\..\Dev\Library embedded l2c display\u8g2\csrc/u8x8_d_uc1601.c ****       break;
 289              		.loc 1 246 0
 290 0022 F8BD     		pop	{r3, r4, r5, r6, r7, pc}
 291              	.LVL44:
 292              	.L21:
ARM GAS  C:\Users\Abude\AppData\Local\Temp\cc8JZqu2.s 			page 12


 248:..\..\..\..\..\..\Dev\Library embedded l2c display\u8g2\csrc/u8x8_d_uc1601.c ****       u8x8_cad_SendSequence(u8x8, u8x8_d_uc1601_128x64_init_seq);
 293              		.loc 1 248 0
 294 0024 FFF7FEFF 		bl	u8x8_d_helper_display_init
 295              	.LVL45:
 249:..\..\..\..\..\..\Dev\Library embedded l2c display\u8g2\csrc/u8x8_d_uc1601.c ****       break;
 296              		.loc 1 249 0
 297 0028 3149     		ldr	r1, .L31+4
 298 002a 2846     		mov	r0, r5
 299 002c FFF7FEFF 		bl	u8x8_cad_SendSequence
 300              	.LVL46:
 301              		.loc 1 301 0
 302 0030 0120     		movs	r0, #1
 250:..\..\..\..\..\..\Dev\Library embedded l2c display\u8g2\csrc/u8x8_d_uc1601.c ****     case U8X8_MSG_DISPLAY_SET_POWER_SAVE:
 303              		.loc 1 250 0
 304 0032 F8BD     		pop	{r3, r4, r5, r6, r7, pc}
 305              	.LVL47:
 306              	.L22:
 252:..\..\..\..\..\..\Dev\Library embedded l2c display\u8g2\csrc/u8x8_d_uc1601.c **** 	u8x8_cad_SendSequence(u8x8, u8x8_d_uc1601_128x32_powersave0_seq);
 307              		.loc 1 252 0
 308 0034 22B9     		cbnz	r2, .L26
 253:..\..\..\..\..\..\Dev\Library embedded l2c display\u8g2\csrc/u8x8_d_uc1601.c ****       else
 309              		.loc 1 253 0
 310 0036 2F49     		ldr	r1, .L31+8
 311 0038 FFF7FEFF 		bl	u8x8_cad_SendSequence
 312              	.LVL48:
 313              		.loc 1 301 0
 314 003c 0120     		movs	r0, #1
 315 003e F8BD     		pop	{r3, r4, r5, r6, r7, pc}
 316              	.LVL49:
 317              	.L26:
 255:..\..\..\..\..\..\Dev\Library embedded l2c display\u8g2\csrc/u8x8_d_uc1601.c ****       break;
 318              		.loc 1 255 0
 319 0040 2D49     		ldr	r1, .L31+12
 320 0042 FFF7FEFF 		bl	u8x8_cad_SendSequence
 321              	.LVL50:
 322              		.loc 1 301 0
 323 0046 0120     		movs	r0, #1
 324 0048 F8BD     		pop	{r3, r4, r5, r6, r7, pc}
 325              	.LVL51:
 326              	.L23:
 258:..\..\..\..\..\..\Dev\Library embedded l2c display\u8g2\csrc/u8x8_d_uc1601.c ****       {
 327              		.loc 1 258 0
 328 004a 42B9     		cbnz	r2, .L27
 260:..\..\..\..\..\..\Dev\Library embedded l2c display\u8g2\csrc/u8x8_d_uc1601.c **** 	u8x8->x_offset = u8x8->display_info->default_x_offset;
 329              		.loc 1 260 0
 330 004c 2B49     		ldr	r1, .L31+16
 331 004e FFF7FEFF 		bl	u8x8_cad_SendSequence
 332              	.LVL52:
 261:..\..\..\..\..\..\Dev\Library embedded l2c display\u8g2\csrc/u8x8_d_uc1601.c ****       }
 333              		.loc 1 261 0
 334 0052 2B68     		ldr	r3, [r5]
 335 0054 9B7C     		ldrb	r3, [r3, #18]	@ zero_extendqisi2
 336 0056 85F82230 		strb	r3, [r5, #34]
 337              		.loc 1 301 0
 338 005a 0120     		movs	r0, #1
 339 005c F8BD     		pop	{r3, r4, r5, r6, r7, pc}
 340              	.LVL53:
ARM GAS  C:\Users\Abude\AppData\Local\Temp\cc8JZqu2.s 			page 13


 341              	.L27:
 265:..\..\..\..\..\..\Dev\Library embedded l2c display\u8g2\csrc/u8x8_d_uc1601.c **** 	u8x8->x_offset = u8x8->display_info->flipmode_x_offset;
 342              		.loc 1 265 0
 343 005e 2849     		ldr	r1, .L31+20
 344 0060 FFF7FEFF 		bl	u8x8_cad_SendSequence
 345              	.LVL54:
 266:..\..\..\..\..\..\Dev\Library embedded l2c display\u8g2\csrc/u8x8_d_uc1601.c ****       }	
 346              		.loc 1 266 0
 347 0064 2B68     		ldr	r3, [r5]
 348 0066 DB7C     		ldrb	r3, [r3, #19]	@ zero_extendqisi2
 349 0068 85F82230 		strb	r3, [r5, #34]
 350              		.loc 1 301 0
 351 006c 0120     		movs	r0, #1
 352 006e F8BD     		pop	{r3, r4, r5, r6, r7, pc}
 353              	.LVL55:
 354              	.L24:
 271:..\..\..\..\..\..\Dev\Library embedded l2c display\u8g2\csrc/u8x8_d_uc1601.c ****       u8x8_cad_SendCmd(u8x8, 0x081 );
 355              		.loc 1 271 0
 356 0070 FFF7FEFF 		bl	u8x8_cad_StartTransfer
 357              	.LVL56:
 272:..\..\..\..\..\..\Dev\Library embedded l2c display\u8g2\csrc/u8x8_d_uc1601.c ****       u8x8_cad_SendArg(u8x8, arg_int );	/* uc1601 has range from 0 to 255 */
 358              		.loc 1 272 0
 359 0074 8121     		movs	r1, #129
 360 0076 2846     		mov	r0, r5
 361 0078 FFF7FEFF 		bl	u8x8_cad_SendCmd
 362              	.LVL57:
 273:..\..\..\..\..\..\Dev\Library embedded l2c display\u8g2\csrc/u8x8_d_uc1601.c ****       u8x8_cad_EndTransfer(u8x8);
 363              		.loc 1 273 0
 364 007c 2146     		mov	r1, r4
 365 007e 2846     		mov	r0, r5
 366 0080 FFF7FEFF 		bl	u8x8_cad_SendArg
 367              	.LVL58:
 274:..\..\..\..\..\..\Dev\Library embedded l2c display\u8g2\csrc/u8x8_d_uc1601.c ****       break;
 368              		.loc 1 274 0
 369 0084 2846     		mov	r0, r5
 370 0086 FFF7FEFF 		bl	u8x8_cad_EndTransfer
 371              	.LVL59:
 372              		.loc 1 301 0
 373 008a 0120     		movs	r0, #1
 275:..\..\..\..\..\..\Dev\Library embedded l2c display\u8g2\csrc/u8x8_d_uc1601.c **** #endif
 374              		.loc 1 275 0
 375 008c F8BD     		pop	{r3, r4, r5, r6, r7, pc}
 376              	.LVL60:
 377              	.L25:
 278:..\..\..\..\..\..\Dev\Library embedded l2c display\u8g2\csrc/u8x8_d_uc1601.c ****     
 378              		.loc 1 278 0
 379 008e FFF7FEFF 		bl	u8x8_cad_StartTransfer
 380              	.LVL61:
 280:..\..\..\..\..\..\Dev\Library embedded l2c display\u8g2\csrc/u8x8_d_uc1601.c ****       x *= 8;
 381              		.loc 1 280 0
 382 0092 7E79     		ldrb	r6, [r7, #5]	@ zero_extendqisi2
 383              	.LVL62:
 281:..\..\..\..\..\..\Dev\Library embedded l2c display\u8g2\csrc/u8x8_d_uc1601.c ****       x += u8x8->x_offset;
 384              		.loc 1 281 0
 385 0094 F600     		lsls	r6, r6, #3
 386              	.LVL63:
 387 0096 F6B2     		uxtb	r6, r6
ARM GAS  C:\Users\Abude\AppData\Local\Temp\cc8JZqu2.s 			page 14


 388              	.LVL64:
 282:..\..\..\..\..\..\Dev\Library embedded l2c display\u8g2\csrc/u8x8_d_uc1601.c ****       u8x8_cad_SendCmd(u8x8, 0x010 | (x>>4) );
 389              		.loc 1 282 0
 390 0098 95F82230 		ldrb	r3, [r5, #34]	@ zero_extendqisi2
 391 009c 1E44     		add	r6, r6, r3
 392              	.LVL65:
 393 009e F6B2     		uxtb	r6, r6
 394              	.LVL66:
 283:..\..\..\..\..\..\Dev\Library embedded l2c display\u8g2\csrc/u8x8_d_uc1601.c ****       u8x8_cad_SendCmd(u8x8, 0x000 | ((x&15)));
 395              		.loc 1 283 0
 396 00a0 3109     		lsrs	r1, r6, #4
 397 00a2 41F01001 		orr	r1, r1, #16
 398 00a6 2846     		mov	r0, r5
 399 00a8 FFF7FEFF 		bl	u8x8_cad_SendCmd
 400              	.LVL67:
 284:..\..\..\..\..\..\Dev\Library embedded l2c display\u8g2\csrc/u8x8_d_uc1601.c ****       u8x8_cad_SendCmd(u8x8, 0x0b0 | (((u8x8_tile_t *)arg_ptr)->y_pos));
 401              		.loc 1 284 0
 402 00ac 06F00F01 		and	r1, r6, #15
 403 00b0 2846     		mov	r0, r5
 404 00b2 FFF7FEFF 		bl	u8x8_cad_SendCmd
 405              	.LVL68:
 285:..\..\..\..\..\..\Dev\Library embedded l2c display\u8g2\csrc/u8x8_d_uc1601.c ****     
 406              		.loc 1 285 0
 407 00b6 B979     		ldrb	r1, [r7, #6]	@ zero_extendqisi2
 408 00b8 41F0B001 		orr	r1, r1, #176
 409 00bc 2846     		mov	r0, r5
 410 00be FFF7FEFF 		bl	u8x8_cad_SendCmd
 411              	.LVL69:
 287:..\..\..\..\..\..\Dev\Library embedded l2c display\u8g2\csrc/u8x8_d_uc1601.c ****       c *= 8;
 412              		.loc 1 287 0
 413 00c2 3E79     		ldrb	r6, [r7, #4]	@ zero_extendqisi2
 414              	.LVL70:
 288:..\..\..\..\..\..\Dev\Library embedded l2c display\u8g2\csrc/u8x8_d_uc1601.c ****       ptr = ((u8x8_tile_t *)arg_ptr)->tile_ptr;
 415              		.loc 1 288 0
 416 00c4 F600     		lsls	r6, r6, #3
 417              	.LVL71:
 418 00c6 F6B2     		uxtb	r6, r6
 419              	.LVL72:
 289:..\..\..\..\..\..\Dev\Library embedded l2c display\u8g2\csrc/u8x8_d_uc1601.c ****       do
 420              		.loc 1 289 0
 421 00c8 3F68     		ldr	r7, [r7]
 422              	.LVL73:
 423              	.L28:
 292:..\..\..\..\..\..\Dev\Library embedded l2c display\u8g2\csrc/u8x8_d_uc1601.c **** 	arg_int--;
 424              		.loc 1 292 0 discriminator 1
 425 00ca 3A46     		mov	r2, r7
 426 00cc 3146     		mov	r1, r6
 427 00ce 2846     		mov	r0, r5
 428 00d0 FFF7FEFF 		bl	u8x8_cad_SendData
 429              	.LVL74:
 293:..\..\..\..\..\..\Dev\Library embedded l2c display\u8g2\csrc/u8x8_d_uc1601.c ****       } while( arg_int > 0 );
 430              		.loc 1 293 0 discriminator 1
 431 00d4 621E     		subs	r2, r4, #1
 432              	.LVL75:
 294:..\..\..\..\..\..\Dev\Library embedded l2c display\u8g2\csrc/u8x8_d_uc1601.c ****       
 433              		.loc 1 294 0 discriminator 1
 434 00d6 12F0FF04 		ands	r4, r2, #255
ARM GAS  C:\Users\Abude\AppData\Local\Temp\cc8JZqu2.s 			page 15


 435 00da F6D1     		bne	.L28
 296:..\..\..\..\..\..\Dev\Library embedded l2c display\u8g2\csrc/u8x8_d_uc1601.c ****       break;
 436              		.loc 1 296 0
 437 00dc 2846     		mov	r0, r5
 438 00de FFF7FEFF 		bl	u8x8_cad_EndTransfer
 439              	.LVL76:
 440              		.loc 1 301 0
 441 00e2 0120     		movs	r0, #1
 297:..\..\..\..\..\..\Dev\Library embedded l2c display\u8g2\csrc/u8x8_d_uc1601.c ****     default:
 442              		.loc 1 297 0
 443 00e4 F8BD     		pop	{r3, r4, r5, r6, r7, pc}
 444              	.LVL77:
 445              	.L29:
 299:..\..\..\..\..\..\Dev\Library embedded l2c display\u8g2\csrc/u8x8_d_uc1601.c ****   }
 446              		.loc 1 299 0
 447 00e6 0020     		movs	r0, #0
 448              	.LVL78:
 302:..\..\..\..\..\..\Dev\Library embedded l2c display\u8g2\csrc/u8x8_d_uc1601.c **** }
 449              		.loc 1 302 0
 450 00e8 F8BD     		pop	{r3, r4, r5, r6, r7, pc}
 451              	.LVL79:
 452              	.L32:
 453 00ea 00BF     		.align	2
 454              	.L31:
 455 00ec 54000000 		.word	.LANCHOR0+84
 456 00f0 6C000000 		.word	.LANCHOR0+108
 457 00f4 34000000 		.word	.LANCHOR0+52
 458 00f8 3C000000 		.word	.LANCHOR0+60
 459 00fc 44000000 		.word	.LANCHOR0+68
 460 0100 4C000000 		.word	.LANCHOR0+76
 461              		.cfi_endproc
 462              	.LFE1:
 463              		.size	u8x8_d_uc1601_128x64, .-u8x8_d_uc1601_128x64
 464              		.section	.rodata
 465              		.align	2
 466              		.set	.LANCHOR0,. + 0
 467              		.type	u8x8_uc1601_128x32_display_info, %object
 468              		.size	u8x8_uc1601_128x32_display_info, 24
 469              	u8x8_uc1601_128x32_display_info:
 470 0000 00       		.byte	0
 471 0001 01       		.byte	1
 472 0002 01       		.byte	1
 473 0003 05       		.byte	5
 474 0004 01       		.byte	1
 475 0005 06       		.byte	6
 476 0006 0C       		.byte	12
 477 0007 0F       		.byte	15
 478 0008 80841E00 		.word	2000000
 479 000c 00       		.byte	0
 480 000d 01       		.byte	1
 481 000e 3C       		.byte	60
 482 000f 50       		.byte	80
 483 0010 10       		.byte	16
 484 0011 04       		.byte	4
 485 0012 00       		.byte	0
 486 0013 04       		.byte	4
 487 0014 8000     		.short	128
ARM GAS  C:\Users\Abude\AppData\Local\Temp\cc8JZqu2.s 			page 16


 488 0016 2000     		.short	32
 489              		.type	u8x8_d_uc1601_128x32_init_seq, %object
 490              		.size	u8x8_d_uc1601_128x32_init_seq, 25
 491              	u8x8_d_uc1601_128x32_init_seq:
 492 0018 18       		.byte	24
 493 0019 15       		.byte	21
 494 001a E2       		.byte	-30
 495 001b 15       		.byte	21
 496 001c EB       		.byte	-21
 497 001d 15       		.byte	21
 498 001e 24       		.byte	36
 499 001f 15       		.byte	21
 500 0020 89       		.byte	-119
 501 0021 15       		.byte	21
 502 0022 C4       		.byte	-60
 503 0023 15       		.byte	21
 504 0024 A0       		.byte	-96
 505 0025 15       		.byte	21
 506 0026 81       		.byte	-127
 507 0027 16       		.byte	22
 508 0028 DF       		.byte	-33
 509 0029 15       		.byte	21
 510 002a 2E       		.byte	46
 511 002b 15       		.byte	21
 512 002c 60       		.byte	96
 513 002d 15       		.byte	21
 514 002e A6       		.byte	-90
 515 002f 19       		.byte	25
 516 0030 FF       		.byte	-1
 517 0031 000000   		.space	3
 518              		.type	u8x8_d_uc1601_128x32_powersave0_seq, %object
 519              		.size	u8x8_d_uc1601_128x32_powersave0_seq, 5
 520              	u8x8_d_uc1601_128x32_powersave0_seq:
 521 0034 18       		.byte	24
 522 0035 15       		.byte	21
 523 0036 AF       		.byte	-81
 524 0037 19       		.byte	25
 525 0038 FF       		.byte	-1
 526 0039 000000   		.space	3
 527              		.type	u8x8_d_uc1601_128x32_powersave1_seq, %object
 528              		.size	u8x8_d_uc1601_128x32_powersave1_seq, 5
 529              	u8x8_d_uc1601_128x32_powersave1_seq:
 530 003c 18       		.byte	24
 531 003d 15       		.byte	21
 532 003e AE       		.byte	-82
 533 003f 19       		.byte	25
 534 0040 FF       		.byte	-1
 535 0041 000000   		.space	3
 536              		.type	u8x8_d_uc1601_128x32_flip0_seq, %object
 537              		.size	u8x8_d_uc1601_128x32_flip0_seq, 7
 538              	u8x8_d_uc1601_128x32_flip0_seq:
 539 0044 18       		.byte	24
 540 0045 15       		.byte	21
 541 0046 C4       		.byte	-60
 542 0047 15       		.byte	21
 543 0048 60       		.byte	96
 544 0049 19       		.byte	25
ARM GAS  C:\Users\Abude\AppData\Local\Temp\cc8JZqu2.s 			page 17


 545 004a FF       		.byte	-1
 546 004b 00       		.space	1
 547              		.type	u8x8_d_uc1601_128x32_flip1_seq, %object
 548              		.size	u8x8_d_uc1601_128x32_flip1_seq, 7
 549              	u8x8_d_uc1601_128x32_flip1_seq:
 550 004c 18       		.byte	24
 551 004d 15       		.byte	21
 552 004e C2       		.byte	-62
 553 004f 15       		.byte	21
 554 0050 40       		.byte	64
 555 0051 19       		.byte	25
 556 0052 FF       		.byte	-1
 557 0053 00       		.space	1
 558              		.type	u8x8_uc1601_128x64_display_info, %object
 559              		.size	u8x8_uc1601_128x64_display_info, 24
 560              	u8x8_uc1601_128x64_display_info:
 561 0054 00       		.byte	0
 562 0055 01       		.byte	1
 563 0056 01       		.byte	1
 564 0057 05       		.byte	5
 565 0058 01       		.byte	1
 566 0059 06       		.byte	6
 567 005a 0C       		.byte	12
 568 005b 0F       		.byte	15
 569 005c 80841E00 		.word	2000000
 570 0060 00       		.byte	0
 571 0061 01       		.byte	1
 572 0062 3C       		.byte	60
 573 0063 50       		.byte	80
 574 0064 10       		.byte	16
 575 0065 08       		.byte	8
 576 0066 02       		.byte	2
 577 0067 04       		.byte	4
 578 0068 8000     		.short	128
 579 006a 4000     		.short	64
 580              		.type	u8x8_d_uc1601_128x64_init_seq, %object
 581              		.size	u8x8_d_uc1601_128x64_init_seq, 25
 582              	u8x8_d_uc1601_128x64_init_seq:
 583 006c 18       		.byte	24
 584 006d 15       		.byte	21
 585 006e E2       		.byte	-30
 586 006f 15       		.byte	21
 587 0070 EB       		.byte	-21
 588 0071 15       		.byte	21
 589 0072 24       		.byte	36
 590 0073 15       		.byte	21
 591 0074 89       		.byte	-119
 592 0075 15       		.byte	21
 593 0076 C4       		.byte	-60
 594 0077 15       		.byte	21
 595 0078 A0       		.byte	-96
 596 0079 15       		.byte	21
 597 007a 81       		.byte	-127
 598 007b 16       		.byte	22
 599 007c DF       		.byte	-33
 600 007d 15       		.byte	21
 601 007e 2E       		.byte	46
ARM GAS  C:\Users\Abude\AppData\Local\Temp\cc8JZqu2.s 			page 18


 602 007f 15       		.byte	21
 603 0080 40       		.byte	64
 604 0081 15       		.byte	21
 605 0082 A6       		.byte	-90
 606 0083 19       		.byte	25
 607 0084 FF       		.byte	-1
 608              		.text
 609              	.Letext0:
 610              		.file 2 "c:\\program files (x86)\\cypress\\psoc creator\\4.4\\psoc creator\\import\\gnu\\arm\\5.4.
 611              		.file 3 "c:\\program files (x86)\\cypress\\psoc creator\\4.4\\psoc creator\\import\\gnu\\arm\\5.4.
 612              		.file 4 "c:\\dev\\library embedded l2c display\\u8g2\\csrc\\u8x8.h"